
 Start  Stop   Length Name                   Class
 00010H 004B7H 004A8H AG_TEXT                CODE
 004C0H 0063AH 0017BH DOSENTRY_TEXT          CODE
 00640H 0244CH 01E0DH MANAGER_TEXT           CODE
 02450H 0247DH 0002EH PI_PA_TEXT             CODE
 02480H 025C5H 00146H ERRORMESS_TEXT         CODE
 025D0H 02C3EH 0066FH SIMSCANNER_TEXT        CODE
 02C40H 037C8H 00B89H ILS_ZONEMNGMNT_TEXT    CODE
 037D0H 038EFH 00120H COMMONTYPES_TEXT       CODE
 03900H 052F8H 019F9H SPECCONV_TEXT          CODE
 05300H 059DAH 006DBH FLAGANAL_TEXT          CODE
 059E0H 05D49H 0036AH CZAS_TEXT              CODE
 05D50H 05ECBH 0017CH L_COMMONTYPES_TEXT     CODE
 05ED0H 0724DH 0137EH G_RESULTS_TEXT         CODE
 07250H 0728CH 0003DH G_COMMONTYPES_TEXT     CODE
 07290H 07ED9H 00C4AH TUNE_TEXT              CODE
 07EE0H 08907H 00A28H PI_QCHECK_TEXT         CODE
 08910H 08BB8H 002A9H SCANNERI_TEXT          CODE
 08BC0H 09C55H 01096H THEODOLITREAD_TEXT     CODE
 09C60H 0A313H 006B4H GPSREAD_TEXT           CODE
 0A320H 0B093H 00D74H DGHINI_TEXT            CODE
 0B0A0H 0C237H 01198H G_FILES_TEXT           CODE
 0C240H 0CC72H 00A33H ZOOMINTERFACE_TEXT     CODE
 0CC80H 0CD7DH 000FEH PI_GLOWNY_TEXT         CODE
 0CD80H 0E121H 013A2H G_INSPEKCJA_TEXT       CODE
 0E130H 114E5H 033B6H G_OBLOT_TEXT           CODE
 114F0H 115BCH 000CDH COMMONDATA_TEXT        CODE
 115C0H 1418BH 02BCCH FILES_TEXT             CODE
 14190H 147B4H 00625H G_CP_CONTROLPROC_TEXT  CODE
 147C0H 15D6FH 015B0H POMIAR_TEXT            CODE
 15D80H 19526H 037A7H SCREEN_TEXT            CODE
 19530H 19C72H 00743H PI_ANALIZA_TEXT        CODE
 19C80H 19FA8H 00329H PI_POMIAR_TEXT         CODE
 19FB0H 1A096H 000E7H PI_ARCHDATE_TEXT       CODE
 1A0A0H 1A0F3H 00054H PI_DRUKUJ_TEXT         CODE
 1A100H 1B289H 0118AH L_DATABASE_TEXT        CODE
 1B290H 1E84CH 035BDH PI_REPORT_TEXT         CODE
 1E850H 1EE46H 005F7H SOFTINTHANDLINGMANAGER_TEXT CODE
 1EE50H 1F408H 005B9H STORAGE_TEXT           CODE
 1F410H 200CDH 00CBEH TIMER_TEXT             CODE
 200D0H 20578H 004A9H MESSAGES_TEXT          CODE
 20580H 21A59H 014DAH STDIO_TEXT             CODE
 21A60H 224AAH 00A4BH EVENTSMNG_TEXT         CODE
 224B0H 2471EH 0226FH DATACOLLECT_TEXT       CODE
 24720H 25165H 00A46H FIO_TEXT               CODE
 25170H 25240H 000D1H WORSEBECAUSE_TEXT      CODE
 25250H 26371H 01122H GRAPHICS_TEXT          CODE
 26380H 264A9H 0012AH XMS_TEXT               CODE
 264B0H 264EEH 0003FH XMS_INIT_TEXT          CODE
 264F0H 269AEH 004BFH XMSSERVICE_TEXT        CODE
 269B0H 26B96H 001E7H GRAFTYPES_TEXT         CODE
 26BA0H 280A2H 01503H MMMOUSE_TEXT           CODE
 280B0H 2884BH 0079CH SHORTCUTS_TEXT         CODE
 28850H 28ABDH 0026EH HRD_CLOCK_TEXT         CODE
 28AC0H 29B39H 0107AH DGHINTERFACE_TEXT      CODE
 29B40H 2B223H 016E4H HILEVGRAF_TEXT         CODE
 2B230H 2B450H 00221H GRAFUTIL_TEXT          CODE
 2B460H 2D815H 023B6H G_ODB_TEXT             CODE
 2D820H 2D9BEH 0019FH SCREENCTYPES_TEXT      CODE
 2D9C0H 2E09BH 006DCH MSGBOX_TEXT            CODE
 2E0A0H 2ED77H 00CD8H NAVGPIB_TEXT           CODE
 2ED80H 2F09CH 0031DH DIGIRS_TEXT            CODE
 2F0A0H 2FBBFH 00B20H REALCONVERSIONS_TEXT   CODE
 2FBD0H 2FDB8H 001E9H MATH_TEXT              CODE
 2FDC0H 30546H 00787H FILTR1ST_TEXT          CODE
 30550H 3174DH 011FEH GPS_NOV_TEXT           CODE
 31750H 32048H 008F9H GPS_TRIMBLE_TEXT       CODE
 32050H 33228H 011D9H INI_TEXT               CODE
 33230H 359C6H 02797H ZOOM_TEXT              CODE
 359D0H 3734CH 0197DH GLIST_TEXT             CODE
 37350H 38127H 00DD8H BUTTONS_TEXT           CODE
 38130H 39A8BH 0195CH DIALOG_TEXT            CODE
 39A90H 3A7A6H 00D17H INPLINE_TEXT           CODE
 3A7B0H 3AF7AH 007CBH PI_ZOOMSPECIFIC_TEXT   CODE
 3AF80H 3CBF5H 01C76H OBLOTY_TEXT            CODE
 3CC00H 3D750H 00B51H MAPA_TEXT              CODE
 3D760H 3E985H 01226H POLOZENIE_TEXT         CODE
 3E990H 3EABEH 0012FH SWITCHCNTRL_TEXT       CODE
 3EAC0H 418D5H 02E16H KALIBRACJA_TEXT        CODE
 418E0H 41951H 00072H FCBS_TEXT              CODE
 41960H 426ECH 00D8DH COCPDSP_TEXT           CODE
 426F0H 44E52H 02763H WYKRES_TEXT            CODE
 44E60H 451BAH 0035BH XMSTABLE_TEXT          CODE
 451C0H 457FFH 00640H PI_SCRUTILITY_TEXT     CODE
 45810H 45EF6H 006E7H SLUPEK_TEXT            CODE
 45F00H 46E66H 00F67H G_DISRESULTS_TEXT      CODE
 46E70H 471F9H 0038AH DISRESUTILITIES_TEXT   CODE
 47200H 48433H 01234H PISZEVENTY_TEXT        CODE
 48440H 48DAFH 00970H G_DACQUIZITION_TEXT    CODE
 48DC0H 496C8H 00909H L_COUNT_TEXT           CODE
 496D0H 499DFH 00310H ALTINTERFACE_TEXT      CODE
 499F0H 4E231H 04842H G_PRINT_TEXT           CODE
 4E240H 4F015H 00DD6H GEOARITHMETIC_TEXT     CODE
 4F020H 4F957H 00938H MARKS_TEXT             CODE
 4F960H 4FE2BH 004CCH RAP_UTIL_TEXT          CODE
 4FE30H 518B0H 01A81H PRINT_TEXT             CODE
 518C0H 52D22H 01463H DRAWEPSON_TEXT         CODE
 52D30H 53183H 00454H SEMAFORY_TEXT          CODE
 53190H 53A34H 008A5H DGH_UTILS_TEXT         CODE
 53A40H 560DEH 0269FH ILS_EVALPROCEDURES_TEXT CODE
 560E0H 564F0H 00411H RANDOM_TEXT            CODE
 56500H 566E1H 001E2H M_PGPIB_TEXT           CODE
 566F0H 56BEFH 00500H KL_FGENERATORS_TEXT    CODE
 56C00H 5816FH 01570H L_SLUPEK_TEXT          CODE
 58180H 5AD34H 02BB5H G_CNTPROCEDURES_TEXT   CODE
 5AD40H 5B620H 008E1H PRINTCNTROLL_TEXT      CODE
 5B630H 5B981H 00352H NAVINTERFACE_TEXT      CODE
 5B990H 5C2FFH 00970H ARINC_TEXT             CODE
 5C310H 5C36DH 0005EH RTS87_TEXT             CODE
 5C370H 5C3C9H 0005AH RTS87_INIT_TEXT        CODE
 5C3D0H 5C496H 000C7H RTSError_TEXT          CODE
 5C4A0H 5C4CEH 0002FH RTSError_INIT_TEXT     CODE
 5C4D0H 5CC40H 00771H RTSMain_TEXT           CODE
 5CC50H 5CD02H 000B3H RTSLanguage_TEXT       CODE
 5CD10H 5CD10H 00001H RTSLanguage_INIT_TEXT  CODE
 5CD20H 5CE60H 00141H RTSDevice_TEXT         CODE
 5CE70H 5CE70H 00001H RTSDevice_INIT_TEXT    CODE
 5CE80H 5CF2EH 000AFH RTSPriority_TEXT       CODE
 5CF30H 5CF30H 00001H RTSPriority_INIT_TEXT  CODE
 5CF40H 5D0E7H 001A8H RTSCoroutine_TEXT      CODE
 5D0F0H 5D0F0H 00001H RTSCoroutine_INIT_TEXT CODE
 5D100H 5D348H 00249H RTSInterrupt_TEXT      CODE
 5D350H 5D39CH 0004DH RTSInterrupt_INIT_TEXT CODE
 5D3A0H 5D3A9H 0000AH RTSRealError_TEXT      CODE
 5D3B0H 5D3B0H 00001H RTSRealError_INIT_TEXT CODE
 5D3C0H 5D6C3H 00304H Strings_TEXT           CODE
 5D6D0H 5DD0BH 0063CH NUMBERCONVERSION_TEXT  CODE
 5DD10H 5DD71H 00062H SOUNDS_TEXT            CODE
 5DD80H 5E20CH 0048DH DebugPMD_TEXT          CODE
 5E210H 5E2A8H 00099H DebugPMD_INIT_TEXT     CODE
 5E2B0H 5E36AH 000BBH DEVICES_TEXT           CODE
 5E370H 5E573H 00204H DynMem_TEXT            CODE
 5E580H 5E687H 00108H BlockOps_TEXT          CODE
 5E690H 5E941H 002B2H MOUSE_TEXT             CODE
 5E950H 5EC2EH 002DFH Longs_TEXT             CODE
 5EC30H 5EDF6H 001C7H TERMINAL_TEXT          CODE
 5EE00H 5F1E5H 003E6H TERMBASE_TEXT          CODE
 5F1F0H 5F2F8H 00109H BitByteOps_TEXT        CODE
 5F300H 5F324H 00025H ASCII_TEXT             CODE
 5F330H 5F3CCH 0009DH DISPLAY_TEXT           CODE
 5F3D0H 5F537H 00168H KEYBOARD_TEXT          CODE
 5F540H 5F7F8H 002B9H DOSMEMORY_TEXT         CODE
 5F800H 5FEC3H 006C4H MathLib0_TEXT          CODE
 5FED0H 60263H 00394H MODULE_TABLE_DATA      FAR_DATA
 60270H 60360H 000F1H INIT_FLAG_DATA         FAR_DATA
 60370H 6054DH 001DEH RTSMain_DATA           FAR_DATA
 60550H 60555H 00006H RTS87_DATA             FAR_DATA
 60560H 60563H 00004H RTSCoroutine_DATA      FAR_DATA
 60570H 60C11H 006A2H DebugPMD_DATA          FAR_DATA
 60C20H 60C20H 00000H MathLib0_DATA          FAR_DATA
 60C30H 60C3BH 0000CH AG_DATA                FAR_BSS
 60C40H 60CC7H 00088H DOSENTRY_DATA          FAR_BSS
 60CD0H 60EEDH 0021EH MANAGER_DATA           FAR_BSS
 60EF0H 60EF0H 00001H PI_PA_DATA             FAR_BSS
 60F00H 60F00H 00000H ERRORMESS_DATA         FAR_BSS
 60F10H 60F13H 00004H SIMSCANNER_DATA        FAR_BSS
 60F20H 60F26H 00007H ILS_ZONEMNGMNT_DATA    FAR_BSS
 60F30H 60F30H 00000H COMMONTYPES_DATA       FAR_BSS
 60F40H 60F40H 00000H SPECCONV_DATA          FAR_BSS
 60F50H 60F50H 00000H FLAGANAL_DATA          FAR_BSS
 60F60H 60F73H 00014H CZAS_DATA              FAR_BSS
 60F80H 60F85H 00006H L_COMMONTYPES_DATA     FAR_BSS
 60F90H 6141AH 0048BH G_RESULTS_DATA         FAR_BSS
 61420H 61423H 00004H G_COMMONTYPES_DATA     FAR_BSS
 61430H 614D5H 000A6H TUNE_DATA              FAR_BSS
 614E0H 61527H 00048H PI_QCHECK_DATA         FAR_BSS
 61530H 61586H 00057H SCANNERI_DATA          FAR_BSS
 61590H 615E6H 00057H THEODOLITREAD_DATA     FAR_BSS
 615F0H 61611H 00022H GPSREAD_DATA           FAR_BSS
 61620H 625ADH 00F8EH DGHINI_DATA            FAR_BSS
 625B0H 626F8H 00149H G_FILES_DATA           FAR_BSS
 62700H 6272FH 00030H ZOOMINTERFACE_DATA     FAR_BSS
 62740H 62740H 00000H PI_GLOWNY_DATA         FAR_BSS
 62750H 62766H 00017H G_INSPEKCJA_DATA       FAR_BSS
 62770H 6284BH 000DCH G_OBLOT_DATA           FAR_BSS
 62850H 629A5H 00156H COMMONDATA_DATA        FAR_BSS
 629B0H 62BC8H 00219H FILES_DATA             FAR_BSS
 62BD0H 62BE3H 00014H G_CP_CONTROLPROC_DATA  FAR_BSS
 62BF0H 62C84H 00095H POMIAR_DATA            FAR_BSS
 62C90H 62DBCH 0012DH SCREEN_DATA            FAR_BSS
 62DC0H 62DE0H 00021H PI_ANALIZA_DATA        FAR_BSS
 62DF0H 62DF0H 00000H PI_POMIAR_DATA         FAR_BSS
 62E00H 62E00H 00000H PI_ARCHDATE_DATA       FAR_BSS
 62E10H 62E10H 00000H PI_DRUKUJ_DATA         FAR_BSS
 62E20H 62EB7H 00098H L_DATABASE_DATA        FAR_BSS
 62EC0H 63294H 003D5H PI_REPORT_DATA         FAR_BSS
 632A0H 632A4H 00005H SOFTINTHANDLINGMANAGER_DATA FAR_BSS
 632B0H 632D6H 00027H STORAGE_DATA           FAR_BSS
 632E0H 632F3H 00014H TIMER_DATA             FAR_BSS
 63300H 6330DH 0000EH MESSAGES_DATA          FAR_BSS
 63310H 63310H 00000H STDIO_DATA             FAR_BSS
 63320H 63E6FH 00B50H EVENTSMNG_DATA         FAR_BSS
 63E80H 7202DH 0E1AEH DATACOLLECT_DATA       FAR_BSS
 72030H 72C41H 00C12H FIO_DATA               FAR_BSS
 72C50H 72C50H 00000H WORSEBECAUSE_DATA      FAR_BSS
 72C60H 72D8FH 00130H GRAPHICS_DATA          FAR_BSS
 72DA0H 72DA3H 00004H XMS_DATA               FAR_BSS
 72DB0H 72DB3H 00004H XMSSERVICE_DATA        FAR_BSS
 72DC0H 72DC0H 00000H GRAFTYPES_DATA         FAR_BSS
 72DD0H 731D0H 00401H MMMOUSE_DATA           FAR_BSS
 731E0H 731EDH 0000EH SHORTCUTS_DATA         FAR_BSS
 731F0H 731F0H 00000H HRD_CLOCK_DATA         FAR_BSS
 73200H 73217H 00018H DGHINTERFACE_DATA      FAR_BSS
 73220H 7327CH 0005DH HILEVGRAF_DATA         FAR_BSS
 73280H 732EFH 00070H GRAFUTIL_DATA          FAR_BSS
 73300H 735A3H 002A4H G_ODB_DATA             FAR_BSS
 735B0H 73603H 00054H SCREENCTYPES_DATA      FAR_BSS
 73610H 73625H 00016H MSGBOX_DATA            FAR_BSS
 73630H 739CFH 003A0H NAVGPIB_DATA           FAR_BSS
 739E0H 739E1H 00002H DIGIRS_DATA            FAR_BSS
 739F0H 739F0H 00000H REALCONVERSIONS_DATA   FAR_BSS
 73A00H 73A00H 00000H MATH_DATA              FAR_BSS
 73A10H 73A17H 00008H FILTR1ST_DATA          FAR_BSS
 73A20H 73AA3H 00084H GPS_NOV_DATA           FAR_BSS
 73AB0H 73B21H 00072H GPS_TRIMBLE_DATA       FAR_BSS
 73B30H 78C13H 050E4H INI_DATA               FAR_BSS
 78C20H 79176H 00557H ZOOM_DATA              FAR_BSS
 79180H 79187H 00008H GLIST_DATA             FAR_BSS
 79190H 79198H 00009H BUTTONS_DATA           FAR_BSS
 791A0H 791A7H 00008H DIALOG_DATA            FAR_BSS
 791B0H 791B3H 00004H INPLINE_DATA           FAR_BSS
 791C0H 799BCH 007FDH PI_ZOOMSPECIFIC_DATA   FAR_BSS
 799C0H 79C1EH 0025FH OBLOTY_DATA            FAR_BSS
 79C20H 79C83H 00064H MAPA_DATA              FAR_BSS
 79C90H 79EC4H 00235H POLOZENIE_DATA         FAR_BSS
 79ED0H 79EDDH 0000EH SWITCHCNTRL_DATA       FAR_BSS
 79EE0H 7B2E0H 01401H KALIBRACJA_DATA        FAR_BSS
 7B2F0H 7B32CH 0003DH FCBS_DATA              FAR_BSS
 7B330H 7B357H 00028H COCPDSP_DATA           FAR_BSS
 7B360H 7B360H 00000H WYKRES_DATA            FAR_BSS
 7B370H 7B370H 00000H XMSTABLE_DATA          FAR_BSS
 7B380H 7B38CH 0000DH PI_SCRUTILITY_DATA     FAR_BSS
 7B390H 7B390H 00000H SLUPEK_DATA            FAR_BSS
 7B3A0H 7B3A3H 00004H G_DISRESULTS_DATA      FAR_BSS
 7B3B0H 7B3B0H 00000H DISRESUTILITIES_DATA   FAR_BSS
 7B3C0H 7B3C5H 00006H PISZEVENTY_DATA        FAR_BSS
 7B3D0H 7B3E3H 00014H G_DACQUIZITION_DATA    FAR_BSS
 7B3F0H 7B3F5H 00006H L_COUNT_DATA           FAR_BSS
 7B400H 7B447H 00048H ALTINTERFACE_DATA      FAR_BSS
 7B450H 7B537H 000E8H G_PRINT_DATA           FAR_BSS
 7B540H 7B561H 00022H GEOARITHMETIC_DATA     FAR_BSS
 7B570H 7B570H 00000H MARKS_DATA             FAR_BSS
 7B580H 7B58AH 0000BH RAP_UTIL_DATA          FAR_BSS
 7B590H 7B6A1H 00112H PRINT_DATA             FAR_BSS
 7B6B0H 7BE58H 007A9H DRAWEPSON_DATA         FAR_BSS
 7BE60H 7BEB3H 00054H SEMAFORY_DATA          FAR_BSS
 7BEC0H 7BEF5H 00036H DGH_UTILS_DATA         FAR_BSS
 7BF00H 7BF03H 00004H ILS_EVALPROCEDURES_DATA FAR_BSS
 7BF10H 7BF81H 00072H RANDOM_DATA            FAR_BSS
 7BF90H 7BF90H 00000H M_PGPIB_DATA           FAR_BSS
 7BFA0H 7BFA0H 00000H KL_FGENERATORS_DATA    FAR_BSS
 7BFB0H 7C193H 001E4H L_SLUPEK_DATA          FAR_BSS
 7C1A0H 7D751H 015B2H G_CNTPROCEDURES_DATA   FAR_BSS
 7D760H 7D774H 00015H PRINTCNTROLL_DATA      FAR_BSS
 7D780H 7D786H 00007H NAVINTERFACE_DATA      FAR_BSS
 7D790H 7D793H 00004H ARINC_DATA             FAR_BSS
 7D7A0H 7D7A0H 00000H NUMBERCONVERSION_DATA  FAR_BSS
 7D7B0H 7D7B0H 00000H SOUNDS_DATA            FAR_BSS
 7D7C0H 7D7C0H 00000H DEVICES_DATA           FAR_BSS
 7D7D0H 7D7DEH 0000FH MOUSE_DATA             FAR_BSS
 7D7E0H 7D7E1H 00002H TERMINAL_DATA          FAR_BSS
 7D7F0H 7D882H 00093H TERMBASE_DATA          FAR_BSS
 7D890H 7D890H 00000H ASCII_DATA             FAR_BSS
 7D8A0H 7D8A0H 00000H DISPLAY_DATA           FAR_BSS
 7D8B0H 7D937H 00088H KEYBOARD_DATA          FAR_BSS
 7D940H 7D940H 00000H DOSMEMORY_DATA         FAR_BSS
 7D950H 813E7H 03A98H STACK                  STACK
 813F0H 813F0H 00000H FREE                   FREE_BSS

 Origin   Group
 60C3:0   DGROUP

  Address         Publics by Name

 60C3:0000       $BD__AG
 7D79:0000       $BD__ARINC
 7B40:0000       $BD__AltInterface
 7919:0000       $BD__Buttons
 7B33:0000       $BD__CocpDsp
 6285:0000       $BD__CommonData
 60F3:0000       $BD__CommonTypes
 60F6:0000       $BD__Czas
 6162:0000       $BD__DGHIni
 7320:0000       $BD__DGHInterface
 7BEC:0000       $BD__DGH_utils
 60C4:0000       $BD__DOSEntry
 63E8:0000       $BD__DataCollect
 791A:0000       $BD__Dialog
 739E:0000       $BD__DigiRS
 7B3B:0000       $BD__DisResUtilities
 7B6B:0000       $BD__DrawEpson
 60F0:0000       $BD__ErrorMess
 6332:0000       $BD__EventsMng
 7B2F:0000       $BD__FCBS
 7203:0000       $BD__FIO
 73A1:0000       $BD__FIltr1St
 629B:0000       $BD__Files
 60F5:0000       $BD__FlagAnal
 7918:0000       $BD__GList
 615F:0000       $BD__GPSRead
 73AB:0000       $BD__GPS_TRIMBLE
 73A2:0000       $BD__GPS_nov
 62BD:0000       $BD__G_CP_ControlProc
 7C1A:0000       $BD__G_CntProcedures
 6142:0000       $BD__G_CommonTypes
 7B3D:0000       $BD__G_DAcquizition
 7B3A:0000       $BD__G_DisResults
 625B:0000       $BD__G_Files
 6275:0000       $BD__G_Inspekcja
 6277:0000       $BD__G_Oblot
 7330:0000       $BD__G_Odb
 7B45:0000       $BD__G_Print
 60F9:0000       $BD__G_results
 7B54:0000       $BD__GeoArithmetic
 72DC:0000       $BD__GrafTypes
 7328:0000       $BD__GrafUtil
 72C6:0000       $BD__Graphics
 731F:0000       $BD__HRD_Clock
 7322:0000       $BD__HiLevGraf
 7BF0:0000       $BD__ILS_EvalProcedures
 60F2:0000       $BD__ILS_ZoneMngmnt
 73B3:0000       $BD__Ini
 791B:0000       $BD__InpLine
 79EE:0000       $BD__Kalibracja
 7BFA:0000       $BD__Kl_FGenerators
 60F8:0000       $BD__L_CommonTypes
 7B3F:0000       $BD__L_Count
 62E2:0000       $BD__L_DataBase
 7BFB:0000       $BD__L_Slupek
 60CD:0000       $BD__MANAGER
 72DD:0000       $BD__MMMouse
 7BF9:0000       $BD__M_PGPIB
 79C2:0000       $BD__Mapa
 7B57:0000       $BD__Marks
 73A0:0000       $BD__Math
 6330:0000       $BD__Messages
 7361:0000       $BD__MsgBox
 7363:0000       $BD__NAVGPIB
 7D78:0000       $BD__NAVInterface
 799C:0000       $BD__Obloty
 62DC:0000       $BD__PI_Analiza
 62E0:0000       $BD__PI_ArchDate
 62E1:0000       $BD__PI_Drukuj
 6274:0000       $BD__PI_Glowny
 60EF:0000       $BD__PI_PA
 62DF:0000       $BD__PI_Pomiar
 614E:0000       $BD__PI_Qcheck
 62EC:0000       $BD__PI_Report
 7B38:0000       $BD__PI_ScrUtility
 791C:0000       $BD__PI_ZoomSpecific
 7B3C:0000       $BD__PiszEventy
 79C9:0000       $BD__Polozenie
 62BF:0000       $BD__Pomiar
 7B59:0000       $BD__Print
 7D76:0000       $BD__PrintCntroll
 6056:0000       $BD__RTSCoroutine
 6037:0000       $BD__RTSMain
 7BF1:0000       $BD__Random
 7B58:0000       $BD__Rap_Util
 739F:0000       $BD__RealConversions
 6153:0000       $BD__ScannerI
 62C9:0000       $BD__Screen
 735B:0000       $BD__ScreenCTypes
 7BE6:0000       $BD__Semafory
 731E:0000       $BD__ShortCuts
 60F1:0000       $BD__SimScanner
 7B39:0000       $BD__Slupek
 632A:0000       $BD__SoftIntHandlingManager
 60F4:0000       $BD__SpecConv
 6331:0000       $BD__StdIO
 632B:0000       $BD__Storage
 79ED:0000       $BD__SwitchCntrl
 6159:0000       $BD__TheodolitRead
 632E:0000       $BD__Timer
 6143:0000       $BD__Tune
 72C5:0000       $BD__WorseBecause
 7B36:0000       $BD__Wykres
 72DA:0000       $BD__XMS
 72DB:0000       $BD__XMSService
 7B37:0000       $BD__XMSTable
 78C2:0000       $BD__Zoom
 6270:0000       $BD__ZoomInterface
 0001:0000       $BM__AG
 5B99:0000       $BM__ARINC
 496D:0000       $BM__AltInterface
 5F1F:0000       $BM__BitByteOps
 5E58:0000       $BM__BlockOps
 3735:0000       $BM__Buttons
 4196:0000       $BM__CocpDsp
 114F:0000       $BM__CommonData
 037D:0000       $BM__CommonTypes
 059E:0000       $BM__Czas
 0A32:0000       $BM__DGHIni
 28AC:0000       $BM__DGHInterface
 5319:0000       $BM__DGH_utils
 004C:0000       $BM__DOSEntry
 224B:0000       $BM__DataCollect
 3813:0000       $BM__Dialog
 2ED8:0000       $BM__DigiRS
 46E7:0000       $BM__DisResUtilities
 518C:0000       $BM__DrawEpson
 5E37:0000       $BM__DynMem
 0248:0000       $BM__ErrorMess
 21A6:0000       $BM__EventsMng
 418E:0000       $BM__FCBS
 2472:0000       $BM__FIO
 2FDC:0000       $BM__FIltr1St
 115C:0000       $BM__Files
 0530:0000       $BM__FlagAnal
 359D:0000       $BM__GList
 09C6:0000       $BM__GPSRead
 3175:0000       $BM__GPS_TRIMBLE
 3055:0000       $BM__GPS_nov
 1419:0000       $BM__G_CP_ControlProc
 5818:0000       $BM__G_CntProcedures
 0725:0000       $BM__G_CommonTypes
 4844:0000       $BM__G_DAcquizition
 45F0:0000       $BM__G_DisResults
 0B0A:0000       $BM__G_Files
 0CD8:0000       $BM__G_Inspekcja
 0E13:0000       $BM__G_Oblot
 2B46:0000       $BM__G_Odb
 499F:0000       $BM__G_Print
 05ED:0000       $BM__G_results
 4E24:0000       $BM__GeoArithmetic
 269B:0000       $BM__GrafTypes
 2B23:0000       $BM__GrafUtil
 2525:0000       $BM__Graphics
 2885:0000       $BM__HRD_Clock
 29B4:0000       $BM__HiLevGraf
 53A4:0000       $BM__ILS_EvalProcedures
 02C4:0000       $BM__ILS_ZoneMngmnt
 3205:0000       $BM__Ini
 39A9:0000       $BM__InpLine
 3EAC:0000       $BM__Kalibracja
 566F:0000       $BM__Kl_FGenerators
 05D5:0000       $BM__L_CommonTypes
 48DC:0000       $BM__L_Count
 1A10:0000       $BM__L_DataBase
 56C0:0000       $BM__L_Slupek
 0064:0000       $BM__MANAGER
 26BA:0000       $BM__MMMouse
 5650:0000       $BM__M_PGPIB
 3CC0:0000       $BM__Mapa
 4F02:0000       $BM__Marks
 2FBD:0000       $BM__Math
 5F80:0000       $BM__MathLib0
 200D:0000       $BM__Messages
 2D9C:0000       $BM__MsgBox
 2E0A:0000       $BM__NAVGPIB
 5B63:0000       $BM__NAVInterface
 3AF8:0000       $BM__Obloty
 1953:0000       $BM__PI_Analiza
 19FB:0000       $BM__PI_ArchDate
 1A0A:0000       $BM__PI_Drukuj
 0CC8:0000       $BM__PI_Glowny
 0245:0000       $BM__PI_PA
 19C8:0000       $BM__PI_Pomiar
 07EE:0000       $BM__PI_Qcheck
 1B29:0000       $BM__PI_Report
 451C:0000       $BM__PI_ScrUtility
 3A7B:0000       $BM__PI_ZoomSpecific
 4720:0000       $BM__PiszEventy
 3D76:0000       $BM__Polozenie
 147C:0000       $BM__Pomiar
 4FE3:0000       $BM__Print
 5AD4:0000       $BM__PrintCntroll
 5CF4:0000       $BM__RTSCoroutine
 5CD2:0000       $BM__RTSDevice
 5C4D:0000       $BM__RTSMain
 560E:0000       $BM__Random
 4F96:0000       $BM__Rap_Util
 2F0A:0000       $BM__RealConversions
 0891:0000       $BM__ScannerI
 15D8:0000       $BM__Screen
 2D82:0000       $BM__ScreenCTypes
 52D3:0000       $BM__Semafory
 280B:0000       $BM__ShortCuts
 025D:0000       $BM__SimScanner
 4581:0000       $BM__Slupek
 1E85:0000       $BM__SoftIntHandlingManager
 0390:0000       $BM__SpecConv
 2058:0000       $BM__StdIO
 1EE5:0000       $BM__Storage
 3E99:0000       $BM__SwitchCntrl
 08BC:0000       $BM__TheodolitRead
 1F41:0000       $BM__Timer
 0729:0000       $BM__Tune
 2517:0000       $BM__WorseBecause
 426F:0000       $BM__Wykres
 2638:0000       $BM__XMS
 264F:0000       $BM__XMSService
 44E6:0000       $BM__XMSTable
 3323:0000       $BM__Zoom
 0C24:0000       $BM__ZoomInterface
 0001:0002       $BODY__AG
 5B99:093D       $BODY__ARINC
 496D:0214       $BODY__AltInterface
 26BA:0B15       $BODY__BezPrzerwanOdMyszy__MMMo
 3735:0D61       $BODY__Buttons
 4196:0C4D       $BODY__CocpDsp
 114F:0012       $BODY__CommonData
 037D:00F4       $BODY__CommonTypes
 059E:02E0       $BODY__Czas
 0A32:0D08       $BODY__DGHIni
 28AC:0F7B       $BODY__DGHInterface
 5319:0734       $BODY__DGH_utils
 004C:00C2       $BODY__DOSEntry
 224B:21DF       $BODY__DataCollect
 3813:18C2       $BODY__Dialog
 2ED8:02D4       $BODY__DigiRS
 46E7:0340       $BODY__DisResUtilities
 518C:138C       $BODY__DrawEpson
 3EAC:09DC       $BODY__ErrorHand__Kalibracja
 0248:00E1       $BODY__ErrorMess
 21A6:09B8       $BODY__EventsMng
 418E:0037       $BODY__FCBS
 2472:09F0       $BODY__FIO
 2FDC:0737       $BODY__FIltr1St
 115C:2B3D       $BODY__Files
 0530:06A0       $BODY__FlagAnal
 359D:18FD       $BODY__GList
 09C6:05FA       $BODY__GPSRead
 3175:084A       $BODY__GPS_TRIMBLE
 3055:10EC       $BODY__GPS_nov
 1419:055E       $BODY__G_CP_ControlProc
 5818:2B43       $BODY__G_CntProcedures
 0725:0002       $BODY__G_CommonTypes
 4844:088C       $BODY__G_DAcquizition
 45F0:0EE9       $BODY__G_DisResults
 0B0A:110F       $BODY__G_Files
 0CD8:12CC       $BODY__G_Inspekcja
 0E13:32A8       $BODY__G_Oblot
 2B46:22C6       $BODY__G_Odb
 499F:478E       $BODY__G_Print
 05ED:0F2E       $BODY__G_results
 4E24:0D90       $BODY__GeoArithmetic
 269B:01C5       $BODY__GrafTypes
 2B23:017A       $BODY__GrafUtil
 2525:10C2       $BODY__Graphics
 2885:0242       $BODY__HRD_Clock
 29B4:1630       $BODY__HiLevGraf
 53A4:264A       $BODY__ILS_EvalProcedures
 02C4:0B3A       $BODY__ILS_ZoneMngmnt
 3205:1139       $BODY__Ini
 39A9:0C9E       $BODY__InpLine
 3EAC:2C81       $BODY__Kalibracja
 566F:04D9       $BODY__Kl_FGenerators
 05D5:0141       $BODY__L_CommonTypes
 48DC:087B       $BODY__L_Count
 1A10:10F3       $BODY__L_DataBase
 56C0:1500       $BODY__L_Slupek
 0064:1B1A       $BODY__MANAGER
 26BA:134F       $BODY__MMMouse
 3735:041B       $BODY__MONITOR__Buttons
 5650:01BB       $BODY__M_PGPIB
 3CC0:0A4F       $BODY__Mapa
 4F02:08FD       $BODY__Marks
 2FBD:01BD       $BODY__Math
 200D:0411       $BODY__Messages
 4844:0133       $BODY__Monitor__G_DAcquizition
 1E85:0590       $BODY__Monitor__SoftIntHandling
 1F41:08D4       $BODY__Monitor__Timer
 1953:04A9       $BODY__MouseMonitor__PI_Analiza
 2D9C:0680       $BODY__MsgBox
 2E0A:0A79       $BODY__NAVGPIB
 5B63:02F2       $BODY__NAVInterface
 3AF8:1B9E       $BODY__Obloty
 1953:06BA       $BODY__PI_Analiza
 19FB:0089       $BODY__PI_ArchDate
 1A0A:000F       $BODY__PI_Drukuj
 0CC8:009B       $BODY__PI_Glowny
 0245:0002       $BODY__PI_PA
 19C8:02AD       $BODY__PI_Pomiar
 07EE:09A9       $BODY__PI_Qcheck
 1B29:34B7       $BODY__PI_Report
 451C:05D8       $BODY__PI_ScrUtility
 3A7B:0768       $BODY__PI_ZoomSpecific
 4720:1199       $BODY__PiszEventy
 3D76:1164       $BODY__Polozenie
 147C:14E0       $BODY__Pomiar
 4FE3:19A5       $BODY__Print
 5AD4:085B       $BODY__PrintCntroll
 5C4D:0743       $BODY__RTSMain
 560E:03DC       $BODY__Random
 4F96:045A       $BODY__Rap_Util
 2F0A:0AF9       $BODY__RealConversions
 0891:014C       $BODY__ScannerI
 0064:1357       $BODY__Scheduler__MANAGER
 15D8:36D9       $BODY__Screen
 2D82:016B       $BODY__ScreenCTypes
 52D3:041D       $BODY__Semafory
 280B:070A       $BODY__ShortCuts
 025D:0602       $BODY__SimScanner
 4581:06A7       $BODY__Slupek
 1E85:05BE       $BODY__SoftIntHandlingManager
 0390:19B9       $BODY__SpecConv
 2058:149F       $BODY__StdIO
 1EE5:0544       $BODY__Storage
 3E99:00D4       $BODY__SwitchCntrl
 08BC:0EE0       $BODY__TheodolitRead
 1F41:0C72       $BODY__Timer
 0729:0A08       $BODY__Tune
 2517:00A5       $BODY__WorseBecause
 426F:270A       $BODY__Wykres
 264F:0450       $BODY__XMSService
 44E6:0325       $BODY__XMSTable
 3323:26F2       $BODY__Zoom
 0C24:098F       $BODY__ZoomInterface
 3CC0:09BA       $BODY__monitor__Mapa
 280B:0532       $BODY__monitor__ShortCuts
 5FED:0000       $DD
 60C3:000C       $ED__AG
 7D79:0004       $ED__ARINC
 7B40:0048       $ED__AltInterface
 7919:0009       $ED__Buttons
 7B33:0028       $ED__CocpDsp
 6285:0156       $ED__CommonData
 60F3:0000       $ED__CommonTypes
 60F6:0014       $ED__Czas
 6162:0F8E       $ED__DGHIni
 7320:0018       $ED__DGHInterface
 7BEC:0036       $ED__DGH_utils
 60C4:0088       $ED__DOSEntry
 63E8:E1AE       $ED__DataCollect
 791A:0008       $ED__Dialog
 739E:0002       $ED__DigiRS
 7B3B:0000       $ED__DisResUtilities
 7B6B:07A9       $ED__DrawEpson
 60F0:0000       $ED__ErrorMess
 6332:0B50       $ED__EventsMng
 7B2F:003D       $ED__FCBS
 7203:0C12       $ED__FIO
 73A1:0008       $ED__FIltr1St
 629B:0219       $ED__Files
 60F5:0000       $ED__FlagAnal
 7918:0008       $ED__GList
 615F:0022       $ED__GPSRead
 73AB:0072       $ED__GPS_TRIMBLE
 73A2:0084       $ED__GPS_nov
 62BD:0014       $ED__G_CP_ControlProc
 7C1A:15B2       $ED__G_CntProcedures
 6142:0004       $ED__G_CommonTypes
 7B3D:0014       $ED__G_DAcquizition
 7B3A:0004       $ED__G_DisResults
 625B:0149       $ED__G_Files
 6275:0017       $ED__G_Inspekcja
 6277:00DC       $ED__G_Oblot
 7330:02A4       $ED__G_Odb
 7B45:00E8       $ED__G_Print
 60F9:048B       $ED__G_results
 7B54:0022       $ED__GeoArithmetic
 72DC:0000       $ED__GrafTypes
 7328:0070       $ED__GrafUtil
 72C6:0130       $ED__Graphics
 731F:0000       $ED__HRD_Clock
 7322:005D       $ED__HiLevGraf
 7BF0:0004       $ED__ILS_EvalProcedures
 60F2:0007       $ED__ILS_ZoneMngmnt
 73B3:50E4       $ED__Ini
 791B:0004       $ED__InpLine
 79EE:1401       $ED__Kalibracja
 7BFA:0000       $ED__Kl_FGenerators
 60F8:0006       $ED__L_CommonTypes
 7B3F:0006       $ED__L_Count
 62E2:0098       $ED__L_DataBase
 7BFB:01E4       $ED__L_Slupek
 60CD:021E       $ED__MANAGER
 72DD:0401       $ED__MMMouse
 7BF9:0000       $ED__M_PGPIB
 79C2:0064       $ED__Mapa
 7B57:0000       $ED__Marks
 73A0:0000       $ED__Math
 6330:000E       $ED__Messages
 7361:0016       $ED__MsgBox
 7363:03A0       $ED__NAVGPIB
 7D78:0007       $ED__NAVInterface
 799C:025F       $ED__Obloty
 62DC:0021       $ED__PI_Analiza
 62E0:0000       $ED__PI_ArchDate
 62E1:0000       $ED__PI_Drukuj
 6274:0000       $ED__PI_Glowny
 60EF:0001       $ED__PI_PA
 62DF:0000       $ED__PI_Pomiar
 614E:0048       $ED__PI_Qcheck
 62EC:03D5       $ED__PI_Report
 7B38:000D       $ED__PI_ScrUtility
 791C:07FD       $ED__PI_ZoomSpecific
 7B3C:0006       $ED__PiszEventy
 79C9:0235       $ED__Polozenie
 62BF:0095       $ED__Pomiar
 7B59:0112       $ED__Print
 7D76:0015       $ED__PrintCntroll
 6056:0003       $ED__RTSCoroutine
 6037:01DD       $ED__RTSMain
 7BF1:0072       $ED__Random
 7B58:000B       $ED__Rap_Util
 739F:0000       $ED__RealConversions
 6153:0057       $ED__ScannerI
 62C9:012D       $ED__Screen
 735B:0054       $ED__ScreenCTypes
 7BE6:0054       $ED__Semafory
 731E:000E       $ED__ShortCuts
 60F1:0004       $ED__SimScanner
 7B39:0000       $ED__Slupek
 632A:0005       $ED__SoftIntHandlingManager
 60F4:0000       $ED__SpecConv
 6331:0000       $ED__StdIO
 632B:0027       $ED__Storage
 79ED:000E       $ED__SwitchCntrl
 6159:0057       $ED__TheodolitRead
 632E:0014       $ED__Timer
 6143:00A6       $ED__Tune
 72C5:0000       $ED__WorseBecause
 7B36:0000       $ED__Wykres
 72DA:0004       $ED__XMS
 72DB:0004       $ED__XMSService
 7B37:0000       $ED__XMSTable
 78C2:0557       $ED__Zoom
 6270:0030       $ED__ZoomInterface
 0001:04A7       $EM__AG
 5B99:096F       $EM__ARINC
 5F30:0024       $EM__ASCII
 496D:030F       $EM__AltInterface
 5F1F:0109       $EM__BitByteOps
 5E58:0108       $EM__BlockOps
 3735:0DD7       $EM__Buttons
 4196:0D8C       $EM__CocpDsp
 114F:00CC       $EM__CommonData
 037D:011F       $EM__CommonTypes
 059E:0369       $EM__Czas
 0A32:0D73       $EM__DGHIni
 28AC:1079       $EM__DGHInterface
 5319:08A4       $EM__DGH_utils
 004C:017A       $EM__DOSEntry
 5F54:02B8       $EM__DOSMemory
 224B:226E       $EM__DataCollect
 5E2B:00BA       $EM__Devices
 3813:195B       $EM__Dialog
 2ED8:031C       $EM__DigiRS
 46E7:0389       $EM__DisResUtilities
 5F33:009C       $EM__Display
 518C:1462       $EM__DrawEpson
 5E37:0204       $EM__DynMem
 0248:0145       $EM__ErrorMess
 21A6:0A4A       $EM__EventsMng
 418E:0071       $EM__FCBS
 2472:0A45       $EM__FIO
 2FDC:0786       $EM__FIltr1St
 115C:2BCB       $EM__Files
 0530:06DA       $EM__FlagAnal
 359D:197C       $EM__GList
 09C6:06B3       $EM__GPSRead
 3175:08F8       $EM__GPS_TRIMBLE
 3055:11FD       $EM__GPS_nov
 1419:0624       $EM__G_CP_ControlProc
 5818:2BB4       $EM__G_CntProcedures
 0725:003C       $EM__G_CommonTypes
 4844:096F       $EM__G_DAcquizition
 45F0:0F66       $EM__G_DisResults
 0B0A:1197       $EM__G_Files
 0CD8:13A1       $EM__G_Inspekcja
 0E13:33B5       $EM__G_Oblot
 2B46:23B5       $EM__G_Odb
 499F:4841       $EM__G_Print
 05ED:137D       $EM__G_results
 4E24:0DD5       $EM__GeoArithmetic
 269B:01E6       $EM__GrafTypes
 2B23:0220       $EM__GrafUtil
 2525:1121       $EM__Graphics
 2885:026D       $EM__HRD_Clock
 29B4:16E3       $EM__HiLevGraf
 53A4:269E       $EM__ILS_EvalProcedures
 02C4:0B88       $EM__ILS_ZoneMngmnt
 3205:11D8       $EM__Ini
 39A9:0D16       $EM__InpLine
 3EAC:2E15       $EM__Kalibracja
 5F3D:0167       $EM__Keyboard
 566F:04FF       $EM__Kl_FGenerators
 05D5:017B       $EM__L_CommonTypes
 48DC:0908       $EM__L_Count
 1A10:1189       $EM__L_DataBase
 56C0:156F       $EM__L_Slupek
 0064:1E0C       $EM__MANAGER
 26BA:1502       $EM__MMMouse
 5650:01E1       $EM__M_PGPIB
 3CC0:0B50       $EM__Mapa
 4F02:0937       $EM__Marks
 2FBD:01E8       $EM__Math
 5F80:06C4       $EM__MathLib0
 200D:04A8       $EM__Messages
 5E69:02B1       $EM__Mouse
 2D9C:06DB       $EM__MsgBox
 2E0A:0CD7       $EM__NAVGPIB
 5B63:0351       $EM__NAVInterface
 5D6D:063B       $EM__NumberConversion
 3AF8:1C75       $EM__Obloty
 1953:0742       $EM__PI_Analiza
 19FB:00E6       $EM__PI_ArchDate
 1A0A:0053       $EM__PI_Drukuj
 0CC8:00FD       $EM__PI_Glowny
 0245:002D       $EM__PI_PA
 19C8:0328       $EM__PI_Pomiar
 07EE:0A27       $EM__PI_Qcheck
 1B29:35BC       $EM__PI_Report
 451C:063F       $EM__PI_ScrUtility
 3A7B:07CA       $EM__PI_ZoomSpecific
 4720:1233       $EM__PiszEventy
 3D76:1225       $EM__Polozenie
 147C:15AF       $EM__Pomiar
 4FE3:1A80       $EM__Print
 5AD4:08E0       $EM__PrintCntroll
 5CF4:01A7       $EM__RTSCoroutine
 5CD2:0140       $EM__RTSDevice
 5C4D:076F       $EM__RTSMain
 560E:0410       $EM__Random
 4F96:04CB       $EM__Rap_Util
 2F0A:0B1F       $EM__RealConversions
 0891:02A8       $EM__ScannerI
 15D8:37A6       $EM__Screen
 2D82:019E       $EM__ScreenCTypes
 52D3:0453       $EM__Semafory
 280B:079B       $EM__ShortCuts
 025D:066E       $EM__SimScanner
 4581:06E6       $EM__Slupek
 1E85:05F6       $EM__SoftIntHandlingManager
 5DD1:0061       $EM__Sounds
 0390:19F8       $EM__SpecConv
 2058:14D9       $EM__StdIO
 1EE5:05B8       $EM__Storage
 3E99:012E       $EM__SwitchCntrl
 5EE0:03E5       $EM__Termbase
 5EC3:01C6       $EM__Terminal
 08BC:1095       $EM__TheodolitRead
 1F41:0CBD       $EM__Timer
 0729:0C49       $EM__Tune
 2517:00D0       $EM__WorseBecause
 426F:2762       $EM__Wykres
 2638:012A       $EM__XMS
 264F:04BE       $EM__XMSService
 44E6:035A       $EM__XMSTable
 3323:2796       $EM__Zoom
 0C24:0A32       $EM__ZoomInterface
 5B99:0954       $INIT__ARINC
 5F30:0009       $INIT__ASCII
 496D:02DB       $INIT__AltInterface
 5F1F:0108       $INIT__BitByteOps
 5E58:0107       $INIT__BlockOps
 3735:0D80       $INIT__Buttons
 4196:0D49       $INIT__CocpDsp
 114F:00A7       $INIT__CommonData
 037D:00FA       $INIT__CommonTypes
 059E:0308       $INIT__Czas
 0A32:0D49       $INIT__DGHIni
 28AC:102C       $INIT__DGHInterface
 5319:084D       $INIT__DGH_utils
 004C:0150       $INIT__DOSEntry
 5F54:0298       $INIT__DOSMemory
 224B:2221       $INIT__DataCollect
 5E21:0000       $INIT__DebugPMD
 5E2B:009A       $INIT__Devices
 3813:18EB       $INIT__Dialog
 2ED8:02F2       $INIT__DigiRS
 46E7:0346       $INIT__DisResUtilities
 5F33:007C       $INIT__Display
 518C:1415       $INIT__DrawEpson
 5E37:0203       $INIT__DynMem
 0248:010C       $INIT__ErrorMess
 21A6:09EE       $INIT__EventsMng
 418E:004C       $INIT__FCBS
 2472:0A16       $INIT__FIO
 2FDC:0757       $INIT__FIltr1St
 115C:2B56       $INIT__Files
 0530:06A6       $INIT__FlagAnal
 359D:1920       $INIT__GList
 09C6:0670       $INIT__GPSRead
 3175:08B5       $INIT__GPS_TRIMBLE
 3055:11A6       $INIT__GPS_nov
 1419:05AA       $INIT__G_CP_ControlProc
 5818:2B49       $INIT__G_CntProcedures
 0725:0008       $INIT__G_CommonTypes
 4844:08AF       $INIT__G_DAcquizition
 45F0:0F00       $INIT__G_DisResults
 0B0A:1118       $INIT__G_Files
 0CD8:12FA       $INIT__G_Inspekcja
 0E13:32D7       $INIT__G_Oblot
 2B46:232C       $INIT__G_Odb
 499F:479F       $INIT__G_Print
 05ED:132B       $INIT__G_results
 4E24:0DA1       $INIT__GeoArithmetic
 269B:01CB       $INIT__GrafTypes
 2B23:01D3       $INIT__GrafUtil
 2525:10F2       $INIT__Graphics
 2885:0248       $INIT__HRD_Clock
 29B4:1678       $INIT__HiLevGraf
 53A4:265B       $INIT__ILS_EvalProcedures
 02C4:0B4A       $INIT__ILS_ZoneMngmnt
 3205:119F       $INIT__Ini
 39A9:0CB5       $INIT__InpLine
 3EAC:2DA5       $INIT__Kalibracja
 5F3D:0142       $INIT__Keyboard
 566F:04DF       $INIT__Kl_FGenerators
 05D5:0147       $INIT__L_CommonTypes
 48DC:0898       $INIT__L_Count
 1A10:111E       $INIT__L_DataBase
 56C0:1509       $INIT__L_Slupek
 5E95:02DE       $INIT__Longs
 0064:1DCE       $INIT__MANAGER
 26BA:14AB       $INIT__MMMouse
 5650:01C1       $INIT__M_PGPIB
 3CC0:0AF4       $INIT__Mapa
 4F02:0903       $INIT__Marks
 2FBD:01C3       $INIT__Math
 5F80:06AF       $INIT__MathLib0
 200D:046A       $INIT__Messages
 5E69:0296       $INIT__Mouse
 2D9C:0689       $INIT__MsgBox
 2E0A:0C8A       $INIT__NAVGPIB
 5B63:0322       $INIT__NAVInterface
 5D6D:0620       $INIT__NumberConversion
 3AF8:1C0F       $INIT__Obloty
 1953:06C3       $INIT__PI_Analiza
 19FB:008F       $INIT__PI_ArchDate
 1A0A:0015       $INIT__PI_Drukuj
 0CC8:00A1       $INIT__PI_Glowny
 0245:0012       $INIT__PI_PA
 19C8:02B3       $INIT__PI_Pomiar
 07EE:09B2       $INIT__PI_Qcheck
 1B29:34D4       $INIT__PI_Report
 451C:05DE       $INIT__PI_ScrUtility
 3A7B:076E       $INIT__PI_ZoomSpecific
 4720:11AA       $INIT__PiszEventy
 3D76:11C4       $INIT__Polozenie
 147C:153F       $INIT__Pomiar
 4FE3:19F2       $INIT__Print
 5AD4:0861       $INIT__PrintCntroll
 5C37:0000       $INIT__RTS87
 5D0F:0000       $INIT__RTSCoroutine
 5CE7:0000       $INIT__RTSDevice
 5C4A:0000       $INIT__RTSError
 5D35:0000       $INIT__RTSInterrupt
 5CD1:0000       $INIT__RTSLanguage
 5C4D:0731       $INIT__RTSMain
 5C4D:0770       $INIT__RTSMonExit
 5CF3:0000       $INIT__RTSPriority
 5D3B:0000       $INIT__RTSRealError
 560E:03E6       $INIT__Random
 4F96:0460       $INIT__Rap_Util
 2F0A:0AFF       $INIT__RealConversions
 0891:0265       $INIT__ScannerI
 15D8:36F5       $INIT__Screen
 2D82:0174       $INIT__ScreenCTypes
 52D3:0433       $INIT__Semafory
 280B:0762       $INIT__ShortCuts
 025D:0608       $INIT__SimScanner
 4581:06AD       $INIT__Slupek
 1E85:05D1       $INIT__SoftIntHandlingManager
 5DD1:0046       $INIT__Sounds
 0390:19BF       $INIT__SpecConv
 2058:14A5       $INIT__StdIO
 1EE5:058E       $INIT__Storage
 5D3C:0303       $INIT__Strings
 3E99:0109       $INIT__SwitchCntrl
 5EE0:03BB       $INIT__Termbase
 5EC3:01A1       $INIT__Terminal
 08BC:1039       $INIT__TheodolitRead
 1F41:0C8E       $INIT__Timer
 0729:0C0B       $INIT__Tune
 2517:00AB       $INIT__WorseBecause
 426F:2710       $INIT__Wykres
 264B:0000       $INIT__XMS
 264F:0485       $INIT__XMSService
 44E6:032B       $INIT__XMSTable
 3323:270D       $INIT__Zoom
 0C24:09BD       $INIT__ZoomInterface
 5FED:0000       $MN__AG
 5FED:037C       $OK__01mar90_1621_OF_ASCII
 5FED:038E       $OK__01mar90_1621_OF_DOSMemory
 5FED:0382       $OK__01mar90_1621_OF_Display
 5FED:0388       $OK__01mar90_1621_OF_Keyboard
 5FED:033A       $OK__01mar90_1621_OF_NumberConv
 5FED:0370       $OK__01mar90_1621_OF_Termbase
 5FED:036A       $OK__01mar90_1621_OF_Terminal
 5FED:034C       $OK__01mar90_1622_OF_Devices
 5FED:035E       $OK__01mar90_1622_OF_Mouse
 5FED:0340       $OK__01mar90_1622_OF_Sounds
 5FED:0364       $OK__05feb87_1233_OF_Longs
 5FED:0304       $OK__10jul87_1400_OF_RTSError
 5FED:032E       $OK__10jul87_1400_OF_RTSRealErr
 5FED:0310       $OK__10jul87_1401_OF_RTSLanguag
 5FED:0328       $OK__10jul87_1402_OF_RTSInterru
 5FED:02FE       $OK__10jul87_1403_OF_RTS87
 5FED:031C       $OK__10jul87_1404_OF_RTSPriorit
 5FED:02F8       $OK__10jul99_1214_OF_ARINC
 5FED:0292       $OK__10jul99_1214_OF_AltInterfa
 5FED:021A       $OK__10jul99_1214_OF_Buttons
 5FED:0256       $OK__10jul99_1214_OF_CocpDsp
 5FED:011E       $OK__10jul99_1214_OF_CommonData
 5FED:00B2       $OK__10jul99_1214_OF_CommonType
 5FED:00C4       $OK__10jul99_1214_OF_Czas
 5FED:00FA       $OK__10jul99_1214_OF_DGHIni
 5FED:01BA       $OK__10jul99_1214_OF_DGHInterfa
 5FED:02C2       $OK__10jul99_1214_OF_DGH_utils
 5FED:008E       $OK__10jul99_1214_OF_DOSEntry
 5FED:0220       $OK__10jul99_1214_OF_Dialog
 5FED:01E4       $OK__10jul99_1214_OF_DigiRS
 5FED:00A0       $OK__10jul99_1214_OF_ErrorMess
 5FED:0250       $OK__10jul99_1214_OF_FCBS
 5FED:018A       $OK__10jul99_1214_OF_FIO
 5FED:01F6       $OK__10jul99_1214_OF_FIltr1St
 5FED:00BE       $OK__10jul99_1214_OF_FlagAnal
 5FED:0214       $OK__10jul99_1214_OF_GList
 5FED:0202       $OK__10jul99_1214_OF_GPS_TRIMBL
 5FED:01FC       $OK__10jul99_1214_OF_GPS_nov
 5FED:01A2       $OK__10jul99_1214_OF_GrafTypes
 5FED:01C6       $OK__10jul99_1214_OF_GrafUtil
 5FED:0196       $OK__10jul99_1214_OF_Graphics
 5FED:01B4       $OK__10jul99_1214_OF_HRD_Clock
 5FED:01C0       $OK__10jul99_1214_OF_HiLevGraf
 5FED:0208       $OK__10jul99_1214_OF_Ini
 5FED:0226       $OK__10jul99_1214_OF_InpLine
 5FED:024A       $OK__10jul99_1214_OF_Kalibracja
 5FED:02DA       $OK__10jul99_1214_OF_Kl_FGenera
 5FED:0094       $OK__10jul99_1214_OF_MANAGER
 5FED:01A8       $OK__10jul99_1214_OF_MMMouse
 5FED:02D4       $OK__10jul99_1214_OF_M_PGPIB
 5FED:01F0       $OK__10jul99_1214_OF_Math
 5FED:0172       $OK__10jul99_1214_OF_Messages
 5FED:01D8       $OK__10jul99_1214_OF_MsgBox
 5FED:01DE       $OK__10jul99_1214_OF_NAVGPIB
 5FED:02F2       $OK__10jul99_1214_OF_NAVInterfa
 5FED:0232       $OK__10jul99_1214_OF_Obloty
 5FED:01EA       $OK__10jul99_1214_OF_RealConver
 5FED:02BC       $OK__10jul99_1214_OF_Semafory
 5FED:01AE       $OK__10jul99_1214_OF_ShortCuts
 5FED:0160       $OK__10jul99_1214_OF_SoftIntHan
 5FED:00B8       $OK__10jul99_1214_OF_SpecConv
 5FED:0178       $OK__10jul99_1214_OF_StdIO
 5FED:0166       $OK__10jul99_1214_OF_Storage
 5FED:0244       $OK__10jul99_1214_OF_SwitchCntr
 5FED:00EE       $OK__10jul99_1214_OF_TheodolitR
 5FED:016C       $OK__10jul99_1214_OF_Timer
 5FED:00DC       $OK__10jul99_1214_OF_Tune
 5FED:0190       $OK__10jul99_1214_OF_WorseBecau
 5FED:025C       $OK__10jul99_1214_OF_Wykres
 5FED:019C       $OK__10jul99_1214_OF_XMSService
 5FED:0262       $OK__10jul99_1214_OF_XMSTable
 5FED:0184       $OK__10jul99_1215_OF_DataCollec
 5FED:027A       $OK__10jul99_1215_OF_DisResUtil
 5FED:02B6       $OK__10jul99_1215_OF_DrawEpson
 5FED:017E       $OK__10jul99_1215_OF_EventsMng
 5FED:0124       $OK__10jul99_1215_OF_Files
 5FED:00F4       $OK__10jul99_1215_OF_GPSRead
 5FED:029E       $OK__10jul99_1215_OF_GeoArithme
 5FED:0238       $OK__10jul99_1215_OF_Mapa
 5FED:02A4       $OK__10jul99_1215_OF_Marks
 5FED:009A       $OK__10jul99_1215_OF_PI_PA
 5FED:0280       $OK__10jul99_1215_OF_PiszEventy
 5FED:023E       $OK__10jul99_1215_OF_Polozenie
 5FED:0130       $OK__10jul99_1215_OF_Pomiar
 5FED:02B0       $OK__10jul99_1215_OF_Print
 5FED:02EC       $OK__10jul99_1215_OF_PrintCntro
 5FED:02CE       $OK__10jul99_1215_OF_Random
 5FED:00E8       $OK__10jul99_1215_OF_ScannerI
 5FED:0136       $OK__10jul99_1215_OF_Screen
 5FED:01D2       $OK__10jul99_1215_OF_ScreenCTyp
 5FED:00A6       $OK__10jul99_1215_OF_SimScanner
 5FED:026E       $OK__10jul99_1215_OF_Slupek
 5FED:020E       $OK__10jul99_1215_OF_Zoom
 5FED:0106       $OK__10jul99_1215_OF_ZoomInterf
 5FED:02C8       $OK__10jul99_1216_OF_ILS_EvalPr
 5FED:00AC       $OK__10jul99_1216_OF_ILS_ZoneMn
 5FED:00CA       $OK__10jul99_1216_OF_L_CommonTy
 5FED:0154       $OK__10jul99_1216_OF_L_DataBase
 5FED:02AA       $OK__10jul99_1216_OF_Rap_Util
 5FED:0000       $OK__10jul99_1217_OF_AG
 5FED:012A       $OK__10jul99_1217_OF_G_CP_Contr
 5FED:02E6       $OK__10jul99_1217_OF_G_CntProce
 5FED:00D6       $OK__10jul99_1217_OF_G_CommonTy
 5FED:0286       $OK__10jul99_1217_OF_G_DAcquizi
 5FED:0274       $OK__10jul99_1217_OF_G_DisResul
 5FED:0100       $OK__10jul99_1217_OF_G_Files
 5FED:0112       $OK__10jul99_1217_OF_G_Inspekcj
 5FED:0118       $OK__10jul99_1217_OF_G_Oblot
 5FED:01CC       $OK__10jul99_1217_OF_G_Odb
 5FED:0298       $OK__10jul99_1217_OF_G_Print
 5FED:00D0       $OK__10jul99_1217_OF_G_results
 5FED:028C       $OK__10jul99_1217_OF_L_Count
 5FED:02E0       $OK__10jul99_1217_OF_L_Slupek
 5FED:013C       $OK__10jul99_1217_OF_PI_Analiza
 5FED:0148       $OK__10jul99_1217_OF_PI_ArchDat
 5FED:014E       $OK__10jul99_1217_OF_PI_Drukuj
 5FED:010C       $OK__10jul99_1217_OF_PI_Glowny
 5FED:0142       $OK__10jul99_1217_OF_PI_Pomiar
 5FED:00E2       $OK__10jul99_1217_OF_PI_Qcheck
 5FED:015A       $OK__10jul99_1217_OF_PI_Report
 5FED:0268       $OK__10jul99_1217_OF_PI_ScrUtil
 5FED:022C       $OK__10jul99_1217_OF_PI_ZoomSpe
 5FED:0322       $OK__15jun87_0924_OF_RTSCorouti
 5FED:0316       $OK__15jun87_0924_OF_RTSDevice
 5FED:0352       $OK__16jun87_1952_OF_DynMem
 5FED:0346       $OK__16jun87_2059_OF_DebugPMD
 5FED:030A       $OK__19aug87_1403_OF_RTSMain
 5FED:0334       $OK__31jul87_1000_OF_Strings
 5FED:0376       $OK__31jul87_1100_OF_BitByteOps
 5FED:0358       $OK__31jul87_1300_OF_BlockOps
 6153:0024       ABOVESL__ScannerI
 79EE:08C0       AGCwartosciProgowD__Kalibracja
 79EE:0870       AGCwartosciProgowM__Kalibracja
 79EE:0800       AGCwartosciProgow__Kalibracja
 7B40:0020       ALT_Conver_TabC__AltInterface
 7B40:0000       ALT_Conver_Tab__AltInterface
 5C31:003E       AT87Server
 791B:0000       Active__InpLine
 5C3D:0014       AddrOvf__RTSError
 7B6B:078E       Adr1__DrawEpson
 7B6B:0792       Adr2__DrawEpson
 79C9:0018       AktKat__Polozenie
 79C9:0010       AktOdleglosc__Polozenie
 6153:0006       AlfaF__ScannerI
 6153:0002       Alfa__ScannerI
 7919:0004       AllEnabled__Buttons
 7330:019E       Az0_Con__G_Odb
 7C1A:01B2       Az0_PB_Con__G_CntProcedures
 7C1A:0102       Az150_G_PB_Con__G_CntProcedures
 7C1A:015A       Az190_D_PB_Con__G_CntProcedures
 7330:00EE       Az75_150_Con__G_Odb
 7330:0146       Az75_90_Con__G_Odb
 7C1A:00AA       Az75_D_PB_Con__G_CntProcedures
 7C1A:0052       Az75_G_PB_Con__G_CntProcedures
 7330:0276       AzOsiAv_Con__G_Odb
 7C1A:0212       AzymAV_Con__G_CntProcedures
 7330:01FE       AzymAV_Con__G_Odb
 6159:0014       Azymut__TheodolitRead
 72C6:000E       BK64Inc__InternalMonitor__Graph
 72C6:000A       BKSizeL__InternalMonitor__Graph
 62BF:005A       B_01__Pomiar
 62BF:005E       B_02__Pomiar
 62BF:0062       B_03__Pomiar
 62BF:0066       B_04__Pomiar
 62BF:006A       B_05__Pomiar
 62DC:000D       B_Abort__MouseMonitor__PI_Anali
 62DC:0009       B_Akceptuj__MouseMonitor__PI_An
 62C9:0056       B_CURSOR__Screen
 62DC:0015       B_DOWN__MouseMonitor__PI_Analiz
 62C9:0066       B_DOWN__Screen
 62DC:0005       B_Drukuj__MouseMonitor__PI_Anal
 62C9:005A       B_LEFT__Screen
 62C9:005E       B_RIGHT__Screen
 62DC:0011       B_UP__MouseMonitor__PI_Analiza
 62C9:0062       B_UP__Screen
 62DC:0019       B_XCHG__MouseMonitor__PI_Analiz
 62C9:0080       BarOnScreen__Dialog__Screen
 7C1A:0398       Bend_con__G_CntProcedures
 73AB:006E       BladKanaluGPS__GPS_TRIMBLE
 73A2:0080       BladKanaluGPS__GPS_nov
 62E2:0094       Blad_podczas_wczytywania_Lotnis
 73B3:0012       BuffP__Ini
 7320:0000       BufferFull__DGHInterface
 7B6B:0004       Bufor__DrawEpson
 73B3:0016       Bufor__Ini
 79C9:0022       Bufor__Polozenie
 7919:0005       ButtonList__MONITOR__Buttons
 60CD:0114       CP__MANAGER
 60F1:0000       CalkowitaLiczbaEventow__SimScan
 799C:0157       CallBackDlaDopasuj__Obloty
 5C3D:001E       CardOvf__RTSError
 5C3D:0000       CaseError__RTSError
 62C9:012C       ChangeKursorMode__Dialog__Scree
 6159:004A       CheckSumIdx__TheodolitRead
 6277:00CB       CisnienieOdn_L__G_Oblot
 6285:014E       CisnienieOdniesienia__CommonDat
 7322:0000       ClipRect__HiLevGraf
 632E:0004       ClockPer__Timer
 7B59:0011       CoKtoraProbka__Print
 7D76:000B       CoKtoraProbka__PrintCntroll
 6270:0009       CoRobic__ZoomInterface
 6277:0000       CoRobimy__G_Oblot
 7B2F:0000       Code__FCBS
 7330:0090       CollectData__G_Odb
 7363:0398       CommCount__NAVGPIB
 79ED:0000       ControlWords__SwitchCntrl
 60CD:021A       Count__MANAGER
 7203:0C08       CriticalErrorRec__FIO
 7918:0000       CurH__GList
 7B6B:0798       CurMode__DrawEpson
 615F:001E       CurrGPSAnalizer__GPSRead
 72DD:02F5       CursorB__BezWyszeregowania__MMM
 72DD:01F4       CursorBuf__BezWyszeregowania__M
 62C9:0076       CursorMode__Dialog__Screen
 62C9:007B       CursorPos__Dialog__Screen
 72DD:0008       CursorShapePtr__MMMouse
 79C9:0211       CzesciOkregu__Polozenie
 6285:00FB       DME__CommonData
 60C4:0084       DOSEmpty__DOSEntry
 60CD:011C       DUMMY__MANAGER
 62EC:0006       Dane__PI_Report
 79EE:13EC       DataOstatniejKalibracji__Kalibr
 72DD:000C       DefaultShape__MMMouse
 7B54:0000       Deklinacja__GeoArithmetic
 799C:019C       DelDir__Obloty
 6153:0016       DeltaDME__ScannerI
 6153:001A       DeltaF__ScannerI
 6153:000E       Delta__ScannerI
 6037:0058       DescInt0__RTSMain
 7C1A:01E2       Dif0_Con__G_CntProcedures
 7330:01CE       Dif0_Con__G_Odb
 7C1A:026E       DifAvTotal_Con__G_CntProcedures
 7330:0262       DifAv_Con__G_Odb
 629B:0004       DirErr__Files
 79C9:020F       Dir__Polozenie
 7330:0291       DisSigma__G_Odb
 63E8:C86E       Div2T__tablice__DataCollect
 63E8:C86A       Div3T__tablice__DataCollect
 5C3D:0046       DivZero__RTSError
 7D7D:0000       DriverInstalled__Mouse
 799C:021E       DstDir__Obloty
 632E:0012       Dumm__Monitor__Timer
 5CC5:0069       DynParCopy__RTSLanguage
 72DD:0063       EVC__BezPrzerwanOdMyszy__MMMous
 72DD:005F       EVF__BezPrzerwanOdMyszy__MMMous
 72DD:0061       EVL__BezPrzerwanOdMyszy__MMMous
 6159:001C       Elewacja__TheodolitRead
 60CD:0012       ErrorHandler__MANAGER
 73B3:0000       ErrorProc__Ini
 60CD:0000       ErrorQueue__MANAGER
 5C4D:0636       Error__RTSMain
 62BF:0050       EtapPolaryzacji__Pomiar
 7B3C:0002       EvPtr__PiszEventy
 7330:0024       EvalVal__G_Odb
 72DD:0065       EventBuff__BezPrzerwanOdMyszy__
 6332:0000       Events__EventsMng
 5C3D:000A       FctRetError__RTSError
 629B:0000       FileErr__Files
 625B:0000       FileErr__G_Files
 625B:0144       FileResCreated__G_Files
 625B:0130       FileRes__G_Files
 625B:0090       FileSig__G_Files
 7203:0008       Files__FIO
 7363:0397       FirstLocal__NAVGPIB
 6270:0004       FirstTime__ZoomInterface
 7B59:000C       Flagi__Print
 72C6:0010       FntTable__Graphics
 791A:0004       FocusChanged__Dialog
 7B6B:079D       FontAdrA__DrawEpson
 7B6B:0799       FontAdrN__DrawEpson
 7B6B:07A1       FontHeight__DrawEpson
 72C6:0000       FontPtr__Graphics
 731E:0007       FreeKey__monitor__ShortCuts
 6153:003B       GPS_A__ScannerI
 6153:0050       GPS_DIFFMODE__ScannerI
 6153:004E       GPS_GDOP__ScannerI
 6153:004B       GPS_OK__ScannerI
 6153:0051       GPS_PREC__ScannerI
 6153:0043       GPS_R__ScannerI
 6153:004C       GPS_SAT__ScannerI
 7B45:00D6       GSG_flg__G_Print
 62BD:0008       GSPilErr__G_CP_ControlProc
 7B45:00D8       GSZ_flg__G_Print
 79EE:0AC0       GS_DEVPuntyKal__Kalibracja
 62E2:0092       GS_El_czuloscCP__L_DataBase
 6143:0050       GSfreqCRT__Tune
 72DB:0000       GarbageList__XMSService
 6277:00A5       GlowOdb__G_Oblot
 6285:0141       GlownyOdbiornik__CommonData
 79EE:0958       GsAgc_delay__Kalibracja
 79EE:0918       GsDev_delay__Kalibracja
 79EE:0928       GsPrcMod_delay__Kalibracja
 72DD:02F4       Hidden__BezWyszeregowania__MMMo
 799C:0116       HomeDirDlaDopasuj__Obloty
 799C:0058       HomeDirNazwaPlikuIni__Obloty
 799C:0048       HomeDir__Obloty
 63E8:C866       IDX2__tablice__DataCollect
 63E8:C862       IDX3__tablice__DataCollect
 5D10:011E       IOTransfer__RTSInterrupt
 60F2:0000       IdentPunktow__ILS_ZoneMngmnt
 63E8:C840       Idx__DataCollect
 7D76:000D       IleStron__PrintCntroll
 7B54:0020       IloscOdniesien__GeoArithmetic
 7D76:000F       IloscProbek__PrintCntroll
 7B3D:0000       ImportantDiv__G_DAcquizition
 5C3D:0028       IntegerOvf__RTSError
 62C9:0079       JakieWykr__Dialog__Screen
 62C9:0077       JakijedenWykres__Dialog__Screen
 62C9:0078       JedenWykres__Dialog__Screen
 7B6B:07A8       JuzNarysowane__DrawEpson
 0000:0000  Abs  KEY__00xxx00_0000_OF_DebugPMD
 0000:0000  Abs  KEY__00xxx00_0000_OF_RTS87
 0000:0000  Abs  KEY__00xxx00_0000_OF_RTSCorouti
 0000:0000  Abs  KEY__00xxx00_0000_OF_RTSError
 0000:0000  Abs  KEY__00xxx00_0000_OF_RTSInterru
 0000:0000  Abs  KEY__00xxx00_0000_OF_RTSLanguag
 0000:0000  Abs  KEY__00xxx00_0000_OF_RTSMain
 0000:0000  Abs  KEY__00xxx00_0000_OF_RTSPriorit
 0000:0000  Abs  KEY__00xxx00_0000_OF_RTSRealErr
 0000:0000  Abs  KEY__05feb87_1233_OF_Longs
 0000:0000  Abs  KEY__10aug87_2030_OF_ASCII
 0000:0000  Abs  KEY__10aug87_2030_OF_BitByteOps
 0000:0000  Abs  KEY__10aug87_2030_OF_BlockOps
 0000:0000  Abs  KEY__10aug87_2031_OF_DOSMemory
 0000:0000  Abs  KEY__10aug87_2031_OF_DebugPMD
 0000:0000  Abs  KEY__10aug87_2031_OF_Devices
 0000:0000  Abs  KEY__10aug87_2031_OF_Display
 0000:0000  Abs  KEY__10aug87_2031_OF_DynMem
 0000:0000  Abs  KEY__10aug87_2031_OF_Keyboard
 0000:0000  Abs  KEY__10aug87_2031_OF_NumberConv
 0000:0000  Abs  KEY__10aug87_2031_OF_RTSDevice
 0000:0000  Abs  KEY__10aug87_2031_OF_Storage
 0000:0000  Abs  KEY__10aug87_2031_OF_Strings
 0000:0000  Abs  KEY__10aug87_2031_OF_Termbase
 0000:0000  Abs  KEY__10aug87_2031_OF_Terminal
 0000:0000  Abs  KEY__10aug87_2032_OF_MathLib0
 0000:0000  Abs  KEY__10aug87_2033_OF_Mouse
 0000:0000  Abs  KEY__10aug87_2033_OF_RTSCorouti
 0000:0000  Abs  KEY__10aug87_2033_OF_Random
 0000:0000  Abs  KEY__10aug87_2033_OF_RealConver
 0000:0000  Abs  KEY__10aug87_2033_OF_Sounds
 0000:0000  Abs  KEY__10jul87_1035_OF_RTSMonExit
 0000:0000  Abs  KEY__10jul99_1214_OF_ARINC
 0000:0000  Abs  KEY__10jul99_1214_OF_AltInterfa
 0000:0000  Abs  KEY__10jul99_1214_OF_Buttons
 0000:0000  Abs  KEY__10jul99_1214_OF_CocpDsp
 0000:0000  Abs  KEY__10jul99_1214_OF_CommonData
 0000:0000  Abs  KEY__10jul99_1214_OF_CommonType
 0000:0000  Abs  KEY__10jul99_1214_OF_Czas
 0000:0000  Abs  KEY__10jul99_1214_OF_DGHIni
 0000:0000  Abs  KEY__10jul99_1214_OF_DGHInterfa
 0000:0000  Abs  KEY__10jul99_1214_OF_DGH_utils
 0000:0000  Abs  KEY__10jul99_1214_OF_DOSEntry
 0000:0000  Abs  KEY__10jul99_1214_OF_DataCollec
 0000:0000  Abs  KEY__10jul99_1214_OF_Dialog
 0000:0000  Abs  KEY__10jul99_1214_OF_DigiRS
 0000:0000  Abs  KEY__10jul99_1214_OF_DisResUtil
 0000:0000  Abs  KEY__10jul99_1214_OF_DrawEpson
 0000:0000  Abs  KEY__10jul99_1214_OF_ErrorMess
 0000:0000  Abs  KEY__10jul99_1214_OF_EventsMng
 0000:0000  Abs  KEY__10jul99_1214_OF_FCBS
 0000:0000  Abs  KEY__10jul99_1214_OF_FIO
 0000:0000  Abs  KEY__10jul99_1214_OF_FIltr1St
 0000:0000  Abs  KEY__10jul99_1214_OF_Files
 0000:0000  Abs  KEY__10jul99_1214_OF_FlagAnal
 0000:0000  Abs  KEY__10jul99_1214_OF_GList
 0000:0000  Abs  KEY__10jul99_1214_OF_GPSRead
 0000:0000  Abs  KEY__10jul99_1214_OF_GPS_TRIMBL
 0000:0000  Abs  KEY__10jul99_1214_OF_GPS_nov
 0000:0000  Abs  KEY__10jul99_1214_OF_GeoArithme
 0000:0000  Abs  KEY__10jul99_1214_OF_GrafTypes
 0000:0000  Abs  KEY__10jul99_1214_OF_GrafUtil
 0000:0000  Abs  KEY__10jul99_1214_OF_Graphics
 0000:0000  Abs  KEY__10jul99_1214_OF_HRD_Clock
 0000:0000  Abs  KEY__10jul99_1214_OF_HiLevGraf
 0000:0000  Abs  KEY__10jul99_1214_OF_Ini
 0000:0000  Abs  KEY__10jul99_1214_OF_InpLine
 0000:0000  Abs  KEY__10jul99_1214_OF_Kalibracja
 0000:0000  Abs  KEY__10jul99_1214_OF_Kl_FGenera
 0000:0000  Abs  KEY__10jul99_1214_OF_MANAGER
 0000:0000  Abs  KEY__10jul99_1214_OF_MMMouse
 0000:0000  Abs  KEY__10jul99_1214_OF_M_PGPIB
 0000:0000  Abs  KEY__10jul99_1214_OF_Mapa
 0000:0000  Abs  KEY__10jul99_1214_OF_Marks
 0000:0000  Abs  KEY__10jul99_1214_OF_Math
 0000:0000  Abs  KEY__10jul99_1214_OF_Messages
 0000:0000  Abs  KEY__10jul99_1214_OF_MsgBox
 0000:0000  Abs  KEY__10jul99_1214_OF_NAVGPIB
 0000:0000  Abs  KEY__10jul99_1214_OF_NAVInterfa
 0000:0000  Abs  KEY__10jul99_1214_OF_Obloty
 0000:0000  Abs  KEY__10jul99_1214_OF_PI_Analiza
 0000:0000  Abs  KEY__10jul99_1214_OF_PI_ArchDat
 0000:0000  Abs  KEY__10jul99_1214_OF_PI_Drukuj
 0000:0000  Abs  KEY__10jul99_1214_OF_PI_Glowny
 0000:0000  Abs  KEY__10jul99_1214_OF_PI_PA
 0000:0000  Abs  KEY__10jul99_1214_OF_PI_Pomiar
 0000:0000  Abs  KEY__10jul99_1214_OF_PI_Qcheck
 0000:0000  Abs  KEY__10jul99_1214_OF_PI_ScrUtil
 0000:0000  Abs  KEY__10jul99_1214_OF_PiszEventy
 0000:0000  Abs  KEY__10jul99_1214_OF_Polozenie
 0000:0000  Abs  KEY__10jul99_1214_OF_Pomiar
 0000:0000  Abs  KEY__10jul99_1214_OF_Print
 0000:0000  Abs  KEY__10jul99_1214_OF_PrintCntro
 0000:0000  Abs  KEY__10jul99_1214_OF_ScannerI
 0000:0000  Abs  KEY__10jul99_1214_OF_Screen
 0000:0000  Abs  KEY__10jul99_1214_OF_ScreenCTyp
 0000:0000  Abs  KEY__10jul99_1214_OF_Semafory
 0000:0000  Abs  KEY__10jul99_1214_OF_ShortCuts
 0000:0000  Abs  KEY__10jul99_1214_OF_Slupek
 0000:0000  Abs  KEY__10jul99_1214_OF_SoftIntHan
 0000:0000  Abs  KEY__10jul99_1214_OF_SpecConv
 0000:0000  Abs  KEY__10jul99_1214_OF_StdIO
 0000:0000  Abs  KEY__10jul99_1214_OF_SwitchCntr
 0000:0000  Abs  KEY__10jul99_1214_OF_TheodolitR
 0000:0000  Abs  KEY__10jul99_1214_OF_Timer
 0000:0000  Abs  KEY__10jul99_1214_OF_Tune
 0000:0000  Abs  KEY__10jul99_1214_OF_WorseBecau
 0000:0000  Abs  KEY__10jul99_1214_OF_Wykres
 0000:0000  Abs  KEY__10jul99_1214_OF_XMSService
 0000:0000  Abs  KEY__10jul99_1214_OF_XMSTable
 0000:0000  Abs  KEY__10jul99_1215_OF_PI_ZoomSpe
 0000:0000  Abs  KEY__10jul99_1215_OF_SimScanner
 0000:0000  Abs  KEY__10jul99_1215_OF_Zoom
 0000:0000  Abs  KEY__10jul99_1215_OF_ZoomInterf
 0000:0000  Abs  KEY__10jul99_1216_OF_ILS_EvalPr
 0000:0000  Abs  KEY__10jul99_1216_OF_ILS_ZoneMn
 0000:0000  Abs  KEY__10jul99_1216_OF_L_CommonTy
 0000:0000  Abs  KEY__10jul99_1216_OF_L_Count
 0000:0000  Abs  KEY__10jul99_1216_OF_L_DataBase
 0000:0000  Abs  KEY__10jul99_1216_OF_L_Slupek
 0000:0000  Abs  KEY__10jul99_1216_OF_PI_Report
 0000:0000  Abs  KEY__10jul99_1216_OF_Rap_Util
 0000:0000  Abs  KEY__10jul99_1217_OF_AG
 0000:0000  Abs  KEY__10jul99_1217_OF_G_CP_Contr
 0000:0000  Abs  KEY__10jul99_1217_OF_G_CntProce
 0000:0000  Abs  KEY__10jul99_1217_OF_G_CommonTy
 0000:0000  Abs  KEY__10jul99_1217_OF_G_DAcquizi
 0000:0000  Abs  KEY__10jul99_1217_OF_G_DisResul
 0000:0000  Abs  KEY__10jul99_1217_OF_G_Files
 0000:0000  Abs  KEY__10jul99_1217_OF_G_Inspekcj
 0000:0000  Abs  KEY__10jul99_1217_OF_G_Oblot
 0000:0000  Abs  KEY__10jul99_1217_OF_G_Odb
 0000:0000  Abs  KEY__10jul99_1217_OF_G_Print
 0000:0000  Abs  KEY__10jul99_1217_OF_G_results
 0000:0000  Abs  KEY__12aug87_1620_OF_RTSMain
 0000:0000  Abs  KEY__21aug96_1223_OF_XMS
 7C1A:0350       KapaFun1_Con__G_CntProcedures
 7C1A:0374       KapaFun3_Con__G_CntProcedures
 7919:0000       KbdButton__Buttons
 78C2:0553       KierunekZmian__Zoom
 731E:0000       Kill__ShortCuts
 78C2:029D       Koniec__Zoom
 6270:0000       Koniec__ZoomInterface
 6159:0010       Kopiowanie__TheodolitRead
 62C9:0030       KrokOpisuOsi__Screen
 5E95:01F7       LDiv__Longs
 5E95:018D       LMultU__Longs
 5E95:00E6       LMult__Longs
 62BD:000C       LOCPilErr__G_CP_ControlProc
 62E2:0090       LOC_Az_czuloscCP__L_DataBase
 62E2:008E       LOC_Az_czuloscWP__L_DataBase
 79EE:0A88       LOC_DEVPuntyKal__Kalibracja
 62E2:0088       LOC_O_czuloscCP__L_DataBase
 62E2:0086       LOC_O_czuloscWP__L_DataBase
 62E2:008C       LOC_R_czuloscCP__L_DataBase
 62E2:008A       LOC_R_czuloscWP__L_DataBase
 73AB:005F       L_FixNotAvailable__GPS_TRIMBLE
 73AB:0057       L_Kierunek__GPS_TRIMBLE
 73AB:006C       L_NumberOfSattelites__GPS_TRIMB
 73AB:0051       L_WspDlugosc__GPS_TRIMBLE
 73AB:004B       L_WspSzerokosc__GPS_TRIMBLE
 2FBD:002A       L__ACos__Math
 1EE5:0002       L__ALLOCATE__Storage
 496D:0032       L__ALTConvert__AltInterface
 53A4:0378       L__AV_Addsmpl__ILS_EvalProcedur
 53A4:04C6       L__AV_Clear__ILS_EvalProcedures
 0064:0FEF       L__AWAITEDC__MANAGER
 0064:0FEF       L__AWAITEDC__Scheduler__MANAGER
 0064:0FB4       L__AWAITEDS__MANAGER
 0064:0FB4       L__AWAITEDS__Scheduler__MANAGER
 147C:0114       L__AbortBP__Pomiar
 4844:085C       L__Abort__G_DAcquizition
 200D:0312       L__AcknowledgeFirst__Messages
 200D:0337       L__Acknowledge__Messages
 4844:0242       L__Acquire__G_DAcquizition
 0390:0E7B       L__AddAngle100__SpecConv
 0390:1858       L__AddDis__SpecConv
 0390:10CE       L__AddNormal__SpecConv
 0390:17AE       L__Add__SpecConv
 2D9C:00F2       L__AdvInfo__MsgBox
 0390:101A       L__AfterAngle100__SpecConv
 147C:014F       L__AkceptacjaBP__Pomiar
 2B46:2233       L__AktStrefa__G_Odb
 05ED:0CF1       L__AktualnyKatProcedury__G_resu
 0E13:05C9       L__AlarmSciezki_A_D__G_Oblot
 0E13:05A4       L__AlarmSciezki_A_G__G_Oblot
 0E13:0613       L__AlarmSciezki_B_D__G_Oblot
 0E13:05EE       L__AlarmSciezki_B_G__G_Oblot
 0E13:08EC       L__AlarmSzer_pB_A__G_Oblot
 0E13:090B       L__AlarmSzer_pB_B__G_Oblot
 0E13:06F1       L__AlarmSzeroki_pA_A_D__G_Oblot
 0E13:06CC       L__AlarmSzeroki_pA_A_G__G_Oblot
 0E13:073B       L__AlarmSzeroki_pA_B_D__G_Oblot
 0E13:0716       L__AlarmSzeroki_pA_B_G__G_Oblot
 0E13:0785       L__AlarmWaski_pA_A_D__G_Oblot
 0E13:0760       L__AlarmWaski_pA_A_G__G_Oblot
 0E13:07CF       L__AlarmWaski_pA_B_D__G_Oblot
 0E13:07AA       L__AlarmWaski_pA_B_G__G_Oblot
 0E13:092A       L__AlarmWaski_pB_A__G_Oblot
 0E13:0949       L__AlarmWaski_pB_B__G_Oblot
 2638:00D8       L__AllocUpperMemBlock__XMS
 5E37:0059       L__Alloc__DynMem
 2638:003C       L__AllocateExtMem__XMS
 264F:004E       L__Allocate__XMSService
 44E6:005D       L__Allocate__XMSTable
 3813:1666       L__AltF4__Dialog
 2B46:0BE5       L__Alt_CP__G_Odb
 56C0:07AA       L__Alt_SWP__L_Slupek
 5818:0D65       L__An_OpisBadDod_CP__G_CntProce
 5818:0652       L__An_OpisOsi_CP__G_CntProcedur
 5818:0B14       L__An_OpisSektora_CP__G_CntProc
 5818:0F19       L__An_OpisZabezpieczenie_CP__G_
 5818:0E21       L__An_OpisZasiegSzer_CP__G_CntP
 1953:0518       L__AnalizaEP__PI_Analiza
 48DC:0827       L__Analiza__L_Count
 19C8:000A       L__Analiza__PI_Pomiar
 0390:0711       L__Ang100Str36Calk__SpecConv
 0390:06A4       L__Ang100Str36__SpecConv
 4F02:015E       L__AngAddSample__Marks
 4F02:0032       L__AngResetContiner__Marks
 0390:0BF8       L__Angle100__SpecConv
 0390:0D36       L__AngleDeg__SpecConv
 0891:0037       L__AssSim_Alfa__ScannerI
 0891:0022       L__AssSim_Dis__ScannerI
 0064:12EF       L__Assert__MANAGER
 0064:12EF       L__Assert__Scheduler__MANAGER
 44E6:0002       L__AssignNil__XMSTable
 4E24:0D1C       L__AssignOdniesienie__GeoArithm
 1F41:0559       L__AssignPeriodicProc__Monitor_
 1F41:0559       L__AssignPeriodicProc__Timer
 269B:01AD       L__AssignPoint__GrafTypes
 5EE0:0002       L__AssignRead__Termbase
 269B:0187       L__AssignRect__GrafTypes
 5EE0:0184       L__AssignWrite__Termbase
 5D3C:005F       L__Assign__Strings
 3323:0D92       L__Assign__Zoom
 5E37:01BF       L__Avail__DynMem
 1EE5:02D0       L__Available__Storage
 53A4:04F5       L__Az0Av_Addsmpl__ILS_EvalProce
 53A4:069B       L__Az0Av_Clear__ILS_EvalProcedu
 2B46:08E8       L__Az0_CP__G_Odb
 53A4:136F       L__Az0_Clear__ILS_EvalProcedure
 2B46:072E       L__Az75_150_CP__G_Odb
 2B46:080B       L__Az75_90_CP__G_Odb
 2B46:09ED       L__AzAv_CP__G_Odb
 53A4:0EC6       L__AzDif0_Addsmpl__ILS_EvalProc
 1419:0291       L__AzDis__G_CP_ControlProc
 2B46:02E4       L__AzOsiAv_CP__G_Odb
 56C0:054F       L__Az_SWP__L_Slupek
 53A4:16EC       L__AzymAV_Addsmpl__ILS_EvalProc
 53A4:1850       L__AzymAV_Clear__ILS_EvalProced
 53A4:0890       L__Azym_Addsmpl__ILS_EvalProced
 53A4:0D17       L__Azym_Clear__ILS_EvalProcedur
 53A4:231A       L__Bend_AddSample__ILS_EvalProc
 53A4:1F14       L__Bend_ClearContainer__ILS_Eva
 2FDC:05B7       L__BinaryCounter__FIltr1St
 5319:06BA       L__BinaryValSet__DGH_utils
 5E58:007D       L__BlockClear__BlockOps
 5E58:00B8       L__BlockEqual__BlockOps
 5E58:001A       L__BlockMoveBackward__BlockOps
 5E58:0000       L__BlockMoveForward__BlockOps
 5E58:003B       L__BlockMove__BlockOps
 5E58:00D9       L__BlockPosition__BlockOps
 5E58:0096       L__BlockSet__BlockOps
 1E85:008A       L__BreakChain__SoftIntHandlingM
 0064:0AAF       L__Broadcast__MANAGER
 0064:0AAF       L__Broadcast__Scheduler__MANAGE
 5F1F:0046       L__ByteAnd__BitByteOps
 5F1F:0073       L__ByteNot__BitByteOps
 5F1F:0055       L__ByteOr__BitByteOps
 5F1F:00C5       L__ByteRol__BitByteOps
 5F1F:00B4       L__ByteRor__BitByteOps
 5F1F:0092       L__ByteSar__BitByteOps
 5F1F:00A3       L__ByteShl__BitByteOps
 5F1F:0081       L__ByteShr__BitByteOps
 5F1F:0064       L__ByteXor__BitByteOps
 2472:04B4       L__CD__FIO
 5C4D:00EF       L__CallInitProc__RTSMain
 3735:0D35       L__CallProc__Buttons
 147C:0124       L__CallStopButton__Pomiar
 5C4D:00FD       L__CallTermProc__RTSMain
 359D:1454       L__CanEnable__GList
 3CC0:098B       L__CancelProcess__Mapa
 3CC0:098B       L__CancelProcess__monitor__Mapa
 0390:057F       L__Card100Str__SpecConv
 0390:033A       L__Card10Str__SpecConv
 426F:1F1D       L__Card2Real__Wykres
 0390:0225       L__Card2Str__SpecConv
 0390:0959       L__Card500Str__SpecConv
 5D6D:0259       L__CardToString__NumberConversi
 3735:09D0       L__ChangeButtonText__Buttons
 3735:0959       L__ChangeButton__Buttons
 115C:1E04       L__ChangeDir__Files
 29B4:0C85       L__Circle__HiLevGraf
 280B:006D       L__ClearBuffer__ShortCuts
 280B:006D       L__ClearBuffer__monitor__ShortC
 53A4:1428       L__Clearence_Addsmpl__ILS_EvalP
 53A4:16B7       L__Clearence_Clear__ILS_EvalPro
 29B4:1026       L__Clip__HiLevGraf
 4FE3:0E2F       L__CloseAll__Print
 3205:0E08       L__CloseBuffer__Ini
 115C:2819       L__CloseCommSigFName__Files
 29B4:0A9F       L__CloseDIB__HiLevGraf
 0B0A:0D79       L__CloseFileRes__G_Files
 115C:0F3B       L__CloseFiles__Files
 0B0A:075B       L__CloseFiles__G_Files
 115C:17EB       L__CloseSignalFiles__Files
 0B0A:0982       L__CloseSignalFiles__G_Files
 5818:28BF       L__Close_CntProcedures__G_CntPr
 518C:06E2       L__Close__DrawEpson
 2472:01F2       L__Close__FIO
 5818:20F5       L__CntProcedures_Epilog__G_CntP
 5818:1688       L__CntProcedures_Prolog__G_CntP
 5AD4:013A       L__CoKtoraPDn__PrintCntroll
 5AD4:00D5       L__CoKtoraPUp__PrintCntroll
 5D3C:02B2       L__CompareStr__Strings
 15D8:18F9       L__ConEventButton__Screen
 5D3C:025B       L__Concat__Strings
 5E69:01B4       L__ConditionalOff__Mouse
 4844:007B       L__ConsoleEv__G_DAcquizition
 4844:007B       L__ConsoleEv__Monitor__G_DAcqui
 5D3C:001D       L__ConstAssign__Strings
 4196:0A5E       L__ControlLoop__CocpDsp
 059E:024E       L__ConvertToStr__Czas
 5D3C:01E9       L__Copy__Strings
 264F:0110       L__Copy__XMSService
 53A4:0142       L__CountAzym0R__ILS_EvalProcedu
 53A4:19A9       L__CountAzymOsi__ILS_EvalProced
 53A4:18CF       L__CountAzym__ILS_EvalProcedure
 53A4:06F0       L__CountDelAzym__ILS_EvalProced
 53A4:0E0C       L__CountDif0R__ILS_EvalProcedur
 53A4:028B       L__CountDif__ILS_EvalProcedures
 05ED:0DE8       L__Count_ChiLoc__G_results
 05ED:0E23       L__Count_PhiLoc__G_results
 3735:0B2D       L__CreateButton__Buttons
 115C:0273       L__CreateFiles__Files
 0B0A:022C       L__CreateFiles__G_Files
 39A9:0002       L__CreateInpLine__InpLine
 3735:0C3C       L__CreateRadioButton__Buttons
 2472:00FA       L__Create__FIO
 2472:08B1       L__CriticalErrorHandlerProc__FI
 0891:0086       L__CurrGPSAlfaOffset__ScannerI
 1F41:051F       L__CurrentPeriod__Monitor__Time
 1F41:051F       L__CurrentPeriod__Timer
 0064:17F9       L__CurrentProcess__MANAGER
 05D5:00F7       L__CzyToJestPromien__L_CommonTy
 1EE5:01B9       L__DEALLOCATE__Storage
 29B4:06E9       L__DIBHeight__HiLevGraf
 29B4:06B5       L__DIBWidth__HiLevGraf
 0064:0CE1       L__DOIO__MANAGER
 0064:0CE1       L__DOIO__Scheduler__MANAGER
 5F54:0002       L__DOSAlloc__DOSMemory
 5F54:01B0       L__DOSAvail__DOSMemory
 5F54:00E3       L__DOSDeAlloc__DOSMemory
 5F54:0241       L__DOSGetMaxSize__DOSMemory
 5F54:01F0       L__DOSSetSize__DOSMemory
 2525:01B2       L__DP__Graphics
 2525:01B2       L__DP__InternalMonitor__Graphic
 0064:1A90       L__DUMMYPRO__MANAGER
 56C0:085D       L__D_SWP__L_Slupek
 4FE3:0186       L__DalszeOdZera__Print
 2885:011E       L__Data__HRD_Clock
 5E37:0102       L__DeAlloc__DynMem
 264F:00EE       L__Deallocate__XMSService
 44E6:00F2       L__Deallocate__XMSTable
 0729:0966       L__DecADFFch__Tune
 3205:0006       L__DefaultError__Ini
 1F41:04B5       L__DefinePeriod__Monitor__Timer
 1F41:04B5       L__DefinePeriod__Timer
 280B:0612       L__DefineShortCut__ShortCuts
 39A9:01CA       L__DeleteInpLine__InpLine
 3205:050E       L__DeleteSection__Ini
 280B:06DD       L__DeleteShortCut__ShortCuts
 2472:046B       L__Delete__FIO
 5D3C:014C       L__Delete__Strings
 56C0:061E       L__Dew100_SWP__L_Slupek
 56C0:0476       L__DewDif_SWP__L_Slupek
 2B46:0264       L__DewLoc_CP__G_Odb
 2B46:0496       L__DewOff_CP__G_Odb
 3813:1488       L__DialogMouseHandle__Dialog
 53A4:1318       L__Dif0_Clear__ILS_EvalProcedur
 2B46:0661       L__DifAZ_CP__G_Odb
 2B46:0584       L__DifAv0_CP__G_Odb
 2472:0700       L__DirQuery__FIO
 4F02:0453       L__DisAddSample__Marks
 4F02:0041       L__DisResetContiner__Marks
 200D:0004       L__DisableDisplay__Messages
 359D:1470       L__Disable__GList
 45F0:0E3A       L__DispResults__G_DisResults
 200D:0181       L__Display__Messages
 3735:0AAB       L__DisposeButton__Buttons
 200D:0164       L__DisposeMessage__Messages
 1F41:0A36       L__DisposeMetronome__Timer
 451C:0465       L__DisposeSlupki__PI_ScrUtility
 1F41:0B9B       L__DisposeWatchdog__Timer
 4581:0647       L__Dispose__Slupek
 0390:1755       L__Div__SpecConv
 2B23:0112       L__DoBeep__GrafUtil
 5818:26F0       L__DoBendAnalyse__G_CntProcedur
 2E0A:045A       L__DoCommandRealPar__NAVGPIB
 5818:171B       L__DoCountProcedures__G_CntProc
 39A9:07B4       L__DoNothing__InpLine
 2E0A:0357       L__DoSimpleComm__NAVGPIB
 359D:06B6       L__DodajDoListy__GList
 0CD8:0790       L__DodajOblot__G_Inspekcja
 56C0:1313       L__DoneSlupek__L_Slupek
 15D8:36CD       L__Done__Screen
 3323:0A0A       L__Done__Zoom
 3AF8:037F       L__Dopasuj__Obloty
 518C:1124       L__DrawText__DrawEpson
 426F:03D7       L__Draw__Wykres
 1A0A:0002       L__Druk__PI_Drukuj
 1953:0062       L__DrukujBP__MouseMonitor__PI_A
 3AF8:1B8B       L__Dum_Stat_File_Monitor__Oblot
 3AF8:1B83       L__Dum_Stat_Size_Monitor__Oblot
 359D:0020       L__DummyNotification__GList
 5818:0082       L__DummyProc__G_CntProcedures
 2B46:0072       L__DummyProc__G_Odb
 4F96:0452       L__Dummy__Rap_Util
 1F41:0BFF       L__Dummy__Timer
 2472:040B       L__EOF__FIO
 1419:0234       L__ElDis__G_CP_ControlProc
 2B46:0C63       L__Elew_CP__G_Odb
 3735:0CC0       L__EnableButton__Buttons
 3735:0D4E       L__EnableDisableAllButtons__But
 200D:002E       L__EnableDisplay__Messages
 3813:167B       L__EnableDlg__Dialog
 359D:1513       L__Enable__GList
 39A9:0183       L__Enable__InpLine
 3813:15E7       L__EndDialog__Dialog
 0064:18E5       L__EnterProtectedOp__MANAGER
 4720:0F04       L__EnumEv__PiszEventy
 0CD8:0704       L__EnumObl__G_Inspekcja
 4FE3:0FE0       L__EvProc__Print
 26BA:07F2       L__EventDispatcher__BezPrzerwan
 21A6:055C       L__EventsMngInit__EventsMng
 5C4D:0526       L__Execute__RTSMain
 115C:1DB9       L__ExistDIR__Files
 0064:18ED       L__ExitProtectedOp__MANAGER
 115C:20C9       L__FInterpolacja__Files
 0E13:09A6       L__Fazowanie_A__G_Oblot
 0E13:09C5       L__Fazowanie_B__G_Oblot
 0390:08C0       L__Feed500Str__SpecConv
 2525:025A       L__FillRect__Graphics
 29B4:0F6C       L__FillRect__HiLevGraf
 2525:025A       L__FillRect__InternalMonitor__G
 02C4:08D2       L__Fill_IdPunktowArr_T__ILS_Zon
 02C4:088B       L__Fill_zoneBDisIdx__ILS_ZoneMn
 02C4:083C       L__Fill_zoneBIdx__ILS_ZoneMngmn
 2FDC:03DA       L__Filtr2Filters__FIltr1St
 2FDC:053F       L__FiltrB__FIltr1St
 2FDC:0199       L__Filtr__FIltr1St
 21A6:02D5       L__FindNextEvent__EventsMng
 0530:01D6       L__FlagErr_Anal__FlagAnal
 5E69:0002       L__FlagReset__Mouse
 29B4:1268       L__FrameRect__HiLevGraf
 2638:0068       L__FreeExtMem__XMS
 3AF8:0E1A       L__FreeSlot__Obloty
 2638:0107       L__FreeUpperMemBlock__XMS
 52D3:00AA       L__Free__Semafory
 5650:0036       L__GPIBPresent__M_PGPIB
 09C6:0225       L__GPSReceive__GPSRead
 1419:033D       L__GSDevDumm__G_CP_ControlProc
 1419:0173       L__GSDevErrDis__G_CP_ControlPro
 1419:00F7       L__GSDevErr__G_CP_ControlProc
 2E0A:081B       L__GS_Default__NAVGPIB
 02C4:0AB3       L__G_LstPToBeTraced__ILS_ZoneMn
 02C4:0AD5       L__G_LstZToBeTraced__ILS_ZoneMn
 3CC0:07B3       L__GdzieJest__Mapa
 4E24:0719       L__Geo2Kat__GeoArithmetic
 115C:264E       L__GetALfaRefFName__Files
 05ED:004C       L__GetAnRes__G_results
 28AC:0187       L__GetAnalogVal__DGHInterface
 2525:0191       L__GetBank__Graphics
 2525:0191       L__GetBank__InternalMonitor__Gr
 28AC:0226       L__GetBinaryVal__DGHInterface
 5F1F:0000       L__GetBits__BitByteOps
 5E69:006E       L__GetButPres__Mouse
 5E69:00A0       L__GetButRel__Mouse
 29B4:115F       L__GetClip__HiLevGraf
 115C:2735       L__GetCommSigFName__Files
 359D:1839       L__GetContents__GList
 28AC:002B       L__GetCurrDataSign__DGHInterfac
 09C6:02DA       L__GetCurrDataSign__GPSRead
 08BC:05AE       L__GetCurrDataSign__TheodolitRe
 5E2B:0002       L__GetDeviceStatus__Devices
 5CD2:009B       L__GetDeviceStatus__RTSDevice
 3813:0006       L__GetDialogDIBHandle__Dialog
 2472:05B5       L__GetDir__FIO
 09C6:029B       L__GetDirection__GPSRead
 115C:26C2       L__GetDisRefFName__Files
 44E6:01B7       L__GetElem__XMSTable
 3EAC:097E       L__GetErrReset__ErrorHand__Kali
 3EAC:097E       L__GetErrReset__Kalibracja
 21A6:041A       L__GetEventInfo__EventsMng
 2472:0685       L__GetFileStamp__FIO
 3175:05C7       L__GetFrame__GPS_TRIMBLE
 3055:0CFB       L__GetFrame__GPS_nov
 5B63:0241       L__GetGSDev__NAVInterface
 4F96:0093       L__GetInteractiveData__Rap_Util
 5B63:0190       L__GetLocDev__NAVInterface
 5C4D:0147       L__GetMessage__RTSMain
 224B:1B29       L__GetNextAMark__DataCollect
 224B:1AA3       L__GetNextDMark__DataCollect
 0530:0352       L__GetNextFrac__FlagAnal
 05D5:0094       L__GetNumStrefyEp__L_CommonType
 05D5:0077       L__GetNumStrefy__L_CommonTypes
 5B63:0022       L__GetOmnibearing__NAVInterface
 0891:010C       L__GetPilotEvent__ScannerI
 5E69:0037       L__GetPosBut__Mouse
 5CD2:0100       L__GetPrioMask__RTSDevice
 3205:035E       L__GetPrivateProfileString__Ini
 037D:0010       L__GetRecName__CommonTypes
 359D:1819       L__GetRect__GList
 26BA:0713       L__GetRegionRect__MMMouse
 56C0:1434       L__GetRegionWyk1__L_Slupek
 451C:0578       L__GetRegionWyk1__PI_ScrUtility
 56C0:1478       L__GetRegionWyk2__L_Slupek
 451C:0598       L__GetRegionWyk2__PI_ScrUtility
 56C0:14BC       L__GetRegionWyk3__L_Slupek
 451C:05B8       L__GetRegionWyk3__PI_ScrUtility
 56C0:13F0       L__GetRegionWykG__L_Slupek
 451C:0558       L__GetRegionWykG__PI_ScrUtility
 3735:0D0E       L__GetRegion__Buttons
 359D:1608       L__GetRegion__GList
 39A9:0C4D       L__GetRegion__InpLine
 26BA:06C2       L__GetRegion__MMMouse
 0B0A:0DF7       L__GetResFileName__G_Files
 359D:14F4       L__GetSelection__GList
 0B0A:0B1F       L__GetSigFileName__G_Files
 4581:0666       L__GetSlupRect__Slupek
 08BC:0600       L__GetTeoEvent__TheodolitRead
 39A9:0388       L__GetText__InpLine
 08BC:0700       L__GetTheoI__TheodolitRead
 08BC:0654       L__GetTheoR__TheodolitRead
 059E:00C0       L__GetTimeAndDate__BezPrzerwan_
 059E:00C0       L__GetTimeAndDate__Czas
 037D:0055       L__GetTranName__CommonTypes
 21A6:0366       L__GetUpdNextEvent__EventsMng
 2525:03B5       L__GetWindow__Graphics
 2525:03B5       L__GetWindow__InternalMonitor__
 2ED8:0002       L__GetWrBufLength__DigiRS
 05D5:00BB       L__GetZoneBoundPt__L_CommonType
 0E13:12CD       L__GlowOdbP__G_Oblot
 0CC8:0002       L__GlownyEP__PI_Glowny
 115C:1E3D       L__GoHomeDir__Files
 3813:123F       L__Go__Dialog
 2885:00A1       L__Godzina__HRD_Clock
 0390:1178       L__GorszeBoBlisze__SpecConv
 0390:14AD       L__GorszeBoDalszeOdZera__SpecCo
 0390:10E9       L__GorszeBoDalszeR__SpecConv
 0390:1127       L__GorszeBoDalsze__SpecConv
 56C0:00D1       L__GorszeBoDummy__L_Slupek
 0390:142B       L__GorszeBoMniejsze1500__SpecCo
 0390:1368       L__GorszeBoMniejsze160__SpecCon
 0390:146C       L__GorszeBoMniejsze2000__SpecCo
 0390:1327       L__GorszeBoMniejsze300__SpecCon
 0390:12A5       L__GorszeBoMniejsze400__SpecCon
 0390:13A9       L__GorszeBoMniejsze5000__SpecCo
 0390:13EA       L__GorszeBoMniejsze500__SpecCon
 0390:12E6       L__GorszeBoMniejsze800__SpecCon
 0390:1264       L__GorszeBoMniejszeM60__SpecCon
 0390:11C9       L__GorszeBoMniejszePol__SpecCon
 4FE3:0159       L__GorszeBoMniejsze__Print
 0390:120A       L__GorszeBoMniejsze__SpecConv
 0390:1237       L__GorszeBoWieksze__SpecConv
 1A10:0F7C       L__GsMoveDis__L_DataBase
 359D:128C       L__HandleEvent__GList
 26BA:00DF       L__HideConditionally__MMMouse
 26BA:0BDE       L__HideCursor__BezWyszeregowani
 26BA:0BDE       L__HideCursor__MMMouse
 5E69:002B       L__HideCursor__Mouse
 5F1F:00D6       L__HighNibble__BitByteOps
 1F41:06FC       L__IBMIntHandler__Monitor__Time
 0729:0881       L__ILSDecFch__Tune
 0729:0849       L__ILSIncFch__Tune
 0729:07EE       L__ILSfrqString__Tune
 46E7:014A       L__INCLine__DisResUtilities
 5650:0017       L__IOCheck__M_PGPIB
 0E13:0C42       L__IdentPkt0__G_Oblot
 0E13:0C56       L__IdentPkt1__G_Oblot
 0E13:0C6A       L__IdentPkt2__G_Oblot
 359D:0A11       L__Idx2Str__GList
 4720:0A31       L__IleEventow__PiszEventy
 3AF8:0242       L__Ile__Obloty
 5818:16E7       L__InZoneAnalyse__G_CntProcedur
 0729:093F       L__IncADFFch__Tune
 0390:189B       L__IncRound__SpecConv
 2B23:00BB       L__InfoBeep__GrafUtil
 2B23:0003       L__Info__GrafUtil
 2D9C:0072       L__Info__MsgBox
 4844:07BB       L__IniDataOrbit__G_DAcquizition
 4844:07D3       L__IniDataRadial__G_DAcquizitio
 2B46:1D91       L__IniData__G_Odb
 56C0:1392       L__IniSkale__L_Slupek
 451C:053E       L__IniSkale__PI_ScrUtility
 3175:082D       L__Inicjacja__GPS_TRIMBLE
 3055:0DCE       L__Inicjacja__GPS_nov
 4F02:0636       L__InicjujOpisStanuLuku__Marks
 4FE3:03D2       L__InitA__Print
 4FE3:0EC8       L__InitAll__Print
 4FE3:0821       L__InitB__Print
 0064:176C       L__InitC__MANAGER
 2FDC:024F       L__InitCont2Filters__FIltr1St
 2FDC:0598       L__InitContBCoun__FIltr1St
 2FDC:050E       L__InitContB__FIltr1St
 2FDC:00A2       L__InitCont__FIltr1St
 0530:02B3       L__InitFlagErr__FlagAnal
 3AF8:1A87       L__InitListaUrzadzen__Obloty
 0E13:2B76       L__InitLot__G_Oblot
 2FDC:0712       L__InitMemFIntContiner__FIltr1S
 2FDC:0689       L__InitMemFiltr__FIltr1St
 3A7B:0141       L__InitNames__PI_ZoomSpecific
 0891:00F7       L__InitPilotEventId__ScannerI
 19C8:007A       L__InitPomiar__PI_Pomiar
 147C:03EF       L__InitPomiar__Pomiar
 518C:11C0       L__InitPort__DrawEpson
 0064:1782       L__InitS__MANAGER
 037D:0098       L__InitSignalDsc__CommonTypes
 05D5:0123       L__InitSignalDsc__L_CommonTypes
 56C0:0BA0       L__InitSlupek__L_Slupek
 08BC:05DD       L__InitTeoEventId__TheodolitRea
 451C:04D9       L__Init_ScrUtility__PI_ScrUtili
 05ED:0B6F       L__Init__G_results
 15D8:1D6D       L__Init__Screen
 52D3:01B0       L__Init__Semafory
 3323:0161       L__Init__Zoom
 037D:00B7       L__Init_flgTab__CommonTypes
 26BA:0AC3       L__InsertEvent__BezPrzerwanOdMy
 26BA:0AC3       L__InsertEvent__MMMouse
 5D3C:0096       L__Insert__Strings
 0CD8:0F4E       L__InspekcjaEP__G_Inspekcja
 3AF8:1042       L__InspekcjeNowyWpis__Obloty
 1E85:0256       L__InstEpilogueHnd__Monitor__So
 1E85:0256       L__InstEpilogueHnd__SoftIntHand
 1E85:009A       L__InstPrologueHnd__Monitor__So
 1E85:009A       L__InstPrologueHnd__SoftIntHand
 5E37:0000       L__InstallDynMem__DynMem
 5E2B:006A       L__InstallHandler__Devices
 5CD2:0000       L__InstallHandler__RTSDevice
 1EE5:03A3       L__InstallHeap__Storage
 5C4D:007B       L__InstallInitProc__RTSMain
 0064:1815       L__InstallTermProc__MANAGER
 5C4D:0001       L__InstallTermProc__RTSMain
 0390:0A8D       L__Int1000Str__SpecConv
 0390:0535       L__Int100StrCalk__SpecConv
 0390:0411       L__Int100Str__SpecConv
 0390:025D       L__Int10Str__SpecConv
 0390:1948       L__Int2Card__SpecConv
 426F:1F64       L__Int2Real__Wykres
 0390:165C       L__Int2StrCntr__SpecConv
 0390:01ED       L__Int2Str__SpecConv
 0390:078F       L__Int500Str__SpecConv
 5D6D:01B9       L__IntToString__NumberConversio
 269B:0058       L__Intersection__GrafTypes
 2525:0593       L__InvertW__Graphics
 2525:0593       L__InvertW__InternalMonitor__Gr
 518C:120D       L__IsAborted__DrawEpson
 3813:17AC       L__IsBusy__Dialog
 518C:0322       L__IsDrawn__DrawEpson
 269B:014B       L__IsEqual__GrafTypes
 26BA:018A       L__IsHidden__MMMouse
 269B:0002       L__IsIntersect__GrafTypes
 44E6:0039       L__IsValid__XMSTable
 5818:1853       L__KapaFun1__G_CntProcedures
 5818:18CF       L__KapaFun2__G_CntProcedures
 5818:193E       L__KapaFun3__G_CntProcedures
 5818:19BA       L__KapaFunDumm__G_CntProcedures
 3AF8:0A4B       L__KasujPodkartoteke__Obloty
 3AF8:068A       L__Kasuj__Obloty
 4E24:0AEF       L__Kat2Geo__GeoArithmetic
 0E13:07F4       L__KatSciezki_A__G_Oblot
 0E13:0813       L__KatSciezki_B__G_Oblot
 0E13:0832       L__KatSciezki_Szer_pA_A__G_Oblo
 0E13:0851       L__KatSciezki_Szer_pA_B__G_Oblo
 0E13:0870       L__KatSciezki_Waski_pA_A__G_Obl
 0E13:088F       L__KatSciezki_Waski_pA_B__G_Obl
 200D:03F9       L__KbdAck__Messages
 200D:0405       L__KbdDsp__Messages
 280B:05B8       L__KbdScan__ShortCuts
 5F3D:0002       L__KeyPressed__Keyboard
 280B:0002       L__KeyPressed__ShortCuts
 5EE0:00D7       L__KeyPressed__Termbase
 5EC3:0002       L__KeyPressed__Terminal
 280B:0002       L__KeyPressed__monitor__ShortCu
 39A9:03DC       L__Key__InpLine
 359D:18E1       L__KillContents__GList
 39A9:07C4       L__KillFocus__InpLine
 3813:0E94       L__KlawiszShiftTab__Dialog
 3813:0D8A       L__KlawiszSpacji__Dialog
 3813:0E12       L__KlawiszTab__Dialog
 3055:014D       L__KopijZnakZTeo__GPS_nov
 3AF8:15DB       L__KopiujInspekcje__Obloty
 3AF8:13F8       L__KopiujPodkartoteke__Obloty
 115C:19D4       L__KopiujWszystkiePliki__Files
 0B0A:099C       L__KopiujWszystkiePliki__G_File
 115C:016F       L__Kopiuj__Files
 15D8:0F7E       L__KursorLewoBP__Dialog__Screen
 15D8:0BC1       L__KursorLewoButton__Dialog__Sc
 15D8:0D49       L__KursorOnOffBP__Dialog__Scree
 15D8:0F54       L__KursorPrawoBP__Dialog__Scree
 15D8:0BDA       L__KursorPrawoPar__Dialog__Scre
 1419:008D       L__LOCAzErr__G_CP_ControlProc
 1419:0057       L__LOCDevErr__G_CP_ControlProc
 2E0A:06B0       L__LOC_Default__NAVGPIB
 02C4:0A9F       L__L_LstPToBeTraced__ILS_ZoneMn
 02C4:0AC1       L__L_LstZToBeTraced__ILS_ZoneMn
 2472:0389       L__Length__FIO
 5D3C:0000       L__Length__Strings
 426F:1F01       L__LessCard__Wykres
 426F:1EE5       L__LessInt__Wykres
 359D:0B6F       L__LiczbaElementow__GList
 5E69:0194       L__LightPenOff__Mouse
 5E69:0188       L__LightPenOn__Mouse
 29B4:0B20       L__LineS__HiLevGraf
 29B4:1234       L__LineTo__HiLevGraf
 518C:06FE       L__Line__DrawEpson
 29B4:0AF4       L__Line__HiLevGraf
 115C:1BE4       L__LoadAResult__Files
 29B4:03A5       L__LoadDIB__HiLevGraf
 115C:0CB2       L__LoadData__Files
 0B0A:0552       L__LoadData__G_Files
 19FB:0002       L__LoadData__PI_ArchDate
 21A6:0519       L__LoadDistEvents__EventsMng
 025D:03B7       L__LoadEvents__SimScanner
 0891:00B5       L__LocationsTogether__ScannerI
 5D6D:01FE       L__LongIntToString__NumberConve
 566F:0002       L__LookupM__Kl_FGenerators
 3EAC:0F88       L__Lookup__Kalibracja
 5F1F:00E6       L__LowNibble__BitByteOps
 2E0A:096C       L__MKR_Default__NAVGPIB
 499F:4448       L__MakeRaport__G_Print
 2525:000B       L__MaxHor__Graphics
 2525:0014       L__MaxVer__Graphics
 518C:00E9       L__MaxX__DrawEpson
 518C:00F8       L__MaxY__DrawEpson
 4FE3:01C3       L__MaxY__Print
 2FDC:06B5       L__MemFiltrInt__FIltr1St
 2FDC:0607       L__MemFiltr__FIltr1St
 0530:0513       L__MinPoczKonDis__FlagAnal
 0530:044F       L__MinPoczKonSig__FlagAnal
 2472:0510       L__MkDir__FIO
 53A4:1B99       L__MkrALengthConClear__ILS_Eval
 53A4:1CD0       L__MkrLength_Count__ILS_EvalPro
 53A4:1A78       L__MkrLnth_AddSmpl__ILS_EvalPro
 53A4:1B70       L__MkrLnth_Clear__ILS_EvalProce
 518C:11A6       L__Mnoznik__DrawEpson
 2B46:0164       L__ModG_CP__G_Odb
 56C0:03C3       L__ModL_SWP__L_Slupek
 3735:07E1       L__MouseHandler__Buttons
 26BA:1031       L__MouseLoop__MMMouse
 2638:008B       L__MoveExtMemBlock__XMS
 269B:0100       L__MoveRect__GrafTypes
 29B4:121A       L__MoveTo__HiLevGraf
 0390:1782       L__Mul__SpecConv
 0248:0029       L__MyErrorHand__ErrorMess
 56C0:01F5       L__NapiszSygnaly__L_Slupek
 451C:04CC       L__NapiszSygnaly__PI_ScrUtility
 2B46:2262       L__NastStrefa__G_Odb
 3A7B:0735       L__NazwaOdniesienia__PI_ZoomSpe
 499F:0648       L__NazwaProcedury__G_Print
 21A6:0252       L__NewConsoleEvent__EventsMng
 0891:004C       L__NewDataAvailable__ScannerI
 21A6:0037       L__NewEvent__EventsMng
 200D:010B       L__NewMessage__Messages
 1F41:0940       L__NewMetronome__Timer
 21A6:01CF       L__NewPilotEvent__EventsMng
 21A6:014C       L__NewTeoEvent__EventsMng
 1F41:0A94       L__NewWatchdog__Timer
 08BC:0ECB       L__NicNieRob__TheodolitRead
 3735:0B27       L__Nic__Buttons
 4F96:0432       L__NieSpelniaP__Rap_Util
 224B:21D7       L__NilProc__DataCollect
 4581:0695       L__Nil__Slupek
 29B4:10F4       L__NoClip__HiLevGraf
 5DD1:0032       L__NoSound__Sounds
 4581:065C       L__Nothing__Slupek
 0064:0A58       L__Notify__MANAGER
 0064:0A58       L__Notify__Scheduler__MANAGER
 3D76:0E6A       L__NoweCzesciOkregu__Polozenie
 0CD8:0D91       L__NowyOblot__G_Inspekcja
 5D6D:028D       L__NumToString__NumberConversio
 2B46:17BC       L__Oblicz__G_Odb
 0CD8:0DF8       L__OblotOK__G_Inspekcja
 3323:055B       L__ObslugaMyszy__Zoom
 5AD4:037E       L__Odn__PrintCntroll
 025D:05A8       L__OdtworzEventy__SimScanner
 2B46:09DA       L__Ofset_CP__G_Odb
 5AD4:0232       L__OkP__PrintCntroll
 3EAC:0E16       L__OmnibearingV__Kalibracja
 115C:27A8       L__OpenCommSigFName__Files
 0B0A:0B92       L__OpenFileRes__G_Files
 115C:0638       L__OpenFiles__Files
 0B0A:0248       L__OpenFiles__G_Files
 115C:1096       L__OpenSignalFiles__Files
 0B0A:07EC       L__OpenSignalFiles__G_Files
 518C:0670       L__Open__DrawEpson
 2472:0002       L__Open__FIO
 426F:1330       L__OpisLog__Wykres
 1A10:0887       L__OpisLotniska__L_DataBase
 4FE3:0CF3       L__Opis__Print
 426F:0B0C       L__Opis__Wykres
 518C:03D3       L__Out__DrawEpson
 2D9C:05C9       L__P0__MsgBox
 2D9C:05EA       L__P1__MsgBox
 5AD4:03D5       L__P1__PrintCntroll
 2D9C:060B       L__P2__MsgBox
 5AD4:03F6       L__P2__PrintCntroll
 2D9C:062C       L__P3__MsgBox
 1953:00C0       L__PWyjscieZProgramuBP__MouseMo
 1953:014D       L__PageDownBP__MouseMonitor__PI
 1953:00EF       L__PageUpBP__MouseMonitor__PI_A
 4720:0D6B       L__PiszNaDrukarce__PiszEventy
 4720:0B99       L__PiszNaEkranie__PiszEventy
 0E13:0CBE       L__PlayP__G_Oblot
 4196:02E6       L__PodajFormat__CocpDsp
 518C:01C6       L__Point__DrawEpson
 29B4:117A       L__Point__HiLevGraf
 4FE3:0CBF       L__Point__Print
 3CC0:0545       L__PokazKatyLotu__Mapa
 426F:09B4       L__PokazWykres1__Wykres
 426F:1B1F       L__PokazWykresNSLog__Wykres
 426F:14E2       L__PokazWykresNS__Wykres
 426F:256B       L__PokazWykresZXms__Wykres
 426F:0758       L__PokazWykres__Wykres
 0C24:0969       L__Pokaz__ZoomInterface
 0E13:0A9E       L__Pokrycie_8_st_L_A__G_Oblot
 0E13:0ABD       L__Pokrycie_8_st_L_B__G_Oblot
 0E13:0A60       L__Pokrycie_8_st_P_A__G_Oblot
 0E13:0A7F       L__Pokrycie_8_st_P_B__G_Oblot
 0E13:0A22       L__Pokrycie_w_osi_A__G_Oblot
 0E13:0A41       L__Pokrycie_w_osi_B__G_Oblot
 4844:0002       L__PolV__G_DAcquizition
 147C:01F6       L__PolaryzacjaBP__Pomiar
 147C:0EC2       L__PomiarEP__Pomiar
 0E13:1251       L__PomiarP__G_Oblot
 2B46:0FC6       L__PoprawDane__G_Odb
 5D3C:0188       L__Pos__Strings
 3735:0AE2       L__PressRadio__Buttons
 4FE3:1998       L__PrintScreenProc__Print
 0064:1629       L__PriorityDecrease__MANAGER
 0CD8:043D       L__ProbujWstawicOblot__G_Inspek
 5818:02A2       L__ProfBComm_CP__G_CntProcedure
 3CC0:06B6       L__Promienie__Mapa
 3D76:1084       L__Promienie__Polozenie
 05D5:0029       L__PrvNumPunktu__L_CommonTypes
 1953:011E       L__PrzelaczPomiaryBP__MouseMoni
 147C:013E       L__PrzelaczPomiaryBP__Pomiar
 44E6:0142       L__PutElem__XMSTable
 280B:003B       L__PutKeyStrokeIntoBuffer__Shor
 280B:003B       L__PutKeyStrokeIntoBuffer__moni
 2638:0011       L__QueryFreeExtMem__XMS
 0390:0C58       L__RAngle100__SpecConv
 359D:0E9F       L__RChoose__GList
 359D:0D8F       L__RScrollDn__GList
 359D:0C76       L__RScrollUp__GList
 1419:0002       L__Radial__G_CP_ControlProc
 3813:02EB       L__RadioBProc__Dialog
 560E:01A8       L__RandomCard__Random
 560E:00DE       L__RandomInit__Random
 560E:0245       L__RandomInt__Random
 560E:026A       L__RandomReal__Random
 560E:0385       L__Randomize__Random
 0E13:0CDE       L__RaportKoncowy__G_Oblot
 1B29:16D5       L__RaportKoncowy__PI_Report
 0E13:0C9E       L__Raport_PROC__G_Oblot
 280B:0104       L__Rd__ShortCuts
 280B:0104       L__Rd__monitor__ShortCuts
 5B99:00BF       L__ReInitialize__ARINC
 5EC3:010A       L__ReadAgain__Terminal
 115C:1729       L__ReadAllSignals__Files
 0B0A:0887       L__ReadAllSignals__G_Files
 115C:2833       L__ReadCommSigFName__Files
 5B99:051B       L__ReadConfiguration__ARINC
 115C:0240       L__ReadDef__Files
 2472:0346       L__ReadExt__FIO
 115C:16EA       L__ReadFlgs__Files
 5E69:013E       L__ReadMotionCounters__Mouse
 5319:063C       L__ReadOmniber__DGH_utils
 5B99:079E       L__ReadRXSlot__ARINC
 2ED8:007D       L__ReadString__DigiRS
 5EC3:0089       L__ReadString__Terminal
 5B99:0637       L__ReadTXSlot__ARINC
 5319:04A8       L__ReadValue__DGH_utils
 115C:1685       L__ReadXref__Files
 09C6:001A       L__Read_Nic__GPSRead
 09C6:002D       L__Read_Nov__GPSRead
 09C6:0177       L__Read_Trimble__GPSRead
 2472:0301       L__Read__FIO
 5F3D:0033       L__Read__Keyboard
 280B:008B       L__Read__ShortCuts
 5EE0:0088       L__Read__Termbase
 5EC3:000E       L__Read__Terminal
 280B:008B       L__Read__monitor__ShortCuts
 0E13:1546       L__RealCisnValid__G_Oblot
 2F0A:06AC       L__RealToString__RealConversion
 0064:17E6       L__RecoveryTime__MANAGER
 4844:0591       L__RedrawMarksReq__G_DAcquiziti
 224B:004E       L__RedrawReq__DataCollect
 4844:0542       L__RedrawReq__G_DAcquizition
 224B:004E       L__RedrawReq__tablice__DataColl
 3813:17EF       L__Redraw__Dialog
 15D8:03CA       L__RegionWyk1Button__Dialog__Sc
 15D8:037F       L__RegionWyk1Event__Dialog__Scr
 15D8:0464       L__RegionWyk2Button__Dialog__Sc
 15D8:0419       L__RegionWyk2Event__Dialog__Scr
 15D8:04FE       L__RegionWyk3Button__Dialog__Sc
 15D8:04B3       L__RegionWyk3Event__Dialog__Scr
 15D8:0323       L__RegionWykGButton__Dialog__Sc
 15D8:02D8       L__RegionWykGEvent__Dialog__Scr
 26BA:019E       L__RegisterRegion__MMMouse
 52D3:0120       L__Register__Semafory
 0064:1798       L__Release__MANAGER
 1EE5:0422       L__RemoveHeap__Storage
 0064:188B       L__RemoveTermProc__MANAGER
 2472:0614       L__Rename__FIO
 224B:2002       L__ResetDataCollect__DataCollec
 224B:1A69       L__ResetMarks_A__DataCollect
 224B:1A86       L__ResetMarks_D__DataCollect
 1F41:09B7       L__ResetMetronome__Timer
 2638:00B2       L__ResizeExtMemBlock__XMS
 0C24:0413       L__RespProc__ZoomInterface
 147C:0104       L__RestartBP__Pomiar
 4844:00AA       L__Restart__G_DAcquizition
 4844:00AA       L__Restart__Monitor__G_DAcquizi
 1E85:0041       L__RestoreEventHandler__SoftInt
 5E2B:004D       L__RestoreInterruptVector__Devi
 5CD2:00FB       L__RestoreInterruptVector__RTSD
 1F41:08B3       L__RestoreTimer__Monitor__Timer
 0C24:097F       L__Rezygnuj__ZoomInterface
 2472:056C       L__RmDir__FIO
 0E13:0968       L__RownowagaModulacji_A__G_Oblo
 0E13:0987       L__RownowagaModulacji_B__G_Oblo
 3D76:0E09       L__RresetCzesciOkregu__Polozeni
 3323:08D9       L__Run__Zoom
 0064:0892       L__SEND__MANAGER
 0064:0892       L__SEND__Scheduler__MANAGER
 56C0:06F7       L__SS_SWP__L_Slupek
 0064:137C       L__STARTPROCESS__MANAGER
 4F96:03C7       L__Samolot__Rap_Util
 224B:1867       L__Samp2Dis__DataCollect
 224B:1867       L__Samp2Dis__tablice__DataColle
 224B:1968       L__Samp2Kat__DataCollect
 224B:1968       L__Samp2Kat__tablice__DataColle
 224B:0002       L__SampleNr__DataCollect
 224B:0002       L__SampleNr__tablice__DataColle
 115C:1D15       L__SaveAResult__Files
 05ED:001A       L__SaveAnRes__G_results
 115C:09FD       L__SaveData__Files
 0B0A:02EA       L__SaveData__G_Files
 21A6:04AA       L__SaveDistEvents__EventsMng
 5E2B:002C       L__SaveInterruptVector__Devices
 5CD2:00F6       L__SaveInterruptVector__RTSDevi
 3EAC:2A2F       L__SaveSegmentTables__Kalibracj
 0E13:2C6E       L__SciezkaDoKataloguOpisu__G_Ob
 15D8:35A5       L__ScreenStart__Screen
 2472:026A       L__Seek__FIO
 4F02:0806       L__SegZakonczony__Marks
 39A9:0B2F       L__SetActive__InpLine
 28AC:02BB       L__SetAnalogVal__DGHInterface
 2525:0136       L__SetBank__Graphics
 2525:0136       L__SetBank__InternalMonitor__Gr
 2ED8:018F       L__SetBaudRate__DigiRS
 28AC:0392       L__SetBinaryVal__DGHInterface
 5F1F:0018       L__SetBits__BitByteOps
 15D8:190A       L__SetButtons__Screen
 0729:0998       L__SetCPFlags__Tune
 359D:1860       L__SetContents__GList
 5E69:005A       L__SetCursorPos__Mouse
 39A9:09E5       L__SetCursor__InpLine
 059E:021B       L__SetDate__Czas
 5E2B:0018       L__SetDeviceStatus__Devices
 5CD2:00BE       L__SetDeviceStatus__RTSDevice
 518C:1193       L__SetDir__DrawEpson
 0891:0137       L__SetEvalPROC__ScannerI
 5E69:0157       L__SetEventHandler__Mouse
 1E85:0002       L__SetEventHandler__SoftIntHand
 518C:085C       L__SetFont__DrawEpson
 5E69:00FA       L__SetGraphicCursor__Mouse
 5E69:00D2       L__SetHorizontalLimits__Mouse
 4196:058F       L__SetIdleMsg__CocpDsp
 02C4:0AF1       L__SetLastPointToBeTraced__ILS_
 29B4:0AE1       L__SetLineStyle__HiLevGraf
 28AC:04A0       L__SetMessage__DGHInterface
 5E69:01A0       L__SetMickeysPerPixel__Mouse
 359D:0002       L__SetNotificationProc__GList
 26BA:02C7       L__SetOnTop__MMMouse
 29B4:0182       L__SetPaletteEntry__HiLevGraf
 26BA:0780       L__SetParent__MMMouse
 53A4:2630       L__SetPathAngle__ILS_EvalProced
 496D:0012       L__SetPressure__AltInterface
 5CD2:011F       L__SetPrioMask__RTSDevice
 359D:1754       L__SetSelectionNotf__GList
 359D:1772       L__SetSelection__GList
 5E69:01CE       L__SetSpeedThreshold__Mouse
 5E69:0127       L__SetTextCursor__Mouse
 518C:0849       L__SetTextMode__DrawEpson
 39A9:02C9       L__SetText__InpLine
 059E:01DA       L__SetTime__Czas
 5E69:00E6       L__SetVerticalLimits__Mouse
 2525:0703       L__SetWindow__Graphics
 2525:0703       L__SetWindow__InternalMonitor__
 418E:0002       L__Set__FCBS
 52D3:0002       L__Set__Semafory
 56C0:0125       L__ShowCursorDIB__L_Slupek
 451C:0035       L__ShowCursorDIB__PI_ScrUtility
 26BA:0BB2       L__ShowCursor__BezWyszeregowani
 26BA:0BB2       L__ShowCursor__MMMouse
 5E69:001F       L__ShowCursor__Mouse
 29B4:0785       L__ShowDIB__HiLevGraf
 200D:0265       L__ShowFirst__Messages
 56C0:00D9       L__ShowScreenDIB__L_Slupek
 451C:0002       L__ShowScreenDIB__PI_ScrUtility
 0C24:0062       L__Show__ZoomInterface
 115C:246E       L__SigInterpolacja__Files
 2B46:1D62       L__Sim_Alfa__G_Odb
 2B46:1CBE       L__Sim_Dis__G_Odb
 025D:0032       L__Simulate__SimScanner
 44E6:0018       L__Size__XMSTable
 15D8:0E5D       L__SkalaMinusBP__Dialog__Screen
 15D8:0D66       L__SkalaPlusBP__Dialog__Screen
 3AF8:0B98       L__SkasujInspekcje__Obloty
 3AF8:078A       L__SkasujOblot__Obloty
 359D:033D       L__SkasujWszystko__GList
 359D:0387       L__Skasuj__GList
 359D:1698       L__Sortowana__GList
 5DD1:0002       L__Sound__Sounds
 4F96:0412       L__SpelniaP__Rap_Util
 07EE:037A       L__Sprawdz__PI_Qcheck
 2FBD:018D       L__Sqr__Math
 147C:00F4       L__StartBP__Pomiar
 1419:034C       L__StartCPLoop__G_CP_ControlPro
 3AF8:171F       L__StartInspection__Obloty
 3CC0:0951       L__StartProcess__Mapa
 3CC0:0951       L__StartProcess__monitor__Mapa
 1F41:0AE2       L__StartProtectedOperation__Tim
 0064:17CC       L__StartTimeSlicing__MANAGER
 3D76:08FE       L__Start_Polozenie__Polozenie
 4844:07EB       L__Start__G_DAcquizition
 2B46:1C4E       L__Start__G_Odb
 0891:005F       L__Start__ScannerI
 147C:012E       L__StopBP__Pomiar
 1419:0509       L__StopCPLoop__G_CP_ControlProc
 1F41:0B56       L__StopProtectedOperation__Time
 3D76:0DD7       L__Stop_Polozenie__Polozenie
 4844:004C       L__Stop__G_DAcquizition
 4844:004C       L__Stop__Monitor__G_DAcquizitio
 0891:00E4       L__Stop__ScannerI
 5D6D:0522       L__StringToCard__NumberConversi
 5D6D:04BA       L__StringToInt__NumberConversio
 5D6D:0587       L__StringToLongInt__NumberConve
 5D6D:05B5       L__StringToNum__NumberConversio
 2F0A:0052       L__StringToReal__RealConversion
 0390:0F4F       L__SubAng360__SpecConv
 0390:0DA7       L__SubAngle100__SpecConv
 0390:180D       L__SubDis__SpecConv
 0390:10B3       L__SubNormal__SpecConv
 0390:18A9       L__SubWCheck__SpecConv
 0390:17DA       L__Sub__SpecConv
 115C:1F1C       L__SubstituteAngle100__Files
 05D5:0002       L__SuccNumPunktu__L_CommonTypes
 05D5:0050       L__SuccNumStrefy__L_CommonTypes
 0530:05D7       L__SumaDlugosciSig__FlagAnal
 5F1F:00F4       L__Swap__BitByteOps
 3E99:0002       L__SwitchTo__SwitchCntrl
 3AF8:051E       L__SzczegolowyPlikOpisu__Obloty
 0E13:065D       L__SzerSektora_pA_A_D__G_Oblot
 0E13:0638       L__SzerSektora_pA_A_G__G_Oblot
 0E13:06A7       L__SzerSektora_pA_B_D__G_Oblot
 0E13:0682       L__SzerSektora_pA_B_G__G_Oblot
 0E13:0EBE       L__Szer_Sekt__G_Oblot
 0E13:08AE       L__Szer_i_Osi_pB_A__G_Oblot
 0E13:08CD       L__Szer_i_Osi_pB_B__G_Oblot
 1F41:092C       L__TInOneSecond__Timer
 004C:009C       L__TerminalProcedure__DOSEntry
 5C4D:068A       L__Terminate__RTSMain
 059E:02AF       L__Terminator__Czas
 21A6:087E       L__Terminator__EventsMng
 2472:08BA       L__Terminator__FIO
 2525:1059       L__Terminator__Graphics
 0064:1973       L__Terminator__MANAGER
 26BA:133C       L__Terminator__MMMouse
 1EE5:051E       L__Terminator__Storage
 264F:02F4       L__Terminator__XMSService
 0E13:0C7E       L__TestUP_PROC__G_Oblot
 08BC:01B7       L__TheodolitView__TheodolitRead
 02C4:0084       L__TraceZoneCont_Clear__ILS_Zon
 02C4:00E1       L__TraceZone__ILS_ZoneMngmnt
 2525:001D       L__Tryb__Graphics
 0729:014C       L__TuneADF__Tune
 0729:061B       L__TuneDMEforILS__Tune
 0729:05D9       L__TuneDMEforVOR__Tune
 0729:0409       L__TuneILS__Tune
 0729:065D       L__TuneVOR__Tune
 5319:0432       L__TurnOffADFSig__DGH_utils
 0729:009C       L__TurnOffADF__Tune
 5319:0366       L__TurnOffDMESig__DGH_utils
 5319:0002       L__TurnOffILSSig__DGH_utils
 5319:027A       L__TurnOffVORSig__DGH_utils
 0729:00F4       L__TurnOffVOR_ILS__Tune
 28AC:00A0       L__TurnOff__DGHInterface
 5319:03E4       L__TurnOnADFSig__DGH_utils
 5319:02E8       L__TurnOnDMESig__DGH_utils
 5319:016E       L__TurnOnGSSig__DGH_utils
 5319:00D0       L__TurnOnLOCSig__DGH_utils
 5319:020C       L__TurnOnVORSig__DGH_utils
 28AC:00F2       L__TurnOn__DGHInterface
 2B46:17E0       L__TurnOn__G_Odb
 3813:0663       L__TworzDialog__Dialog
 4720:0A53       L__TworzEventy__PiszEventy
 359D:0028       L__TworzListe__GList
 5EE0:0127       L__UnAssignRead__Termbase
 5EE0:023E       L__UnAssignWrite__Termbase
 1E85:0517       L__UnInstallAllHandlers__Monito
 1E85:03FA       L__UnInstallHandler__Monitor__S
 1E85:03FA       L__UnInstallHandler__SoftIntHan
 5E2B:0080       L__UninstallHandler__Devices
 5CD2:0058       L__UninstallHandler__RTSDevice
 3735:0790       L__UniversalKBD__Buttons
 451C:0113       L__UniversalSAF__PI_ScrUtility
 451C:0163       L__UniversalSBF__PI_ScrUtility
 26BA:03E9       L__UnregisterRegion__MMMouse
 52D3:01FC       L__Unregister__Semafory
 56C0:0163       L__UnverslVal__L_Slupek
 224B:2171       L__UpdTab800__DataCollect
 3D76:0C2C       L__UpdateM__Polozenie
 4844:05BE       L__UpdateMarksOrbit__G_DAcquizi
 4844:0658       L__UpdateMarksRadial__G_DAcquiz
 451C:03FE       L__UpdateSlupki__PI_ScrUtility
 21A6:060A       L__UpdateStrefa__EventsMng
 15D8:34A4       L__Update__Screen
 4581:058F       L__Update__Slupek
 5AD4:0417       L__UstalSkalowanie__PrintCntrol
 4196:0002       L__UstawFormat__CocpDsp
 3AF8:01EB       L__UstawHomeDir__Obloty
 2FDC:0082       L__UstawOkresImpulsowania__FIlt
 4196:0315       L__UstawZmienne__CocpDsp
 3813:0B28       L__UsunDialog__Dialog
 359D:04C1       L__UsunListe__GList
 0CD8:03D6       L__UsunOblotP__G_Inspekcja
 0CD8:033B       L__UsunOblot__G_Inspekcja
 0729:08FF       L__VORDecFch__Tune
 0729:08B9       L__VORIncFch__Tune
 2E0A:04FA       L__VOR_Default__NAVGPIB
 5AD4:0248       L__ValidPodz__PrintCntroll
 0E13:0DE5       L__ValidReal__G_Oblot
 0E13:0CFE       L__View_PROC__G_Oblot
 0064:0BEF       L__WAITC__MANAGER
 0064:0BEF       L__WAITC__Scheduler__MANAGER
 0064:0AFD       L__WAITS__MANAGER
 0064:0AFD       L__WAITS__Scheduler__MANAGER
 1F41:0309       L__WaitBefProtOper__Monitor__Ti
 1F41:0309       L__WaitBefProtOper__Timer
 28AC:005A       L__WaitForNewData__DGHInterface
 1F41:03B8       L__WaitMetronomeBefProtOper__Mo
 1F41:03B8       L__WaitMetronomeBefProtOper__Ti
 1F41:043F       L__WaitMetronome__Monitor__Time
 1F41:043F       L__WaitMetronome__Timer
 1F41:0277       L__Wait__Monitor__Timer
 1F41:0277       L__Wait__Timer
 2D9C:0017       L__Warn__MsgBox
 4196:0C01       L__WatchDogProcess__CocpDsp
 09C6:0309       L__WatchDog__GPSRead
 08BC:0DF1       L__WatchDog__TheodolitRead
 2517:0069       L__WorseBGreater__WorseBecause
 2517:003E       L__WorseBLessDis__WorseBecause
 2517:0002       L__WorseBLess__WorseBecause
 29B4:144C       L__Wr2StrXY__HiLevGraf
 29B4:1504       L__Wr2fStrXY__HiLevGraf
 46E7:02AF       L__WrF_TablicaOdci__DisResUtili
 4FE3:1799       L__WrF_TablicaOdci__Print
 46E7:0170       L__WrFlagsTableWHeading__DisRes
 4FE3:15A6       L__WrFlagsTableWHeading__Print
 46E7:023C       L__WrFlagsTable__DisResUtilitie
 4FE3:16BA       L__WrFlagsTable__Print
 4FE3:0360       L__WrLn__Print
 4FE3:0390       L__WrPrnLn__Print
 4FE3:02A2       L__WrPrn__Print
 518C:1253       L__WrProc__DrawEpson
 46E7:00F4       L__WrSPlus__DisResUtilities
 46E7:00BE       L__WrS__DisResUtilities
 56C0:00BE       L__WrStrXYDummy__L_Slupek
 29B4:138A       L__WrStrXY__HiLevGraf
 29B4:12D2       L__WrStr__HiLevGraf
 4FE3:0232       L__Wr__Print
 5B99:04B2       L__WriteCardMode__ARINC
 0B0A:0D0F       L__WriteFileRes__G_Files
 5B99:03F4       L__WriteKillTime__ARINC
 5EC3:012C       L__WriteLn__Terminal
 3205:06C6       L__WritePrivateProfileString__I
 2ED8:00F3       L__WriteString__DigiRS
 5EC3:013B       L__WriteString__Terminal
 5B99:0173       L__WriteTXChannel__ARINC
 5B99:026F       L__WriteTXData__ARINC
 5B99:01F1       L__WriteTXLabel__ARINC
 5B99:00FF       L__WriteTXParity__ARINC
 5B99:032A       L__WriteTXRate__ARINC
 46E7:000A       L__WriteTab__DisResUtilities
 45F0:0329       L__WriteTab__G_DisResults
 059E:0128       L__WriteTime__Czas
 5F33:0002       L__Write__Display
 2472:02BC       L__Write__FIO
 5EE0:01F1       L__Write__Termbase
 5EC3:011B       L__Write__Terminal
 28AC:0CCB       L__Writer__DGHInterface
 3813:002D       L__WstawButton__Dialog
 359D:08C9       L__WstawDoListy__GList
 3813:03EC       L__WstawInpLine__Dialog
 3813:0518       L__WstawListe__Dialog
 3813:0156       L__WstawRadioButton__Dialog
 359D:100F       L__Wybor__GList
 451C:0305       L__WykSlup__PI_ScrUtility
 15D8:0B48       L__WykrEvent__Dialog__Screen
 4581:0002       L__WykresSlupkowy__Slupek
 3AF8:041D       L__WymInspekcjeDlaUrz__Obloty
 0CD8:072E       L__WymienPasujaceObloty__G_Insp
 3AF8:04E4       L__WymienWszystkiePasujace__Obl
 4FE3:183C       L__WypiszStrefy__Print
 2B46:1CA1       L__Wznow__G_Odb
 2638:0000       L__XmsInstalled__XMS
 0E13:09E4       L__Zabezpieczenie_A__G_Oblot
 0E13:0A03       L__Zabezpieczenie_B__G_Oblot
 0E13:0EA8       L__ZakonczDlg__G_Oblot
 0390:197A       L__ZaokraglicDo500__SpecConv
 1953:0091       L__ZapamietajBP__MouseMonitor__
 0E13:30A5       L__Zapisz__G_Oblot
 2B46:1C84       L__Zatrzymaj__G_Odb
 3AF8:06B2       L__ZmienISkasuj__Obloty
 359D:0AC4       L__ZmienListe__GList
 0CD8:0453       L__ZmienOblot__G_Inspekcja
 0C24:0892       L__ZmienOdniesienie__ZoomInterf
 3323:0A04       L__ZmienPDefault__Zoom
 3A7B:00C5       L__ZmiennaNiezalezna__PI_ZoomSp
 3323:1B58       L__ZmiennaNiezalezna__Zoom
 4FE3:12D3       L__ZnacznikiOdleglosci__Print
 3AF8:0FF8       L__ZnajdzInspekcje__Obloty
 02C4:0567       L__ZoneAnalyse__ILS_ZoneMngmnt
 02C4:0910       L__ZoneBDisIdx_Init__ILS_ZoneMn
 02C4:0191       L__ZoneConClear__ILS_ZoneMngmnt
 3323:0889       L__ZoomOutPionP1__Zoom
 3323:089D       L__ZoomOutPionP2__Zoom
 3323:08B1       L__ZoomOutPionP3__Zoom
 3323:08C5       L__ZoomOutPionP4__Zoom
 3323:0880       L__ZoomOutPoziomP__Zoom
 2525:0CF3       L___Wr16StrXY__Graphics
 2525:0CF3       L___Wr16StrXY__InternalMonitor_
 2525:0DC9       L___Wr2StrXY__Graphics
 2525:0DC9       L___Wr2StrXY__InternalMonitor__
 2525:0F13       L___Wr2fStrXY__Graphics
 2525:0F13       L___Wr2fStrXY__InternalMonitor_
 2525:08E1       L___WrStrXY__Graphics
 2525:08E1       L___WrStrXY__InternalMonitor__G
 115C:1F61       L__addAngle100__Files
 115C:203F       L__addNormal__Files
 5F80:04CA       L__arctan__MathLib0
 1E85:0067       L__checkBreak__SoftIntHandlingM
 5F80:03A5       L__cos__MathLib0
 0390:14EA       L__entierCheck__SpecConv
 5F80:05BE       L__entier__MathLib0
 0390:15A6       L__entier__SpecConv
 5F80:0098       L__exp__MathLib0
 3055:109C       L__gpzdaOff__GPS_nov
 5650:009E       L__ieabort__M_PGPIB
 5650:00BE       L__iedevclr__M_PGPIB
 5650:01AA       L__iedevice__M_PGPIB
 5650:008D       L__ieenter__M_PGPIB
 5650:0188       L__ieentera__M_PGPIB
 5650:00AD       L__ieeol__M_PGPIB
 5650:006B       L__ieinit__M_PGPIB
 5650:00CF       L__iello__M_PGPIB
 5650:00DE       L__ielocal__M_PGPIB
 5650:0199       L__ieouta__M_PGPIB
 5650:007C       L__ieoutput__M_PGPIB
 5650:00EF       L__ieppoll__M_PGPIB
 5650:0100       L__ieppollc__M_PGPIB
 5650:0111       L__ieppollu__M_PGPIB
 5650:0122       L__ieremote__M_PGPIB
 5650:0133       L__iesend__M_PGPIB
 5650:0144       L__iespoll__M_PGPIB
 5650:0155       L__iestatus__M_PGPIB
 5650:0166       L__ietimout__M_PGPIB
 5650:0177       L__ietrig__M_PGPIB
 359D:0B8E       L__kbHandler__GList
 5F80:0209       L__ln__MathLib0
 4FE3:01DE       L__log__Print
 004C:0002       L__onEntryHandler__DOSEntry
 004C:004F       L__onExitHandler__DOSEntry
 5F80:05AC       L__real__MathLib0
 5F80:0251       L__sin__MathLib0
 2058:1383       L__sprintf2__StdIO
 2058:11F3       L__sprintf3__StdIO
 2058:0D80       L__sprintf4__StdIO
 2058:0F81       L__sprintf5__StdIO
 2058:037B       L__sprintf__StdIO
 5F80:002A       L__sqrt__MathLib0
 115C:1FCB       L__subNormal__Files
 73AB:0062       L_day__GPS_TRIMBLE
 73AB:0049       L_epe__GPS_TRIMBLE
 73AB:0066       L_hour__GPS_TRIMBLE
 73AB:0068       L_min__GPS_TRIMBLE
 73AB:0060       L_month__GPS_TRIMBLE
 73AB:006A       L_sec__GPS_TRIMBLE
 73AB:0064       L_year__GPS_TRIMBLE
 60CD:0016       LastCreated__MANAGER
 62C9:0027       LastDTidx__Screen
 73B3:507D       LastDir__Ini
 62C9:002E       LastEventIDX__Screen
 60CD:021C       LastMask__MANAGER
 7B6B:0784       LastPosition__DrawEpson
 7322:000A       LastPosition__HiLevGraf
 72DD:0004       LastX__MMMouse
 72DD:0006       LastY__MMMouse
 615F:0013       Last_Diffmode__GPSRead
 615F:001C       Last_EPE__GPSRead
 615F:0003       Last_Gdop__GPSRead
 615F:0005       Last_NumberOfSattelites__GPSRea
 615F:0007       Last_polGeo__GPSRead
 615F:0014       Last_tog__GPSRead
 7363:039E       Line__NAVGPIB
 791A:0000       ListaDlg__Dialog
 6275:0011       ListaLokalizacjiBAK__G_Inspekcj
 6275:000D       ListaLokalizacji__G_Inspekcja
 6275:0009       ListaOblotowBAK__G_Inspekcja
 6275:0005       ListaOblotow__G_Inspekcja
 7918:0004       Lista__GList
 6270:0019       Lista__ZoomInterface
 5CE8:006F       Listen__RTSPriority
 79EE:0910       LocDev_delay__Kalibracja
 79EE:0920       LocPrcMod_delay__Kalibracja
 5C3D:0032       LongIntegerOvf__RTSError
 60CD:000E       LongestProcess__MANAGER
 62E2:0000       Lotnisko__L_DataBase
 5C4D:0683       M2Halt__RTSMain
 6330:0004       MDispl__Messages
 6330:0000       MList__Messages
 72DD:03F5       MSemafor__MMMouse
 79C9:011F       MarkerShapes__Polozenie
 7B6B:0786       Masks__DrawEpson
 60CD:000A       MaxNumOfReady__MANAGER
 60CD:0126       MaxRecTime__MANAGER
 60CD:000C       MaxRunTime__MANAGER
 79C9:0008       MaxVal__Polozenie
 6330:0008       MessageSound__Messages
 79EE:0960       MkrAgc_delay__Kalibracja
 7B6B:07A4       MnX__DrawEpson
 7B6B:07A6       MnY__DrawEpson
 73B3:50E1       Modified__Ini
 5CE8:0000       MonEntry__RTSPriority
 5CE8:0043       MonExit__RTSPriority
 72DD:0058       MonitoCheck__BezPrzerwanOdMyszy
 6037:0036       MonitorExitProc__RTSMonExit
 72DD:005A       MouseEvent__BezPrzerwanOdMyszy_
 6270:002F       MozeBycDme__ZoomInterface
 6270:002E       MozeBycGlowny__ZoomInterface
 79C9:011B       NCO__Polozenie
 5C31:0000       NMIServer
 799C:00D5       NUrzadzDlaDopasuj__Obloty
 56C0:0865       N__Activate__InitSlupek__L_Slup
 147C:0B92       N__AlfaRefInfo__PomiarEP__Pomia
 45F0:096C       N__An_AnalizaDsc__DispResults__
 3055:05E2       N__An_Frame_DOPA__GetFrame__GPS
 3055:0A2D       N__An_Frame_GPGGA__GetFrame__GP
 3055:0B25       N__An_Frame_GPVTG__GetFrame__GP
 3055:0C2E       N__An_Frame_GPZDA__GetFrame__GP
 45F0:0A24       N__An_MkrLength__An_OpisOsi__Di
 45F0:0D89       N__An_OpisBadDod__DispResults__
 45F0:0AB7       N__An_OpisOsi__DispResults__G_D
 45F0:0E06       N__An_OpisPokrycia__DispResults
 45F0:0C81       N__An_OpisProfilB__DispResults_
 45F0:0BC4       N__An_OpisSektora__DispResults_
 45F0:0DC5       N__An_OpisZabezpieczenie__DispR
 48DC:03FC       N__AnalizeMain__Do_Analiza__Ana
 48DC:01CE       N__AnalyseZoneLa__Do_Analiza__A
 08BC:0107       N__Angle360__TheodolitView__The
 5818:1DC5       N__AssignAz__CntProcedures_Epil
 0E13:23BC       N__AssignButt__InitLot__G_Oblot
 5818:15ED       N__AssignEvalProc__CntProcedure
 0B0A:0E6A       N__AssignName__InitLocals__G_Fi
 4844:01DF       N__AssignPilotEvBlock__Acquire_
 08BC:086F       N__AssignRes__Analizer__Theodol
 426F:0B8B       N__AutoFormat__OpisLog__Wykres
 1B29:264B       N__AwaryjnaSymetria__WartosciAw
 1B29:2613       N__AwaryjnaSzerokoscSektora__Wa
 2058:031F       N__BuildNumber__sprintf__StdIO
 26BA:08F0       N__Button2Ev__GetEvent__BezPrze
 28AC:06B0       N__CHKSRight__Reader__Writer__D
 02C4:0448       N__CalculateDist__CheckMkr__Zon
 02C4:0381       N__CheckDis__ZoneAnalyse__ILS_Z
 02C4:02C7       N__CheckIfLost__ZoneAnalyse__IL
 53A4:1C45       N__CheckMkrFlgs__MkrLength_Coun
 53A4:1C15       N__CheckMkrState__MkrLength_Cou
 02C4:048B       N__CheckMkr__ZoneAnalyse__ILS_Z
 02C4:03F5       N__CheckPEv__ZoneAnalyse__ILS_Z
 48DC:03A2       N__CheckZone__AnalizeMain__Do_A
 53A4:13D6       N__Check__Clearence_Addsmpl__IL
 5818:1063       N__ClearAllCont__CntProcedures_
 5818:100E       N__ClearProcTable__CntProcedure
 1B29:1404       N__ConvMark__WrMarker__PI_Repor
 0729:052E       N__ConvertFrqTOControlWord__Tun
 3055:0193       N__ConvertHexChar__ReadGPS__Get
 3055:0929       N__ConvertStrToWspGeo__GetWspGe
 08BC:097D       N__CountCrc__Analizer__Theodoli
 3CC0:0260       N__CountMaxDist__resolveSituati
 5818:19CB       N__Count_ChiLoc__CntProcedures_
 5818:1B27       N__Count_PhiLoc__CntProcedures_
 53A4:1FB6       N__Count__Bend_AddSample__ILS_E
 1F41:057E       N__Count__IBMIntHandler__Monito
 15D8:0FD7       N__CurrCursorMode__RuszKursor__
 15D8:1236       N__CurrDistance__OpisDla__InitW
 0E13:1948       N__CzytajParametry__FillData__I
 1A10:0647       N__CzytajPolozenieGeo__OpisLotn
 1A10:050C       N__CzytajPolozenieMarkerow__Opi
 1A10:040F       N__CzytajPolozeniePunktowCharak
 0E13:19BF       N__CzytajPrmtryABLP__FillData__
 0E13:1B10       N__CzytajPrmtryAB__FillData__In
 147C:0C3F       N__DataLosInfo__PomiarEP__Pomia
 3735:043F       N__Dec__DrawInter__Buttons
 15D8:1B5E       N__Define__InitSlupki__Screen
 3055:0426       N__DekomozycjaRamki__GetFrame__
 147C:0BD2       N__DeltaRefInfo__PomiarEP__Pomi
 147C:0B16       N__DisposeButtons__Done__Pomiar
 15D8:3664       N__DisposeButtons__Done__Screen
 48DC:06E8       N__Do_Analiza__Analiza__L_Count
 48DC:061D       N__Do_StructAnalyse__Do_Analiza
 147C:0B84       N__Done__PomiarEP__Pomiar
 15D8:20D1       N__DrawEvent__ShowMarks__Update
 3AF8:0DD3       N__ExistDIR__FreeSlot__Obloty
 3813:0F3F       N__Expand__Aktywizuj__Dialog
 5818:1E7C       N__FillBound__InitCon__CntProce
 0E13:1BCB       N__FillData__InitLot__G_Oblot
 4581:0317       N__FillR__Odswiez__Update__Slup
 3D76:0120       N__FlipX__InitMarkers__Polozeni
 3D76:005A       N__FlipY__InitMarkers__Polozeni
 3055:0538       N__GetCardinal__GetFrame__GPS_n
 1A10:0FCE       N__GetCardinal__LoadProgramPar_
 280B:056C       N__GetChar__KbdScan__ShortCuts
 48DC:0123       N__GetEvent__Do_Analiza__Analiz
 147C:0767       N__GetEvent__PomiarEP__Pomiar
 3CC0:0151       N__GetGPS__resolveSituation__Ma
 3055:058D       N__GetInteger__GetFrame__GPS_no
 08BC:09A8       N__GetNum__Analizer__TheodolitR
 2058:0022       N__GetNum__sprintf__StdIO
 3055:04F0       N__GetReal__GetFrame__GPS_nov
 1A10:02C9       N__GetStr__OpisLotniska__L_Data
 3055:09E3       N__GetWspGeo__An_Frame_GPGGA__G
 426F:1FA0       N__GetX__PokazWykresZXms__Wykre
 426F:1FC9       N__GetY__PokazWykresZXms__Wykre
 28AC:065C       N__HexDigit__CHKSRight__Reader_
 05ED:0A91       N__InitAnalizaDsc__Init__G_resu
 147C:08A5       N__InitButtony__PomiarEP__Pomia
 5818:1F84       N__InitCon__CntProcedures_Epilo
 0E13:165C       N__InitDefault__InitLot__G_Oblo
 05ED:00CC       N__InitFlagErrForARec__Init__G_
 1B29:3238       N__InitMarkery__InitDane__PI_Re
 05ED:011D       N__InitMkrLength__Init__G_resul
 1B29:3194       N__InitSektory__InitDane__PI_Re
 1B29:31E5       N__InitWlSektora__InitDane__PI_
 05ED:0956       N__Init_an_OpisBadDod__Init__G_
 05ED:0286       N__Init_an_OpisOsi__Init__G_res
 05ED:0A6C       N__Init_an_OpisPokrycia__Init__
 05ED:07AE       N__Init_an_OpisProfilB__Init__G
 05ED:05E0       N__Init_an_OpisSektora__Init__G
 05ED:09AE       N__Init_an_OpisZabezpieczenie__
 2058:00C8       N__IntConv__sprintf__StdIO
 48DC:00F0       N__Interpolacja__Analiza__L_Cou
 3055:06A2       N__Isolate__ConvertStrToWspGeo_
 3175:01D7       N__Isolate__ReadG__GetFrame__GP
 3AF8:09B5       N__KasujPlik__KasujPodkartoteke
 15D8:35AE       N__KasujSlupki__Done__Screen
 499F:1831       N__KatSciezki_P__Print__G_Print
 3735:0A36       N__KillButton__DisposeButton__B
 280B:0691       N__Kill__DeleteShortCut__ShortC
 4581:02EE       N__Kolor__Update__Slupek
 3AF8:11EB       N__KopiujPlik__KopiujPodkartote
 3D76:0A88       N__LL__DrawNCO__Polozenie
 426F:1024       N__LineH__OpisLog__Wykres
 426F:0C63       N__LineV__OpisLog__Wykres
 3EAC:17D7       N__LoadChannel__LoadSegmentTabl
 3EAC:15EC       N__LoadReal__LoadSegmentTables_
 3EAC:1719       N__LoadSegment__LoadChannel__Lo
 3EAC:1673       N__LoadTable__LoadSegmentTables
 3EAC:14D4       N__LoadValue__LoadSegmentTables
 02C4:020C       N__LookForNextPnt__ZoneAnalyse_
 3EAC:09FA       N__Lookup__OmnibearingV__Kalibr
 499F:0B8B       N__LstZToBeTraced__OpisPomiaru_
 0E13:2037       N__Make2__AssignButt__InitLot__
 0E13:2102       N__Make3__AssignButt__InitLot__
 0E13:2276       N__Make4__AssignButt__InitLot__
 15D8:2CA3       N__MarkDraw__WskazWykresy__Upda
 499F:0D57       N__MarkerLength__OpisPomiaru__G
 1B29:23D4       N__Markery__PrzygotujDane__PI_R
 3CC0:0696       N__Min__Promienie__Mapa
 1B29:2566       N__Min__PrzygotujDane__PI_Repor
 15D8:2D80       N__NapiszGPSFlg__NapiszGPS__Upd
 15D8:2DE6       N__NapiszGPS__UpdateNapisy__Upd
 15D8:30F6       N__NapiszTEO__UpdateNapisy__Upd
 147C:06EF       N__NastepnyStan__GetEvent__Pomi
 0C24:0184       N__Niepusty__Load__ZoomInterfac
 4581:036C       N__Odswiez__Update__Slupek
 19C8:0036       N__Ofset__InitPomiar__PI_Pomiar
 29B4:030F       N__OpenF__LoadDIB__HiLevGraf
 499F:1581       N__OpisBadDod_P__OpisPomiaru__G
 15D8:13D2       N__OpisDla__InitWykr__Dialog__S
 499F:0E8D       N__OpisOsiP__OpisPomiaru__G_Pri
 499F:13B7       N__OpisProfB_P__OpisPomiaru__G_
 499F:127E       N__OpisSektoraP__OpisPomiaru__G
 499F:1609       N__OpisZabezpieczenia_P__OpisPo
 53A4:210C       N__OutSide__Bend_AddSample__ILS
 1B29:237C       N__PodstawInteger__PrzygotujDan
 1B29:229D       N__PodstawJesliJest__PrzygotujD
 1B29:22BE       N__PodstawWlasnoscSektora__Przy
 3175:0509       N__PodstawWyniki__GetFrame__GPS
 1B29:2593       N__PodstawZasiegi__PrzygotujDan
 499F:168E       N__Pokrycie_P__OpisPomiaru__G_P
 499F:38EA       N__Pokrycie__Print__G_Print
 147C:05EF       N__PoprawnieUstawButtony__Pomia
 4196:077A       N__PozWskazowki__SetLOC_G_SCP__
 499F:09A1       N__PrintStdValues__OpisPomiaru_
 0E13:2E5B       N__ProcIdentifier__Zapisz__G_Ob
 499F:2555       N__ProfB__Print__G_Print
 147C:0C88       N__PrologAnalyse__PomiarEP__Pom
 08BC:0915       N__Rd__Analizer__TheodolitRead
 0B0A:0511       N__Rd__LoadData__G_Files
 5319:0480       N__ReadAnalog__ReadValue__DGH_u
 3175:006A       N__ReadEOL__GetFrame__GPS_TRIMB
 3175:00C9       N__ReadGPS__GetFrame__GPS_TRIMB
 3055:0200       N__ReadGPS__GetFrame__GPS_nov
 3175:0306       N__ReadG__GetFrame__GPS_TRIMBLE
 2B46:10A6       N__ReadNAV__Oblicz__G_Odb
 3175:0021       N__ReadPacketHead__GetFrame__GP
 28AC:07A4       N__Reader__Writer__DGHInterface
 15D8:0BF3       N__RedrawRqs__Xchg__Dialog__Scr
 3735:0052       N__Remove__RemoveToKill__MONITO
 280B:01A0       N__Remove__RemoveToKill__monito
 3D76:0226       N__Rot90__InitMarkers__Polozeni
 5818:26B2       N__RoughErr_An__DoBendAnalyse__
 499F:3424       N__RownowagaModulacji__Print__G
 3D76:0EEE       N__Rysuj__Promienie__Polozenie
 3EAC:243E       N__SaveChannel__SaveSegmentTabl
 0E13:1E47       N__SaveDefault__InitLot__G_Oblo
 3EAC:2293       N__SaveReal__SaveSegmentTables_
 3EAC:23A0       N__SaveSegment__SaveChannel__Sa
 3EAC:230E       N__SaveTable__SaveSegmentTables
 3EAC:219B       N__SaveValue__SaveSegmentTables
 147C:015F       N__Sek2__PolaryzacjaBP__Pomiar
 4196:05AF       N__SendMsg__ControlLoop__CocpDs
 0CD8:0EA4       N__SetDefInsp__InspekcjaEP__G_I
 4196:0823       N__SetLOC_G_SCP__ControlLoop__C
 15D8:1AFD       N__ShowCurrDIB__InitSlupki__Scr
 15D8:22B6       N__ShowMarks__UpdateWykr__Updat
 224B:034B       N__ShrinkX__Tablice800__tablice
 224B:0219       N__Shrink__Tablice800__tablice_
 4F02:010A       N__Side__AngAddSample__Marks
 4F02:0423       N__Side__DisAddSample__Marks
 426F:17B3       N__SkalX__PokazWykresNSLog__Wyk
 426F:222D       N__SkalX__PokazWykresZXms__Wykr
 426F:062B       N__SkalX__PokazWykres__Wykres
 426F:0101       N__SkalY__Draw__Wykres
 426F:0853       N__SkalY__PokazWykres1__Wykres
 426F:1546       N__SkalY__PokazWykresNSLog__Wyk
 426F:1FF2       N__SkalY__PokazWykresZXms__Wykr
 426F:052F       N__SkalY__PokazWykres__Wykres
 4581:0229       N__Skala__Update__Slupek
 3EAC:143A       N__Status__Error__Kalibracja
 2058:023F       N__StripSpaces__sprintf__StdIO
 499F:2D26       N__SzSekt__Print__G_Print
 07EE:0131       N__Tlo__Sprawdz__PI_Qcheck
 3205:018F       N__ToEOL__LookForEntry__Ini
 0729:0303       N__TuneGS__TuneILS__Tune
 5818:1598       N__TurnOn__AssignEvalProc__CntP
 115C:1965       N__TworzK__KopiujWszystkiePliki
 3175:03CB       N__TypGPS__GetFrame__GPS_TRIMBL
 224B:20FA       N__UpdateAlfaMarks__UpdTab800__
 224B:2092       N__UpdateDistMarks__UpdTab800__
 224B:0152       N__UpdateNR__Tablice800__tablic
 15D8:3357       N__UpdateNapisy__Update__Screen
 15D8:2485       N__UpdateWykr__Update__Screen
 1B29:21E1       N__UstawSektory__PrzygotujDane_
 0530:0010       N__UsunNajmniejszy__FlagErr_Ana
 3813:0A79       N__UsunPola__UsunDialog__Dialog
 359D:02FB       N__UsunStr__SkasujWszystko__GLi
 1B29:2684       N__WartosciAwaryjne__PrzygotujD
 07EE:0203       N__WrInt__Sprawdz__PI_Qcheck
 07EE:027E       N__WrPrc__Sprawdz__PI_Qcheck
 499F:0B99       N__WrSectSignDesc__OpisPomiaru_
 499F:0C7F       N__WrSignDesc1__MarkerLength__O
 499F:0A54       N__WrSignDesc1__OpisPomiaru__G_
 499F:0B13       N__WrSignDesc__OpisPomiaru__G_P
 359D:107D       N__WrStr__Draw__GList
 4720:0AA6       N__WrStr__PiszNaEkranie__PiszEv
 07EE:019A       N__WrStr__Sprawdz__PI_Qcheck
 45F0:07C8       N__Wr_DevValueTab_WL__DispResul
 45F0:078C       N__Wr_DevValueTab__DispResults_
 45F0:0835       N__Wr_Integer_WL__DispResults__
 45F0:08A0       N__Wr_SignalInSecDsc_WL__DispRe
 45F0:06C1       N__Wr_SignalsRecDsc_WL__DispRes
 45F0:0623       N__Wr_SignalsRecDsc__DispResult
 15D8:1F5F       N__WriteText__ShowMarks__Update
 45F0:04C7       N__WriteZoneDist__DispResults__
 15D8:2D08       N__WskazWykresy__Update__Screen
 3175:016D       N__WspGeoPoprawne__ReadG__GetFr
 3055:0B90       N__Wydziel__An_Frame_GPZDA__Get
 3175:043F       N__Wydziel__GetFrame__GPS_TRIMB
 56C0:0B66       N__WykProcInit__InitSlupek__L_S
 451C:0263       N__WykSlupF__WykSlup__PI_ScrUti
 3D76:0959       N__XY__LL__DrawNCO__Polozenie
 4720:038B       N__Znacznik__Decode__PiszEventy
 4844:015A       N__ZnacznikiPol__Acquire__G_DAc
 15D8:2201       N__ZwKrokOpisuOsi__ShowMarks__U
 5818:1E33       N__alig_ContinerClear__CntProce
 2F0A:04DF       N__convDigit__RealToString__Rea
 2F0A:0572       N__convertnumber__RealToString_
 2F0A:05EA       N__exp10__RealToString__RealCon
 4F02:0050       N__findidx__AngAddSample__Marks
 4F02:037F       N__findidx__DisAddSample__Marks
 4F02:0670       N__findidx__SegZakonczony__Mark
 4196:090E       N__pozycjaStrzalki__ControlLoop
 56C0:0AB0       N__regionyWykActvABS__InitSlupe
 56C0:09F5       N__regionyWykActv__InitSlupek__
 56C0:0B14       N__regionyWykInit__InitSlupek__
 3055:03B1       N__szukaniePola__GetFrame__GPS_
 6285:013F       Nadajnik1__CommonData
 6285:0140       Nadajnik2__CommonData
 625B:00A4       NameRes__G_Files
 629B:00B0       NamesAlfa__Files
 629B:0008       NamesAn__Files
 629B:00E8       NamesComm__Files
 629B:0040       NamesDist__Files
 625B:0004       NamesSig__G_Files
 62BF:006E       NapisB_01__Pomiar
 79C9:0020       Narysowany__Polozenie
 6285:0052       NazwaOblotu__CommonData
 799C:0000       NazwaPlikuIni__Obloty
 6285:007B       NazwaPlikuOpisu__CommonData
 799C:015B       NazwaPlikuZOpisem__Obloty
 7B45:00B7       NazwaPliku__G_Print
 6285:0000       NazwaUrzadz1__CommonData
 6285:0029       NazwaUrzadz2__CommonData
 5CF4:0000       NewProcess__RTSCoroutine
 62C9:002D       NextRedraw__Screen
 6159:0053       Nie_mozna_uruchomic_kanalu_Teod
 78C2:0274       NrX__Zoom
 60CD:0008       NuOfErrorProc__MANAGER
 60CD:0120       NuOfReady__MANAGER
 731E:000B       NumEl__monitor__ShortCuts
 60CD:001A       NumberOfProc__MANAGER
 632B:0000       OCCUPED__Storage
 615F:0000       ObecnyStan__GPSRead
 78C2:0288       ObslugaWylaczona__Zoom
 60F8:0002       Odl_dla_pom_pB__L_CommonTypes
 6277:00A9       OdnAzymut__G_Oblot
 7D76:0007       OdnB__PrintCntroll
 6270:002A       OdnB__ZoomInterface
 6285:013D       OdnDlaPomBledu__CommonData
 6285:013E       OdnDlaPomOdl__CommonData
 6277:00AD       OdnOdl__G_Oblot
 7B54:0008       OdniesienieMtx__GeoArithmetic
 7D76:0006       Odniesienie__PrintCntroll
 62C9:007D       OileKursor__Dialog__Screen
 72DD:005E       OldButtons__BezPrzerwanOdMyszy_
 79EE:0968       OmnibearingProgi__Kalibracja
 79EE:0948       Omnibearing_delay__Kalibracja
 78C2:0004       OpisWykresu__Zoom
 791C:0000       Opisy__PI_ZoomSpecific
 6285:0144       Orbita__CommonData
 6275:0015       OstatniOblot__G_Inspekcja
 6270:0029       OstatniStan__ZoomInterface
 7320:0014       Ostrzezenie_ze_za_dlugo__DGHInt
 78C2:0555       PMDLicznik__Zoom
 6037:0002       PSPAddress__RTSMain
 7361:0006       P_A__MsgBox
 5CC5:004D       ParCopy__RTSLanguage
 79EE:0AF8       Par__Kalibracja
 7322:0018       Path__HiLevGraf
 632E:000C       PeriodCount__Monitor__Timer
 632E:000A       Period__Monitor__Timer
 632E:000E       PeriodicProcedure__Monitor__Tim
 62BD:0010       PilErrDis__G_CP_ControlProc
 7B3C:0000       PoczatekStrony__PiszEventy
 79C2:0052       PokazywacPolozenie__Mapa
 7B3F:0000       PolVLewoC__L_Count
 7B3F:0004       PolVPrawoC__L_Count
 7B3F:0002       PolVZeroC__L_Count
 7B59:0004       PolozenieNapisu__Print
 6159:0000       PolozenieTeodolitu__TheodolitRe
 60EF:0000       PomiarANieArchiwum__PI_PA
 6277:00D7       Pomiar__G_Oblot
 78C2:0224       PosMarkerX__Zoom
 7BFB:0062       PosTable__L_Slupek
 6285:0146       Predkosc__CommonData
 62C9:0032       Predrawmarksreq__Screen
 62C9:0036       Predrawreq__Screen
 7B59:000A       PrevIdx__Print
 7B6B:0796       PrevPage__DrawEpson
 72DD:0054       PrevReg__MMMouse
 7B6B:0000       PrnPort__DrawEpson
 7B59:0000       PrnX__Print
 7B59:0002       PrnY__Print
 62BF:0000       ProcPom__Pomiar
 6142:0000       Procedura__G_CommonTypes
 60F8:0000       Procedura__L_CommonTypes
 79C9:011A       ProcesAktywny__Polozenie
 6285:0142       Promien__CommonData
 79C9:0006       Promien__Polozenie
 78C2:0278       PrzeskokWDol__Zoom
 78C2:0276       PrzeskokWGore__Zoom
 5C3D:003C       RangeError__RTSError
 6277:00D3       Raport__G_Oblot
 60CD:0004       ReadyFirst__MANAGER
 60CD:0118       ReadyLast__MANAGER
 5D3A:0000       RealError__RTSRealError
 79C9:0112       Rect__Polozenie
 6275:0004       RedrawScr__G_Inspekcja
 6277:00DB       RedrawScr__G_Oblot
 6153:000A       RefAlfa__ScannerI
 7330:008C       RefDisTT__G_Odb
 7330:008E       RefDis__G_Odb
 6153:0022       RefDis__ScannerI
 62C9:0047       RegionWyk1Created__Screen
 62C9:0043       RegionWyk1__Screen
 62C9:004C       RegionWyk2Created__Screen
 62C9:0048       RegionWyk2__Screen
 62C9:0051       RegionWyk3Created__Screen
 62C9:004D       RegionWyk3__Screen
 62C9:0042       RegionWykGCreated__Screen
 62C9:003E       RegionWykG__Screen
 62C9:0052       RegionWykresow__Screen
 72DD:0000       Regiony__MMMouse
 7B6B:07A3       Rotation__DrawEpson
 62BD:0002       Running__G_CP_ControlProc
 62C9:006E       RysSytMaxDis__Dialog__Screen
 79C2:0053       RysSytMaxDis__Mapa
 614E:0000       ST__PI_Qcheck
 200D:0058       S__ACKMess__Messages
 0064:0002       S__ASSERT__MANAGER
 0064:11B5       S__ActivateProcess__Scheduler__
 3813:0FCA       S__Aktywizuj__Dialog
 3205:0F29       S__AllocateBuffer__Ini
 08BC:0A73       S__Analizer__TheodolitRead
 56C0:034A       S__AssGorszeBoProc__L_Slupek
 115C:1E70       S__AssignName__Files
 2885:0002       S__BCD__HRD_Clock
 200D:0382       S__Beep__Messages
 264F:03C4       S__Blad__XMSService
 1F41:0C05       S__BreakKey__Timer
 359D:0FE8       S__CP__GList
 0064:18F5       S__CallTerminatingProcedures__M
 0390:0163       S__CheckCNil__SpecConv
 0390:009C       S__CheckINil__SpecConv
 2885:003A       S__CheckUpdateCycle__HRD_Clock
 53A4:083C       S__Check__ILS_EvalProcedures
 3813:15B1       S__ChwilowoZablokujDialog__Dial
 2B46:0CD9       S__ClearContiners__G_Odb
 0064:04D7       S__ClearQueue__MANAGER
 4844:001A       S__CommReq__Monitor__G_DAcquizi
 5818:0088       S__Common_CP__G_CntProcedures
 518C:0942       S__Conv2PL__DrawEpson
 2E0A:01F5       S__ConvertTMStr__NAVGPIB
 53A4:01D2       S__CountAzymR__ILS_EvalProcedur
 418E:001A       S__CtrlBreakProc__FCBS
 3813:1185       S__CzyMoznaSkonczyc__Dialog
 4720:0786       S__Decode__PiszEventy
 26BA:0002       S__DefineStdCursor__MMMouse
 5818:0266       S__DewMniejsz__G_CntProcedures
 2B46:01E4       S__Dew_CP__G_Odb
 2B46:0085       S__Dif_CP__G_Odb
 1953:042C       S__DisposeButtons__MouseMonitor
 15D8:1876       S__DisposeKursor__Dialog__Scree
 3323:12E0       S__DobierzDzialki__Zoom
 4E24:006A       S__DodajPolozenieGeo__GeoArithm
 518C:0ABD       S__DrawChar0__DrawEpson
 518C:0E1D       S__DrawChar90__DrawEpson
 26BA:0C8E       S__DrawCursor__BezWyszeregowani
 3735:047D       S__DrawInter__Buttons
 3D76:044A       S__DrawMarker__Polozenie
 3D76:0BA8       S__DrawNCO__Polozenie
 518C:0DA0       S__DrawText0__DrawEpson
 518C:10A7       S__DrawText90__DrawEpson
 359D:1181       S__Draw__GList
 39A9:0827       S__Draw__InpLine
 3323:0978       S__EnableAll__Zoom
 3D76:0855       S__EraseMarker__Polozenie
 3EAC:1489       S__Error__Kalibracja
 52D3:02B0       S__ExceptionHandler__Semafory
 3205:0BE2       S__Expand__Ini
 3323:0B17       S__FillData__Zoom
 3CC0:09DC       S__FillPromieie__Mapa
 0A32:08D1       S__FillSignalTable__DGHIni
 3735:0205       S__FindAMark__MONITOR__Buttons
 280B:0424       S__FindAMark__monitor__ShortCut
 2525:1064       S__FindROMFontAddr__Graphics
 280B:0382       S__Find__monitor__ShortCuts
 3205:001E       S__FormSectionString__Ini
 264F:01F3       S__Free__XMSService
 1EE5:04FF       S__GetChain__Storage
 29B4:15BC       S__GetDir__HiLevGraf
 26BA:096B       S__GetEvent__BezPrzerwanOdMyszy
 4844:00D9       S__GetEvent__Monitor__G_DAcquiz
 1953:036D       S__GetEvent__MouseMonitor__PI_A
 2525:09BB       S__GetFontPtr__InternalMonitor_
 2885:006D       S__GetGodzina__HRD_Clock
 2E0A:0261       S__GetResponse__NAVGPIB
 1EE5:04CB       S__GetStrategia__Storage
 1419:02EE       S__GsElErr__G_CP_ControlProc
 2525:008B       S__HugeMemCpy__Graphics
 5B99:0002       S__INByte__ARINC
 0064:05E2       S__INSERT__MANAGER
 0E13:0ADC       S__IdentPkt__G_Oblot
 3AF8:0266       S__IleInspekcji__Obloty
 4844:06F2       S__IniData__G_DAcquizition
 1953:017C       S__InitButtony__MouseMonitor__P
 15D8:1983       S__InitButtony__Screen
 1B29:327F       S__InitDane__PI_Report
 15D8:17F1       S__InitDialog__Dialog__Screen
 21A6:04F4       S__InitEvents__EventsMng
 2472:097A       S__InitFiles__FIO
 15D8:1D4C       S__InitKrokOpisuOsi__Screen
 0B0A:0F16       S__InitLocals__G_Files
 3D76:032E       S__InitMarkers__Polozenie
 15D8:1B9A       S__InitSlupki__Screen
 224B:15DF       S__InitTab__tablice__DataCollec
 0A32:03D8       S__InitTableOfNames__DGHIni
 52D3:03BE       S__InitTbl__Semafory
 15D8:1749       S__InitWykr__Dialog__Screen
 115C:2852       S__Init__Files
 56C0:133F       S__Init__L_Slupek
 26BA:00D9       S__Init__MMMouse
 2D9C:064D       S__Init__MsgBox
 07EE:092F       S__Init__PI_Qcheck
 2D82:0002       S__Init__ScreenCTypes
 0064:002D       S__InsertReady__MANAGER
 3735:0002       S__Insert__MONITOR__Buttons
 1F41:0002       S__Insert__Monitor__Timer
 280B:013F       S__Insert__monitor__ShortCuts
 0064:1A6A       S__InstallTerminator__MANAGER
 1B29:2138       S__JakaWysokosc__PI_Report
 3AF8:0B21       S__Kasuj_DelDir__Obloty
 3055:0170       S__KopZnakDoKanaluMonitora__GPS
 3AF8:1564       S__KopiujKartoteke__Obloty
 3323:04E7       S__KtoryWykres__Zoom
 15D8:18A7       S__KursoffOff__Dialog__Screen
 15D8:18CD       S__KursoffOn__Dialog__Screen
 3323:0BAE       S__LoadData__Zoom
 2525:108B       S__LoadPLFonts__Graphics
 1A10:103D       S__LoadProgramPar__L_DataBase
 3EAC:1E6D       S__LoadSegmentTables__Kalibracj
 0C24:01E1       S__Load__ZoomInterface
 426F:009B       S__Log10__Wykres
 426F:1DFD       S__LogPos__Wykres
 02C4:0002       S__LookFNKP__ILS_ZoneMngmnt
 3205:020F       S__LookForEntry__Ini
 3205:010A       S__LookForSection__Ini
 499F:088F       S__MakeHeader__G_Print
 3CC0:0419       S__MakeMAP__Mapa
 518C:0107       S__Map__DrawEpson
 44E6:0245       S__Map__XMSTable
 3735:0318       S__MarkBut__MONITOR__Buttons
 2ED8:004E       S__MarkError__DigiRS
 3323:1E59       S__MaxV__Zoom
 29B4:0007       S__Max__HiLevGraf
 4E24:0601       S__Mile__GeoArithmetic
 3323:1EA8       S__MinMax__Zoom
 3323:1E0A       S__MinV__Zoom
 29B4:0027       S__Min__HiLevGraf
 0E13:1631       S__NadajnikCH__G_Oblot
 560E:002A       S__Next__Random
 29B4:0741       S__Norm__HiLevGraf
 451C:0203       S__NowySlup__PI_ScrUtility
 5B99:0062       S__OUTByte__ARINC
 200D:0358       S__OUTMessage__Messages
 4E24:01D4       S__OdejmijPolozenieGeo__GeoArit
 4E24:04C0       S__Odl2Geo__GeoArithmetic
 0E13:137F       S__OdnOdlP__G_Oblot
 4E24:012E       S__Odwr__GeoArithmetic
 499F:172D       S__OpisPomiaru__G_Print
 4FE3:0886       S__PointA__Print
 4FE3:0ADD       S__PointB__Print
 15D8:054D       S__PokazWgKursora__Dialog__Scre
 0CD8:02D1       S__Pokaz__G_Inspekcja
 0E13:0D7B       S__Pokaz__G_Oblot
 3323:182C       S__PopX__Zoom
 3323:1A0A       S__PopY__Zoom
 499F:3E7B       S__Print__G_Print
 1B29:26A4       S__PrzygotujDane__PI_Report
 3323:179A       S__PushX__Zoom
 3323:18B7       S__PushY__Zoom
 0064:07D2       S__REMOVE__MANAGER
 4E24:03A9       S__Rad__GeoArithmetic
 0A32:0CDC       S__ReadDGHIniFile__DGHIni
 0E13:0D1E       S__RealVal__G_Oblot
 0E13:147D       S__RealValid__G_Oblot
 15D8:01D5       S__RectWykresy__Screen
 3CC0:008A       S__RedefineMaxDist__Mapa
 3323:082E       S__RedrawAll__Zoom
 26BA:0B5F       S__RedrawAt__BezWyszeregowania_
 359D:1046       S__Redraw__GList
 3323:2059       S__Redraw__Zoom
 115C:1902       S__RemoveBSl__Files
 26BA:0C0A       S__RemoveCursor__BezWyszeregowa
 0064:0236       S__RemoveReady__MANAGER
 3735:01B5       S__RemoveToKill__MONITOR__Butto
 280B:032C       S__RemoveToKill__monitor__Short
 1F41:0159       S__Remove__Monitor__Timer
 15D8:10CD       S__RuszKursor__Dialog__Screen
 2B46:013E       S__SS_CP__G_Odb
 0064:102A       S__STOPPROCESS__Scheduler__MANA
 0729:049F       S__SendDMECntrlWrd__Tune
 0729:0007       S__Send__Tune
 1EE5:04E7       S__SetChain__Storage
 1F41:07F7       S__SetCount__Monitor__Timer
 3EAC:09B6       S__SetError__ErrorHand__Kalibra
 29B4:0230       S__SetPalette__HiLevGraf
 359D:1790       S__SetPositions__GList
 359D:16B4       S__SetSelectionInt__GList
 26BA:0639       S__SetShape__MMMouse
 1EE5:04B3       S__SetStrategia__Storage
 059E:00E8       S__SetTimeAndDate__BezPrzerwan_
 15D8:0CC9       S__ShowBarCursor__Dialog__Scree
 1A10:02B1       S__SignalError__L_DataBase
 3AF8:0738       S__SkasujKartoteke__Obloty
 4E24:02F0       S__SredniPolozenieGeo__GeoArith
 0B0A:00B5       S__StartFiles__G_Files
 224B:1BBB       S__Start__DataCollect
 29B4:0047       S__StdPalette__HiLevGraf
 0064:1144       S__StopAError__Scheduler__MANAG
 3CC0:0922       S__Stop__monitor__Mapa
 0E13:160F       S__StronaCH__G_Oblot
 29B4:071E       S__Swap__HiLevGraf
 26BA:0623       S__Swap__MMMouse
 224B:0422       S__Tablice800__tablice__DataCol
 0729:0697       S__TuneVOR_ILS__Tune
 451C:0063       S__UniversalAB__PI_ScrUtility
 15D8:0259       S__UniversalEvent__Dialog__Scre
 451C:018B       S__UniversalLAB__PI_ScrUtility
 451C:013B       S__UniversalLBF__PI_ScrUtility
 451C:01B3       S__UniversalPAB__PI_ScrUtility
 451C:01DB       S__UniversalSBB__PI_ScrUtility
 3735:03BB       S__Unmark__MONITOR__Buttons
 280B:04D2       S__Unmark__monitor__ShortCuts
 15D8:0FA8       S__UpdateMap__Dialog__Screen
 5AD4:01FC       S__UstawLiczbe__PrintCntroll
 5AD4:01BC       S__UstawStrony__PrintCntroll
 518C:00A5       S__UstawTrybTekstowy__DrawEpson
 1B29:0BD8       S__WartWStrefach__PI_Report
 0E13:2DA4       S__Wlacz_Wylacz__G_Oblot
 1B29:0DA0       S__WlasSektora__PI_Report
 26BA:066E       S__WrBit__MMMouse
 1B29:0902       S__WrFmtNad__PI_Report
 26BA:0651       S__WrIdx__MMMouse
 4720:1163       S__WrLn__PiszEventy
 1B29:1482       S__WrMarker__PI_Report
 4720:117D       S__WrP__PiszEventy
 1B29:09DC       S__WrPrnFmtLn__PI_Report
 1B29:088F       S__WrPrnFmt__PI_Report
 4720:10B0       S__WrStrLn__PiszEventy
 4720:10DC       S__WrStr__PiszEventy
 1B29:0A31       S__WrTol__PI_Report
 1B29:0AEE       S__WrVal__PI_Report
 264F:0412       S__WrWarning__XMSService
 059E:003B       S__Write__BezPrzerwan__Czas
 3AF8:02DC       S__WymienWszystkie__Obloty
 15D8:0C7D       S__Xchg__Dialog__Screen
 3AF8:0EB9       S__ZnajdzNumInspekcji__Obloty
 2B46:0C0C       S__Zone_CP__G_Odb
 4720:0D48       S__min__PiszEventy
 3CC0:037D       S__resolveSituation__Mapa
 08BC:0852       S__signalError__TheodolitRead
 7B58:0001       SamName__Rap_Util
 7B58:0007       Sam__Rap_Util
 731E:0005       SavedChar__monitor__ShortCuts
 73B3:5019       SavedFileName__Ini
 6285:00FC       SciezkaOpisuPomiaru__CommonData
 791C:07BC       Sciezka__PI_ZoomSpecific
 731E:0001       ShortCutList__monitor__ShortCut
 7B45:0000       SigNam__G_Print
 6162:0F70       SignalDescr__DGHIni
 6153:0053       Simul__ScannerI
 7B33:000C       SkalaCPMax__CocpDsp
 7B33:0008       SkalaCP__CocpDsp
 7B33:000E       SkalaWPMax__CocpDsp
 7B33:000A       Skala__CocpDsp
 5CC5:0000       SpecialCASE__RTSLanguage
 7B58:0000       SpelniaWymagania__Rap_Util
 799C:01DD       SrcDir__Obloty
 7B45:00DC       Srd_Marker_G__G_Print
 7B45:00E2       Srd_Marker_Z__G_Print
 79C9:0002       Srodek__Polozenie
 5C4D:0673       StackCheck__RTSMain
 5C4D:067C       StackOvf__RTSMain
 79C9:0000       StalyKat__Polozenie
 62BF:0054       StanButtonow__Pomiar
 62BF:0075       StanZestawu__Pomiar
 632B:0023       StaraStrategia__Storage
 0001:03D9       StartModula
 62EC:0000       StartN__PI_Report
 62EC:0004       StartTol__PI_Report
 632B:0025       StaryCh__Storage
 799C:0044       Stat_File_Monitor__Obloty
 799C:0040       Stat_Size_Monitor__Obloty
 6159:003D       State__TheodolitRead
 60CD:001C       Statistic__MANAGER
 7328:0000       StatusR__GrafUtil
 72DD:01E5       Stored__BezPrzerwanOdMyszy__MMM
 60F6:0000       StringRect__BezPrzerwan__Czas
 6142:0001       Strona__G_CommonTypes
 60F8:0001       Strona__L_CommonTypes
 7322:0008       Style__HiLevGraf
 79EE:0940       SubcarPrcMod_delay__Kalibracja
 60F6:0008       SystemTime__BezPrzerwan__Czas
 6277:00C5       Szer_sekt_kier_AS__G_Oblot
 6277:00C7       Szer_sekt_kier_AW__G_Oblot
 6277:00C9       Szer_sekt_kier_N__G_Oblot
 6142:0002       Szer_sekt_kier__G_CommonTypes
 60F8:0004       Szer_sekt_kier__L_CommonTypes
 6153:0028       TEO_A__ScannerI
 6153:003A       TEO_DGPSpoprawki__ScannerI
 6153:0030       TEO_E__ScannerI
 6153:0038       TEO_OK__ScannerI
 632E:0002       TIOS__Timer
 632E:0006       TOQueue__Monitor__Timer
 60CD:0124       TSSInterval__MANAGER
 79EE:0000       TabKalib2P__Kalibracja
 6162:08E8       TableOfNames__DGHIni
 7BE6:0000       TablicaSemaforow__Semafory
 6153:000C       TeoAlfaF__ScannerI
 6159:0036       TeoEvNr__TheodolitRead
 6277:00CF       TestUP__G_Oblot
 7B59:0006       TextModeOutProc__Print
 62C9:0029       ThisDTidx__Screen
 632E:0000       TimeCounter__Timer
 60CD:0128       TimeIntNum__MANAGER
 7B59:00D5       Tmpl__Print
 7328:006E       Tone__GrafUtil
 5CF4:0143       Transfer__RTSCoroutine
 7B3D:0009       TrwaPomiarPolaryzacji__G_DAcqui
 6330:000A       TurnBeepOn__Messages
 63E8:0000       VAL1__DataCollect
 62C9:0000       VAL1__Screen
 63E8:3210       VAL2__DataCollect
 62C9:0004       VAL2__Screen
 63E8:6420       VAL3__DataCollect
 62C9:0008       VAL3__Screen
 63E8:9630       VAL4__DataCollect
 62C9:000C       VAL4__Screen
 63E8:C8A6       VALX__tablice__DataCollect
 6143:0000       VORfreqCRT__Tune
 60CD:0208       VarDR__MANAGER
 79EE:0950       VorAgc_delay__Kalibracja
 79EE:0930       VorRefPrcMod_delay__Kalibracja
 79EE:0938       VorVarPrcMod_delay__Kalibracja
 60CD:0122       WaitForInt__MANAGER
 7328:006C       WaitTime__GrafUtil
 7B45:00DE       Wew_Marker_G__G_Print
 7B45:00E4       Wew_Marker_Z__G_Print
 7BFB:0004       Wyk1Proc__L_Slupek
 7330:0080       Wyk1Val__G_Odb
 7BFB:0008       Wyk2Proc__L_Slupek
 7330:0084       Wyk2Val__G_Odb
 7BFB:000C       Wyk3Proc__L_Slupek
 7330:0088       Wyk3Val__G_Odb
 7BFB:0000       WykMainProc__L_Slupek
 7330:007C       WykMainVal__G_Odb
 7C1A:0346       WysokoscAv_PB_Con__G_CntProcedu
 79EE:13F8       WystapilBlad__Kalibracja
 7322:0059       XS__HiLevGraf
 78C2:02C9       XStackDepth__Zoom
 78C2:02A1       XStack__Zoom
 7322:005B       YS__HiLevGraf
 78C2:054B       YStackDepth__Zoom
 78C2:02CB       YStack__Zoom
 6270:0005       Zawartosc__ZoomInterface
 7B59:0013       ZestawProbekBinDoWyboru__Print
 7B45:0050       Zestaw__G_Print
 7D76:0004       Zestaw__PrintCntroll
 62C9:0010       Zestaw__Screen
 7B45:00DA       Zew_Marker_G__G_Print
 7B45:00E0       Zew_Marker_Z__G_Print
 62C9:007F       ZmianaSkaliWpionie__Dialog__Scr
 78C2:0000       ZmienP__Zoom
 78C2:0286       ZnacznikPrzerwy__Zoom
 78C2:028D       ZoomOutPion__Zoom
 78C2:0289       ZoomOutPoziom__Zoom
 7BF1:0000       a__Random
 73AB:0006       actPart__GPS_TRIMBLE
 73A2:0006       actPart__GPS_nov
 6037:001A       activProcess__RTSMain
 7320:0010       activated__DGHInterface
 6056:0000       addProcess__RTSCoroutine
 7BEC:0000       address__DGH_utils
 7330:001E       agcM__G_Odb
 7330:001A       agc__G_Odb
 62C9:001C       aktFormat360__Screen
 62C9:0013       aktPromienOdAnt__Screen
 62C9:0011       aktPromien__Screen
 79C2:0040       aktualny__Mapa
 62BF:0082       alfaOff__Pomiar
 7C1A:159E       aligSec_Con__G_CntProcedures
 7C1A:0282       alig_Con__G_CntProcedures
 60F9:0094       anRes__G_results
 63E8:C844       angContiner__DataCollect
 79C9:011C       angContiner__Polozenie
 60C3:0009       archData__AG
 5E95:001E       areSetsEQ__Longs
 7330:000A       audio_L__G_Odb
 7330:000C       audio_V__G_Odb
 7C1A:0246       azAv_PO_Con__G_CntProcedures
 6277:0005       bAlarmSciezki__G_Oblot
 6277:0065       bAlarmSzer_pB__G_Oblot
 6277:0025       bAlarmSzeroki_pA__G_Oblot
 6277:0035       bAlarmWaski_pA__G_Oblot
 6277:006D       bAlarmWaski_pB__G_Oblot
 6277:007D       bFazowanie__G_Oblot
 6277:00B1       bIdentPunktow__G_Oblot
 6277:004D       bKatSciezki_Szer_pA__G_Oblot
 6277:0055       bKatSciezki_Waski_pA__G_Oblot
 6277:0045       bKatSciezki__G_Oblot
 6277:009D       bPokrycie8stL__G_Oblot
 6277:0095       bPokrycie8stP__G_Oblot
 6277:008D       bPokrycieWOsi__G_Oblot
 6277:0075       bRownowagaModulacji__G_Oblot
 6277:0015       bSzerSektora_pA__G_Oblot
 6277:005D       bSzer_i_Osi_pB__G_Oblot
 6277:0085       bZabezpieczenie__G_Oblot
 72C6:0004       bank__InternalMonitor__Graphics
 72C6:0006       bankstart__InternalMonitor__Gra
 799C:0099       bd_NazwaPliku__Obloty
 799C:00AA       bd_Sekcja__Obloty
 799C:00B5       bd_WpisNazwa__Obloty
 7C1A:159C       bendState__G_CntProcedures
 7BEC:0020       binAddress__DGH_utils
 7320:0006       binaryDtaSign__DGHInterface
 6037:0006       blockList__RTSMain
 632A:0000       break__SoftIntHandlingManager
 73AB:0009       bufor__GPS_TRIMBLE
 73A2:000C       bufor__GPS_nov
 62C9:0025       by23__Screen
 73B3:5017       charsInBuffer__Ini
 73B3:50E2       check__Ini
 73AB:0002       chrCount__GPS_TRIMBLE
 73A2:0002       chrCount__GPS_nov
 7B3A:0000       colPos__G_DisResults
 5E95:00B4       complement__Longs
 6332:0B48       conEnr__EventsMng
 7330:00EC       covSecMax__G_Odb
 7330:00EA       covSecMin__G_Odb
 7320:0008       csErrorCnt__DGHInterface
 6037:0016       curProcess__RTSMain
 63E8:C85E       curr23__tablice__DataCollect
 6153:0054       currAlfaOff__ScannerI
 62DC:0004       currButtonSet__MouseMonitor__PI
 62BF:0058       currButtonSet__Pomiar
 62C9:003A       currConsoleEv__Screen
 60F9:0478       currDT__G_results
 7B33:0019       currErrorCP__CocpDsp
 7B33:001D       currErrorGS__CocpDsp
 7B33:001B       currErrorWP__CocpDsp
 7B33:0002       currFROMflg__CocpDsp
 7B33:0000       currGSflg__CocpDsp
 7B3D:0008       currGlownyOdbiornik__G_DAcquizi
 7B33:0015       currLNumber__CocpDsp
 7B33:0026       currMsg__CocpDsp
 7B33:0001       currNAVflg__CocpDsp
 7C1A:0342       currNavState__G_CntProcedures
 7330:00B1       currOffI__G_Odb
 7330:00A9       currOffR__G_Odb
 7330:0299       currPredkosc__G_Odb
 62BD:0004       currProc__G_CP_ControlProc
 7B33:0017       currRNumber__CocpDsp
 62BD:0003       currRec__G_CP_ControlProc
 7BFB:013A       currSkalaWpionie__L_Slupek
 7B33:0014       currState__CocpDsp
 6159:003F       currState__TheodolitRead
 7B33:0003       currTOflg__CocpDsp
 7B3D:0004       currUpdMarks__G_DAcquizition
 62BF:0092       currZestaw__Pomiar
 7330:00B3       currZone__G_Odb
 7320:0004       currentSign__DGHInterface
 615F:0001       currentSign__GPSRead
 6159:0034       currentSign__TheodolitRead
 73B3:0010       currfile__Ini
 7BFB:005E       cursorDIB__L_Slupek
 62BF:0093       dataInBuff__Pomiar
 60C3:0007       dataOk__AG
 6037:001E       debuggerRecord__RTSMain
 62C9:001D       devDistR__Screen
 7330:0012       devG__G_Odb
 7330:000E       devL__G_Odb
 6037:0030       deviceMask__RTSMain
 7C1A:032E       dewAv_BD_Cont__G_CntProcedures
 7C1A:025A       difAv_PO_Con__G_CntProcedures
 7B33:0004       dirCP__CocpDsp
 7B33:0006       dirWP__CocpDsp
 63E8:C84C       disContiner__DataCollect
 7D78:0000       disableMask__NAVInterface
 62DC:0000       dispResults__PI_Analiza
 7C1A:15A2       displSens__G_CntProcedures
 7330:0091       displSens__G_Odb
 62BF:007E       distOff__Pomiar
 79C2:004A       distRect__Mapa
 63E8:C872       div2n__tablice__DataCollect
 63E8:C876       div3n__tablice__DataCollect
 79C2:0000       doZrobienia__Mapa
 731E:000D       done__ShortCuts
 7B33:0023       dtaSign__CocpDsp
 6037:0032       dyingOverlay__RTSMain
 60C4:007A       entryTmpPtr__DOSEntry
 60C4:0000       entryTmp__DOSEntry
 73A2:007B       eos__GPS_nov
 79EE:13B8       errDetected__Kalibracja
 73A2:007E       err_unrec_cnt__GPS_nov
 6037:0000       errorCode__RTSMain
 60C4:007E       exitTmpPtr__DOSEntry
 60C4:003D       exitTmp__DOSEntry
 60CD:01F6       expInter__Scheduler__MANAGER
 79EE:13FF       f__Kalibracja
 629B:01A0       filesAlfa__Files
 629B:01A8       filesComm__Files
 629B:0190       filesDist__Files
 7B3D:0013       filesNotEmpty__G_DAcquizition
 7D78:0004       fineMode__NAVInterface
 632A:0001       firstISRDescriptorPtr__Monitor_
 7C1A:0344       flag_20uV_OP_Con__G_CntProcedur
 7B59:000E       flgEOF__Print
 6153:0000       flg__ScannerI
 7C1A:0048       flgs__G_CntProcedures
 79EE:13FB       for_counter__Kalibracja
 7B33:0025       force__CocpDsp
 62BF:007C       format360__Pomiar
 73AB:0000       framesWError__GPS_TRIMBLE
 73A2:0000       framesWError__GPS_nov
 6037:0128       freeList__RTSMain
 73AB:0004       frmCount__GPS_TRIMBLE
 73A2:0004       frmCount__GPS_nov
 62BF:0077       frstBut__Pomiar
 7B45:00E6       gOdb__G_Print
 7330:0002       gsFlg__G_Odb
 6275:0000       hDlg__G_Inspekcja
 6277:0001       hDlg__G_Oblot
 7361:0000       hDlg__MsgBox
 7D76:0000       hDlg__PrintCntroll
 7B45:0052       header__G_Print
 632B:0001       heapList__Storage
 629B:01C8       homeDir__Files
 7C1A:0050       iMkrFlg__G_CntProcedures
 7330:0004       iMkrFlg__G_Odb
 7C1A:02BA       iMkrL_Con__G_CntProcedures
 7330:0252       iMkrL_Con__G_Odb
 60F9:0484       idPnkt__G_results
 7B33:0012       iloscStrzal__CocpDsp
 73B3:0004       ini__Ini
 79EE:13BC       inputCoeff__Kalibracja
 60C4:0082       insideFlag__DOSEntry
 799C:00C0       insp_DirTmp__Obloty
 5E95:009D       intersection__Longs
 63E8:C87A       ix2__tablice__DataCollect
 63E8:C87E       ix3__tablice__DataCollect
 7BF1:006E       j__Random
 7BF1:0070       k__Random
 62BF:0079       katPromien__Pomiar
 7D78:0005       killTime__NAVInterface
 7D76:0011       lPodz__PrintCntroll
 60F9:0030       lastAzAv_ANr__G_results
 60F9:0060       lastAzAv_AWd__G_results
 60F9:0000       lastAzAv_A__G_results
 6143:00A0       lastCPFlags__Tune
 7B3D:0012       lastComm__Monitor__G_DAcquiziti
 6159:0046       lastCrc__TheodolitRead
 6143:00A2       lastDMEfrqBits__Tune
 7203:0000       lastErr__FIO
 79EE:13F9       lastError__ErrorHand__Kalibracj
 60F9:0050       lastEta_D_ANr__G_results
 60F9:0080       lastEta_D_AWd__G_results
 60F9:0020       lastEta_D_A__G_results
 60F9:0040       lastEta_G_ANr__G_results
 60F9:0070       lastEta_G_AWd__G_results
 60F9:0010       lastEta_G_A__G_results
 7363:0353       lastGPIBCommand__NAVGPIB
 7363:0000       lastGPIBError__NAVGPIB
 7363:0374       lastGPIBResponse__NAVGPIB
 6159:0040       lastNum__TheodolitRead
 60F9:0090       lastSecWith__G_results
 60F9:0092       lastUstawOsi__G_results
 6153:0056       loc_tog__ScannerI
 7363:039A       loopCount__NAVGPIB
 7363:039C       loopCountmax__NAVGPIB
 6159:0024       lstAzymuth__TheodolitRead
 6159:002C       lstElevation__TheodolitRead
 6159:003A       lstEvent__TheodolitRead
 60F2:0005       lstPToBeTraced__ILS_ZoneMngmnt
 6159:003B       lstTracking__TheodolitRead
 60F2:0006       lstZone__ILS_ZoneMngmnt
 72DD:01EC       lx__BezWyszeregowania__MMMouse
 72DD:01EE       ly__BezWyszeregowania__MMMouse
 7C1A:004E       mMkrFlg__G_CntProcedures
 7330:0006       mMkrFlg__G_Odb
 7C1A:02AA       mMkrL_Con__G_CntProcedures
 7330:0242       mMkrL_Con__G_Odb
 60C3:0000       mainState__AG
 79C2:0042       mapRct__Mapa
 63E8:C857       marks_Con_A__DataCollect
 63E8:C854       marks_Con_D__DataCollect
 7320:000E       maxClicks__DGHInterface
 7D79:0002       maxCountR__ARINC
 7D79:0000       maxCountW__ARINC
 7203:0006       maxOpened__FIO
 72DD:0050       maxX__MMMouse
 72DD:0052       maxY__MMMouse
 739E:0000       minWrBufLength__DigiRS
 7C1A:02CA       mkrLengthCon__G_CntProcedures
 7C1A:031A       modAv_Con__G_CntProcedures
 7330:0016       mod__G_Odb
 7330:028F       myDistTT__G_Odb
 62BD:0000       myOffset__G_CP_ControlProc
 79C2:005B       myPoint__Mapa
 7330:0000       navFlg__G_Odb
 7330:0022       navOdbFlg__G_Odb
 7B33:001F       newState__CocpDsp
 7C1A:002E       newZone__G_CntProcedures
 7330:028E       newZone__G_Odb
 79C2:0060       noActive__monitor__Mapa
 7B3D:000E       notify__Monitor__G_DAcquizition
 7203:0002       numErr__FIO
 6159:0048       numPos__TheodolitRead
 7320:000A       nvErrorCndF__DGHInterface
 7320:000C       nvErrorCndS__DGHInterface
 7C1A:004C       oMkrFlg__G_CntProcedures
 7330:0008       oMkrFlg__G_Odb
 7C1A:029A       oMkrL_Con__G_CntProcedures
 7330:0232       oMkrL_Con__G_Odb
 7C1A:0296       odcinki150_PS__G_CntProcedures
 7C1A:0298       odcinki180_PS__G_CntProcedures
 60C3:000A       offset__AG
 73A1:0000       okresImp__FIltr1St
 6037:01CE       oldNMIvector
 7203:0004       opened__FIO
 6037:000E       overlayInitProc__RTSMain
 6037:000A       overlayList__RTSMain
 6037:0012       overlayTermProc__RTSMain
 7BFB:0010       parSlupkow__L_Slupek
 7C1A:15AA       pathAng__G_CntProcedures
 7330:0099       pathAng__G_Odb
 7BF0:0000       pathAng__ILS_EvalProcedures
 6332:0B44       pilEnr__EventsMng
 6153:0026       pilErr__ScannerI
 78C2:027A       podz__Zoom
 60C3:0003       podzielnik__AG
 60C3:0002       polaryzacjaOK__AG
 7B3D:000A       polvfaza__G_DAcquizition
 7B3D:000C       pom2sek__G_DAcquizition
 62C9:001B       pomPromieniowy__Screen
 62C9:007A       popJakieWykr__Dialog__Screen
 73AB:0007       posInRecBuf__GPS_TRIMBLE
 73A2:000A       posInRecBuf__GPS_nov
 632B:0021       prevHeap__Storage
 6037:0046       priorityMasks__RTSMain
 7C1A:002C       procIdx__G_CntProcedures
 7330:00E8       procIdx__G_Odb
 7C1A:0000       procTable__G_CntProcedures
 7330:00B4       procTable__G_Odb
 63E8:C882       procVAL1__tablice__DataCollect
 63E8:C88A       procVAL2__tablice__DataCollect
 63E8:C892       procVAL3__tablice__DataCollect
 63E8:C89A       procVAL4__tablice__DataCollect
 6037:003E       programSize
 62BF:007B       promien__Pomiar
 5E95:0000       pushLSet__Longs
 7363:0221       realComm__NAVGPIB
 7330:02A3       rec__G_Odb
 60F9:0489       rec__G_results
 7B3D:0003       redrawM__G_DAcquizition
 7B3D:0002       redraw__G_DAcquizition
 79C2:005F       redraw__Mapa
 7C1A:004A       refDisCV__G_CntProcedures
 7C1A:0046       refEl__G_CntProcedures
 7B40:0040       refPress__AltInterface
 7BFB:0028       regionyWyk__L_Slupek
 7361:0004       ret__MsgBox
 72DD:01F0       rx__BezWyszeregowania__MMMouse
 72DD:01F2       ry__BezWyszeregowania__MMMouse
 62C9:002B       samplediv__Screen
 63E8:C85A       samplediv__tablice__DataCollect
 63E8:C8A2       samples__tablice__DataCollect
 7B59:000F       scaleDiv__Print
 7BFB:005A       screeenDIB__L_Slupek
 62C9:006A       screenDIB__Screen
 7330:00A1       secWith__G_Odb
 7322:000C       semafor__HiLevGraf
 7330:028A       sigNilVal__G_Odb
 7C1A:0030       signalsCV__G_CntProcedures
 6162:0000       signals__DGHIni
 7330:02A1       simEl__G_Odb
 7363:0001       simpleComm__NAVGPIB
 62C9:0082       skalaWpionie__Dialog__Screen
 735B:0014       slLDib_rec__ScreenCTypes
 735B:000C       slLReg_rec__ScreenCTypes
 735B:0008       slL_pnt__ScreenCTypes
 735B:0000       slL_rec__ScreenCTypes
 735B:004C       slPDib_rec__ScreenCTypes
 735B:0044       slPReg_rec__ScreenCTypes
 735B:0040       slP_pnt__ScreenCTypes
 735B:0038       slP_rec__ScreenCTypes
 735B:0030       slSDib_rec__ScreenCTypes
 735B:0028       slSReg_rec__ScreenCTypes
 735B:0024       slS_pnt__ScreenCTypes
 735B:001C       slS_rec__ScreenCTypes
 7B38:000C       slupkiAktywne__PI_ScrUtility
 7B38:0000       slupki__PI_ScrUtility
 60CD:012A       spTab__MANAGER
 7D78:0002       speedMask__NAVInterface
 7B33:0010       srodekSkali__CocpDsp
 799C:00D3       stat_Files__Obloty
 799C:00CB       stat_Size__Obloty
 7363:0395       status__NAVGPIB
 62DC:001D       sthPressed__MouseMonitor__PI_An
 7328:0008       str__GrafUtil
 5E95:005E       subSet__Longs
 73A2:0007       sumaModC__GPS_nov
 73A2:0008       sumaModF__GPS_nov
 5E95:0036       superSet__Longs
 60C3:0001       switchAble__AG
 60C3:0005       synResult__AG
 6332:0B4C       teoEnr__EventsMng
 6159:003C       teoEvBit__TheodolitRead
 6159:004C       teoEvCon__TheodolitRead
 6159:0050       teoEvNrCOn__TheodolitRead
 60F9:048A       trn__G_results
 5E95:00CF       unionCompl__Longs
 5E95:0086       union__Longs
 79EE:13FD       void__Kalibracja
 6159:0038       wd_dgps_currSign__TheodolitRead
 7C1A:0044       wysokoscCV__G_CntProcedures
 78C2:0282       xFirst__Zoom
 78C2:0284       xLast__Zoom
 629B:01C4       xRefDefV__Files
 629B:01C0       xRefFile__Files
 78C2:021C       x_odn__Zoom
 78C2:0220       x_time__Zoom
 7B6B:0002       xh__DrawEpson
 7B45:00E7       zOdb__G_Print
 7BF0:0002       znakKata__ILS_EvalProcedures
 7C1A:002F       zoneNr__G_CntProcedures
 79C2:0020       zrobione__Mapa

  Address         Publics by Value

 0000:0000  Abs  KEY__10jul99_1214_OF_DGHInterfa
 0000:0000  Abs  KEY__10jul99_1214_OF_DGH_utils
 0000:0000  Abs  KEY__10jul99_1214_OF_DGHIni
 0000:0000  Abs  KEY__10jul99_1214_OF_CommonType
 0000:0000  Abs  KEY__10jul99_1214_OF_Czas
 0000:0000  Abs  KEY__10jul99_1214_OF_DigiRS
 0000:0000  Abs  KEY__10jul99_1214_OF_DisResUtil
 0000:0000  Abs  KEY__10jul99_1214_OF_Dialog
 0000:0000  Abs  KEY__10jul99_1214_OF_DOSEntry
 0000:0000  Abs  KEY__10jul99_1214_OF_DataCollec
 0000:0000  Abs  KEY__10aug87_2033_OF_Sounds
 0000:0000  Abs  KEY__10jul87_1035_OF_RTSMonExit
 0000:0000  Abs  KEY__10aug87_2033_OF_RealConver
 0000:0000  Abs  KEY__10aug87_2033_OF_RTSCorouti
 0000:0000  Abs  KEY__10aug87_2033_OF_Random
 0000:0000  Abs  KEY__10jul99_1214_OF_CocpDsp
 0000:0000  Abs  KEY__10jul99_1214_OF_CommonData
 0000:0000  Abs  KEY__10jul99_1214_OF_Buttons
 0000:0000  Abs  KEY__10jul99_1214_OF_ARINC
 0000:0000  Abs  KEY__10jul99_1214_OF_AltInterfa
 0000:0000  Abs  KEY__10jul99_1214_OF_DrawEpson
 0000:0000  Abs  KEY__10jul99_1214_OF_GrafUtil
 0000:0000  Abs  KEY__10jul99_1214_OF_Graphics
 0000:0000  Abs  KEY__10jul99_1214_OF_GrafTypes
 0000:0000  Abs  KEY__10jul99_1214_OF_GPS_nov
 0000:0000  Abs  KEY__10jul99_1214_OF_GeoArithme
 0000:0000  Abs  KEY__10jul99_1214_OF_InpLine
 0000:0000  Abs  KEY__10jul99_1214_OF_Kalibracja
 0000:0000  Abs  KEY__10jul99_1214_OF_Ini
 0000:0000  Abs  KEY__10jul99_1214_OF_HRD_Clock
 0000:0000  Abs  KEY__10jul99_1214_OF_HiLevGraf
 0000:0000  Abs  KEY__10jul99_1214_OF_FIO
 0000:0000  Abs  KEY__10jul99_1214_OF_FIltr1St
 0000:0000  Abs  KEY__10jul99_1214_OF_FCBS
 0000:0000  Abs  KEY__10jul99_1214_OF_ErrorMess
 0000:0000  Abs  KEY__10jul99_1214_OF_EventsMng
 0000:0000  Abs  KEY__10jul99_1214_OF_GPSRead
 0000:0000  Abs  KEY__10jul99_1214_OF_GPS_TRIMBL
 0000:0000  Abs  KEY__10jul99_1214_OF_GList
 0000:0000  Abs  KEY__10jul99_1214_OF_Files
 0000:0000  Abs  KEY__10jul99_1214_OF_FlagAnal
 0000:0000  Abs  KEY__10aug87_2033_OF_Mouse
 0000:0000  Abs  KEY__10jul99_1217_OF_AG
 0000:0000  Abs  KEY__10jul99_1216_OF_Rap_Util
 0000:0000  Abs  KEY__10jul99_1217_OF_G_CP_Contr
 0000:0000  Abs  KEY__10jul99_1217_OF_G_CommonTy
 0000:0000  Abs  KEY__10jul99_1217_OF_G_CntProce
 0000:0000  Abs  KEY__00xxx00_0000_OF_RTSError
 0000:0000  Abs  KEY__00xxx00_0000_OF_RTSInterru
 0000:0000  Abs  KEY__00xxx00_0000_OF_RTSCorouti
 0000:0000  Abs  KEY__00xxx00_0000_OF_DebugPMD
 0000:0000  Abs  KEY__00xxx00_0000_OF_RTS87
 0000:0000  Abs  KEY__10jul99_1217_OF_G_Print
 0000:0000  Abs  KEY__10jul99_1217_OF_G_Odb
 0000:0000  Abs  KEY__10jul99_1217_OF_G_results
 0000:0000  Abs  KEY__21aug96_1223_OF_XMS
 0000:0000  Abs  KEY__12aug87_1620_OF_RTSMain
 0000:0000  Abs  KEY__10jul99_1217_OF_G_DisResul
 0000:0000  Abs  KEY__10jul99_1217_OF_G_DAcquizi
 0000:0000  Abs  KEY__10jul99_1217_OF_G_Files
 0000:0000  Abs  KEY__10jul99_1217_OF_G_Oblot
 0000:0000  Abs  KEY__10jul99_1217_OF_G_Inspekcj
 0000:0000  Abs  KEY__00xxx00_0000_OF_RTSLanguag
 0000:0000  Abs  KEY__10aug87_2031_OF_NumberConv
 0000:0000  Abs  KEY__10aug87_2031_OF_RTSDevice
 0000:0000  Abs  KEY__10aug87_2031_OF_Keyboard
 0000:0000  Abs  KEY__10aug87_2031_OF_Display
 0000:0000  Abs  KEY__10aug87_2031_OF_DynMem
 0000:0000  Abs  KEY__10aug87_2031_OF_Terminal
 0000:0000  Abs  KEY__10aug87_2032_OF_MathLib0
 0000:0000  Abs  KEY__10aug87_2031_OF_Termbase
 0000:0000  Abs  KEY__10aug87_2031_OF_Storage
 0000:0000  Abs  KEY__10aug87_2031_OF_Strings
 0000:0000  Abs  KEY__05feb87_1233_OF_Longs
 0000:0000  Abs  KEY__10aug87_2030_OF_ASCII
 0000:0000  Abs  KEY__00xxx00_0000_OF_RTSRealErr
 0000:0000  Abs  KEY__00xxx00_0000_OF_RTSMain
 0000:0000  Abs  KEY__00xxx00_0000_OF_RTSPriorit
 0000:0000  Abs  KEY__10aug87_2031_OF_DebugPMD
 0000:0000  Abs  KEY__10aug87_2031_OF_Devices
 0000:0000  Abs  KEY__10aug87_2031_OF_DOSMemory
 0000:0000  Abs  KEY__10aug87_2030_OF_BitByteOps
 0000:0000  Abs  KEY__10aug87_2030_OF_BlockOps
 0000:0000  Abs  KEY__10jul99_1214_OF_ScreenCTyp
 0000:0000  Abs  KEY__10jul99_1214_OF_Semafory
 0000:0000  Abs  KEY__10jul99_1214_OF_ScannerI
 0000:0000  Abs  KEY__10jul99_1214_OF_Screen
 0000:0000  Abs  KEY__10jul99_1214_OF_ShortCuts
 0000:0000  Abs  KEY__10jul99_1214_OF_SpecConv
 0000:0000  Abs  KEY__10jul99_1214_OF_StdIO
 0000:0000  Abs  KEY__10jul99_1214_OF_Slupek
 0000:0000  Abs  KEY__10jul99_1214_OF_SoftIntHan
 0000:0000  Abs  KEY__10jul99_1214_OF_PI_Qcheck
 0000:0000  Abs  KEY__10jul99_1214_OF_PI_ScrUtil
 0000:0000  Abs  KEY__10jul99_1214_OF_PI_PA
 0000:0000  Abs  KEY__10jul99_1214_OF_PI_Pomiar
 0000:0000  Abs  KEY__10jul99_1214_OF_PiszEventy
 0000:0000  Abs  KEY__10jul99_1214_OF_Print
 0000:0000  Abs  KEY__10jul99_1214_OF_PrintCntro
 0000:0000  Abs  KEY__10jul99_1214_OF_Polozenie
 0000:0000  Abs  KEY__10jul99_1214_OF_Pomiar
 0000:0000  Abs  KEY__10jul99_1214_OF_SwitchCntr
 0000:0000  Abs  KEY__10jul99_1216_OF_ILS_EvalPr
 0000:0000  Abs  KEY__10jul99_1216_OF_ILS_ZoneMn
 0000:0000  Abs  KEY__10jul99_1215_OF_Zoom
 0000:0000  Abs  KEY__10jul99_1215_OF_ZoomInterf
 0000:0000  Abs  KEY__10jul99_1216_OF_L_CommonTy
 0000:0000  Abs  KEY__10jul99_1216_OF_L_Slupek
 0000:0000  Abs  KEY__10jul99_1216_OF_PI_Report
 0000:0000  Abs  KEY__10jul99_1216_OF_L_Count
 0000:0000  Abs  KEY__10jul99_1216_OF_L_DataBase
 0000:0000  Abs  KEY__10jul99_1214_OF_Tune
 0000:0000  Abs  KEY__10jul99_1214_OF_WorseBecau
 0000:0000  Abs  KEY__10jul99_1214_OF_TheodolitR
 0000:0000  Abs  KEY__10jul99_1214_OF_Timer
 0000:0000  Abs  KEY__10jul99_1214_OF_Wykres
 0000:0000  Abs  KEY__10jul99_1215_OF_PI_ZoomSpe
 0000:0000  Abs  KEY__10jul99_1215_OF_SimScanner
 0000:0000  Abs  KEY__10jul99_1214_OF_XMSService
 0000:0000  Abs  KEY__10jul99_1214_OF_XMSTable
 0000:0000  Abs  KEY__10jul99_1214_OF_NAVInterfa
 0000:0000  Abs  KEY__10jul99_1214_OF_NAVGPIB
 0000:0000  Abs  KEY__10jul99_1214_OF_MsgBox
 0000:0000  Abs  KEY__10jul99_1214_OF_Obloty
 0000:0000  Abs  KEY__10jul99_1214_OF_PI_Drukuj
 0000:0000  Abs  KEY__10jul99_1214_OF_PI_ArchDat
 0000:0000  Abs  KEY__10jul99_1214_OF_PI_Analiza
 0000:0000  Abs  KEY__10jul99_1214_OF_Messages
 0000:0000  Abs  KEY__10jul99_1214_OF_MMMouse
 0000:0000  Abs  KEY__10jul99_1214_OF_MANAGER
 0000:0000  Abs  KEY__10jul99_1214_OF_Kl_FGenera
 0000:0000  Abs  KEY__10jul99_1214_OF_M_PGPIB
 0000:0000  Abs  KEY__10jul99_1214_OF_Math
 0000:0000  Abs  KEY__10jul99_1214_OF_Marks
 0000:0000  Abs  KEY__10jul99_1214_OF_Mapa
 0000:0000  Abs  KEY__10jul99_1214_OF_PI_Glowny
 0001:0000       $BM__AG
 0001:0002       $BODY__AG
 0001:03D9       StartModula
 0001:04A7       $EM__AG
 004C:0000       $BM__DOSEntry
 004C:0002       L__onEntryHandler__DOSEntry
 004C:004F       L__onExitHandler__DOSEntry
 004C:009C       L__TerminalProcedure__DOSEntry
 004C:00C2       $BODY__DOSEntry
 004C:0150       $INIT__DOSEntry
 004C:017A       $EM__DOSEntry
 0064:0000       $BM__MANAGER
 0064:0002       S__ASSERT__MANAGER
 0064:002D       S__InsertReady__MANAGER
 0064:0236       S__RemoveReady__MANAGER
 0064:04D7       S__ClearQueue__MANAGER
 0064:05E2       S__INSERT__MANAGER
 0064:07D2       S__REMOVE__MANAGER
 0064:0892       L__SEND__MANAGER
 0064:0892       L__SEND__Scheduler__MANAGER
 0064:0A58       L__Notify__Scheduler__MANAGER
 0064:0A58       L__Notify__MANAGER
 0064:0AAF       L__Broadcast__Scheduler__MANAGE
 0064:0AAF       L__Broadcast__MANAGER
 0064:0AFD       L__WAITS__Scheduler__MANAGER
 0064:0AFD       L__WAITS__MANAGER
 0064:0BEF       L__WAITC__Scheduler__MANAGER
 0064:0BEF       L__WAITC__MANAGER
 0064:0CE1       L__DOIO__Scheduler__MANAGER
 0064:0CE1       L__DOIO__MANAGER
 0064:0FB4       L__AWAITEDS__MANAGER
 0064:0FB4       L__AWAITEDS__Scheduler__MANAGER
 0064:0FEF       L__AWAITEDC__Scheduler__MANAGER
 0064:0FEF       L__AWAITEDC__MANAGER
 0064:102A       S__STOPPROCESS__Scheduler__MANA
 0064:1144       S__StopAError__Scheduler__MANAG
 0064:11B5       S__ActivateProcess__Scheduler__
 0064:12EF       L__Assert__MANAGER
 0064:12EF       L__Assert__Scheduler__MANAGER
 0064:1357       $BODY__Scheduler__MANAGER
 0064:137C       L__STARTPROCESS__MANAGER
 0064:1629       L__PriorityDecrease__MANAGER
 0064:176C       L__InitC__MANAGER
 0064:1782       L__InitS__MANAGER
 0064:1798       L__Release__MANAGER
 0064:17CC       L__StartTimeSlicing__MANAGER
 0064:17E6       L__RecoveryTime__MANAGER
 0064:17F9       L__CurrentProcess__MANAGER
 0064:1815       L__InstallTermProc__MANAGER
 0064:188B       L__RemoveTermProc__MANAGER
 0064:18E5       L__EnterProtectedOp__MANAGER
 0064:18ED       L__ExitProtectedOp__MANAGER
 0064:18F5       S__CallTerminatingProcedures__M
 0064:1973       L__Terminator__MANAGER
 0064:1A6A       S__InstallTerminator__MANAGER
 0064:1A90       L__DUMMYPRO__MANAGER
 0064:1B1A       $BODY__MANAGER
 0064:1DCE       $INIT__MANAGER
 0064:1E0C       $EM__MANAGER
 0245:0000       $BM__PI_PA
 0245:0002       $BODY__PI_PA
 0245:0012       $INIT__PI_PA
 0245:002D       $EM__PI_PA
 0248:0000       $BM__ErrorMess
 0248:0029       L__MyErrorHand__ErrorMess
 0248:00E1       $BODY__ErrorMess
 0248:010C       $INIT__ErrorMess
 0248:0145       $EM__ErrorMess
 025D:0000       $BM__SimScanner
 025D:0032       L__Simulate__SimScanner
 025D:03B7       L__LoadEvents__SimScanner
 025D:05A8       L__OdtworzEventy__SimScanner
 025D:0602       $BODY__SimScanner
 025D:0608       $INIT__SimScanner
 025D:066E       $EM__SimScanner
 02C4:0000       $BM__ILS_ZoneMngmnt
 02C4:0002       S__LookFNKP__ILS_ZoneMngmnt
 02C4:0084       L__TraceZoneCont_Clear__ILS_Zon
 02C4:00E1       L__TraceZone__ILS_ZoneMngmnt
 02C4:0191       L__ZoneConClear__ILS_ZoneMngmnt
 02C4:020C       N__LookForNextPnt__ZoneAnalyse_
 02C4:02C7       N__CheckIfLost__ZoneAnalyse__IL
 02C4:0381       N__CheckDis__ZoneAnalyse__ILS_Z
 02C4:03F5       N__CheckPEv__ZoneAnalyse__ILS_Z
 02C4:0448       N__CalculateDist__CheckMkr__Zon
 02C4:048B       N__CheckMkr__ZoneAnalyse__ILS_Z
 02C4:0567       L__ZoneAnalyse__ILS_ZoneMngmnt
 02C4:083C       L__Fill_zoneBIdx__ILS_ZoneMngmn
 02C4:088B       L__Fill_zoneBDisIdx__ILS_ZoneMn
 02C4:08D2       L__Fill_IdPunktowArr_T__ILS_Zon
 02C4:0910       L__ZoneBDisIdx_Init__ILS_ZoneMn
 02C4:0A9F       L__L_LstPToBeTraced__ILS_ZoneMn
 02C4:0AB3       L__G_LstPToBeTraced__ILS_ZoneMn
 02C4:0AC1       L__L_LstZToBeTraced__ILS_ZoneMn
 02C4:0AD5       L__G_LstZToBeTraced__ILS_ZoneMn
 02C4:0AF1       L__SetLastPointToBeTraced__ILS_
 02C4:0B3A       $BODY__ILS_ZoneMngmnt
 02C4:0B4A       $INIT__ILS_ZoneMngmnt
 02C4:0B88       $EM__ILS_ZoneMngmnt
 037D:0000       $BM__CommonTypes
 037D:0010       L__GetRecName__CommonTypes
 037D:0055       L__GetTranName__CommonTypes
 037D:0098       L__InitSignalDsc__CommonTypes
 037D:00B7       L__Init_flgTab__CommonTypes
 037D:00F4       $BODY__CommonTypes
 037D:00FA       $INIT__CommonTypes
 037D:011F       $EM__CommonTypes
 0390:0000       $BM__SpecConv
 0390:009C       S__CheckINil__SpecConv
 0390:0163       S__CheckCNil__SpecConv
 0390:01ED       L__Int2Str__SpecConv
 0390:0225       L__Card2Str__SpecConv
 0390:025D       L__Int10Str__SpecConv
 0390:033A       L__Card10Str__SpecConv
 0390:0411       L__Int100Str__SpecConv
 0390:0535       L__Int100StrCalk__SpecConv
 0390:057F       L__Card100Str__SpecConv
 0390:06A4       L__Ang100Str36__SpecConv
 0390:0711       L__Ang100Str36Calk__SpecConv
 0390:078F       L__Int500Str__SpecConv
 0390:08C0       L__Feed500Str__SpecConv
 0390:0959       L__Card500Str__SpecConv
 0390:0A8D       L__Int1000Str__SpecConv
 0390:0BF8       L__Angle100__SpecConv
 0390:0C58       L__RAngle100__SpecConv
 0390:0D36       L__AngleDeg__SpecConv
 0390:0DA7       L__SubAngle100__SpecConv
 0390:0E7B       L__AddAngle100__SpecConv
 0390:0F4F       L__SubAng360__SpecConv
 0390:101A       L__AfterAngle100__SpecConv
 0390:10B3       L__SubNormal__SpecConv
 0390:10CE       L__AddNormal__SpecConv
 0390:10E9       L__GorszeBoDalszeR__SpecConv
 0390:1127       L__GorszeBoDalsze__SpecConv
 0390:1178       L__GorszeBoBlisze__SpecConv
 0390:11C9       L__GorszeBoMniejszePol__SpecCon
 0390:120A       L__GorszeBoMniejsze__SpecConv
 0390:1237       L__GorszeBoWieksze__SpecConv
 0390:1264       L__GorszeBoMniejszeM60__SpecCon
 0390:12A5       L__GorszeBoMniejsze400__SpecCon
 0390:12E6       L__GorszeBoMniejsze800__SpecCon
 0390:1327       L__GorszeBoMniejsze300__SpecCon
 0390:1368       L__GorszeBoMniejsze160__SpecCon
 0390:13A9       L__GorszeBoMniejsze5000__SpecCo
 0390:13EA       L__GorszeBoMniejsze500__SpecCon
 0390:142B       L__GorszeBoMniejsze1500__SpecCo
 0390:146C       L__GorszeBoMniejsze2000__SpecCo
 0390:14AD       L__GorszeBoDalszeOdZera__SpecCo
 0390:14EA       L__entierCheck__SpecConv
 0390:15A6       L__entier__SpecConv
 0390:165C       L__Int2StrCntr__SpecConv
 0390:1755       L__Div__SpecConv
 0390:1782       L__Mul__SpecConv
 0390:17AE       L__Add__SpecConv
 0390:17DA       L__Sub__SpecConv
 0390:180D       L__SubDis__SpecConv
 0390:1858       L__AddDis__SpecConv
 0390:189B       L__IncRound__SpecConv
 0390:18A9       L__SubWCheck__SpecConv
 0390:1948       L__Int2Card__SpecConv
 0390:197A       L__ZaokraglicDo500__SpecConv
 0390:19B9       $BODY__SpecConv
 0390:19BF       $INIT__SpecConv
 0390:19F8       $EM__SpecConv
 0530:0000       $BM__FlagAnal
 0530:0010       N__UsunNajmniejszy__FlagErr_Ana
 0530:01D6       L__FlagErr_Anal__FlagAnal
 0530:02B3       L__InitFlagErr__FlagAnal
 0530:0352       L__GetNextFrac__FlagAnal
 0530:044F       L__MinPoczKonSig__FlagAnal
 0530:0513       L__MinPoczKonDis__FlagAnal
 0530:05D7       L__SumaDlugosciSig__FlagAnal
 0530:06A0       $BODY__FlagAnal
 0530:06A6       $INIT__FlagAnal
 0530:06DA       $EM__FlagAnal
 059E:0000       $BM__Czas
 059E:003B       S__Write__BezPrzerwan__Czas
 059E:00C0       L__GetTimeAndDate__BezPrzerwan_
 059E:00C0       L__GetTimeAndDate__Czas
 059E:00E8       S__SetTimeAndDate__BezPrzerwan_
 059E:0128       L__WriteTime__Czas
 059E:01DA       L__SetTime__Czas
 059E:021B       L__SetDate__Czas
 059E:024E       L__ConvertToStr__Czas
 059E:02AF       L__Terminator__Czas
 059E:02E0       $BODY__Czas
 059E:0308       $INIT__Czas
 059E:0369       $EM__Czas
 05D5:0000       $BM__L_CommonTypes
 05D5:0002       L__SuccNumPunktu__L_CommonTypes
 05D5:0029       L__PrvNumPunktu__L_CommonTypes
 05D5:0050       L__SuccNumStrefy__L_CommonTypes
 05D5:0077       L__GetNumStrefy__L_CommonTypes
 05D5:0094       L__GetNumStrefyEp__L_CommonType
 05D5:00BB       L__GetZoneBoundPt__L_CommonType
 05D5:00F7       L__CzyToJestPromien__L_CommonTy
 05D5:0123       L__InitSignalDsc__L_CommonTypes
 05D5:0141       $BODY__L_CommonTypes
 05D5:0147       $INIT__L_CommonTypes
 05D5:017B       $EM__L_CommonTypes
 05ED:0000       $BM__G_results
 05ED:001A       L__SaveAnRes__G_results
 05ED:004C       L__GetAnRes__G_results
 05ED:00CC       N__InitFlagErrForARec__Init__G_
 05ED:011D       N__InitMkrLength__Init__G_resul
 05ED:0286       N__Init_an_OpisOsi__Init__G_res
 05ED:05E0       N__Init_an_OpisSektora__Init__G
 05ED:07AE       N__Init_an_OpisProfilB__Init__G
 05ED:0956       N__Init_an_OpisBadDod__Init__G_
 05ED:09AE       N__Init_an_OpisZabezpieczenie__
 05ED:0A6C       N__Init_an_OpisPokrycia__Init__
 05ED:0A91       N__InitAnalizaDsc__Init__G_resu
 05ED:0B6F       L__Init__G_results
 05ED:0CF1       L__AktualnyKatProcedury__G_resu
 05ED:0DE8       L__Count_ChiLoc__G_results
 05ED:0E23       L__Count_PhiLoc__G_results
 05ED:0F2E       $BODY__G_results
 05ED:132B       $INIT__G_results
 05ED:137D       $EM__G_results
 0725:0000       $BM__G_CommonTypes
 0725:0002       $BODY__G_CommonTypes
 0725:0008       $INIT__G_CommonTypes
 0725:003C       $EM__G_CommonTypes
 0729:0000       $BM__Tune
 0729:0007       S__Send__Tune
 0729:009C       L__TurnOffADF__Tune
 0729:00F4       L__TurnOffVOR_ILS__Tune
 0729:014C       L__TuneADF__Tune
 0729:0303       N__TuneGS__TuneILS__Tune
 0729:0409       L__TuneILS__Tune
 0729:049F       S__SendDMECntrlWrd__Tune
 0729:052E       N__ConvertFrqTOControlWord__Tun
 0729:05D9       L__TuneDMEforVOR__Tune
 0729:061B       L__TuneDMEforILS__Tune
 0729:065D       L__TuneVOR__Tune
 0729:0697       S__TuneVOR_ILS__Tune
 0729:07EE       L__ILSfrqString__Tune
 0729:0849       L__ILSIncFch__Tune
 0729:0881       L__ILSDecFch__Tune
 0729:08B9       L__VORIncFch__Tune
 0729:08FF       L__VORDecFch__Tune
 0729:093F       L__IncADFFch__Tune
 0729:0966       L__DecADFFch__Tune
 0729:0998       L__SetCPFlags__Tune
 0729:0A08       $BODY__Tune
 0729:0C0B       $INIT__Tune
 0729:0C49       $EM__Tune
 07EE:0000       $BM__PI_Qcheck
 07EE:0131       N__Tlo__Sprawdz__PI_Qcheck
 07EE:019A       N__WrStr__Sprawdz__PI_Qcheck
 07EE:0203       N__WrInt__Sprawdz__PI_Qcheck
 07EE:027E       N__WrPrc__Sprawdz__PI_Qcheck
 07EE:037A       L__Sprawdz__PI_Qcheck
 07EE:092F       S__Init__PI_Qcheck
 07EE:09A9       $BODY__PI_Qcheck
 07EE:09B2       $INIT__PI_Qcheck
 07EE:0A27       $EM__PI_Qcheck
 0891:0000       $BM__ScannerI
 0891:0022       L__AssSim_Dis__ScannerI
 0891:0037       L__AssSim_Alfa__ScannerI
 0891:004C       L__NewDataAvailable__ScannerI
 0891:005F       L__Start__ScannerI
 0891:0086       L__CurrGPSAlfaOffset__ScannerI
 0891:00B5       L__LocationsTogether__ScannerI
 0891:00E4       L__Stop__ScannerI
 0891:00F7       L__InitPilotEventId__ScannerI
 0891:010C       L__GetPilotEvent__ScannerI
 0891:0137       L__SetEvalPROC__ScannerI
 0891:014C       $BODY__ScannerI
 0891:0265       $INIT__ScannerI
 0891:02A8       $EM__ScannerI
 08BC:0000       $BM__TheodolitRead
 08BC:0107       N__Angle360__TheodolitView__The
 08BC:01B7       L__TheodolitView__TheodolitRead
 08BC:05AE       L__GetCurrDataSign__TheodolitRe
 08BC:05DD       L__InitTeoEventId__TheodolitRea
 08BC:0600       L__GetTeoEvent__TheodolitRead
 08BC:0654       L__GetTheoR__TheodolitRead
 08BC:0700       L__GetTheoI__TheodolitRead
 08BC:0852       S__signalError__TheodolitRead
 08BC:086F       N__AssignRes__Analizer__Theodol
 08BC:0915       N__Rd__Analizer__TheodolitRead
 08BC:097D       N__CountCrc__Analizer__Theodoli
 08BC:09A8       N__GetNum__Analizer__TheodolitR
 08BC:0A73       S__Analizer__TheodolitRead
 08BC:0DF1       L__WatchDog__TheodolitRead
 08BC:0ECB       L__NicNieRob__TheodolitRead
 08BC:0EE0       $BODY__TheodolitRead
 08BC:1039       $INIT__TheodolitRead
 08BC:1095       $EM__TheodolitRead
 09C6:0000       $BM__GPSRead
 09C6:001A       L__Read_Nic__GPSRead
 09C6:002D       L__Read_Nov__GPSRead
 09C6:0177       L__Read_Trimble__GPSRead
 09C6:0225       L__GPSReceive__GPSRead
 09C6:029B       L__GetDirection__GPSRead
 09C6:02DA       L__GetCurrDataSign__GPSRead
 09C6:0309       L__WatchDog__GPSRead
 09C6:05FA       $BODY__GPSRead
 09C6:0670       $INIT__GPSRead
 09C6:06B3       $EM__GPSRead
 0A32:0000       $BM__DGHIni
 0A32:03D8       S__InitTableOfNames__DGHIni
 0A32:08D1       S__FillSignalTable__DGHIni
 0A32:0CDC       S__ReadDGHIniFile__DGHIni
 0A32:0D08       $BODY__DGHIni
 0A32:0D49       $INIT__DGHIni
 0A32:0D73       $EM__DGHIni
 0B0A:0000       $BM__G_Files
 0B0A:00B5       S__StartFiles__G_Files
 0B0A:022C       L__CreateFiles__G_Files
 0B0A:0248       L__OpenFiles__G_Files
 0B0A:02EA       L__SaveData__G_Files
 0B0A:0511       N__Rd__LoadData__G_Files
 0B0A:0552       L__LoadData__G_Files
 0B0A:075B       L__CloseFiles__G_Files
 0B0A:07EC       L__OpenSignalFiles__G_Files
 0B0A:0887       L__ReadAllSignals__G_Files
 0B0A:0982       L__CloseSignalFiles__G_Files
 0B0A:099C       L__KopiujWszystkiePliki__G_File
 0B0A:0B1F       L__GetSigFileName__G_Files
 0B0A:0B92       L__OpenFileRes__G_Files
 0B0A:0D0F       L__WriteFileRes__G_Files
 0B0A:0D79       L__CloseFileRes__G_Files
 0B0A:0DF7       L__GetResFileName__G_Files
 0B0A:0E6A       N__AssignName__InitLocals__G_Fi
 0B0A:0F16       S__InitLocals__G_Files
 0B0A:110F       $BODY__G_Files
 0B0A:1118       $INIT__G_Files
 0B0A:1197       $EM__G_Files
 0C24:0000       $BM__ZoomInterface
 0C24:0062       L__Show__ZoomInterface
 0C24:0184       N__Niepusty__Load__ZoomInterfac
 0C24:01E1       S__Load__ZoomInterface
 0C24:0413       L__RespProc__ZoomInterface
 0C24:0892       L__ZmienOdniesienie__ZoomInterf
 0C24:0969       L__Pokaz__ZoomInterface
 0C24:097F       L__Rezygnuj__ZoomInterface
 0C24:098F       $BODY__ZoomInterface
 0C24:09BD       $INIT__ZoomInterface
 0C24:0A32       $EM__ZoomInterface
 0CC8:0000       $BM__PI_Glowny
 0CC8:0002       L__GlownyEP__PI_Glowny
 0CC8:009B       $BODY__PI_Glowny
 0CC8:00A1       $INIT__PI_Glowny
 0CC8:00FD       $EM__PI_Glowny
 0CD8:0000       $BM__G_Inspekcja
 0CD8:02D1       S__Pokaz__G_Inspekcja
 0CD8:033B       L__UsunOblot__G_Inspekcja
 0CD8:03D6       L__UsunOblotP__G_Inspekcja
 0CD8:043D       L__ProbujWstawicOblot__G_Inspek
 0CD8:0453       L__ZmienOblot__G_Inspekcja
 0CD8:0704       L__EnumObl__G_Inspekcja
 0CD8:072E       L__WymienPasujaceObloty__G_Insp
 0CD8:0790       L__DodajOblot__G_Inspekcja
 0CD8:0D91       L__NowyOblot__G_Inspekcja
 0CD8:0DF8       L__OblotOK__G_Inspekcja
 0CD8:0EA4       N__SetDefInsp__InspekcjaEP__G_I
 0CD8:0F4E       L__InspekcjaEP__G_Inspekcja
 0CD8:12CC       $BODY__G_Inspekcja
 0CD8:12FA       $INIT__G_Inspekcja
 0CD8:13A1       $EM__G_Inspekcja
 0E13:0000       $BM__G_Oblot
 0E13:05A4       L__AlarmSciezki_A_G__G_Oblot
 0E13:05C9       L__AlarmSciezki_A_D__G_Oblot
 0E13:05EE       L__AlarmSciezki_B_G__G_Oblot
 0E13:0613       L__AlarmSciezki_B_D__G_Oblot
 0E13:0638       L__SzerSektora_pA_A_G__G_Oblot
 0E13:065D       L__SzerSektora_pA_A_D__G_Oblot
 0E13:0682       L__SzerSektora_pA_B_G__G_Oblot
 0E13:06A7       L__SzerSektora_pA_B_D__G_Oblot
 0E13:06CC       L__AlarmSzeroki_pA_A_G__G_Oblot
 0E13:06F1       L__AlarmSzeroki_pA_A_D__G_Oblot
 0E13:0716       L__AlarmSzeroki_pA_B_G__G_Oblot
 0E13:073B       L__AlarmSzeroki_pA_B_D__G_Oblot
 0E13:0760       L__AlarmWaski_pA_A_G__G_Oblot
 0E13:0785       L__AlarmWaski_pA_A_D__G_Oblot
 0E13:07AA       L__AlarmWaski_pA_B_G__G_Oblot
 0E13:07CF       L__AlarmWaski_pA_B_D__G_Oblot
 0E13:07F4       L__KatSciezki_A__G_Oblot
 0E13:0813       L__KatSciezki_B__G_Oblot
 0E13:0832       L__KatSciezki_Szer_pA_A__G_Oblo
 0E13:0851       L__KatSciezki_Szer_pA_B__G_Oblo
 0E13:0870       L__KatSciezki_Waski_pA_A__G_Obl
 0E13:088F       L__KatSciezki_Waski_pA_B__G_Obl
 0E13:08AE       L__Szer_i_Osi_pB_A__G_Oblot
 0E13:08CD       L__Szer_i_Osi_pB_B__G_Oblot
 0E13:08EC       L__AlarmSzer_pB_A__G_Oblot
 0E13:090B       L__AlarmSzer_pB_B__G_Oblot
 0E13:092A       L__AlarmWaski_pB_A__G_Oblot
 0E13:0949       L__AlarmWaski_pB_B__G_Oblot
 0E13:0968       L__RownowagaModulacji_A__G_Oblo
 0E13:0987       L__RownowagaModulacji_B__G_Oblo
 0E13:09A6       L__Fazowanie_A__G_Oblot
 0E13:09C5       L__Fazowanie_B__G_Oblot
 0E13:09E4       L__Zabezpieczenie_A__G_Oblot
 0E13:0A03       L__Zabezpieczenie_B__G_Oblot
 0E13:0A22       L__Pokrycie_w_osi_A__G_Oblot
 0E13:0A41       L__Pokrycie_w_osi_B__G_Oblot
 0E13:0A60       L__Pokrycie_8_st_P_A__G_Oblot
 0E13:0A7F       L__Pokrycie_8_st_P_B__G_Oblot
 0E13:0A9E       L__Pokrycie_8_st_L_A__G_Oblot
 0E13:0ABD       L__Pokrycie_8_st_L_B__G_Oblot
 0E13:0ADC       S__IdentPkt__G_Oblot
 0E13:0C42       L__IdentPkt0__G_Oblot
 0E13:0C56       L__IdentPkt1__G_Oblot
 0E13:0C6A       L__IdentPkt2__G_Oblot
 0E13:0C7E       L__TestUP_PROC__G_Oblot
 0E13:0C9E       L__Raport_PROC__G_Oblot
 0E13:0CBE       L__PlayP__G_Oblot
 0E13:0CDE       L__RaportKoncowy__G_Oblot
 0E13:0CFE       L__View_PROC__G_Oblot
 0E13:0D1E       S__RealVal__G_Oblot
 0E13:0D7B       S__Pokaz__G_Oblot
 0E13:0DE5       L__ValidReal__G_Oblot
 0E13:0EA8       L__ZakonczDlg__G_Oblot
 0E13:0EBE       L__Szer_Sekt__G_Oblot
 0E13:1251       L__PomiarP__G_Oblot
 0E13:12CD       L__GlowOdbP__G_Oblot
 0E13:137F       S__OdnOdlP__G_Oblot
 0E13:147D       S__RealValid__G_Oblot
 0E13:1546       L__RealCisnValid__G_Oblot
 0E13:160F       S__StronaCH__G_Oblot
 0E13:1631       S__NadajnikCH__G_Oblot
 0E13:165C       N__InitDefault__InitLot__G_Oblo
 0E13:1948       N__CzytajParametry__FillData__I
 0E13:19BF       N__CzytajPrmtryABLP__FillData__
 0E13:1B10       N__CzytajPrmtryAB__FillData__In
 0E13:1BCB       N__FillData__InitLot__G_Oblot
 0E13:1E47       N__SaveDefault__InitLot__G_Oblo
 0E13:2037       N__Make2__AssignButt__InitLot__
 0E13:2102       N__Make3__AssignButt__InitLot__
 0E13:2276       N__Make4__AssignButt__InitLot__
 0E13:23BC       N__AssignButt__InitLot__G_Oblot
 0E13:2B76       L__InitLot__G_Oblot
 0E13:2C6E       L__SciezkaDoKataloguOpisu__G_Ob
 0E13:2DA4       S__Wlacz_Wylacz__G_Oblot
 0E13:2E5B       N__ProcIdentifier__Zapisz__G_Ob
 0E13:30A5       L__Zapisz__G_Oblot
 0E13:32A8       $BODY__G_Oblot
 0E13:32D7       $INIT__G_Oblot
 0E13:33B5       $EM__G_Oblot
 114F:0000       $BM__CommonData
 114F:0012       $BODY__CommonData
 114F:00A7       $INIT__CommonData
 114F:00CC       $EM__CommonData
 115C:0000       $BM__Files
 115C:016F       L__Kopiuj__Files
 115C:0240       L__ReadDef__Files
 115C:0273       L__CreateFiles__Files
 115C:0638       L__OpenFiles__Files
 115C:09FD       L__SaveData__Files
 115C:0CB2       L__LoadData__Files
 115C:0F3B       L__CloseFiles__Files
 115C:1096       L__OpenSignalFiles__Files
 115C:1685       L__ReadXref__Files
 115C:16EA       L__ReadFlgs__Files
 115C:1729       L__ReadAllSignals__Files
 115C:17EB       L__CloseSignalFiles__Files
 115C:1902       S__RemoveBSl__Files
 115C:1965       N__TworzK__KopiujWszystkiePliki
 115C:19D4       L__KopiujWszystkiePliki__Files
 115C:1BE4       L__LoadAResult__Files
 115C:1D15       L__SaveAResult__Files
 115C:1DB9       L__ExistDIR__Files
 115C:1E04       L__ChangeDir__Files
 115C:1E3D       L__GoHomeDir__Files
 115C:1E70       S__AssignName__Files
 115C:1F1C       L__SubstituteAngle100__Files
 115C:1F61       L__addAngle100__Files
 115C:1FCB       L__subNormal__Files
 115C:203F       L__addNormal__Files
 115C:20C9       L__FInterpolacja__Files
 115C:246E       L__SigInterpolacja__Files
 115C:264E       L__GetALfaRefFName__Files
 115C:26C2       L__GetDisRefFName__Files
 115C:2735       L__GetCommSigFName__Files
 115C:27A8       L__OpenCommSigFName__Files
 115C:2819       L__CloseCommSigFName__Files
 115C:2833       L__ReadCommSigFName__Files
 115C:2852       S__Init__Files
 115C:2B3D       $BODY__Files
 115C:2B56       $INIT__Files
 115C:2BCB       $EM__Files
 1419:0000       $BM__G_CP_ControlProc
 1419:0002       L__Radial__G_CP_ControlProc
 1419:0057       L__LOCDevErr__G_CP_ControlProc
 1419:008D       L__LOCAzErr__G_CP_ControlProc
 1419:00F7       L__GSDevErr__G_CP_ControlProc
 1419:0173       L__GSDevErrDis__G_CP_ControlPro
 1419:0234       L__ElDis__G_CP_ControlProc
 1419:0291       L__AzDis__G_CP_ControlProc
 1419:02EE       S__GsElErr__G_CP_ControlProc
 1419:033D       L__GSDevDumm__G_CP_ControlProc
 1419:034C       L__StartCPLoop__G_CP_ControlPro
 1419:0509       L__StopCPLoop__G_CP_ControlProc
 1419:055E       $BODY__G_CP_ControlProc
 1419:05AA       $INIT__G_CP_ControlProc
 1419:0624       $EM__G_CP_ControlProc
 147C:0000       $BM__Pomiar
 147C:00F4       L__StartBP__Pomiar
 147C:0104       L__RestartBP__Pomiar
 147C:0114       L__AbortBP__Pomiar
 147C:0124       L__CallStopButton__Pomiar
 147C:012E       L__StopBP__Pomiar
 147C:013E       L__PrzelaczPomiaryBP__Pomiar
 147C:014F       L__AkceptacjaBP__Pomiar
 147C:015F       N__Sek2__PolaryzacjaBP__Pomiar
 147C:01F6       L__PolaryzacjaBP__Pomiar
 147C:03EF       L__InitPomiar__Pomiar
 147C:05EF       N__PoprawnieUstawButtony__Pomia
 147C:06EF       N__NastepnyStan__GetEvent__Pomi
 147C:0767       N__GetEvent__PomiarEP__Pomiar
 147C:08A5       N__InitButtony__PomiarEP__Pomia
 147C:0B16       N__DisposeButtons__Done__Pomiar
 147C:0B84       N__Done__PomiarEP__Pomiar
 147C:0B92       N__AlfaRefInfo__PomiarEP__Pomia
 147C:0BD2       N__DeltaRefInfo__PomiarEP__Pomi
 147C:0C3F       N__DataLosInfo__PomiarEP__Pomia
 147C:0C88       N__PrologAnalyse__PomiarEP__Pom
 147C:0EC2       L__PomiarEP__Pomiar
 147C:14E0       $BODY__Pomiar
 147C:153F       $INIT__Pomiar
 147C:15AF       $EM__Pomiar
 15D8:0000       $BM__Screen
 15D8:01D5       S__RectWykresy__Screen
 15D8:0259       S__UniversalEvent__Dialog__Scre
 15D8:02D8       L__RegionWykGEvent__Dialog__Scr
 15D8:0323       L__RegionWykGButton__Dialog__Sc
 15D8:037F       L__RegionWyk1Event__Dialog__Scr
 15D8:03CA       L__RegionWyk1Button__Dialog__Sc
 15D8:0419       L__RegionWyk2Event__Dialog__Scr
 15D8:0464       L__RegionWyk2Button__Dialog__Sc
 15D8:04B3       L__RegionWyk3Event__Dialog__Scr
 15D8:04FE       L__RegionWyk3Button__Dialog__Sc
 15D8:054D       S__PokazWgKursora__Dialog__Scre
 15D8:0B48       L__WykrEvent__Dialog__Screen
 15D8:0BC1       L__KursorLewoButton__Dialog__Sc
 15D8:0BDA       L__KursorPrawoPar__Dialog__Scre
 15D8:0BF3       N__RedrawRqs__Xchg__Dialog__Scr
 15D8:0C7D       S__Xchg__Dialog__Screen
 15D8:0CC9       S__ShowBarCursor__Dialog__Scree
 15D8:0D49       L__KursorOnOffBP__Dialog__Scree
 15D8:0D66       L__SkalaPlusBP__Dialog__Screen
 15D8:0E5D       L__SkalaMinusBP__Dialog__Screen
 15D8:0F54       L__KursorPrawoBP__Dialog__Scree
 15D8:0F7E       L__KursorLewoBP__Dialog__Screen
 15D8:0FA8       S__UpdateMap__Dialog__Screen
 15D8:0FD7       N__CurrCursorMode__RuszKursor__
 15D8:10CD       S__RuszKursor__Dialog__Screen
 15D8:1236       N__CurrDistance__OpisDla__InitW
 15D8:13D2       N__OpisDla__InitWykr__Dialog__S
 15D8:1749       S__InitWykr__Dialog__Screen
 15D8:17F1       S__InitDialog__Dialog__Screen
 15D8:1876       S__DisposeKursor__Dialog__Scree
 15D8:18A7       S__KursoffOff__Dialog__Screen
 15D8:18CD       S__KursoffOn__Dialog__Screen
 15D8:18F9       L__ConEventButton__Screen
 15D8:190A       L__SetButtons__Screen
 15D8:1983       S__InitButtony__Screen
 15D8:1AFD       N__ShowCurrDIB__InitSlupki__Scr
 15D8:1B5E       N__Define__InitSlupki__Screen
 15D8:1B9A       S__InitSlupki__Screen
 15D8:1D4C       S__InitKrokOpisuOsi__Screen
 15D8:1D6D       L__Init__Screen
 15D8:1F5F       N__WriteText__ShowMarks__Update
 15D8:20D1       N__DrawEvent__ShowMarks__Update
 15D8:2201       N__ZwKrokOpisuOsi__ShowMarks__U
 15D8:22B6       N__ShowMarks__UpdateWykr__Updat
 15D8:2485       N__UpdateWykr__Update__Screen
 15D8:2CA3       N__MarkDraw__WskazWykresy__Upda
 15D8:2D08       N__WskazWykresy__Update__Screen
 15D8:2D80       N__NapiszGPSFlg__NapiszGPS__Upd
 15D8:2DE6       N__NapiszGPS__UpdateNapisy__Upd
 15D8:30F6       N__NapiszTEO__UpdateNapisy__Upd
 15D8:3357       N__UpdateNapisy__Update__Screen
 15D8:34A4       L__Update__Screen
 15D8:35A5       L__ScreenStart__Screen
 15D8:35AE       N__KasujSlupki__Done__Screen
 15D8:3664       N__DisposeButtons__Done__Screen
 15D8:36CD       L__Done__Screen
 15D8:36D9       $BODY__Screen
 15D8:36F5       $INIT__Screen
 15D8:37A6       $EM__Screen
 1953:0000       $BM__PI_Analiza
 1953:0062       L__DrukujBP__MouseMonitor__PI_A
 1953:0091       L__ZapamietajBP__MouseMonitor__
 1953:00C0       L__PWyjscieZProgramuBP__MouseMo
 1953:00EF       L__PageUpBP__MouseMonitor__PI_A
 1953:011E       L__PrzelaczPomiaryBP__MouseMoni
 1953:014D       L__PageDownBP__MouseMonitor__PI
 1953:017C       S__InitButtony__MouseMonitor__P
 1953:036D       S__GetEvent__MouseMonitor__PI_A
 1953:042C       S__DisposeButtons__MouseMonitor
 1953:04A9       $BODY__MouseMonitor__PI_Analiza
 1953:0518       L__AnalizaEP__PI_Analiza
 1953:06BA       $BODY__PI_Analiza
 1953:06C3       $INIT__PI_Analiza
 1953:0742       $EM__PI_Analiza
 19C8:0000       $BM__PI_Pomiar
 19C8:000A       L__Analiza__PI_Pomiar
 19C8:0036       N__Ofset__InitPomiar__PI_Pomiar
 19C8:007A       L__InitPomiar__PI_Pomiar
 19C8:02AD       $BODY__PI_Pomiar
 19C8:02B3       $INIT__PI_Pomiar
 19C8:0328       $EM__PI_Pomiar
 19FB:0000       $BM__PI_ArchDate
 19FB:0002       L__LoadData__PI_ArchDate
 19FB:0089       $BODY__PI_ArchDate
 19FB:008F       $INIT__PI_ArchDate
 19FB:00E6       $EM__PI_ArchDate
 1A0A:0000       $BM__PI_Drukuj
 1A0A:0002       L__Druk__PI_Drukuj
 1A0A:000F       $BODY__PI_Drukuj
 1A0A:0015       $INIT__PI_Drukuj
 1A0A:0053       $EM__PI_Drukuj
 1A10:0000       $BM__L_DataBase
 1A10:02B1       S__SignalError__L_DataBase
 1A10:02C9       N__GetStr__OpisLotniska__L_Data
 1A10:040F       N__CzytajPolozeniePunktowCharak
 1A10:050C       N__CzytajPolozenieMarkerow__Opi
 1A10:0647       N__CzytajPolozenieGeo__OpisLotn
 1A10:0887       L__OpisLotniska__L_DataBase
 1A10:0F7C       L__GsMoveDis__L_DataBase
 1A10:0FCE       N__GetCardinal__LoadProgramPar_
 1A10:103D       S__LoadProgramPar__L_DataBase
 1A10:10F3       $BODY__L_DataBase
 1A10:111E       $INIT__L_DataBase
 1A10:1189       $EM__L_DataBase
 1B29:0000       $BM__PI_Report
 1B29:088F       S__WrPrnFmt__PI_Report
 1B29:0902       S__WrFmtNad__PI_Report
 1B29:09DC       S__WrPrnFmtLn__PI_Report
 1B29:0A31       S__WrTol__PI_Report
 1B29:0AEE       S__WrVal__PI_Report
 1B29:0BD8       S__WartWStrefach__PI_Report
 1B29:0DA0       S__WlasSektora__PI_Report
 1B29:1404       N__ConvMark__WrMarker__PI_Repor
 1B29:1482       S__WrMarker__PI_Report
 1B29:16D5       L__RaportKoncowy__PI_Report
 1B29:2138       S__JakaWysokosc__PI_Report
 1B29:21E1       N__UstawSektory__PrzygotujDane_
 1B29:229D       N__PodstawJesliJest__PrzygotujD
 1B29:22BE       N__PodstawWlasnoscSektora__Przy
 1B29:237C       N__PodstawInteger__PrzygotujDan
 1B29:23D4       N__Markery__PrzygotujDane__PI_R
 1B29:2566       N__Min__PrzygotujDane__PI_Repor
 1B29:2593       N__PodstawZasiegi__PrzygotujDan
 1B29:2613       N__AwaryjnaSzerokoscSektora__Wa
 1B29:264B       N__AwaryjnaSymetria__WartosciAw
 1B29:2684       N__WartosciAwaryjne__PrzygotujD
 1B29:26A4       S__PrzygotujDane__PI_Report
 1B29:3194       N__InitSektory__InitDane__PI_Re
 1B29:31E5       N__InitWlSektora__InitDane__PI_
 1B29:3238       N__InitMarkery__InitDane__PI_Re
 1B29:327F       S__InitDane__PI_Report
 1B29:34B7       $BODY__PI_Report
 1B29:34D4       $INIT__PI_Report
 1B29:35BC       $EM__PI_Report
 1E85:0000       $BM__SoftIntHandlingManager
 1E85:0002       L__SetEventHandler__SoftIntHand
 1E85:0041       L__RestoreEventHandler__SoftInt
 1E85:0067       L__checkBreak__SoftIntHandlingM
 1E85:008A       L__BreakChain__SoftIntHandlingM
 1E85:009A       L__InstPrologueHnd__Monitor__So
 1E85:009A       L__InstPrologueHnd__SoftIntHand
 1E85:0256       L__InstEpilogueHnd__Monitor__So
 1E85:0256       L__InstEpilogueHnd__SoftIntHand
 1E85:03FA       L__UnInstallHandler__Monitor__S
 1E85:03FA       L__UnInstallHandler__SoftIntHan
 1E85:0517       L__UnInstallAllHandlers__Monito
 1E85:0590       $BODY__Monitor__SoftIntHandling
 1E85:05BE       $BODY__SoftIntHandlingManager
 1E85:05D1       $INIT__SoftIntHandlingManager
 1E85:05F6       $EM__SoftIntHandlingManager
 1EE5:0000       $BM__Storage
 1EE5:0002       L__ALLOCATE__Storage
 1EE5:01B9       L__DEALLOCATE__Storage
 1EE5:02D0       L__Available__Storage
 1EE5:03A3       L__InstallHeap__Storage
 1EE5:0422       L__RemoveHeap__Storage
 1EE5:04B3       S__SetStrategia__Storage
 1EE5:04CB       S__GetStrategia__Storage
 1EE5:04E7       S__SetChain__Storage
 1EE5:04FF       S__GetChain__Storage
 1EE5:051E       L__Terminator__Storage
 1EE5:0544       $BODY__Storage
 1EE5:058E       $INIT__Storage
 1EE5:05B8       $EM__Storage
 1F41:0000       $BM__Timer
 1F41:0002       S__Insert__Monitor__Timer
 1F41:0159       S__Remove__Monitor__Timer
 1F41:0277       L__Wait__Monitor__Timer
 1F41:0277       L__Wait__Timer
 1F41:0309       L__WaitBefProtOper__Timer
 1F41:0309       L__WaitBefProtOper__Monitor__Ti
 1F41:03B8       L__WaitMetronomeBefProtOper__Mo
 1F41:03B8       L__WaitMetronomeBefProtOper__Ti
 1F41:043F       L__WaitMetronome__Monitor__Time
 1F41:043F       L__WaitMetronome__Timer
 1F41:04B5       L__DefinePeriod__Monitor__Timer
 1F41:04B5       L__DefinePeriod__Timer
 1F41:051F       L__CurrentPeriod__Monitor__Time
 1F41:051F       L__CurrentPeriod__Timer
 1F41:0559       L__AssignPeriodicProc__Timer
 1F41:0559       L__AssignPeriodicProc__Monitor_
 1F41:057E       N__Count__IBMIntHandler__Monito
 1F41:06FC       L__IBMIntHandler__Monitor__Time
 1F41:07F7       S__SetCount__Monitor__Timer
 1F41:08B3       L__RestoreTimer__Monitor__Timer
 1F41:08D4       $BODY__Monitor__Timer
 1F41:092C       L__TInOneSecond__Timer
 1F41:0940       L__NewMetronome__Timer
 1F41:09B7       L__ResetMetronome__Timer
 1F41:0A36       L__DisposeMetronome__Timer
 1F41:0A94       L__NewWatchdog__Timer
 1F41:0AE2       L__StartProtectedOperation__Tim
 1F41:0B56       L__StopProtectedOperation__Time
 1F41:0B9B       L__DisposeWatchdog__Timer
 1F41:0BFF       L__Dummy__Timer
 1F41:0C05       S__BreakKey__Timer
 1F41:0C72       $BODY__Timer
 1F41:0C8E       $INIT__Timer
 1F41:0CBD       $EM__Timer
 200D:0000       $BM__Messages
 200D:0004       L__DisableDisplay__Messages
 200D:002E       L__EnableDisplay__Messages
 200D:0058       S__ACKMess__Messages
 200D:010B       L__NewMessage__Messages
 200D:0164       L__DisposeMessage__Messages
 200D:0181       L__Display__Messages
 200D:0265       L__ShowFirst__Messages
 200D:0312       L__AcknowledgeFirst__Messages
 200D:0337       L__Acknowledge__Messages
 200D:0358       S__OUTMessage__Messages
 200D:0382       S__Beep__Messages
 200D:03F9       L__KbdAck__Messages
 200D:0405       L__KbdDsp__Messages
 200D:0411       $BODY__Messages
 200D:046A       $INIT__Messages
 200D:04A8       $EM__Messages
 2058:0000       $BM__StdIO
 2058:0022       N__GetNum__sprintf__StdIO
 2058:00C8       N__IntConv__sprintf__StdIO
 2058:023F       N__StripSpaces__sprintf__StdIO
 2058:031F       N__BuildNumber__sprintf__StdIO
 2058:037B       L__sprintf__StdIO
 2058:0D80       L__sprintf4__StdIO
 2058:0F81       L__sprintf5__StdIO
 2058:11F3       L__sprintf3__StdIO
 2058:1383       L__sprintf2__StdIO
 2058:149F       $BODY__StdIO
 2058:14A5       $INIT__StdIO
 2058:14D9       $EM__StdIO
 21A6:0000       $BM__EventsMng
 21A6:0037       L__NewEvent__EventsMng
 21A6:014C       L__NewTeoEvent__EventsMng
 21A6:01CF       L__NewPilotEvent__EventsMng
 21A6:0252       L__NewConsoleEvent__EventsMng
 21A6:02D5       L__FindNextEvent__EventsMng
 21A6:0366       L__GetUpdNextEvent__EventsMng
 21A6:041A       L__GetEventInfo__EventsMng
 21A6:04AA       L__SaveDistEvents__EventsMng
 21A6:04F4       S__InitEvents__EventsMng
 21A6:0519       L__LoadDistEvents__EventsMng
 21A6:055C       L__EventsMngInit__EventsMng
 21A6:060A       L__UpdateStrefa__EventsMng
 21A6:087E       L__Terminator__EventsMng
 21A6:09B8       $BODY__EventsMng
 21A6:09EE       $INIT__EventsMng
 21A6:0A4A       $EM__EventsMng
 224B:0000       $BM__DataCollect
 224B:0002       L__SampleNr__tablice__DataColle
 224B:0002       L__SampleNr__DataCollect
 224B:004E       L__RedrawReq__DataCollect
 224B:004E       L__RedrawReq__tablice__DataColl
 224B:0152       N__UpdateNR__Tablice800__tablic
 224B:0219       N__Shrink__Tablice800__tablice_
 224B:034B       N__ShrinkX__Tablice800__tablice
 224B:0422       S__Tablice800__tablice__DataCol
 224B:15DF       S__InitTab__tablice__DataCollec
 224B:1867       L__Samp2Dis__DataCollect
 224B:1867       L__Samp2Dis__tablice__DataColle
 224B:1968       L__Samp2Kat__tablice__DataColle
 224B:1968       L__Samp2Kat__DataCollect
 224B:1A69       L__ResetMarks_A__DataCollect
 224B:1A86       L__ResetMarks_D__DataCollect
 224B:1AA3       L__GetNextDMark__DataCollect
 224B:1B29       L__GetNextAMark__DataCollect
 224B:1BBB       S__Start__DataCollect
 224B:2002       L__ResetDataCollect__DataCollec
 224B:2092       N__UpdateDistMarks__UpdTab800__
 224B:20FA       N__UpdateAlfaMarks__UpdTab800__
 224B:2171       L__UpdTab800__DataCollect
 224B:21D7       L__NilProc__DataCollect
 224B:21DF       $BODY__DataCollect
 224B:2221       $INIT__DataCollect
 224B:226E       $EM__DataCollect
 2472:0000       $BM__FIO
 2472:0002       L__Open__FIO
 2472:00FA       L__Create__FIO
 2472:01F2       L__Close__FIO
 2472:026A       L__Seek__FIO
 2472:02BC       L__Write__FIO
 2472:0301       L__Read__FIO
 2472:0346       L__ReadExt__FIO
 2472:0389       L__Length__FIO
 2472:040B       L__EOF__FIO
 2472:046B       L__Delete__FIO
 2472:04B4       L__CD__FIO
 2472:0510       L__MkDir__FIO
 2472:056C       L__RmDir__FIO
 2472:05B5       L__GetDir__FIO
 2472:0614       L__Rename__FIO
 2472:0685       L__GetFileStamp__FIO
 2472:0700       L__DirQuery__FIO
 2472:08B1       L__CriticalErrorHandlerProc__FI
 2472:08BA       L__Terminator__FIO
 2472:097A       S__InitFiles__FIO
 2472:09F0       $BODY__FIO
 2472:0A16       $INIT__FIO
 2472:0A45       $EM__FIO
 2517:0000       $BM__WorseBecause
 2517:0002       L__WorseBLess__WorseBecause
 2517:003E       L__WorseBLessDis__WorseBecause
 2517:0069       L__WorseBGreater__WorseBecause
 2517:00A5       $BODY__WorseBecause
 2517:00AB       $INIT__WorseBecause
 2517:00D0       $EM__WorseBecause
 2525:0000       $BM__Graphics
 2525:000B       L__MaxHor__Graphics
 2525:0014       L__MaxVer__Graphics
 2525:001D       L__Tryb__Graphics
 2525:008B       S__HugeMemCpy__Graphics
 2525:0136       L__SetBank__Graphics
 2525:0136       L__SetBank__InternalMonitor__Gr
 2525:0191       L__GetBank__Graphics
 2525:0191       L__GetBank__InternalMonitor__Gr
 2525:01B2       L__DP__Graphics
 2525:01B2       L__DP__InternalMonitor__Graphic
 2525:025A       L__FillRect__Graphics
 2525:025A       L__FillRect__InternalMonitor__G
 2525:03B5       L__GetWindow__InternalMonitor__
 2525:03B5       L__GetWindow__Graphics
 2525:0593       L__InvertW__InternalMonitor__Gr
 2525:0593       L__InvertW__Graphics
 2525:0703       L__SetWindow__InternalMonitor__
 2525:0703       L__SetWindow__Graphics
 2525:08E1       L___WrStrXY__Graphics
 2525:08E1       L___WrStrXY__InternalMonitor__G
 2525:09BB       S__GetFontPtr__InternalMonitor_
 2525:0CF3       L___Wr16StrXY__InternalMonitor_
 2525:0CF3       L___Wr16StrXY__Graphics
 2525:0DC9       L___Wr2StrXY__Graphics
 2525:0DC9       L___Wr2StrXY__InternalMonitor__
 2525:0F13       L___Wr2fStrXY__InternalMonitor_
 2525:0F13       L___Wr2fStrXY__Graphics
 2525:1059       L__Terminator__Graphics
 2525:1064       S__FindROMFontAddr__Graphics
 2525:108B       S__LoadPLFonts__Graphics
 2525:10C2       $BODY__Graphics
 2525:10F2       $INIT__Graphics
 2525:1121       $EM__Graphics
 2638:0000       L__XmsInstalled__XMS
 2638:0000       $BM__XMS
 2638:0011       L__QueryFreeExtMem__XMS
 2638:003C       L__AllocateExtMem__XMS
 2638:0068       L__FreeExtMem__XMS
 2638:008B       L__MoveExtMemBlock__XMS
 2638:00B2       L__ResizeExtMemBlock__XMS
 2638:00D8       L__AllocUpperMemBlock__XMS
 2638:0107       L__FreeUpperMemBlock__XMS
 2638:012A       $EM__XMS
 264B:0000       $INIT__XMS
 264F:0000       $BM__XMSService
 264F:004E       L__Allocate__XMSService
 264F:00EE       L__Deallocate__XMSService
 264F:0110       L__Copy__XMSService
 264F:01F3       S__Free__XMSService
 264F:02F4       L__Terminator__XMSService
 264F:03C4       S__Blad__XMSService
 264F:0412       S__WrWarning__XMSService
 264F:0450       $BODY__XMSService
 264F:0485       $INIT__XMSService
 264F:04BE       $EM__XMSService
 269B:0000       $BM__GrafTypes
 269B:0002       L__IsIntersect__GrafTypes
 269B:0058       L__Intersection__GrafTypes
 269B:0100       L__MoveRect__GrafTypes
 269B:014B       L__IsEqual__GrafTypes
 269B:0187       L__AssignRect__GrafTypes
 269B:01AD       L__AssignPoint__GrafTypes
 269B:01C5       $BODY__GrafTypes
 269B:01CB       $INIT__GrafTypes
 269B:01E6       $EM__GrafTypes
 26BA:0000       $BM__MMMouse
 26BA:0002       S__DefineStdCursor__MMMouse
 26BA:00D9       S__Init__MMMouse
 26BA:00DF       L__HideConditionally__MMMouse
 26BA:018A       L__IsHidden__MMMouse
 26BA:019E       L__RegisterRegion__MMMouse
 26BA:02C7       L__SetOnTop__MMMouse
 26BA:03E9       L__UnregisterRegion__MMMouse
 26BA:0623       S__Swap__MMMouse
 26BA:0639       S__SetShape__MMMouse
 26BA:0651       S__WrIdx__MMMouse
 26BA:066E       S__WrBit__MMMouse
 26BA:06C2       L__GetRegion__MMMouse
 26BA:0713       L__GetRegionRect__MMMouse
 26BA:0780       L__SetParent__MMMouse
 26BA:07F2       L__EventDispatcher__BezPrzerwan
 26BA:08F0       N__Button2Ev__GetEvent__BezPrze
 26BA:096B       S__GetEvent__BezPrzerwanOdMyszy
 26BA:0AC3       L__InsertEvent__BezPrzerwanOdMy
 26BA:0AC3       L__InsertEvent__MMMouse
 26BA:0B15       $BODY__BezPrzerwanOdMyszy__MMMo
 26BA:0B5F       S__RedrawAt__BezWyszeregowania_
 26BA:0BB2       L__ShowCursor__MMMouse
 26BA:0BB2       L__ShowCursor__BezWyszeregowani
 26BA:0BDE       L__HideCursor__MMMouse
 26BA:0BDE       L__HideCursor__BezWyszeregowani
 26BA:0C0A       S__RemoveCursor__BezWyszeregowa
 26BA:0C8E       S__DrawCursor__BezWyszeregowani
 26BA:1031       L__MouseLoop__MMMouse
 26BA:133C       L__Terminator__MMMouse
 26BA:134F       $BODY__MMMouse
 26BA:14AB       $INIT__MMMouse
 26BA:1502       $EM__MMMouse
 280B:0000       $BM__ShortCuts
 280B:0002       L__KeyPressed__ShortCuts
 280B:0002       L__KeyPressed__monitor__ShortCu
 280B:003B       L__PutKeyStrokeIntoBuffer__moni
 280B:003B       L__PutKeyStrokeIntoBuffer__Shor
 280B:006D       L__ClearBuffer__monitor__ShortC
 280B:006D       L__ClearBuffer__ShortCuts
 280B:008B       L__Read__ShortCuts
 280B:008B       L__Read__monitor__ShortCuts
 280B:0104       L__Rd__monitor__ShortCuts
 280B:0104       L__Rd__ShortCuts
 280B:013F       S__Insert__monitor__ShortCuts
 280B:01A0       N__Remove__RemoveToKill__monito
 280B:032C       S__RemoveToKill__monitor__Short
 280B:0382       S__Find__monitor__ShortCuts
 280B:0424       S__FindAMark__monitor__ShortCut
 280B:04D2       S__Unmark__monitor__ShortCuts
 280B:0532       $BODY__monitor__ShortCuts
 280B:056C       N__GetChar__KbdScan__ShortCuts
 280B:05B8       L__KbdScan__ShortCuts
 280B:0612       L__DefineShortCut__ShortCuts
 280B:0691       N__Kill__DeleteShortCut__ShortC
 280B:06DD       L__DeleteShortCut__ShortCuts
 280B:070A       $BODY__ShortCuts
 280B:0762       $INIT__ShortCuts
 280B:079B       $EM__ShortCuts
 2885:0000       $BM__HRD_Clock
 2885:0002       S__BCD__HRD_Clock
 2885:003A       S__CheckUpdateCycle__HRD_Clock
 2885:006D       S__GetGodzina__HRD_Clock
 2885:00A1       L__Godzina__HRD_Clock
 2885:011E       L__Data__HRD_Clock
 2885:0242       $BODY__HRD_Clock
 2885:0248       $INIT__HRD_Clock
 2885:026D       $EM__HRD_Clock
 28AC:0000       $BM__DGHInterface
 28AC:002B       L__GetCurrDataSign__DGHInterfac
 28AC:005A       L__WaitForNewData__DGHInterface
 28AC:00A0       L__TurnOff__DGHInterface
 28AC:00F2       L__TurnOn__DGHInterface
 28AC:0187       L__GetAnalogVal__DGHInterface
 28AC:0226       L__GetBinaryVal__DGHInterface
 28AC:02BB       L__SetAnalogVal__DGHInterface
 28AC:0392       L__SetBinaryVal__DGHInterface
 28AC:04A0       L__SetMessage__DGHInterface
 28AC:065C       N__HexDigit__CHKSRight__Reader_
 28AC:06B0       N__CHKSRight__Reader__Writer__D
 28AC:07A4       N__Reader__Writer__DGHInterface
 28AC:0CCB       L__Writer__DGHInterface
 28AC:0F7B       $BODY__DGHInterface
 28AC:102C       $INIT__DGHInterface
 28AC:1079       $EM__DGHInterface
 29B4:0000       $BM__HiLevGraf
 29B4:0007       S__Max__HiLevGraf
 29B4:0027       S__Min__HiLevGraf
 29B4:0047       S__StdPalette__HiLevGraf
 29B4:0182       L__SetPaletteEntry__HiLevGraf
 29B4:0230       S__SetPalette__HiLevGraf
 29B4:030F       N__OpenF__LoadDIB__HiLevGraf
 29B4:03A5       L__LoadDIB__HiLevGraf
 29B4:06B5       L__DIBWidth__HiLevGraf
 29B4:06E9       L__DIBHeight__HiLevGraf
 29B4:071E       S__Swap__HiLevGraf
 29B4:0741       S__Norm__HiLevGraf
 29B4:0785       L__ShowDIB__HiLevGraf
 29B4:0A9F       L__CloseDIB__HiLevGraf
 29B4:0AE1       L__SetLineStyle__HiLevGraf
 29B4:0AF4       L__Line__HiLevGraf
 29B4:0B20       L__LineS__HiLevGraf
 29B4:0C85       L__Circle__HiLevGraf
 29B4:0F6C       L__FillRect__HiLevGraf
 29B4:1026       L__Clip__HiLevGraf
 29B4:10F4       L__NoClip__HiLevGraf
 29B4:115F       L__GetClip__HiLevGraf
 29B4:117A       L__Point__HiLevGraf
 29B4:121A       L__MoveTo__HiLevGraf
 29B4:1234       L__LineTo__HiLevGraf
 29B4:1268       L__FrameRect__HiLevGraf
 29B4:12D2       L__WrStr__HiLevGraf
 29B4:138A       L__WrStrXY__HiLevGraf
 29B4:144C       L__Wr2StrXY__HiLevGraf
 29B4:1504       L__Wr2fStrXY__HiLevGraf
 29B4:15BC       S__GetDir__HiLevGraf
 29B4:1630       $BODY__HiLevGraf
 29B4:1678       $INIT__HiLevGraf
 29B4:16E3       $EM__HiLevGraf
 2B23:0000       $BM__GrafUtil
 2B23:0003       L__Info__GrafUtil
 2B23:00BB       L__InfoBeep__GrafUtil
 2B23:0112       L__DoBeep__GrafUtil
 2B23:017A       $BODY__GrafUtil
 2B23:01D3       $INIT__GrafUtil
 2B23:0220       $EM__GrafUtil
 2B46:0000       $BM__G_Odb
 2B46:0072       L__DummyProc__G_Odb
 2B46:0085       S__Dif_CP__G_Odb
 2B46:013E       S__SS_CP__G_Odb
 2B46:0164       L__ModG_CP__G_Odb
 2B46:01E4       S__Dew_CP__G_Odb
 2B46:0264       L__DewLoc_CP__G_Odb
 2B46:02E4       L__AzOsiAv_CP__G_Odb
 2B46:0496       L__DewOff_CP__G_Odb
 2B46:0584       L__DifAv0_CP__G_Odb
 2B46:0661       L__DifAZ_CP__G_Odb
 2B46:072E       L__Az75_150_CP__G_Odb
 2B46:080B       L__Az75_90_CP__G_Odb
 2B46:08E8       L__Az0_CP__G_Odb
 2B46:09DA       L__Ofset_CP__G_Odb
 2B46:09ED       L__AzAv_CP__G_Odb
 2B46:0BE5       L__Alt_CP__G_Odb
 2B46:0C0C       S__Zone_CP__G_Odb
 2B46:0C63       L__Elew_CP__G_Odb
 2B46:0CD9       S__ClearContiners__G_Odb
 2B46:0FC6       L__PoprawDane__G_Odb
 2B46:10A6       N__ReadNAV__Oblicz__G_Odb
 2B46:17BC       L__Oblicz__G_Odb
 2B46:17E0       L__TurnOn__G_Odb
 2B46:1C4E       L__Start__G_Odb
 2B46:1C84       L__Zatrzymaj__G_Odb
 2B46:1CA1       L__Wznow__G_Odb
 2B46:1CBE       L__Sim_Dis__G_Odb
 2B46:1D62       L__Sim_Alfa__G_Odb
 2B46:1D91       L__IniData__G_Odb
 2B46:2233       L__AktStrefa__G_Odb
 2B46:2262       L__NastStrefa__G_Odb
 2B46:22C6       $BODY__G_Odb
 2B46:232C       $INIT__G_Odb
 2B46:23B5       $EM__G_Odb
 2D82:0000       $BM__ScreenCTypes
 2D82:0002       S__Init__ScreenCTypes
 2D82:016B       $BODY__ScreenCTypes
 2D82:0174       $INIT__ScreenCTypes
 2D82:019E       $EM__ScreenCTypes
 2D9C:0000       $BM__MsgBox
 2D9C:0017       L__Warn__MsgBox
 2D9C:0072       L__Info__MsgBox
 2D9C:00F2       L__AdvInfo__MsgBox
 2D9C:05C9       L__P0__MsgBox
 2D9C:05EA       L__P1__MsgBox
 2D9C:060B       L__P2__MsgBox
 2D9C:062C       L__P3__MsgBox
 2D9C:064D       S__Init__MsgBox
 2D9C:0680       $BODY__MsgBox
 2D9C:0689       $INIT__MsgBox
 2D9C:06DB       $EM__MsgBox
 2E0A:0000       $BM__NAVGPIB
 2E0A:01F5       S__ConvertTMStr__NAVGPIB
 2E0A:0261       S__GetResponse__NAVGPIB
 2E0A:0357       L__DoSimpleComm__NAVGPIB
 2E0A:045A       L__DoCommandRealPar__NAVGPIB
 2E0A:04FA       L__VOR_Default__NAVGPIB
 2E0A:06B0       L__LOC_Default__NAVGPIB
 2E0A:081B       L__GS_Default__NAVGPIB
 2E0A:096C       L__MKR_Default__NAVGPIB
 2E0A:0A79       $BODY__NAVGPIB
 2E0A:0C8A       $INIT__NAVGPIB
 2E0A:0CD7       $EM__NAVGPIB
 2ED8:0000       $BM__DigiRS
 2ED8:0002       L__GetWrBufLength__DigiRS
 2ED8:004E       S__MarkError__DigiRS
 2ED8:007D       L__ReadString__DigiRS
 2ED8:00F3       L__WriteString__DigiRS
 2ED8:018F       L__SetBaudRate__DigiRS
 2ED8:02D4       $BODY__DigiRS
 2ED8:02F2       $INIT__DigiRS
 2ED8:031C       $EM__DigiRS
 2F0A:0000       $BM__RealConversions
 2F0A:0052       L__StringToReal__RealConversion
 2F0A:04DF       N__convDigit__RealToString__Rea
 2F0A:0572       N__convertnumber__RealToString_
 2F0A:05EA       N__exp10__RealToString__RealCon
 2F0A:06AC       L__RealToString__RealConversion
 2F0A:0AF9       $BODY__RealConversions
 2F0A:0AFF       $INIT__RealConversions
 2F0A:0B1F       $EM__RealConversions
 2FBD:0000       $BM__Math
 2FBD:002A       L__ACos__Math
 2FBD:018D       L__Sqr__Math
 2FBD:01BD       $BODY__Math
 2FBD:01C3       $INIT__Math
 2FBD:01E8       $EM__Math
 2FDC:0000       $BM__FIltr1St
 2FDC:0082       L__UstawOkresImpulsowania__FIlt
 2FDC:00A2       L__InitCont__FIltr1St
 2FDC:0199       L__Filtr__FIltr1St
 2FDC:024F       L__InitCont2Filters__FIltr1St
 2FDC:03DA       L__Filtr2Filters__FIltr1St
 2FDC:050E       L__InitContB__FIltr1St
 2FDC:053F       L__FiltrB__FIltr1St
 2FDC:0598       L__InitContBCoun__FIltr1St
 2FDC:05B7       L__BinaryCounter__FIltr1St
 2FDC:0607       L__MemFiltr__FIltr1St
 2FDC:0689       L__InitMemFiltr__FIltr1St
 2FDC:06B5       L__MemFiltrInt__FIltr1St
 2FDC:0712       L__InitMemFIntContiner__FIltr1S
 2FDC:0737       $BODY__FIltr1St
 2FDC:0757       $INIT__FIltr1St
 2FDC:0786       $EM__FIltr1St
 3055:0000       $BM__GPS_nov
 3055:014D       L__KopijZnakZTeo__GPS_nov
 3055:0170       S__KopZnakDoKanaluMonitora__GPS
 3055:0193       N__ConvertHexChar__ReadGPS__Get
 3055:0200       N__ReadGPS__GetFrame__GPS_nov
 3055:03B1       N__szukaniePola__GetFrame__GPS_
 3055:0426       N__DekomozycjaRamki__GetFrame__
 3055:04F0       N__GetReal__GetFrame__GPS_nov
 3055:0538       N__GetCardinal__GetFrame__GPS_n
 3055:058D       N__GetInteger__GetFrame__GPS_no
 3055:05E2       N__An_Frame_DOPA__GetFrame__GPS
 3055:06A2       N__Isolate__ConvertStrToWspGeo_
 3055:0929       N__ConvertStrToWspGeo__GetWspGe
 3055:09E3       N__GetWspGeo__An_Frame_GPGGA__G
 3055:0A2D       N__An_Frame_GPGGA__GetFrame__GP
 3055:0B25       N__An_Frame_GPVTG__GetFrame__GP
 3055:0B90       N__Wydziel__An_Frame_GPZDA__Get
 3055:0C2E       N__An_Frame_GPZDA__GetFrame__GP
 3055:0CFB       L__GetFrame__GPS_nov
 3055:0DCE       L__Inicjacja__GPS_nov
 3055:109C       L__gpzdaOff__GPS_nov
 3055:10EC       $BODY__GPS_nov
 3055:11A6       $INIT__GPS_nov
 3055:11FD       $EM__GPS_nov
 3175:0000       $BM__GPS_TRIMBLE
 3175:0021       N__ReadPacketHead__GetFrame__GP
 3175:006A       N__ReadEOL__GetFrame__GPS_TRIMB
 3175:00C9       N__ReadGPS__GetFrame__GPS_TRIMB
 3175:016D       N__WspGeoPoprawne__ReadG__GetFr
 3175:01D7       N__Isolate__ReadG__GetFrame__GP
 3175:0306       N__ReadG__GetFrame__GPS_TRIMBLE
 3175:03CB       N__TypGPS__GetFrame__GPS_TRIMBL
 3175:043F       N__Wydziel__GetFrame__GPS_TRIMB
 3175:0509       N__PodstawWyniki__GetFrame__GPS
 3175:05C7       L__GetFrame__GPS_TRIMBLE
 3175:082D       L__Inicjacja__GPS_TRIMBLE
 3175:084A       $BODY__GPS_TRIMBLE
 3175:08B5       $INIT__GPS_TRIMBLE
 3175:08F8       $EM__GPS_TRIMBLE
 3205:0000       $BM__Ini
 3205:0006       L__DefaultError__Ini
 3205:001E       S__FormSectionString__Ini
 3205:010A       S__LookForSection__Ini
 3205:018F       N__ToEOL__LookForEntry__Ini
 3205:020F       S__LookForEntry__Ini
 3205:035E       L__GetPrivateProfileString__Ini
 3205:050E       L__DeleteSection__Ini
 3205:06C6       L__WritePrivateProfileString__I
 3205:0BE2       S__Expand__Ini
 3205:0E08       L__CloseBuffer__Ini
 3205:0F29       S__AllocateBuffer__Ini
 3205:1139       $BODY__Ini
 3205:119F       $INIT__Ini
 3205:11D8       $EM__Ini
 3323:0000       $BM__Zoom
 3323:0161       L__Init__Zoom
 3323:04E7       S__KtoryWykres__Zoom
 3323:055B       L__ObslugaMyszy__Zoom
 3323:082E       S__RedrawAll__Zoom
 3323:0880       L__ZoomOutPoziomP__Zoom
 3323:0889       L__ZoomOutPionP1__Zoom
 3323:089D       L__ZoomOutPionP2__Zoom
 3323:08B1       L__ZoomOutPionP3__Zoom
 3323:08C5       L__ZoomOutPionP4__Zoom
 3323:08D9       L__Run__Zoom
 3323:0978       S__EnableAll__Zoom
 3323:0A04       L__ZmienPDefault__Zoom
 3323:0A0A       L__Done__Zoom
 3323:0B17       S__FillData__Zoom
 3323:0BAE       S__LoadData__Zoom
 3323:0D92       L__Assign__Zoom
 3323:12E0       S__DobierzDzialki__Zoom
 3323:179A       S__PushX__Zoom
 3323:182C       S__PopX__Zoom
 3323:18B7       S__PushY__Zoom
 3323:1A0A       S__PopY__Zoom
 3323:1B58       L__ZmiennaNiezalezna__Zoom
 3323:1E0A       S__MinV__Zoom
 3323:1E59       S__MaxV__Zoom
 3323:1EA8       S__MinMax__Zoom
 3323:2059       S__Redraw__Zoom
 3323:26F2       $BODY__Zoom
 3323:270D       $INIT__Zoom
 3323:2796       $EM__Zoom
 359D:0000       $BM__GList
 359D:0002       L__SetNotificationProc__GList
 359D:0020       L__DummyNotification__GList
 359D:0028       L__TworzListe__GList
 359D:02FB       N__UsunStr__SkasujWszystko__GLi
 359D:033D       L__SkasujWszystko__GList
 359D:0387       L__Skasuj__GList
 359D:04C1       L__UsunListe__GList
 359D:06B6       L__DodajDoListy__GList
 359D:08C9       L__WstawDoListy__GList
 359D:0A11       L__Idx2Str__GList
 359D:0AC4       L__ZmienListe__GList
 359D:0B6F       L__LiczbaElementow__GList
 359D:0B8E       L__kbHandler__GList
 359D:0C76       L__RScrollUp__GList
 359D:0D8F       L__RScrollDn__GList
 359D:0E9F       L__RChoose__GList
 359D:0FE8       S__CP__GList
 359D:100F       L__Wybor__GList
 359D:1046       S__Redraw__GList
 359D:107D       N__WrStr__Draw__GList
 359D:1181       S__Draw__GList
 359D:128C       L__HandleEvent__GList
 359D:1454       L__CanEnable__GList
 359D:1470       L__Disable__GList
 359D:14F4       L__GetSelection__GList
 359D:1513       L__Enable__GList
 359D:1608       L__GetRegion__GList
 359D:1698       L__Sortowana__GList
 359D:16B4       S__SetSelectionInt__GList
 359D:1754       L__SetSelectionNotf__GList
 359D:1772       L__SetSelection__GList
 359D:1790       S__SetPositions__GList
 359D:1819       L__GetRect__GList
 359D:1839       L__GetContents__GList
 359D:1860       L__SetContents__GList
 359D:18E1       L__KillContents__GList
 359D:18FD       $BODY__GList
 359D:1920       $INIT__GList
 359D:197C       $EM__GList
 3735:0000       $BM__Buttons
 3735:0002       S__Insert__MONITOR__Buttons
 3735:0052       N__Remove__RemoveToKill__MONITO
 3735:01B5       S__RemoveToKill__MONITOR__Butto
 3735:0205       S__FindAMark__MONITOR__Buttons
 3735:0318       S__MarkBut__MONITOR__Buttons
 3735:03BB       S__Unmark__MONITOR__Buttons
 3735:041B       $BODY__MONITOR__Buttons
 3735:043F       N__Dec__DrawInter__Buttons
 3735:047D       S__DrawInter__Buttons
 3735:0790       L__UniversalKBD__Buttons
 3735:07E1       L__MouseHandler__Buttons
 3735:0959       L__ChangeButton__Buttons
 3735:09D0       L__ChangeButtonText__Buttons
 3735:0A36       N__KillButton__DisposeButton__B
 3735:0AAB       L__DisposeButton__Buttons
 3735:0AE2       L__PressRadio__Buttons
 3735:0B27       L__Nic__Buttons
 3735:0B2D       L__CreateButton__Buttons
 3735:0C3C       L__CreateRadioButton__Buttons
 3735:0CC0       L__EnableButton__Buttons
 3735:0D0E       L__GetRegion__Buttons
 3735:0D35       L__CallProc__Buttons
 3735:0D4E       L__EnableDisableAllButtons__But
 3735:0D61       $BODY__Buttons
 3735:0D80       $INIT__Buttons
 3735:0DD7       $EM__Buttons
 3813:0000       $BM__Dialog
 3813:0006       L__GetDialogDIBHandle__Dialog
 3813:002D       L__WstawButton__Dialog
 3813:0156       L__WstawRadioButton__Dialog
 3813:02EB       L__RadioBProc__Dialog
 3813:03EC       L__WstawInpLine__Dialog
 3813:0518       L__WstawListe__Dialog
 3813:0663       L__TworzDialog__Dialog
 3813:0A79       N__UsunPola__UsunDialog__Dialog
 3813:0B28       L__UsunDialog__Dialog
 3813:0D8A       L__KlawiszSpacji__Dialog
 3813:0E12       L__KlawiszTab__Dialog
 3813:0E94       L__KlawiszShiftTab__Dialog
 3813:0F3F       N__Expand__Aktywizuj__Dialog
 3813:0FCA       S__Aktywizuj__Dialog
 3813:1185       S__CzyMoznaSkonczyc__Dialog
 3813:123F       L__Go__Dialog
 3813:1488       L__DialogMouseHandle__Dialog
 3813:15B1       S__ChwilowoZablokujDialog__Dial
 3813:15E7       L__EndDialog__Dialog
 3813:1666       L__AltF4__Dialog
 3813:167B       L__EnableDlg__Dialog
 3813:17AC       L__IsBusy__Dialog
 3813:17EF       L__Redraw__Dialog
 3813:18C2       $BODY__Dialog
 3813:18EB       $INIT__Dialog
 3813:195B       $EM__Dialog
 39A9:0000       $BM__InpLine
 39A9:0002       L__CreateInpLine__InpLine
 39A9:0183       L__Enable__InpLine
 39A9:01CA       L__DeleteInpLine__InpLine
 39A9:02C9       L__SetText__InpLine
 39A9:0388       L__GetText__InpLine
 39A9:03DC       L__Key__InpLine
 39A9:07B4       L__DoNothing__InpLine
 39A9:07C4       L__KillFocus__InpLine
 39A9:0827       S__Draw__InpLine
 39A9:09E5       L__SetCursor__InpLine
 39A9:0B2F       L__SetActive__InpLine
 39A9:0C4D       L__GetRegion__InpLine
 39A9:0C9E       $BODY__InpLine
 39A9:0CB5       $INIT__InpLine
 39A9:0D16       $EM__InpLine
 3A7B:0000       $BM__PI_ZoomSpecific
 3A7B:00C5       L__ZmiennaNiezalezna__PI_ZoomSp
 3A7B:0141       L__InitNames__PI_ZoomSpecific
 3A7B:0735       L__NazwaOdniesienia__PI_ZoomSpe
 3A7B:0768       $BODY__PI_ZoomSpecific
 3A7B:076E       $INIT__PI_ZoomSpecific
 3A7B:07CA       $EM__PI_ZoomSpecific
 3AF8:0000       $BM__Obloty
 3AF8:01EB       L__UstawHomeDir__Obloty
 3AF8:0242       L__Ile__Obloty
 3AF8:0266       S__IleInspekcji__Obloty
 3AF8:02DC       S__WymienWszystkie__Obloty
 3AF8:037F       L__Dopasuj__Obloty
 3AF8:041D       L__WymInspekcjeDlaUrz__Obloty
 3AF8:04E4       L__WymienWszystkiePasujace__Obl
 3AF8:051E       L__SzczegolowyPlikOpisu__Obloty
 3AF8:068A       L__Kasuj__Obloty
 3AF8:06B2       L__ZmienISkasuj__Obloty
 3AF8:0738       S__SkasujKartoteke__Obloty
 3AF8:078A       L__SkasujOblot__Obloty
 3AF8:09B5       N__KasujPlik__KasujPodkartoteke
 3AF8:0A4B       L__KasujPodkartoteke__Obloty
 3AF8:0B21       S__Kasuj_DelDir__Obloty
 3AF8:0B98       L__SkasujInspekcje__Obloty
 3AF8:0DD3       N__ExistDIR__FreeSlot__Obloty
 3AF8:0E1A       L__FreeSlot__Obloty
 3AF8:0EB9       S__ZnajdzNumInspekcji__Obloty
 3AF8:0FF8       L__ZnajdzInspekcje__Obloty
 3AF8:1042       L__InspekcjeNowyWpis__Obloty
 3AF8:11EB       N__KopiujPlik__KopiujPodkartote
 3AF8:13F8       L__KopiujPodkartoteke__Obloty
 3AF8:1564       S__KopiujKartoteke__Obloty
 3AF8:15DB       L__KopiujInspekcje__Obloty
 3AF8:171F       L__StartInspection__Obloty
 3AF8:1A87       L__InitListaUrzadzen__Obloty
 3AF8:1B83       L__Dum_Stat_Size_Monitor__Oblot
 3AF8:1B8B       L__Dum_Stat_File_Monitor__Oblot
 3AF8:1B9E       $BODY__Obloty
 3AF8:1C0F       $INIT__Obloty
 3AF8:1C75       $EM__Obloty
 3CC0:0000       $BM__Mapa
 3CC0:008A       S__RedefineMaxDist__Mapa
 3CC0:0151       N__GetGPS__resolveSituation__Ma
 3CC0:0260       N__CountMaxDist__resolveSituati
 3CC0:037D       S__resolveSituation__Mapa
 3CC0:0419       S__MakeMAP__Mapa
 3CC0:0545       L__PokazKatyLotu__Mapa
 3CC0:0696       N__Min__Promienie__Mapa
 3CC0:06B6       L__Promienie__Mapa
 3CC0:07B3       L__GdzieJest__Mapa
 3CC0:0922       S__Stop__monitor__Mapa
 3CC0:0951       L__StartProcess__monitor__Mapa
 3CC0:0951       L__StartProcess__Mapa
 3CC0:098B       L__CancelProcess__monitor__Mapa
 3CC0:098B       L__CancelProcess__Mapa
 3CC0:09BA       $BODY__monitor__Mapa
 3CC0:09DC       S__FillPromieie__Mapa
 3CC0:0A4F       $BODY__Mapa
 3CC0:0AF4       $INIT__Mapa
 3CC0:0B50       $EM__Mapa
 3D76:0000       $BM__Polozenie
 3D76:005A       N__FlipY__InitMarkers__Polozeni
 3D76:0120       N__FlipX__InitMarkers__Polozeni
 3D76:0226       N__Rot90__InitMarkers__Polozeni
 3D76:032E       S__InitMarkers__Polozenie
 3D76:044A       S__DrawMarker__Polozenie
 3D76:0855       S__EraseMarker__Polozenie
 3D76:08FE       L__Start_Polozenie__Polozenie
 3D76:0959       N__XY__LL__DrawNCO__Polozenie
 3D76:0A88       N__LL__DrawNCO__Polozenie
 3D76:0BA8       S__DrawNCO__Polozenie
 3D76:0C2C       L__UpdateM__Polozenie
 3D76:0DD7       L__Stop_Polozenie__Polozenie
 3D76:0E09       L__RresetCzesciOkregu__Polozeni
 3D76:0E6A       L__NoweCzesciOkregu__Polozenie
 3D76:0EEE       N__Rysuj__Promienie__Polozenie
 3D76:1084       L__Promienie__Polozenie
 3D76:1164       $BODY__Polozenie
 3D76:11C4       $INIT__Polozenie
 3D76:1225       $EM__Polozenie
 3E99:0000       $BM__SwitchCntrl
 3E99:0002       L__SwitchTo__SwitchCntrl
 3E99:00D4       $BODY__SwitchCntrl
 3E99:0109       $INIT__SwitchCntrl
 3E99:012E       $EM__SwitchCntrl
 3EAC:0000       $BM__Kalibracja
 3EAC:097E       L__GetErrReset__Kalibracja
 3EAC:097E       L__GetErrReset__ErrorHand__Kali
 3EAC:09B6       S__SetError__ErrorHand__Kalibra
 3EAC:09DC       $BODY__ErrorHand__Kalibracja
 3EAC:09FA       N__Lookup__OmnibearingV__Kalibr
 3EAC:0E16       L__OmnibearingV__Kalibracja
 3EAC:0F88       L__Lookup__Kalibracja
 3EAC:143A       N__Status__Error__Kalibracja
 3EAC:1489       S__Error__Kalibracja
 3EAC:14D4       N__LoadValue__LoadSegmentTables
 3EAC:15EC       N__LoadReal__LoadSegmentTables_
 3EAC:1673       N__LoadTable__LoadSegmentTables
 3EAC:1719       N__LoadSegment__LoadChannel__Lo
 3EAC:17D7       N__LoadChannel__LoadSegmentTabl
 3EAC:1E6D       S__LoadSegmentTables__Kalibracj
 3EAC:219B       N__SaveValue__SaveSegmentTables
 3EAC:2293       N__SaveReal__SaveSegmentTables_
 3EAC:230E       N__SaveTable__SaveSegmentTables
 3EAC:23A0       N__SaveSegment__SaveChannel__Sa
 3EAC:243E       N__SaveChannel__SaveSegmentTabl
 3EAC:2A2F       L__SaveSegmentTables__Kalibracj
 3EAC:2C81       $BODY__Kalibracja
 3EAC:2DA5       $INIT__Kalibracja
 3EAC:2E15       $EM__Kalibracja
 418E:0000       $BM__FCBS
 418E:0002       L__Set__FCBS
 418E:001A       S__CtrlBreakProc__FCBS
 418E:0037       $BODY__FCBS
 418E:004C       $INIT__FCBS
 418E:0071       $EM__FCBS
 4196:0000       $BM__CocpDsp
 4196:0002       L__UstawFormat__CocpDsp
 4196:02E6       L__PodajFormat__CocpDsp
 4196:0315       L__UstawZmienne__CocpDsp
 4196:058F       L__SetIdleMsg__CocpDsp
 4196:05AF       N__SendMsg__ControlLoop__CocpDs
 4196:077A       N__PozWskazowki__SetLOC_G_SCP__
 4196:0823       N__SetLOC_G_SCP__ControlLoop__C
 4196:090E       N__pozycjaStrzalki__ControlLoop
 4196:0A5E       L__ControlLoop__CocpDsp
 4196:0C01       L__WatchDogProcess__CocpDsp
 4196:0C4D       $BODY__CocpDsp
 4196:0D49       $INIT__CocpDsp
 4196:0D8C       $EM__CocpDsp
 426F:0000       $BM__Wykres
 426F:009B       S__Log10__Wykres
 426F:0101       N__SkalY__Draw__Wykres
 426F:03D7       L__Draw__Wykres
 426F:052F       N__SkalY__PokazWykres__Wykres
 426F:062B       N__SkalX__PokazWykres__Wykres
 426F:0758       L__PokazWykres__Wykres
 426F:0853       N__SkalY__PokazWykres1__Wykres
 426F:09B4       L__PokazWykres1__Wykres
 426F:0B0C       L__Opis__Wykres
 426F:0B8B       N__AutoFormat__OpisLog__Wykres
 426F:0C63       N__LineV__OpisLog__Wykres
 426F:1024       N__LineH__OpisLog__Wykres
 426F:1330       L__OpisLog__Wykres
 426F:14E2       L__PokazWykresNS__Wykres
 426F:1546       N__SkalY__PokazWykresNSLog__Wyk
 426F:17B3       N__SkalX__PokazWykresNSLog__Wyk
 426F:1B1F       L__PokazWykresNSLog__Wykres
 426F:1DFD       S__LogPos__Wykres
 426F:1EE5       L__LessInt__Wykres
 426F:1F01       L__LessCard__Wykres
 426F:1F1D       L__Card2Real__Wykres
 426F:1F64       L__Int2Real__Wykres
 426F:1FA0       N__GetX__PokazWykresZXms__Wykre
 426F:1FC9       N__GetY__PokazWykresZXms__Wykre
 426F:1FF2       N__SkalY__PokazWykresZXms__Wykr
 426F:222D       N__SkalX__PokazWykresZXms__Wykr
 426F:256B       L__PokazWykresZXms__Wykres
 426F:270A       $BODY__Wykres
 426F:2710       $INIT__Wykres
 426F:2762       $EM__Wykres
 44E6:0000       $BM__XMSTable
 44E6:0002       L__AssignNil__XMSTable
 44E6:0018       L__Size__XMSTable
 44E6:0039       L__IsValid__XMSTable
 44E6:005D       L__Allocate__XMSTable
 44E6:00F2       L__Deallocate__XMSTable
 44E6:0142       L__PutElem__XMSTable
 44E6:01B7       L__GetElem__XMSTable
 44E6:0245       S__Map__XMSTable
 44E6:0325       $BODY__XMSTable
 44E6:032B       $INIT__XMSTable
 44E6:035A       $EM__XMSTable
 451C:0000       $BM__PI_ScrUtility
 451C:0002       L__ShowScreenDIB__PI_ScrUtility
 451C:0035       L__ShowCursorDIB__PI_ScrUtility
 451C:0063       S__UniversalAB__PI_ScrUtility
 451C:0113       L__UniversalSAF__PI_ScrUtility
 451C:013B       S__UniversalLBF__PI_ScrUtility
 451C:0163       L__UniversalSBF__PI_ScrUtility
 451C:018B       S__UniversalLAB__PI_ScrUtility
 451C:01B3       S__UniversalPAB__PI_ScrUtility
 451C:01DB       S__UniversalSBB__PI_ScrUtility
 451C:0203       S__NowySlup__PI_ScrUtility
 451C:0263       N__WykSlupF__WykSlup__PI_ScrUti
 451C:0305       L__WykSlup__PI_ScrUtility
 451C:03FE       L__UpdateSlupki__PI_ScrUtility
 451C:0465       L__DisposeSlupki__PI_ScrUtility
 451C:04CC       L__NapiszSygnaly__PI_ScrUtility
 451C:04D9       L__Init_ScrUtility__PI_ScrUtili
 451C:053E       L__IniSkale__PI_ScrUtility
 451C:0558       L__GetRegionWykG__PI_ScrUtility
 451C:0578       L__GetRegionWyk1__PI_ScrUtility
 451C:0598       L__GetRegionWyk2__PI_ScrUtility
 451C:05B8       L__GetRegionWyk3__PI_ScrUtility
 451C:05D8       $BODY__PI_ScrUtility
 451C:05DE       $INIT__PI_ScrUtility
 451C:063F       $EM__PI_ScrUtility
 4581:0000       $BM__Slupek
 4581:0002       L__WykresSlupkowy__Slupek
 4581:0229       N__Skala__Update__Slupek
 4581:02EE       N__Kolor__Update__Slupek
 4581:0317       N__FillR__Odswiez__Update__Slup
 4581:036C       N__Odswiez__Update__Slupek
 4581:058F       L__Update__Slupek
 4581:0647       L__Dispose__Slupek
 4581:065C       L__Nothing__Slupek
 4581:0666       L__GetSlupRect__Slupek
 4581:0695       L__Nil__Slupek
 4581:06A7       $BODY__Slupek
 4581:06AD       $INIT__Slupek
 4581:06E6       $EM__Slupek
 45F0:0000       $BM__G_DisResults
 45F0:0329       L__WriteTab__G_DisResults
 45F0:04C7       N__WriteZoneDist__DispResults__
 45F0:0623       N__Wr_SignalsRecDsc__DispResult
 45F0:06C1       N__Wr_SignalsRecDsc_WL__DispRes
 45F0:078C       N__Wr_DevValueTab__DispResults_
 45F0:07C8       N__Wr_DevValueTab_WL__DispResul
 45F0:0835       N__Wr_Integer_WL__DispResults__
 45F0:08A0       N__Wr_SignalInSecDsc_WL__DispRe
 45F0:096C       N__An_AnalizaDsc__DispResults__
 45F0:0A24       N__An_MkrLength__An_OpisOsi__Di
 45F0:0AB7       N__An_OpisOsi__DispResults__G_D
 45F0:0BC4       N__An_OpisSektora__DispResults_
 45F0:0C81       N__An_OpisProfilB__DispResults_
 45F0:0D89       N__An_OpisBadDod__DispResults__
 45F0:0DC5       N__An_OpisZabezpieczenie__DispR
 45F0:0E06       N__An_OpisPokrycia__DispResults
 45F0:0E3A       L__DispResults__G_DisResults
 45F0:0EE9       $BODY__G_DisResults
 45F0:0F00       $INIT__G_DisResults
 45F0:0F66       $EM__G_DisResults
 46E7:0000       $BM__DisResUtilities
 46E7:000A       L__WriteTab__DisResUtilities
 46E7:00BE       L__WrS__DisResUtilities
 46E7:00F4       L__WrSPlus__DisResUtilities
 46E7:014A       L__INCLine__DisResUtilities
 46E7:0170       L__WrFlagsTableWHeading__DisRes
 46E7:023C       L__WrFlagsTable__DisResUtilitie
 46E7:02AF       L__WrF_TablicaOdci__DisResUtili
 46E7:0340       $BODY__DisResUtilities
 46E7:0346       $INIT__DisResUtilities
 46E7:0389       $EM__DisResUtilities
 4720:0000       $BM__PiszEventy
 4720:038B       N__Znacznik__Decode__PiszEventy
 4720:0786       S__Decode__PiszEventy
 4720:0A31       L__IleEventow__PiszEventy
 4720:0A53       L__TworzEventy__PiszEventy
 4720:0AA6       N__WrStr__PiszNaEkranie__PiszEv
 4720:0B99       L__PiszNaEkranie__PiszEventy
 4720:0D48       S__min__PiszEventy
 4720:0D6B       L__PiszNaDrukarce__PiszEventy
 4720:0F04       L__EnumEv__PiszEventy
 4720:10B0       S__WrStrLn__PiszEventy
 4720:10DC       S__WrStr__PiszEventy
 4720:1163       S__WrLn__PiszEventy
 4720:117D       S__WrP__PiszEventy
 4720:1199       $BODY__PiszEventy
 4720:11AA       $INIT__PiszEventy
 4720:1233       $EM__PiszEventy
 4844:0000       $BM__G_DAcquizition
 4844:0002       L__PolV__G_DAcquizition
 4844:001A       S__CommReq__Monitor__G_DAcquizi
 4844:004C       L__Stop__Monitor__G_DAcquizitio
 4844:004C       L__Stop__G_DAcquizition
 4844:007B       L__ConsoleEv__Monitor__G_DAcqui
 4844:007B       L__ConsoleEv__G_DAcquizition
 4844:00AA       L__Restart__G_DAcquizition
 4844:00AA       L__Restart__Monitor__G_DAcquizi
 4844:00D9       S__GetEvent__Monitor__G_DAcquiz
 4844:0133       $BODY__Monitor__G_DAcquizition
 4844:015A       N__ZnacznikiPol__Acquire__G_DAc
 4844:01DF       N__AssignPilotEvBlock__Acquire_
 4844:0242       L__Acquire__G_DAcquizition
 4844:0542       L__RedrawReq__G_DAcquizition
 4844:0591       L__RedrawMarksReq__G_DAcquiziti
 4844:05BE       L__UpdateMarksOrbit__G_DAcquizi
 4844:0658       L__UpdateMarksRadial__G_DAcquiz
 4844:06F2       S__IniData__G_DAcquizition
 4844:07BB       L__IniDataOrbit__G_DAcquizition
 4844:07D3       L__IniDataRadial__G_DAcquizitio
 4844:07EB       L__Start__G_DAcquizition
 4844:085C       L__Abort__G_DAcquizition
 4844:088C       $BODY__G_DAcquizition
 4844:08AF       $INIT__G_DAcquizition
 4844:096F       $EM__G_DAcquizition
 48DC:0000       $BM__L_Count
 48DC:00F0       N__Interpolacja__Analiza__L_Cou
 48DC:0123       N__GetEvent__Do_Analiza__Analiz
 48DC:01CE       N__AnalyseZoneLa__Do_Analiza__A
 48DC:03A2       N__CheckZone__AnalizeMain__Do_A
 48DC:03FC       N__AnalizeMain__Do_Analiza__Ana
 48DC:061D       N__Do_StructAnalyse__Do_Analiza
 48DC:06E8       N__Do_Analiza__Analiza__L_Count
 48DC:0827       L__Analiza__L_Count
 48DC:087B       $BODY__L_Count
 48DC:0898       $INIT__L_Count
 48DC:0908       $EM__L_Count
 496D:0000       $BM__AltInterface
 496D:0012       L__SetPressure__AltInterface
 496D:0032       L__ALTConvert__AltInterface
 496D:0214       $BODY__AltInterface
 496D:02DB       $INIT__AltInterface
 496D:030F       $EM__AltInterface
 499F:0000       $BM__G_Print
 499F:0648       L__NazwaProcedury__G_Print
 499F:088F       S__MakeHeader__G_Print
 499F:09A1       N__PrintStdValues__OpisPomiaru_
 499F:0A54       N__WrSignDesc1__OpisPomiaru__G_
 499F:0B13       N__WrSignDesc__OpisPomiaru__G_P
 499F:0B8B       N__LstZToBeTraced__OpisPomiaru_
 499F:0B99       N__WrSectSignDesc__OpisPomiaru_
 499F:0C7F       N__WrSignDesc1__MarkerLength__O
 499F:0D57       N__MarkerLength__OpisPomiaru__G
 499F:0E8D       N__OpisOsiP__OpisPomiaru__G_Pri
 499F:127E       N__OpisSektoraP__OpisPomiaru__G
 499F:13B7       N__OpisProfB_P__OpisPomiaru__G_
 499F:1581       N__OpisBadDod_P__OpisPomiaru__G
 499F:1609       N__OpisZabezpieczenia_P__OpisPo
 499F:168E       N__Pokrycie_P__OpisPomiaru__G_P
 499F:172D       S__OpisPomiaru__G_Print
 499F:1831       N__KatSciezki_P__Print__G_Print
 499F:2555       N__ProfB__Print__G_Print
 499F:2D26       N__SzSekt__Print__G_Print
 499F:3424       N__RownowagaModulacji__Print__G
 499F:38EA       N__Pokrycie__Print__G_Print
 499F:3E7B       S__Print__G_Print
 499F:4448       L__MakeRaport__G_Print
 499F:478E       $BODY__G_Print
 499F:479F       $INIT__G_Print
 499F:4841       $EM__G_Print
 4E24:0000       $BM__GeoArithmetic
 4E24:006A       S__DodajPolozenieGeo__GeoArithm
 4E24:012E       S__Odwr__GeoArithmetic
 4E24:01D4       S__OdejmijPolozenieGeo__GeoArit
 4E24:02F0       S__SredniPolozenieGeo__GeoArith
 4E24:03A9       S__Rad__GeoArithmetic
 4E24:04C0       S__Odl2Geo__GeoArithmetic
 4E24:0601       S__Mile__GeoArithmetic
 4E24:0719       L__Geo2Kat__GeoArithmetic
 4E24:0AEF       L__Kat2Geo__GeoArithmetic
 4E24:0D1C       L__AssignOdniesienie__GeoArithm
 4E24:0D90       $BODY__GeoArithmetic
 4E24:0DA1       $INIT__GeoArithmetic
 4E24:0DD5       $EM__GeoArithmetic
 4F02:0000       $BM__Marks
 4F02:0032       L__AngResetContiner__Marks
 4F02:0041       L__DisResetContiner__Marks
 4F02:0050       N__findidx__AngAddSample__Marks
 4F02:010A       N__Side__AngAddSample__Marks
 4F02:015E       L__AngAddSample__Marks
 4F02:037F       N__findidx__DisAddSample__Marks
 4F02:0423       N__Side__DisAddSample__Marks
 4F02:0453       L__DisAddSample__Marks
 4F02:0636       L__InicjujOpisStanuLuku__Marks
 4F02:0670       N__findidx__SegZakonczony__Mark
 4F02:0806       L__SegZakonczony__Marks
 4F02:08FD       $BODY__Marks
 4F02:0903       $INIT__Marks
 4F02:0937       $EM__Marks
 4F96:0000       $BM__Rap_Util
 4F96:0093       L__GetInteractiveData__Rap_Util
 4F96:03C7       L__Samolot__Rap_Util
 4F96:0412       L__SpelniaP__Rap_Util
 4F96:0432       L__NieSpelniaP__Rap_Util
 4F96:0452       L__Dummy__Rap_Util
 4F96:045A       $BODY__Rap_Util
 4F96:0460       $INIT__Rap_Util
 4F96:04CB       $EM__Rap_Util
 4FE3:0000       $BM__Print
 4FE3:0159       L__GorszeBoMniejsze__Print
 4FE3:0186       L__DalszeOdZera__Print
 4FE3:01C3       L__MaxY__Print
 4FE3:01DE       L__log__Print
 4FE3:0232       L__Wr__Print
 4FE3:02A2       L__WrPrn__Print
 4FE3:0360       L__WrLn__Print
 4FE3:0390       L__WrPrnLn__Print
 4FE3:03D2       L__InitA__Print
 4FE3:0821       L__InitB__Print
 4FE3:0886       S__PointA__Print
 4FE3:0ADD       S__PointB__Print
 4FE3:0CBF       L__Point__Print
 4FE3:0CF3       L__Opis__Print
 4FE3:0E2F       L__CloseAll__Print
 4FE3:0EC8       L__InitAll__Print
 4FE3:0FE0       L__EvProc__Print
 4FE3:12D3       L__ZnacznikiOdleglosci__Print
 4FE3:15A6       L__WrFlagsTableWHeading__Print
 4FE3:16BA       L__WrFlagsTable__Print
 4FE3:1799       L__WrF_TablicaOdci__Print
 4FE3:183C       L__WypiszStrefy__Print
 4FE3:1998       L__PrintScreenProc__Print
 4FE3:19A5       $BODY__Print
 4FE3:19F2       $INIT__Print
 4FE3:1A80       $EM__Print
 518C:0000       $BM__DrawEpson
 518C:00A5       S__UstawTrybTekstowy__DrawEpson
 518C:00E9       L__MaxX__DrawEpson
 518C:00F8       L__MaxY__DrawEpson
 518C:0107       S__Map__DrawEpson
 518C:01C6       L__Point__DrawEpson
 518C:0322       L__IsDrawn__DrawEpson
 518C:03D3       L__Out__DrawEpson
 518C:0670       L__Open__DrawEpson
 518C:06E2       L__Close__DrawEpson
 518C:06FE       L__Line__DrawEpson
 518C:0849       L__SetTextMode__DrawEpson
 518C:085C       L__SetFont__DrawEpson
 518C:0942       S__Conv2PL__DrawEpson
 518C:0ABD       S__DrawChar0__DrawEpson
 518C:0DA0       S__DrawText0__DrawEpson
 518C:0E1D       S__DrawChar90__DrawEpson
 518C:10A7       S__DrawText90__DrawEpson
 518C:1124       L__DrawText__DrawEpson
 518C:1193       L__SetDir__DrawEpson
 518C:11A6       L__Mnoznik__DrawEpson
 518C:11C0       L__InitPort__DrawEpson
 518C:120D       L__IsAborted__DrawEpson
 518C:1253       L__WrProc__DrawEpson
 518C:138C       $BODY__DrawEpson
 518C:1415       $INIT__DrawEpson
 518C:1462       $EM__DrawEpson
 52D3:0000       $BM__Semafory
 52D3:0002       L__Set__Semafory
 52D3:00AA       L__Free__Semafory
 52D3:0120       L__Register__Semafory
 52D3:01B0       L__Init__Semafory
 52D3:01FC       L__Unregister__Semafory
 52D3:02B0       S__ExceptionHandler__Semafory
 52D3:03BE       S__InitTbl__Semafory
 52D3:041D       $BODY__Semafory
 52D3:0433       $INIT__Semafory
 52D3:0453       $EM__Semafory
 5319:0000       $BM__DGH_utils
 5319:0002       L__TurnOffILSSig__DGH_utils
 5319:00D0       L__TurnOnLOCSig__DGH_utils
 5319:016E       L__TurnOnGSSig__DGH_utils
 5319:020C       L__TurnOnVORSig__DGH_utils
 5319:027A       L__TurnOffVORSig__DGH_utils
 5319:02E8       L__TurnOnDMESig__DGH_utils
 5319:0366       L__TurnOffDMESig__DGH_utils
 5319:03E4       L__TurnOnADFSig__DGH_utils
 5319:0432       L__TurnOffADFSig__DGH_utils
 5319:0480       N__ReadAnalog__ReadValue__DGH_u
 5319:04A8       L__ReadValue__DGH_utils
 5319:063C       L__ReadOmniber__DGH_utils
 5319:06BA       L__BinaryValSet__DGH_utils
 5319:0734       $BODY__DGH_utils
 5319:084D       $INIT__DGH_utils
 5319:08A4       $EM__DGH_utils
 53A4:0000       $BM__ILS_EvalProcedures
 53A4:0142       L__CountAzym0R__ILS_EvalProcedu
 53A4:01D2       S__CountAzymR__ILS_EvalProcedur
 53A4:028B       L__CountDif__ILS_EvalProcedures
 53A4:0378       L__AV_Addsmpl__ILS_EvalProcedur
 53A4:04C6       L__AV_Clear__ILS_EvalProcedures
 53A4:04F5       L__Az0Av_Addsmpl__ILS_EvalProce
 53A4:069B       L__Az0Av_Clear__ILS_EvalProcedu
 53A4:06F0       L__CountDelAzym__ILS_EvalProced
 53A4:083C       S__Check__ILS_EvalProcedures
 53A4:0890       L__Azym_Addsmpl__ILS_EvalProced
 53A4:0D17       L__Azym_Clear__ILS_EvalProcedur
 53A4:0E0C       L__CountDif0R__ILS_EvalProcedur
 53A4:0EC6       L__AzDif0_Addsmpl__ILS_EvalProc
 53A4:1318       L__Dif0_Clear__ILS_EvalProcedur
 53A4:136F       L__Az0_Clear__ILS_EvalProcedure
 53A4:13D6       N__Check__Clearence_Addsmpl__IL
 53A4:1428       L__Clearence_Addsmpl__ILS_EvalP
 53A4:16B7       L__Clearence_Clear__ILS_EvalPro
 53A4:16EC       L__AzymAV_Addsmpl__ILS_EvalProc
 53A4:1850       L__AzymAV_Clear__ILS_EvalProced
 53A4:18CF       L__CountAzym__ILS_EvalProcedure
 53A4:19A9       L__CountAzymOsi__ILS_EvalProced
 53A4:1A78       L__MkrLnth_AddSmpl__ILS_EvalPro
 53A4:1B70       L__MkrLnth_Clear__ILS_EvalProce
 53A4:1B99       L__MkrALengthConClear__ILS_Eval
 53A4:1C15       N__CheckMkrState__MkrLength_Cou
 53A4:1C45       N__CheckMkrFlgs__MkrLength_Coun
 53A4:1CD0       L__MkrLength_Count__ILS_EvalPro
 53A4:1F14       L__Bend_ClearContainer__ILS_Eva
 53A4:1FB6       N__Count__Bend_AddSample__ILS_E
 53A4:210C       N__OutSide__Bend_AddSample__ILS
 53A4:231A       L__Bend_AddSample__ILS_EvalProc
 53A4:2630       L__SetPathAngle__ILS_EvalProced
 53A4:264A       $BODY__ILS_EvalProcedures
 53A4:265B       $INIT__ILS_EvalProcedures
 53A4:269E       $EM__ILS_EvalProcedures
 560E:0000       $BM__Random
 560E:002A       S__Next__Random
 560E:00DE       L__RandomInit__Random
 560E:01A8       L__RandomCard__Random
 560E:0245       L__RandomInt__Random
 560E:026A       L__RandomReal__Random
 560E:0385       L__Randomize__Random
 560E:03DC       $BODY__Random
 560E:03E6       $INIT__Random
 560E:0410       $EM__Random
 5650:0000       $BM__M_PGPIB
 5650:0017       L__IOCheck__M_PGPIB
 5650:0036       L__GPIBPresent__M_PGPIB
 5650:006B       L__ieinit__M_PGPIB
 5650:007C       L__ieoutput__M_PGPIB
 5650:008D       L__ieenter__M_PGPIB
 5650:009E       L__ieabort__M_PGPIB
 5650:00AD       L__ieeol__M_PGPIB
 5650:00BE       L__iedevclr__M_PGPIB
 5650:00CF       L__iello__M_PGPIB
 5650:00DE       L__ielocal__M_PGPIB
 5650:00EF       L__ieppoll__M_PGPIB
 5650:0100       L__ieppollc__M_PGPIB
 5650:0111       L__ieppollu__M_PGPIB
 5650:0122       L__ieremote__M_PGPIB
 5650:0133       L__iesend__M_PGPIB
 5650:0144       L__iespoll__M_PGPIB
 5650:0155       L__iestatus__M_PGPIB
 5650:0166       L__ietimout__M_PGPIB
 5650:0177       L__ietrig__M_PGPIB
 5650:0188       L__ieentera__M_PGPIB
 5650:0199       L__ieouta__M_PGPIB
 5650:01AA       L__iedevice__M_PGPIB
 5650:01BB       $BODY__M_PGPIB
 5650:01C1       $INIT__M_PGPIB
 5650:01E1       $EM__M_PGPIB
 566F:0000       $BM__Kl_FGenerators
 566F:0002       L__LookupM__Kl_FGenerators
 566F:04D9       $BODY__Kl_FGenerators
 566F:04DF       $INIT__Kl_FGenerators
 566F:04FF       $EM__Kl_FGenerators
 56C0:0000       $BM__L_Slupek
 56C0:00BE       L__WrStrXYDummy__L_Slupek
 56C0:00D1       L__GorszeBoDummy__L_Slupek
 56C0:00D9       L__ShowScreenDIB__L_Slupek
 56C0:0125       L__ShowCursorDIB__L_Slupek
 56C0:0163       L__UnverslVal__L_Slupek
 56C0:01F5       L__NapiszSygnaly__L_Slupek
 56C0:034A       S__AssGorszeBoProc__L_Slupek
 56C0:03C3       L__ModL_SWP__L_Slupek
 56C0:0476       L__DewDif_SWP__L_Slupek
 56C0:054F       L__Az_SWP__L_Slupek
 56C0:061E       L__Dew100_SWP__L_Slupek
 56C0:06F7       L__SS_SWP__L_Slupek
 56C0:07AA       L__Alt_SWP__L_Slupek
 56C0:085D       L__D_SWP__L_Slupek
 56C0:0865       N__Activate__InitSlupek__L_Slup
 56C0:09F5       N__regionyWykActv__InitSlupek__
 56C0:0AB0       N__regionyWykActvABS__InitSlupe
 56C0:0B14       N__regionyWykInit__InitSlupek__
 56C0:0B66       N__WykProcInit__InitSlupek__L_S
 56C0:0BA0       L__InitSlupek__L_Slupek
 56C0:1313       L__DoneSlupek__L_Slupek
 56C0:133F       S__Init__L_Slupek
 56C0:1392       L__IniSkale__L_Slupek
 56C0:13F0       L__GetRegionWykG__L_Slupek
 56C0:1434       L__GetRegionWyk1__L_Slupek
 56C0:1478       L__GetRegionWyk2__L_Slupek
 56C0:14BC       L__GetRegionWyk3__L_Slupek
 56C0:1500       $BODY__L_Slupek
 56C0:1509       $INIT__L_Slupek
 56C0:156F       $EM__L_Slupek
 5818:0000       $BM__G_CntProcedures
 5818:0082       L__DummyProc__G_CntProcedures
 5818:0088       S__Common_CP__G_CntProcedures
 5818:0266       S__DewMniejsz__G_CntProcedures
 5818:02A2       L__ProfBComm_CP__G_CntProcedure
 5818:0652       L__An_OpisOsi_CP__G_CntProcedur
 5818:0B14       L__An_OpisSektora_CP__G_CntProc
 5818:0D65       L__An_OpisBadDod_CP__G_CntProce
 5818:0E21       L__An_OpisZasiegSzer_CP__G_CntP
 5818:0F19       L__An_OpisZabezpieczenie_CP__G_
 5818:100E       N__ClearProcTable__CntProcedure
 5818:1063       N__ClearAllCont__CntProcedures_
 5818:1598       N__TurnOn__AssignEvalProc__CntP
 5818:15ED       N__AssignEvalProc__CntProcedure
 5818:1688       L__CntProcedures_Prolog__G_CntP
 5818:16E7       L__InZoneAnalyse__G_CntProcedur
 5818:171B       L__DoCountProcedures__G_CntProc
 5818:1853       L__KapaFun1__G_CntProcedures
 5818:18CF       L__KapaFun2__G_CntProcedures
 5818:193E       L__KapaFun3__G_CntProcedures
 5818:19BA       L__KapaFunDumm__G_CntProcedures
 5818:19CB       N__Count_ChiLoc__CntProcedures_
 5818:1B27       N__Count_PhiLoc__CntProcedures_
 5818:1DC5       N__AssignAz__CntProcedures_Epil
 5818:1E33       N__alig_ContinerClear__CntProce
 5818:1E7C       N__FillBound__InitCon__CntProce
 5818:1F84       N__InitCon__CntProcedures_Epilo
 5818:20F5       L__CntProcedures_Epilog__G_CntP
 5818:26B2       N__RoughErr_An__DoBendAnalyse__
 5818:26F0       L__DoBendAnalyse__G_CntProcedur
 5818:28BF       L__Close_CntProcedures__G_CntPr
 5818:2B43       $BODY__G_CntProcedures
 5818:2B49       $INIT__G_CntProcedures
 5818:2BB4       $EM__G_CntProcedures
 5AD4:0000       $BM__PrintCntroll
 5AD4:00D5       L__CoKtoraPUp__PrintCntroll
 5AD4:013A       L__CoKtoraPDn__PrintCntroll
 5AD4:01BC       S__UstawStrony__PrintCntroll
 5AD4:01FC       S__UstawLiczbe__PrintCntroll
 5AD4:0232       L__OkP__PrintCntroll
 5AD4:0248       L__ValidPodz__PrintCntroll
 5AD4:037E       L__Odn__PrintCntroll
 5AD4:03D5       L__P1__PrintCntroll
 5AD4:03F6       L__P2__PrintCntroll
 5AD4:0417       L__UstalSkalowanie__PrintCntrol
 5AD4:085B       $BODY__PrintCntroll
 5AD4:0861       $INIT__PrintCntroll
 5AD4:08E0       $EM__PrintCntroll
 5B63:0000       $BM__NAVInterface
 5B63:0022       L__GetOmnibearing__NAVInterface
 5B63:0190       L__GetLocDev__NAVInterface
 5B63:0241       L__GetGSDev__NAVInterface
 5B63:02F2       $BODY__NAVInterface
 5B63:0322       $INIT__NAVInterface
 5B63:0351       $EM__NAVInterface
 5B99:0000       $BM__ARINC
 5B99:0002       S__INByte__ARINC
 5B99:0062       S__OUTByte__ARINC
 5B99:00BF       L__ReInitialize__ARINC
 5B99:00FF       L__WriteTXParity__ARINC
 5B99:0173       L__WriteTXChannel__ARINC
 5B99:01F1       L__WriteTXLabel__ARINC
 5B99:026F       L__WriteTXData__ARINC
 5B99:032A       L__WriteTXRate__ARINC
 5B99:03F4       L__WriteKillTime__ARINC
 5B99:04B2       L__WriteCardMode__ARINC
 5B99:051B       L__ReadConfiguration__ARINC
 5B99:0637       L__ReadTXSlot__ARINC
 5B99:079E       L__ReadRXSlot__ARINC
 5B99:093D       $BODY__ARINC
 5B99:0954       $INIT__ARINC
 5B99:096F       $EM__ARINC
 5C31:0000       NMIServer
 5C31:003E       AT87Server
 5C37:0000       $INIT__RTS87
 5C3D:0000       CaseError__RTSError
 5C3D:000A       FctRetError__RTSError
 5C3D:0014       AddrOvf__RTSError
 5C3D:001E       CardOvf__RTSError
 5C3D:0028       IntegerOvf__RTSError
 5C3D:0032       LongIntegerOvf__RTSError
 5C3D:003C       RangeError__RTSError
 5C3D:0046       DivZero__RTSError
 5C4A:0000       $INIT__RTSError
 5C4D:0000       $BM__RTSMain
 5C4D:0001       L__InstallTermProc__RTSMain
 5C4D:007B       L__InstallInitProc__RTSMain
 5C4D:00EF       L__CallInitProc__RTSMain
 5C4D:00FD       L__CallTermProc__RTSMain
 5C4D:0147       L__GetMessage__RTSMain
 5C4D:0526       L__Execute__RTSMain
 5C4D:0636       Error__RTSMain
 5C4D:0673       StackCheck__RTSMain
 5C4D:067C       StackOvf__RTSMain
 5C4D:0683       M2Halt__RTSMain
 5C4D:068A       L__Terminate__RTSMain
 5C4D:0731       $INIT__RTSMain
 5C4D:0743       $BODY__RTSMain
 5C4D:076F       $EM__RTSMain
 5C4D:0770       $INIT__RTSMonExit
 5CC5:0000       SpecialCASE__RTSLanguage
 5CC5:004D       ParCopy__RTSLanguage
 5CC5:0069       DynParCopy__RTSLanguage
 5CD1:0000       $INIT__RTSLanguage
 5CD2:0000       $BM__RTSDevice
 5CD2:0000       L__InstallHandler__RTSDevice
 5CD2:0058       L__UninstallHandler__RTSDevice
 5CD2:009B       L__GetDeviceStatus__RTSDevice
 5CD2:00BE       L__SetDeviceStatus__RTSDevice
 5CD2:00F6       L__SaveInterruptVector__RTSDevi
 5CD2:00FB       L__RestoreInterruptVector__RTSD
 5CD2:0100       L__GetPrioMask__RTSDevice
 5CD2:011F       L__SetPrioMask__RTSDevice
 5CD2:0140       $EM__RTSDevice
 5CE7:0000       $INIT__RTSDevice
 5CE8:0000       MonEntry__RTSPriority
 5CE8:0043       MonExit__RTSPriority
 5CE8:006F       Listen__RTSPriority
 5CF3:0000       $INIT__RTSPriority
 5CF4:0000       $BM__RTSCoroutine
 5CF4:0000       NewProcess__RTSCoroutine
 5CF4:0143       Transfer__RTSCoroutine
 5CF4:01A7       $EM__RTSCoroutine
 5D0F:0000       $INIT__RTSCoroutine
 5D10:011E       IOTransfer__RTSInterrupt
 5D35:0000       $INIT__RTSInterrupt
 5D3A:0000       RealError__RTSRealError
 5D3B:0000       $INIT__RTSRealError
 5D3C:0000       L__Length__Strings
 5D3C:001D       L__ConstAssign__Strings
 5D3C:005F       L__Assign__Strings
 5D3C:0096       L__Insert__Strings
 5D3C:014C       L__Delete__Strings
 5D3C:0188       L__Pos__Strings
 5D3C:01E9       L__Copy__Strings
 5D3C:025B       L__Concat__Strings
 5D3C:02B2       L__CompareStr__Strings
 5D3C:0303       $INIT__Strings
 5D6D:01B9       L__IntToString__NumberConversio
 5D6D:01FE       L__LongIntToString__NumberConve
 5D6D:0259       L__CardToString__NumberConversi
 5D6D:028D       L__NumToString__NumberConversio
 5D6D:04BA       L__StringToInt__NumberConversio
 5D6D:0522       L__StringToCard__NumberConversi
 5D6D:0587       L__StringToLongInt__NumberConve
 5D6D:05B5       L__StringToNum__NumberConversio
 5D6D:0620       $INIT__NumberConversion
 5D6D:063B       $EM__NumberConversion
 5DD1:0002       L__Sound__Sounds
 5DD1:0032       L__NoSound__Sounds
 5DD1:0046       $INIT__Sounds
 5DD1:0061       $EM__Sounds
 5E21:0000       $INIT__DebugPMD
 5E2B:0002       L__GetDeviceStatus__Devices
 5E2B:0018       L__SetDeviceStatus__Devices
 5E2B:002C       L__SaveInterruptVector__Devices
 5E2B:004D       L__RestoreInterruptVector__Devi
 5E2B:006A       L__InstallHandler__Devices
 5E2B:0080       L__UninstallHandler__Devices
 5E2B:009A       $INIT__Devices
 5E2B:00BA       $EM__Devices
 5E37:0000       $BM__DynMem
 5E37:0000       L__InstallDynMem__DynMem
 5E37:0059       L__Alloc__DynMem
 5E37:0102       L__DeAlloc__DynMem
 5E37:01BF       L__Avail__DynMem
 5E37:0203       $INIT__DynMem
 5E37:0204       $EM__DynMem
 5E58:0000       L__BlockMoveForward__BlockOps
 5E58:0000       $BM__BlockOps
 5E58:001A       L__BlockMoveBackward__BlockOps
 5E58:003B       L__BlockMove__BlockOps
 5E58:007D       L__BlockClear__BlockOps
 5E58:0096       L__BlockSet__BlockOps
 5E58:00B8       L__BlockEqual__BlockOps
 5E58:00D9       L__BlockPosition__BlockOps
 5E58:0107       $INIT__BlockOps
 5E58:0108       $EM__BlockOps
 5E69:0002       L__FlagReset__Mouse
 5E69:001F       L__ShowCursor__Mouse
 5E69:002B       L__HideCursor__Mouse
 5E69:0037       L__GetPosBut__Mouse
 5E69:005A       L__SetCursorPos__Mouse
 5E69:006E       L__GetButPres__Mouse
 5E69:00A0       L__GetButRel__Mouse
 5E69:00D2       L__SetHorizontalLimits__Mouse
 5E69:00E6       L__SetVerticalLimits__Mouse
 5E69:00FA       L__SetGraphicCursor__Mouse
 5E69:0127       L__SetTextCursor__Mouse
 5E69:013E       L__ReadMotionCounters__Mouse
 5E69:0157       L__SetEventHandler__Mouse
 5E69:0188       L__LightPenOn__Mouse
 5E69:0194       L__LightPenOff__Mouse
 5E69:01A0       L__SetMickeysPerPixel__Mouse
 5E69:01B4       L__ConditionalOff__Mouse
 5E69:01CE       L__SetSpeedThreshold__Mouse
 5E69:0296       $INIT__Mouse
 5E69:02B1       $EM__Mouse
 5E95:0000       pushLSet__Longs
 5E95:001E       areSetsEQ__Longs
 5E95:0036       superSet__Longs
 5E95:005E       subSet__Longs
 5E95:0086       union__Longs
 5E95:009D       intersection__Longs
 5E95:00B4       complement__Longs
 5E95:00CF       unionCompl__Longs
 5E95:00E6       LMult__Longs
 5E95:018D       LMultU__Longs
 5E95:01F7       LDiv__Longs
 5E95:02DE       $INIT__Longs
 5EC3:0002       L__KeyPressed__Terminal
 5EC3:000E       L__Read__Terminal
 5EC3:0089       L__ReadString__Terminal
 5EC3:010A       L__ReadAgain__Terminal
 5EC3:011B       L__Write__Terminal
 5EC3:012C       L__WriteLn__Terminal
 5EC3:013B       L__WriteString__Terminal
 5EC3:01A1       $INIT__Terminal
 5EC3:01C6       $EM__Terminal
 5EE0:0002       L__AssignRead__Termbase
 5EE0:0088       L__Read__Termbase
 5EE0:00D7       L__KeyPressed__Termbase
 5EE0:0127       L__UnAssignRead__Termbase
 5EE0:0184       L__AssignWrite__Termbase
 5EE0:01F1       L__Write__Termbase
 5EE0:023E       L__UnAssignWrite__Termbase
 5EE0:03BB       $INIT__Termbase
 5EE0:03E5       $EM__Termbase
 5F1F:0000       $BM__BitByteOps
 5F1F:0000       L__GetBits__BitByteOps
 5F1F:0018       L__SetBits__BitByteOps
 5F1F:0046       L__ByteAnd__BitByteOps
 5F1F:0055       L__ByteOr__BitByteOps
 5F1F:0064       L__ByteXor__BitByteOps
 5F1F:0073       L__ByteNot__BitByteOps
 5F1F:0081       L__ByteShr__BitByteOps
 5F1F:0092       L__ByteSar__BitByteOps
 5F1F:00A3       L__ByteShl__BitByteOps
 5F1F:00B4       L__ByteRor__BitByteOps
 5F1F:00C5       L__ByteRol__BitByteOps
 5F1F:00D6       L__HighNibble__BitByteOps
 5F1F:00E6       L__LowNibble__BitByteOps
 5F1F:00F4       L__Swap__BitByteOps
 5F1F:0108       $INIT__BitByteOps
 5F1F:0109       $EM__BitByteOps
 5F30:0009       $INIT__ASCII
 5F30:0024       $EM__ASCII
 5F33:0002       L__Write__Display
 5F33:007C       $INIT__Display
 5F33:009C       $EM__Display
 5F3D:0002       L__KeyPressed__Keyboard
 5F3D:0033       L__Read__Keyboard
 5F3D:0142       $INIT__Keyboard
 5F3D:0167       $EM__Keyboard
 5F54:0002       L__DOSAlloc__DOSMemory
 5F54:00E3       L__DOSDeAlloc__DOSMemory
 5F54:01B0       L__DOSAvail__DOSMemory
 5F54:01F0       L__DOSSetSize__DOSMemory
 5F54:0241       L__DOSGetMaxSize__DOSMemory
 5F54:0298       $INIT__DOSMemory
 5F54:02B8       $EM__DOSMemory
 5F80:0000       $BM__MathLib0
 5F80:002A       L__sqrt__MathLib0
 5F80:0098       L__exp__MathLib0
 5F80:0209       L__ln__MathLib0
 5F80:0251       L__sin__MathLib0
 5F80:03A5       L__cos__MathLib0
 5F80:04CA       L__arctan__MathLib0
 5F80:05AC       L__real__MathLib0
 5F80:05BE       L__entier__MathLib0
 5F80:06AF       $INIT__MathLib0
 5F80:06C4       $EM__MathLib0
 5FED:0000       $MN__AG
 5FED:0000       $OK__10jul99_1217_OF_AG
 5FED:0000       $DD
 5FED:008E       $OK__10jul99_1214_OF_DOSEntry
 5FED:0094       $OK__10jul99_1214_OF_MANAGER
 5FED:009A       $OK__10jul99_1215_OF_PI_PA
 5FED:00A0       $OK__10jul99_1214_OF_ErrorMess
 5FED:00A6       $OK__10jul99_1215_OF_SimScanner
 5FED:00AC       $OK__10jul99_1216_OF_ILS_ZoneMn
 5FED:00B2       $OK__10jul99_1214_OF_CommonType
 5FED:00B8       $OK__10jul99_1214_OF_SpecConv
 5FED:00BE       $OK__10jul99_1214_OF_FlagAnal
 5FED:00C4       $OK__10jul99_1214_OF_Czas
 5FED:00CA       $OK__10jul99_1216_OF_L_CommonTy
 5FED:00D0       $OK__10jul99_1217_OF_G_results
 5FED:00D6       $OK__10jul99_1217_OF_G_CommonTy
 5FED:00DC       $OK__10jul99_1214_OF_Tune
 5FED:00E2       $OK__10jul99_1217_OF_PI_Qcheck
 5FED:00E8       $OK__10jul99_1215_OF_ScannerI
 5FED:00EE       $OK__10jul99_1214_OF_TheodolitR
 5FED:00F4       $OK__10jul99_1215_OF_GPSRead
 5FED:00FA       $OK__10jul99_1214_OF_DGHIni
 5FED:0100       $OK__10jul99_1217_OF_G_Files
 5FED:0106       $OK__10jul99_1215_OF_ZoomInterf
 5FED:010C       $OK__10jul99_1217_OF_PI_Glowny
 5FED:0112       $OK__10jul99_1217_OF_G_Inspekcj
 5FED:0118       $OK__10jul99_1217_OF_G_Oblot
 5FED:011E       $OK__10jul99_1214_OF_CommonData
 5FED:0124       $OK__10jul99_1215_OF_Files
 5FED:012A       $OK__10jul99_1217_OF_G_CP_Contr
 5FED:0130       $OK__10jul99_1215_OF_Pomiar
 5FED:0136       $OK__10jul99_1215_OF_Screen
 5FED:013C       $OK__10jul99_1217_OF_PI_Analiza
 5FED:0142       $OK__10jul99_1217_OF_PI_Pomiar
 5FED:0148       $OK__10jul99_1217_OF_PI_ArchDat
 5FED:014E       $OK__10jul99_1217_OF_PI_Drukuj
 5FED:0154       $OK__10jul99_1216_OF_L_DataBase
 5FED:015A       $OK__10jul99_1217_OF_PI_Report
 5FED:0160       $OK__10jul99_1214_OF_SoftIntHan
 5FED:0166       $OK__10jul99_1214_OF_Storage
 5FED:016C       $OK__10jul99_1214_OF_Timer
 5FED:0172       $OK__10jul99_1214_OF_Messages
 5FED:0178       $OK__10jul99_1214_OF_StdIO
 5FED:017E       $OK__10jul99_1215_OF_EventsMng
 5FED:0184       $OK__10jul99_1215_OF_DataCollec
 5FED:018A       $OK__10jul99_1214_OF_FIO
 5FED:0190       $OK__10jul99_1214_OF_WorseBecau
 5FED:0196       $OK__10jul99_1214_OF_Graphics
 5FED:019C       $OK__10jul99_1214_OF_XMSService
 5FED:01A2       $OK__10jul99_1214_OF_GrafTypes
 5FED:01A8       $OK__10jul99_1214_OF_MMMouse
 5FED:01AE       $OK__10jul99_1214_OF_ShortCuts
 5FED:01B4       $OK__10jul99_1214_OF_HRD_Clock
 5FED:01BA       $OK__10jul99_1214_OF_DGHInterfa
 5FED:01C0       $OK__10jul99_1214_OF_HiLevGraf
 5FED:01C6       $OK__10jul99_1214_OF_GrafUtil
 5FED:01CC       $OK__10jul99_1217_OF_G_Odb
 5FED:01D2       $OK__10jul99_1215_OF_ScreenCTyp
 5FED:01D8       $OK__10jul99_1214_OF_MsgBox
 5FED:01DE       $OK__10jul99_1214_OF_NAVGPIB
 5FED:01E4       $OK__10jul99_1214_OF_DigiRS
 5FED:01EA       $OK__10jul99_1214_OF_RealConver
 5FED:01F0       $OK__10jul99_1214_OF_Math
 5FED:01F6       $OK__10jul99_1214_OF_FIltr1St
 5FED:01FC       $OK__10jul99_1214_OF_GPS_nov
 5FED:0202       $OK__10jul99_1214_OF_GPS_TRIMBL
 5FED:0208       $OK__10jul99_1214_OF_Ini
 5FED:020E       $OK__10jul99_1215_OF_Zoom
 5FED:0214       $OK__10jul99_1214_OF_GList
 5FED:021A       $OK__10jul99_1214_OF_Buttons
 5FED:0220       $OK__10jul99_1214_OF_Dialog
 5FED:0226       $OK__10jul99_1214_OF_InpLine
 5FED:022C       $OK__10jul99_1217_OF_PI_ZoomSpe
 5FED:0232       $OK__10jul99_1214_OF_Obloty
 5FED:0238       $OK__10jul99_1215_OF_Mapa
 5FED:023E       $OK__10jul99_1215_OF_Polozenie
 5FED:0244       $OK__10jul99_1214_OF_SwitchCntr
 5FED:024A       $OK__10jul99_1214_OF_Kalibracja
 5FED:0250       $OK__10jul99_1214_OF_FCBS
 5FED:0256       $OK__10jul99_1214_OF_CocpDsp
 5FED:025C       $OK__10jul99_1214_OF_Wykres
 5FED:0262       $OK__10jul99_1214_OF_XMSTable
 5FED:0268       $OK__10jul99_1217_OF_PI_ScrUtil
 5FED:026E       $OK__10jul99_1215_OF_Slupek
 5FED:0274       $OK__10jul99_1217_OF_G_DisResul
 5FED:027A       $OK__10jul99_1215_OF_DisResUtil
 5FED:0280       $OK__10jul99_1215_OF_PiszEventy
 5FED:0286       $OK__10jul99_1217_OF_G_DAcquizi
 5FED:028C       $OK__10jul99_1217_OF_L_Count
 5FED:0292       $OK__10jul99_1214_OF_AltInterfa
 5FED:0298       $OK__10jul99_1217_OF_G_Print
 5FED:029E       $OK__10jul99_1215_OF_GeoArithme
 5FED:02A4       $OK__10jul99_1215_OF_Marks
 5FED:02AA       $OK__10jul99_1216_OF_Rap_Util
 5FED:02B0       $OK__10jul99_1215_OF_Print
 5FED:02B6       $OK__10jul99_1215_OF_DrawEpson
 5FED:02BC       $OK__10jul99_1214_OF_Semafory
 5FED:02C2       $OK__10jul99_1214_OF_DGH_utils
 5FED:02C8       $OK__10jul99_1216_OF_ILS_EvalPr
 5FED:02CE       $OK__10jul99_1215_OF_Random
 5FED:02D4       $OK__10jul99_1214_OF_M_PGPIB
 5FED:02DA       $OK__10jul99_1214_OF_Kl_FGenera
 5FED:02E0       $OK__10jul99_1217_OF_L_Slupek
 5FED:02E6       $OK__10jul99_1217_OF_G_CntProce
 5FED:02EC       $OK__10jul99_1215_OF_PrintCntro
 5FED:02F2       $OK__10jul99_1214_OF_NAVInterfa
 5FED:02F8       $OK__10jul99_1214_OF_ARINC
 5FED:02FE       $OK__10jul87_1403_OF_RTS87
 5FED:0304       $OK__10jul87_1400_OF_RTSError
 5FED:030A       $OK__19aug87_1403_OF_RTSMain
 5FED:0310       $OK__10jul87_1401_OF_RTSLanguag
 5FED:0316       $OK__15jun87_0924_OF_RTSDevice
 5FED:031C       $OK__10jul87_1404_OF_RTSPriorit
 5FED:0322       $OK__15jun87_0924_OF_RTSCorouti
 5FED:0328       $OK__10jul87_1402_OF_RTSInterru
 5FED:032E       $OK__10jul87_1400_OF_RTSRealErr
 5FED:0334       $OK__31jul87_1000_OF_Strings
 5FED:033A       $OK__01mar90_1621_OF_NumberConv
 5FED:0340       $OK__01mar90_1622_OF_Sounds
 5FED:0346       $OK__16jun87_2059_OF_DebugPMD
 5FED:034C       $OK__01mar90_1622_OF_Devices
 5FED:0352       $OK__16jun87_1952_OF_DynMem
 5FED:0358       $OK__31jul87_1300_OF_BlockOps
 5FED:035E       $OK__01mar90_1622_OF_Mouse
 5FED:0364       $OK__05feb87_1233_OF_Longs
 5FED:036A       $OK__01mar90_1621_OF_Terminal
 5FED:0370       $OK__01mar90_1621_OF_Termbase
 5FED:0376       $OK__31jul87_1100_OF_BitByteOps
 5FED:037C       $OK__01mar90_1621_OF_ASCII
 5FED:0382       $OK__01mar90_1621_OF_Display
 5FED:0388       $OK__01mar90_1621_OF_Keyboard
 5FED:038E       $OK__01mar90_1621_OF_DOSMemory
 6037:0000       errorCode__RTSMain
 6037:0000       $BD__RTSMain
 6037:0002       PSPAddress__RTSMain
 6037:0006       blockList__RTSMain
 6037:000A       overlayList__RTSMain
 6037:000E       overlayInitProc__RTSMain
 6037:0012       overlayTermProc__RTSMain
 6037:0016       curProcess__RTSMain
 6037:001A       activProcess__RTSMain
 6037:001E       debuggerRecord__RTSMain
 6037:0030       deviceMask__RTSMain
 6037:0032       dyingOverlay__RTSMain
 6037:0036       MonitorExitProc__RTSMonExit
 6037:003E       programSize
 6037:0046       priorityMasks__RTSMain
 6037:0058       DescInt0__RTSMain
 6037:0128       freeList__RTSMain
 6037:01CE       oldNMIvector
 6037:01DD       $ED__RTSMain
 6056:0000       $BD__RTSCoroutine
 6056:0000       addProcess__RTSCoroutine
 6056:0003       $ED__RTSCoroutine
 60C3:0000       mainState__AG
 60C3:0000       $BD__AG
 60C3:0001       switchAble__AG
 60C3:0002       polaryzacjaOK__AG
 60C3:0003       podzielnik__AG
 60C3:0005       synResult__AG
 60C3:0007       dataOk__AG
 60C3:0009       archData__AG
 60C3:000A       offset__AG
 60C3:000C       $ED__AG
 60C4:0000       $BD__DOSEntry
 60C4:0000       entryTmp__DOSEntry
 60C4:003D       exitTmp__DOSEntry
 60C4:007A       entryTmpPtr__DOSEntry
 60C4:007E       exitTmpPtr__DOSEntry
 60C4:0082       insideFlag__DOSEntry
 60C4:0084       DOSEmpty__DOSEntry
 60C4:0088       $ED__DOSEntry
 60CD:0000       ErrorQueue__MANAGER
 60CD:0000       $BD__MANAGER
 60CD:0004       ReadyFirst__MANAGER
 60CD:0008       NuOfErrorProc__MANAGER
 60CD:000A       MaxNumOfReady__MANAGER
 60CD:000C       MaxRunTime__MANAGER
 60CD:000E       LongestProcess__MANAGER
 60CD:0012       ErrorHandler__MANAGER
 60CD:0016       LastCreated__MANAGER
 60CD:001A       NumberOfProc__MANAGER
 60CD:001C       Statistic__MANAGER
 60CD:0114       CP__MANAGER
 60CD:0118       ReadyLast__MANAGER
 60CD:011C       DUMMY__MANAGER
 60CD:0120       NuOfReady__MANAGER
 60CD:0122       WaitForInt__MANAGER
 60CD:0124       TSSInterval__MANAGER
 60CD:0126       MaxRecTime__MANAGER
 60CD:0128       TimeIntNum__MANAGER
 60CD:012A       spTab__MANAGER
 60CD:01F6       expInter__Scheduler__MANAGER
 60CD:0208       VarDR__MANAGER
 60CD:021A       Count__MANAGER
 60CD:021C       LastMask__MANAGER
 60CD:021E       $ED__MANAGER
 60EF:0000       $BD__PI_PA
 60EF:0000       PomiarANieArchiwum__PI_PA
 60EF:0001       $ED__PI_PA
 60F0:0000       $ED__ErrorMess
 60F0:0000       $BD__ErrorMess
 60F1:0000       $BD__SimScanner
 60F1:0000       CalkowitaLiczbaEventow__SimScan
 60F1:0004       $ED__SimScanner
 60F2:0000       IdentPunktow__ILS_ZoneMngmnt
 60F2:0000       $BD__ILS_ZoneMngmnt
 60F2:0005       lstPToBeTraced__ILS_ZoneMngmnt
 60F2:0006       lstZone__ILS_ZoneMngmnt
 60F2:0007       $ED__ILS_ZoneMngmnt
 60F3:0000       $ED__CommonTypes
 60F3:0000       $BD__CommonTypes
 60F4:0000       $ED__SpecConv
 60F4:0000       $BD__SpecConv
 60F5:0000       $BD__FlagAnal
 60F5:0000       $ED__FlagAnal
 60F6:0000       $BD__Czas
 60F6:0000       StringRect__BezPrzerwan__Czas
 60F6:0008       SystemTime__BezPrzerwan__Czas
 60F6:0014       $ED__Czas
 60F8:0000       Procedura__L_CommonTypes
 60F8:0000       $BD__L_CommonTypes
 60F8:0001       Strona__L_CommonTypes
 60F8:0002       Odl_dla_pom_pB__L_CommonTypes
 60F8:0004       Szer_sekt_kier__L_CommonTypes
 60F8:0006       $ED__L_CommonTypes
 60F9:0000       $BD__G_results
 60F9:0000       lastAzAv_A__G_results
 60F9:0010       lastEta_G_A__G_results
 60F9:0020       lastEta_D_A__G_results
 60F9:0030       lastAzAv_ANr__G_results
 60F9:0040       lastEta_G_ANr__G_results
 60F9:0050       lastEta_D_ANr__G_results
 60F9:0060       lastAzAv_AWd__G_results
 60F9:0070       lastEta_G_AWd__G_results
 60F9:0080       lastEta_D_AWd__G_results
 60F9:0090       lastSecWith__G_results
 60F9:0092       lastUstawOsi__G_results
 60F9:0094       anRes__G_results
 60F9:0478       currDT__G_results
 60F9:0484       idPnkt__G_results
 60F9:0489       rec__G_results
 60F9:048A       trn__G_results
 60F9:048B       $ED__G_results
 6142:0000       $BD__G_CommonTypes
 6142:0000       Procedura__G_CommonTypes
 6142:0001       Strona__G_CommonTypes
 6142:0002       Szer_sekt_kier__G_CommonTypes
 6142:0004       $ED__G_CommonTypes
 6143:0000       $BD__Tune
 6143:0000       VORfreqCRT__Tune
 6143:0050       GSfreqCRT__Tune
 6143:00A0       lastCPFlags__Tune
 6143:00A2       lastDMEfrqBits__Tune
 6143:00A6       $ED__Tune
 614E:0000       ST__PI_Qcheck
 614E:0000       $BD__PI_Qcheck
 614E:0048       $ED__PI_Qcheck
 6153:0000       flg__ScannerI
 6153:0000       $BD__ScannerI
 6153:0002       Alfa__ScannerI
 6153:0006       AlfaF__ScannerI
 6153:000A       RefAlfa__ScannerI
 6153:000C       TeoAlfaF__ScannerI
 6153:000E       Delta__ScannerI
 6153:0016       DeltaDME__ScannerI
 6153:001A       DeltaF__ScannerI
 6153:0022       RefDis__ScannerI
 6153:0024       ABOVESL__ScannerI
 6153:0026       pilErr__ScannerI
 6153:0028       TEO_A__ScannerI
 6153:0030       TEO_E__ScannerI
 6153:0038       TEO_OK__ScannerI
 6153:003A       TEO_DGPSpoprawki__ScannerI
 6153:003B       GPS_A__ScannerI
 6153:0043       GPS_R__ScannerI
 6153:004B       GPS_OK__ScannerI
 6153:004C       GPS_SAT__ScannerI
 6153:004E       GPS_GDOP__ScannerI
 6153:0050       GPS_DIFFMODE__ScannerI
 6153:0051       GPS_PREC__ScannerI
 6153:0053       Simul__ScannerI
 6153:0054       currAlfaOff__ScannerI
 6153:0056       loc_tog__ScannerI
 6153:0057       $ED__ScannerI
 6159:0000       $BD__TheodolitRead
 6159:0000       PolozenieTeodolitu__TheodolitRe
 6159:0010       Kopiowanie__TheodolitRead
 6159:0014       Azymut__TheodolitRead
 6159:001C       Elewacja__TheodolitRead
 6159:0024       lstAzymuth__TheodolitRead
 6159:002C       lstElevation__TheodolitRead
 6159:0034       currentSign__TheodolitRead
 6159:0036       TeoEvNr__TheodolitRead
 6159:0038       wd_dgps_currSign__TheodolitRead
 6159:003A       lstEvent__TheodolitRead
 6159:003B       lstTracking__TheodolitRead
 6159:003C       teoEvBit__TheodolitRead
 6159:003D       State__TheodolitRead
 6159:003F       currState__TheodolitRead
 6159:0040       lastNum__TheodolitRead
 6159:0046       lastCrc__TheodolitRead
 6159:0048       numPos__TheodolitRead
 6159:004A       CheckSumIdx__TheodolitRead
 6159:004C       teoEvCon__TheodolitRead
 6159:0050       teoEvNrCOn__TheodolitRead
 6159:0053       Nie_mozna_uruchomic_kanalu_Teod
 6159:0057       $ED__TheodolitRead
 615F:0000       ObecnyStan__GPSRead
 615F:0000       $BD__GPSRead
 615F:0001       currentSign__GPSRead
 615F:0003       Last_Gdop__GPSRead
 615F:0005       Last_NumberOfSattelites__GPSRea
 615F:0007       Last_polGeo__GPSRead
 615F:0013       Last_Diffmode__GPSRead
 615F:0014       Last_tog__GPSRead
 615F:001C       Last_EPE__GPSRead
 615F:001E       CurrGPSAnalizer__GPSRead
 615F:0022       $ED__GPSRead
 6162:0000       signals__DGHIni
 6162:0000       $BD__DGHIni
 6162:08E8       TableOfNames__DGHIni
 6162:0F70       SignalDescr__DGHIni
 6162:0F8E       $ED__DGHIni
 625B:0000       $BD__G_Files
 625B:0000       FileErr__G_Files
 625B:0004       NamesSig__G_Files
 625B:0090       FileSig__G_Files
 625B:00A4       NameRes__G_Files
 625B:0130       FileRes__G_Files
 625B:0144       FileResCreated__G_Files
 625B:0149       $ED__G_Files
 6270:0000       Koniec__ZoomInterface
 6270:0000       $BD__ZoomInterface
 6270:0004       FirstTime__ZoomInterface
 6270:0005       Zawartosc__ZoomInterface
 6270:0009       CoRobic__ZoomInterface
 6270:0019       Lista__ZoomInterface
 6270:0029       OstatniStan__ZoomInterface
 6270:002A       OdnB__ZoomInterface
 6270:002E       MozeBycGlowny__ZoomInterface
 6270:002F       MozeBycDme__ZoomInterface
 6270:0030       $ED__ZoomInterface
 6274:0000       $BD__PI_Glowny
 6274:0000       $ED__PI_Glowny
 6275:0000       hDlg__G_Inspekcja
 6275:0000       $BD__G_Inspekcja
 6275:0004       RedrawScr__G_Inspekcja
 6275:0005       ListaOblotow__G_Inspekcja
 6275:0009       ListaOblotowBAK__G_Inspekcja
 6275:000D       ListaLokalizacji__G_Inspekcja
 6275:0011       ListaLokalizacjiBAK__G_Inspekcj
 6275:0015       OstatniOblot__G_Inspekcja
 6275:0017       $ED__G_Inspekcja
 6277:0000       CoRobimy__G_Oblot
 6277:0000       $BD__G_Oblot
 6277:0001       hDlg__G_Oblot
 6277:0005       bAlarmSciezki__G_Oblot
 6277:0015       bSzerSektora_pA__G_Oblot
 6277:0025       bAlarmSzeroki_pA__G_Oblot
 6277:0035       bAlarmWaski_pA__G_Oblot
 6277:0045       bKatSciezki__G_Oblot
 6277:004D       bKatSciezki_Szer_pA__G_Oblot
 6277:0055       bKatSciezki_Waski_pA__G_Oblot
 6277:005D       bSzer_i_Osi_pB__G_Oblot
 6277:0065       bAlarmSzer_pB__G_Oblot
 6277:006D       bAlarmWaski_pB__G_Oblot
 6277:0075       bRownowagaModulacji__G_Oblot
 6277:007D       bFazowanie__G_Oblot
 6277:0085       bZabezpieczenie__G_Oblot
 6277:008D       bPokrycieWOsi__G_Oblot
 6277:0095       bPokrycie8stP__G_Oblot
 6277:009D       bPokrycie8stL__G_Oblot
 6277:00A5       GlowOdb__G_Oblot
 6277:00A9       OdnAzymut__G_Oblot
 6277:00AD       OdnOdl__G_Oblot
 6277:00B1       bIdentPunktow__G_Oblot
 6277:00C5       Szer_sekt_kier_AS__G_Oblot
 6277:00C7       Szer_sekt_kier_AW__G_Oblot
 6277:00C9       Szer_sekt_kier_N__G_Oblot
 6277:00CB       CisnienieOdn_L__G_Oblot
 6277:00CF       TestUP__G_Oblot
 6277:00D3       Raport__G_Oblot
 6277:00D7       Pomiar__G_Oblot
 6277:00DB       RedrawScr__G_Oblot
 6277:00DC       $ED__G_Oblot
 6285:0000       NazwaUrzadz1__CommonData
 6285:0000       $BD__CommonData
 6285:0029       NazwaUrzadz2__CommonData
 6285:0052       NazwaOblotu__CommonData
 6285:007B       NazwaPlikuOpisu__CommonData
 6285:00FB       DME__CommonData
 6285:00FC       SciezkaOpisuPomiaru__CommonData
 6285:013D       OdnDlaPomBledu__CommonData
 6285:013E       OdnDlaPomOdl__CommonData
 6285:013F       Nadajnik1__CommonData
 6285:0140       Nadajnik2__CommonData
 6285:0141       GlownyOdbiornik__CommonData
 6285:0142       Promien__CommonData
 6285:0144       Orbita__CommonData
 6285:0146       Predkosc__CommonData
 6285:014E       CisnienieOdniesienia__CommonDat
 6285:0156       $ED__CommonData
 629B:0000       $BD__Files
 629B:0000       FileErr__Files
 629B:0004       DirErr__Files
 629B:0008       NamesAn__Files
 629B:0040       NamesDist__Files
 629B:00B0       NamesAlfa__Files
 629B:00E8       NamesComm__Files
 629B:0190       filesDist__Files
 629B:01A0       filesAlfa__Files
 629B:01A8       filesComm__Files
 629B:01C0       xRefFile__Files
 629B:01C4       xRefDefV__Files
 629B:01C8       homeDir__Files
 629B:0219       $ED__Files
 62BD:0000       $BD__G_CP_ControlProc
 62BD:0000       myOffset__G_CP_ControlProc
 62BD:0002       Running__G_CP_ControlProc
 62BD:0003       currRec__G_CP_ControlProc
 62BD:0004       currProc__G_CP_ControlProc
 62BD:0008       GSPilErr__G_CP_ControlProc
 62BD:000C       LOCPilErr__G_CP_ControlProc
 62BD:0010       PilErrDis__G_CP_ControlProc
 62BD:0014       $ED__G_CP_ControlProc
 62BF:0000       $BD__Pomiar
 62BF:0000       ProcPom__Pomiar
 62BF:0050       EtapPolaryzacji__Pomiar
 62BF:0054       StanButtonow__Pomiar
 62BF:0058       currButtonSet__Pomiar
 62BF:005A       B_01__Pomiar
 62BF:005E       B_02__Pomiar
 62BF:0062       B_03__Pomiar
 62BF:0066       B_04__Pomiar
 62BF:006A       B_05__Pomiar
 62BF:006E       NapisB_01__Pomiar
 62BF:0075       StanZestawu__Pomiar
 62BF:0077       frstBut__Pomiar
 62BF:0079       katPromien__Pomiar
 62BF:007B       promien__Pomiar
 62BF:007C       format360__Pomiar
 62BF:007E       distOff__Pomiar
 62BF:0082       alfaOff__Pomiar
 62BF:0092       currZestaw__Pomiar
 62BF:0093       dataInBuff__Pomiar
 62BF:0095       $ED__Pomiar
 62C9:0000       VAL1__Screen
 62C9:0000       $BD__Screen
 62C9:0004       VAL2__Screen
 62C9:0008       VAL3__Screen
 62C9:000C       VAL4__Screen
 62C9:0010       Zestaw__Screen
 62C9:0011       aktPromien__Screen
 62C9:0013       aktPromienOdAnt__Screen
 62C9:001B       pomPromieniowy__Screen
 62C9:001C       aktFormat360__Screen
 62C9:001D       devDistR__Screen
 62C9:0025       by23__Screen
 62C9:0027       LastDTidx__Screen
 62C9:0029       ThisDTidx__Screen
 62C9:002B       samplediv__Screen
 62C9:002D       NextRedraw__Screen
 62C9:002E       LastEventIDX__Screen
 62C9:0030       KrokOpisuOsi__Screen
 62C9:0032       Predrawmarksreq__Screen
 62C9:0036       Predrawreq__Screen
 62C9:003A       currConsoleEv__Screen
 62C9:003E       RegionWykG__Screen
 62C9:0042       RegionWykGCreated__Screen
 62C9:0043       RegionWyk1__Screen
 62C9:0047       RegionWyk1Created__Screen
 62C9:0048       RegionWyk2__Screen
 62C9:004C       RegionWyk2Created__Screen
 62C9:004D       RegionWyk3__Screen
 62C9:0051       RegionWyk3Created__Screen
 62C9:0052       RegionWykresow__Screen
 62C9:0056       B_CURSOR__Screen
 62C9:005A       B_LEFT__Screen
 62C9:005E       B_RIGHT__Screen
 62C9:0062       B_UP__Screen
 62C9:0066       B_DOWN__Screen
 62C9:006A       screenDIB__Screen
 62C9:006E       RysSytMaxDis__Dialog__Screen
 62C9:0076       CursorMode__Dialog__Screen
 62C9:0077       JakijedenWykres__Dialog__Screen
 62C9:0078       JedenWykres__Dialog__Screen
 62C9:0079       JakieWykr__Dialog__Screen
 62C9:007A       popJakieWykr__Dialog__Screen
 62C9:007B       CursorPos__Dialog__Screen
 62C9:007D       OileKursor__Dialog__Screen
 62C9:007F       ZmianaSkaliWpionie__Dialog__Scr
 62C9:0080       BarOnScreen__Dialog__Screen
 62C9:0082       skalaWpionie__Dialog__Screen
 62C9:012C       ChangeKursorMode__Dialog__Scree
 62C9:012D       $ED__Screen
 62DC:0000       dispResults__PI_Analiza
 62DC:0000       $BD__PI_Analiza
 62DC:0004       currButtonSet__MouseMonitor__PI
 62DC:0005       B_Drukuj__MouseMonitor__PI_Anal
 62DC:0009       B_Akceptuj__MouseMonitor__PI_An
 62DC:000D       B_Abort__MouseMonitor__PI_Anali
 62DC:0011       B_UP__MouseMonitor__PI_Analiza
 62DC:0015       B_DOWN__MouseMonitor__PI_Analiz
 62DC:0019       B_XCHG__MouseMonitor__PI_Analiz
 62DC:001D       sthPressed__MouseMonitor__PI_An
 62DC:0021       $ED__PI_Analiza
 62DF:0000       $BD__PI_Pomiar
 62DF:0000       $ED__PI_Pomiar
 62E0:0000       $BD__PI_ArchDate
 62E0:0000       $ED__PI_ArchDate
 62E1:0000       $ED__PI_Drukuj
 62E1:0000       $BD__PI_Drukuj
 62E2:0000       $BD__L_DataBase
 62E2:0000       Lotnisko__L_DataBase
 62E2:0086       LOC_O_czuloscWP__L_DataBase
 62E2:0088       LOC_O_czuloscCP__L_DataBase
 62E2:008A       LOC_R_czuloscWP__L_DataBase
 62E2:008C       LOC_R_czuloscCP__L_DataBase
 62E2:008E       LOC_Az_czuloscWP__L_DataBase
 62E2:0090       LOC_Az_czuloscCP__L_DataBase
 62E2:0092       GS_El_czuloscCP__L_DataBase
 62E2:0094       Blad_podczas_wczytywania_Lotnis
 62E2:0098       $ED__L_DataBase
 62EC:0000       StartN__PI_Report
 62EC:0000       $BD__PI_Report
 62EC:0004       StartTol__PI_Report
 62EC:0006       Dane__PI_Report
 62EC:03D5       $ED__PI_Report
 632A:0000       $BD__SoftIntHandlingManager
 632A:0000       break__SoftIntHandlingManager
 632A:0001       firstISRDescriptorPtr__Monitor_
 632A:0005       $ED__SoftIntHandlingManager
 632B:0000       OCCUPED__Storage
 632B:0000       $BD__Storage
 632B:0001       heapList__Storage
 632B:0021       prevHeap__Storage
 632B:0023       StaraStrategia__Storage
 632B:0025       StaryCh__Storage
 632B:0027       $ED__Storage
 632E:0000       TimeCounter__Timer
 632E:0000       $BD__Timer
 632E:0002       TIOS__Timer
 632E:0004       ClockPer__Timer
 632E:0006       TOQueue__Monitor__Timer
 632E:000A       Period__Monitor__Timer
 632E:000C       PeriodCount__Monitor__Timer
 632E:000E       PeriodicProcedure__Monitor__Tim
 632E:0012       Dumm__Monitor__Timer
 632E:0014       $ED__Timer
 6330:0000       $BD__Messages
 6330:0000       MList__Messages
 6330:0004       MDispl__Messages
 6330:0008       MessageSound__Messages
 6330:000A       TurnBeepOn__Messages
 6330:000E       $ED__Messages
 6331:0000       $ED__StdIO
 6331:0000       $BD__StdIO
 6332:0000       $BD__EventsMng
 6332:0000       Events__EventsMng
 6332:0B44       pilEnr__EventsMng
 6332:0B48       conEnr__EventsMng
 6332:0B4C       teoEnr__EventsMng
 6332:0B50       $ED__EventsMng
 63E8:0000       VAL1__DataCollect
 63E8:0000       $BD__DataCollect
 63E8:3210       VAL2__DataCollect
 63E8:6420       VAL3__DataCollect
 63E8:9630       VAL4__DataCollect
 63E8:C840       Idx__DataCollect
 63E8:C844       angContiner__DataCollect
 63E8:C84C       disContiner__DataCollect
 63E8:C854       marks_Con_D__DataCollect
 63E8:C857       marks_Con_A__DataCollect
 63E8:C85A       samplediv__tablice__DataCollect
 63E8:C85E       curr23__tablice__DataCollect
 63E8:C862       IDX3__tablice__DataCollect
 63E8:C866       IDX2__tablice__DataCollect
 63E8:C86A       Div3T__tablice__DataCollect
 63E8:C86E       Div2T__tablice__DataCollect
 63E8:C872       div2n__tablice__DataCollect
 63E8:C876       div3n__tablice__DataCollect
 63E8:C87A       ix2__tablice__DataCollect
 63E8:C87E       ix3__tablice__DataCollect
 63E8:C882       procVAL1__tablice__DataCollect
 63E8:C88A       procVAL2__tablice__DataCollect
 63E8:C892       procVAL3__tablice__DataCollect
 63E8:C89A       procVAL4__tablice__DataCollect
 63E8:C8A2       samples__tablice__DataCollect
 63E8:C8A6       VALX__tablice__DataCollect
 63E8:E1AE       $ED__DataCollect
 7203:0000       lastErr__FIO
 7203:0000       $BD__FIO
 7203:0002       numErr__FIO
 7203:0004       opened__FIO
 7203:0006       maxOpened__FIO
 7203:0008       Files__FIO
 7203:0C08       CriticalErrorRec__FIO
 7203:0C12       $ED__FIO
 72C5:0000       $BD__WorseBecause
 72C5:0000       $ED__WorseBecause
 72C6:0000       $BD__Graphics
 72C6:0000       FontPtr__Graphics
 72C6:0004       bank__InternalMonitor__Graphics
 72C6:0006       bankstart__InternalMonitor__Gra
 72C6:000A       BKSizeL__InternalMonitor__Graph
 72C6:000E       BK64Inc__InternalMonitor__Graph
 72C6:0010       FntTable__Graphics
 72C6:0130       $ED__Graphics
 72DA:0000       $BD__XMS
 72DA:0004       $ED__XMS
 72DB:0000       $BD__XMSService
 72DB:0000       GarbageList__XMSService
 72DB:0004       $ED__XMSService
 72DC:0000       $ED__GrafTypes
 72DC:0000       $BD__GrafTypes
 72DD:0000       Regiony__MMMouse
 72DD:0000       $BD__MMMouse
 72DD:0004       LastX__MMMouse
 72DD:0006       LastY__MMMouse
 72DD:0008       CursorShapePtr__MMMouse
 72DD:000C       DefaultShape__MMMouse
 72DD:0050       maxX__MMMouse
 72DD:0052       maxY__MMMouse
 72DD:0054       PrevReg__MMMouse
 72DD:0058       MonitoCheck__BezPrzerwanOdMyszy
 72DD:005A       MouseEvent__BezPrzerwanOdMyszy_
 72DD:005E       OldButtons__BezPrzerwanOdMyszy_
 72DD:005F       EVF__BezPrzerwanOdMyszy__MMMous
 72DD:0061       EVL__BezPrzerwanOdMyszy__MMMous
 72DD:0063       EVC__BezPrzerwanOdMyszy__MMMous
 72DD:0065       EventBuff__BezPrzerwanOdMyszy__
 72DD:01E5       Stored__BezPrzerwanOdMyszy__MMM
 72DD:01EC       lx__BezWyszeregowania__MMMouse
 72DD:01EE       ly__BezWyszeregowania__MMMouse
 72DD:01F0       rx__BezWyszeregowania__MMMouse
 72DD:01F2       ry__BezWyszeregowania__MMMouse
 72DD:01F4       CursorBuf__BezWyszeregowania__M
 72DD:02F4       Hidden__BezWyszeregowania__MMMo
 72DD:02F5       CursorB__BezWyszeregowania__MMM
 72DD:03F5       MSemafor__MMMouse
 72DD:0401       $ED__MMMouse
 731E:0000       Kill__ShortCuts
 731E:0000       $BD__ShortCuts
 731E:0001       ShortCutList__monitor__ShortCut
 731E:0005       SavedChar__monitor__ShortCuts
 731E:0007       FreeKey__monitor__ShortCuts
 731E:000B       NumEl__monitor__ShortCuts
 731E:000D       done__ShortCuts
 731E:000E       $ED__ShortCuts
 731F:0000       $ED__HRD_Clock
 731F:0000       $BD__HRD_Clock
 7320:0000       $BD__DGHInterface
 7320:0000       BufferFull__DGHInterface
 7320:0004       currentSign__DGHInterface
 7320:0006       binaryDtaSign__DGHInterface
 7320:0008       csErrorCnt__DGHInterface
 7320:000A       nvErrorCndF__DGHInterface
 7320:000C       nvErrorCndS__DGHInterface
 7320:000E       maxClicks__DGHInterface
 7320:0010       activated__DGHInterface
 7320:0014       Ostrzezenie_ze_za_dlugo__DGHInt
 7320:0018       $ED__DGHInterface
 7322:0000       ClipRect__HiLevGraf
 7322:0000       $BD__HiLevGraf
 7322:0008       Style__HiLevGraf
 7322:000A       LastPosition__HiLevGraf
 7322:000C       semafor__HiLevGraf
 7322:0018       Path__HiLevGraf
 7322:0059       XS__HiLevGraf
 7322:005B       YS__HiLevGraf
 7322:005D       $ED__HiLevGraf
 7328:0000       $BD__GrafUtil
 7328:0000       StatusR__GrafUtil
 7328:0008       str__GrafUtil
 7328:006C       WaitTime__GrafUtil
 7328:006E       Tone__GrafUtil
 7328:0070       $ED__GrafUtil
 7330:0000       navFlg__G_Odb
 7330:0000       $BD__G_Odb
 7330:0002       gsFlg__G_Odb
 7330:0004       iMkrFlg__G_Odb
 7330:0006       mMkrFlg__G_Odb
 7330:0008       oMkrFlg__G_Odb
 7330:000A       audio_L__G_Odb
 7330:000C       audio_V__G_Odb
 7330:000E       devL__G_Odb
 7330:0012       devG__G_Odb
 7330:0016       mod__G_Odb
 7330:001A       agc__G_Odb
 7330:001E       agcM__G_Odb
 7330:0022       navOdbFlg__G_Odb
 7330:0024       EvalVal__G_Odb
 7330:007C       WykMainVal__G_Odb
 7330:0080       Wyk1Val__G_Odb
 7330:0084       Wyk2Val__G_Odb
 7330:0088       Wyk3Val__G_Odb
 7330:008C       RefDisTT__G_Odb
 7330:008E       RefDis__G_Odb
 7330:0090       CollectData__G_Odb
 7330:0091       displSens__G_Odb
 7330:0099       pathAng__G_Odb
 7330:00A1       secWith__G_Odb
 7330:00A9       currOffR__G_Odb
 7330:00B1       currOffI__G_Odb
 7330:00B3       currZone__G_Odb
 7330:00B4       procTable__G_Odb
 7330:00E8       procIdx__G_Odb
 7330:00EA       covSecMin__G_Odb
 7330:00EC       covSecMax__G_Odb
 7330:00EE       Az75_150_Con__G_Odb
 7330:0146       Az75_90_Con__G_Odb
 7330:019E       Az0_Con__G_Odb
 7330:01CE       Dif0_Con__G_Odb
 7330:01FE       AzymAV_Con__G_Odb
 7330:0232       oMkrL_Con__G_Odb
 7330:0242       mMkrL_Con__G_Odb
 7330:0252       iMkrL_Con__G_Odb
 7330:0262       DifAv_Con__G_Odb
 7330:0276       AzOsiAv_Con__G_Odb
 7330:028A       sigNilVal__G_Odb
 7330:028E       newZone__G_Odb
 7330:028F       myDistTT__G_Odb
 7330:0291       DisSigma__G_Odb
 7330:0299       currPredkosc__G_Odb
 7330:02A1       simEl__G_Odb
 7330:02A3       rec__G_Odb
 7330:02A4       $ED__G_Odb
 735B:0000       $BD__ScreenCTypes
 735B:0000       slL_rec__ScreenCTypes
 735B:0008       slL_pnt__ScreenCTypes
 735B:000C       slLReg_rec__ScreenCTypes
 735B:0014       slLDib_rec__ScreenCTypes
 735B:001C       slS_rec__ScreenCTypes
 735B:0024       slS_pnt__ScreenCTypes
 735B:0028       slSReg_rec__ScreenCTypes
 735B:0030       slSDib_rec__ScreenCTypes
 735B:0038       slP_rec__ScreenCTypes
 735B:0040       slP_pnt__ScreenCTypes
 735B:0044       slPReg_rec__ScreenCTypes
 735B:004C       slPDib_rec__ScreenCTypes
 735B:0054       $ED__ScreenCTypes
 7361:0000       $BD__MsgBox
 7361:0000       hDlg__MsgBox
 7361:0004       ret__MsgBox
 7361:0006       P_A__MsgBox
 7361:0016       $ED__MsgBox
 7363:0000       lastGPIBError__NAVGPIB
 7363:0000       $BD__NAVGPIB
 7363:0001       simpleComm__NAVGPIB
 7363:0221       realComm__NAVGPIB
 7363:0353       lastGPIBCommand__NAVGPIB
 7363:0374       lastGPIBResponse__NAVGPIB
 7363:0395       status__NAVGPIB
 7363:0397       FirstLocal__NAVGPIB
 7363:0398       CommCount__NAVGPIB
 7363:039A       loopCount__NAVGPIB
 7363:039C       loopCountmax__NAVGPIB
 7363:039E       Line__NAVGPIB
 7363:03A0       $ED__NAVGPIB
 739E:0000       minWrBufLength__DigiRS
 739E:0000       $BD__DigiRS
 739E:0002       $ED__DigiRS
 739F:0000       $BD__RealConversions
 739F:0000       $ED__RealConversions
 73A0:0000       $ED__Math
 73A0:0000       $BD__Math
 73A1:0000       $BD__FIltr1St
 73A1:0000       okresImp__FIltr1St
 73A1:0008       $ED__FIltr1St
 73A2:0000       framesWError__GPS_nov
 73A2:0000       $BD__GPS_nov
 73A2:0002       chrCount__GPS_nov
 73A2:0004       frmCount__GPS_nov
 73A2:0006       actPart__GPS_nov
 73A2:0007       sumaModC__GPS_nov
 73A2:0008       sumaModF__GPS_nov
 73A2:000A       posInRecBuf__GPS_nov
 73A2:000C       bufor__GPS_nov
 73A2:007B       eos__GPS_nov
 73A2:007E       err_unrec_cnt__GPS_nov
 73A2:0080       BladKanaluGPS__GPS_nov
 73A2:0084       $ED__GPS_nov
 73AB:0000       $BD__GPS_TRIMBLE
 73AB:0000       framesWError__GPS_TRIMBLE
 73AB:0002       chrCount__GPS_TRIMBLE
 73AB:0004       frmCount__GPS_TRIMBLE
 73AB:0006       actPart__GPS_TRIMBLE
 73AB:0007       posInRecBuf__GPS_TRIMBLE
 73AB:0009       bufor__GPS_TRIMBLE
 73AB:0049       L_epe__GPS_TRIMBLE
 73AB:004B       L_WspSzerokosc__GPS_TRIMBLE
 73AB:0051       L_WspDlugosc__GPS_TRIMBLE
 73AB:0057       L_Kierunek__GPS_TRIMBLE
 73AB:005F       L_FixNotAvailable__GPS_TRIMBLE
 73AB:0060       L_month__GPS_TRIMBLE
 73AB:0062       L_day__GPS_TRIMBLE
 73AB:0064       L_year__GPS_TRIMBLE
 73AB:0066       L_hour__GPS_TRIMBLE
 73AB:0068       L_min__GPS_TRIMBLE
 73AB:006A       L_sec__GPS_TRIMBLE
 73AB:006C       L_NumberOfSattelites__GPS_TRIMB
 73AB:006E       BladKanaluGPS__GPS_TRIMBLE
 73AB:0072       $ED__GPS_TRIMBLE
 73B3:0000       ErrorProc__Ini
 73B3:0000       $BD__Ini
 73B3:0004       ini__Ini
 73B3:0010       currfile__Ini
 73B3:0012       BuffP__Ini
 73B3:0016       Bufor__Ini
 73B3:5017       charsInBuffer__Ini
 73B3:5019       SavedFileName__Ini
 73B3:507D       LastDir__Ini
 73B3:50E1       Modified__Ini
 73B3:50E2       check__Ini
 73B3:50E4       $ED__Ini
 78C2:0000       $BD__Zoom
 78C2:0000       ZmienP__Zoom
 78C2:0004       OpisWykresu__Zoom
 78C2:021C       x_odn__Zoom
 78C2:0220       x_time__Zoom
 78C2:0224       PosMarkerX__Zoom
 78C2:0274       NrX__Zoom
 78C2:0276       PrzeskokWGore__Zoom
 78C2:0278       PrzeskokWDol__Zoom
 78C2:027A       podz__Zoom
 78C2:0282       xFirst__Zoom
 78C2:0284       xLast__Zoom
 78C2:0286       ZnacznikPrzerwy__Zoom
 78C2:0288       ObslugaWylaczona__Zoom
 78C2:0289       ZoomOutPoziom__Zoom
 78C2:028D       ZoomOutPion__Zoom
 78C2:029D       Koniec__Zoom
 78C2:02A1       XStack__Zoom
 78C2:02C9       XStackDepth__Zoom
 78C2:02CB       YStack__Zoom
 78C2:054B       YStackDepth__Zoom
 78C2:0553       KierunekZmian__Zoom
 78C2:0555       PMDLicznik__Zoom
 78C2:0557       $ED__Zoom
 7918:0000       $BD__GList
 7918:0000       CurH__GList
 7918:0004       Lista__GList
 7918:0008       $ED__GList
 7919:0000       KbdButton__Buttons
 7919:0000       $BD__Buttons
 7919:0004       AllEnabled__Buttons
 7919:0005       ButtonList__MONITOR__Buttons
 7919:0009       $ED__Buttons
 791A:0000       ListaDlg__Dialog
 791A:0000       $BD__Dialog
 791A:0004       FocusChanged__Dialog
 791A:0008       $ED__Dialog
 791B:0000       $BD__InpLine
 791B:0000       Active__InpLine
 791B:0004       $ED__InpLine
 791C:0000       $BD__PI_ZoomSpecific
 791C:0000       Opisy__PI_ZoomSpecific
 791C:07BC       Sciezka__PI_ZoomSpecific
 791C:07FD       $ED__PI_ZoomSpecific
 799C:0000       NazwaPlikuIni__Obloty
 799C:0000       $BD__Obloty
 799C:0040       Stat_Size_Monitor__Obloty
 799C:0044       Stat_File_Monitor__Obloty
 799C:0048       HomeDir__Obloty
 799C:0058       HomeDirNazwaPlikuIni__Obloty
 799C:0099       bd_NazwaPliku__Obloty
 799C:00AA       bd_Sekcja__Obloty
 799C:00B5       bd_WpisNazwa__Obloty
 799C:00C0       insp_DirTmp__Obloty
 799C:00CB       stat_Size__Obloty
 799C:00D3       stat_Files__Obloty
 799C:00D5       NUrzadzDlaDopasuj__Obloty
 799C:0116       HomeDirDlaDopasuj__Obloty
 799C:0157       CallBackDlaDopasuj__Obloty
 799C:015B       NazwaPlikuZOpisem__Obloty
 799C:019C       DelDir__Obloty
 799C:01DD       SrcDir__Obloty
 799C:021E       DstDir__Obloty
 799C:025F       $ED__Obloty
 79C2:0000       $BD__Mapa
 79C2:0000       doZrobienia__Mapa
 79C2:0020       zrobione__Mapa
 79C2:0040       aktualny__Mapa
 79C2:0042       mapRct__Mapa
 79C2:004A       distRect__Mapa
 79C2:0052       PokazywacPolozenie__Mapa
 79C2:0053       RysSytMaxDis__Mapa
 79C2:005B       myPoint__Mapa
 79C2:005F       redraw__Mapa
 79C2:0060       noActive__monitor__Mapa
 79C2:0064       $ED__Mapa
 79C9:0000       StalyKat__Polozenie
 79C9:0000       $BD__Polozenie
 79C9:0002       Srodek__Polozenie
 79C9:0006       Promien__Polozenie
 79C9:0008       MaxVal__Polozenie
 79C9:0010       AktOdleglosc__Polozenie
 79C9:0018       AktKat__Polozenie
 79C9:0020       Narysowany__Polozenie
 79C9:0022       Bufor__Polozenie
 79C9:0112       Rect__Polozenie
 79C9:011A       ProcesAktywny__Polozenie
 79C9:011B       NCO__Polozenie
 79C9:011C       angContiner__Polozenie
 79C9:011F       MarkerShapes__Polozenie
 79C9:020F       Dir__Polozenie
 79C9:0211       CzesciOkregu__Polozenie
 79C9:0235       $ED__Polozenie
 79ED:0000       $BD__SwitchCntrl
 79ED:0000       ControlWords__SwitchCntrl
 79ED:000E       $ED__SwitchCntrl
 79EE:0000       $BD__Kalibracja
 79EE:0000       TabKalib2P__Kalibracja
 79EE:0800       AGCwartosciProgow__Kalibracja
 79EE:0870       AGCwartosciProgowM__Kalibracja
 79EE:08C0       AGCwartosciProgowD__Kalibracja
 79EE:0910       LocDev_delay__Kalibracja
 79EE:0918       GsDev_delay__Kalibracja
 79EE:0920       LocPrcMod_delay__Kalibracja
 79EE:0928       GsPrcMod_delay__Kalibracja
 79EE:0930       VorRefPrcMod_delay__Kalibracja
 79EE:0938       VorVarPrcMod_delay__Kalibracja
 79EE:0940       SubcarPrcMod_delay__Kalibracja
 79EE:0948       Omnibearing_delay__Kalibracja
 79EE:0950       VorAgc_delay__Kalibracja
 79EE:0958       GsAgc_delay__Kalibracja
 79EE:0960       MkrAgc_delay__Kalibracja
 79EE:0968       OmnibearingProgi__Kalibracja
 79EE:0A88       LOC_DEVPuntyKal__Kalibracja
 79EE:0AC0       GS_DEVPuntyKal__Kalibracja
 79EE:0AF8       Par__Kalibracja
 79EE:13B8       errDetected__Kalibracja
 79EE:13BC       inputCoeff__Kalibracja
 79EE:13EC       DataOstatniejKalibracji__Kalibr
 79EE:13F8       WystapilBlad__Kalibracja
 79EE:13F9       lastError__ErrorHand__Kalibracj
 79EE:13FB       for_counter__Kalibracja
 79EE:13FD       void__Kalibracja
 79EE:13FF       f__Kalibracja
 79EE:1401       $ED__Kalibracja
 7B2F:0000       $BD__FCBS
 7B2F:0000       Code__FCBS
 7B2F:003D       $ED__FCBS
 7B33:0000       $BD__CocpDsp
 7B33:0000       currGSflg__CocpDsp
 7B33:0001       currNAVflg__CocpDsp
 7B33:0002       currFROMflg__CocpDsp
 7B33:0003       currTOflg__CocpDsp
 7B33:0004       dirCP__CocpDsp
 7B33:0006       dirWP__CocpDsp
 7B33:0008       SkalaCP__CocpDsp
 7B33:000A       Skala__CocpDsp
 7B33:000C       SkalaCPMax__CocpDsp
 7B33:000E       SkalaWPMax__CocpDsp
 7B33:0010       srodekSkali__CocpDsp
 7B33:0012       iloscStrzal__CocpDsp
 7B33:0014       currState__CocpDsp
 7B33:0015       currLNumber__CocpDsp
 7B33:0017       currRNumber__CocpDsp
 7B33:0019       currErrorCP__CocpDsp
 7B33:001B       currErrorWP__CocpDsp
 7B33:001D       currErrorGS__CocpDsp
 7B33:001F       newState__CocpDsp
 7B33:0023       dtaSign__CocpDsp
 7B33:0025       force__CocpDsp
 7B33:0026       currMsg__CocpDsp
 7B33:0028       $ED__CocpDsp
 7B36:0000       $ED__Wykres
 7B36:0000       $BD__Wykres
 7B37:0000       $BD__XMSTable
 7B37:0000       $ED__XMSTable
 7B38:0000       slupki__PI_ScrUtility
 7B38:0000       $BD__PI_ScrUtility
 7B38:000C       slupkiAktywne__PI_ScrUtility
 7B38:000D       $ED__PI_ScrUtility
 7B39:0000       $BD__Slupek
 7B39:0000       $ED__Slupek
 7B3A:0000       $BD__G_DisResults
 7B3A:0000       colPos__G_DisResults
 7B3A:0004       $ED__G_DisResults
 7B3B:0000       $BD__DisResUtilities
 7B3B:0000       $ED__DisResUtilities
 7B3C:0000       PoczatekStrony__PiszEventy
 7B3C:0000       $BD__PiszEventy
 7B3C:0002       EvPtr__PiszEventy
 7B3C:0006       $ED__PiszEventy
 7B3D:0000       ImportantDiv__G_DAcquizition
 7B3D:0000       $BD__G_DAcquizition
 7B3D:0002       redraw__G_DAcquizition
 7B3D:0003       redrawM__G_DAcquizition
 7B3D:0004       currUpdMarks__G_DAcquizition
 7B3D:0008       currGlownyOdbiornik__G_DAcquizi
 7B3D:0009       TrwaPomiarPolaryzacji__G_DAcqui
 7B3D:000A       polvfaza__G_DAcquizition
 7B3D:000C       pom2sek__G_DAcquizition
 7B3D:000E       notify__Monitor__G_DAcquizition
 7B3D:0012       lastComm__Monitor__G_DAcquiziti
 7B3D:0013       filesNotEmpty__G_DAcquizition
 7B3D:0014       $ED__G_DAcquizition
 7B3F:0000       PolVLewoC__L_Count
 7B3F:0000       $BD__L_Count
 7B3F:0002       PolVZeroC__L_Count
 7B3F:0004       PolVPrawoC__L_Count
 7B3F:0006       $ED__L_Count
 7B40:0000       ALT_Conver_Tab__AltInterface
 7B40:0000       $BD__AltInterface
 7B40:0020       ALT_Conver_TabC__AltInterface
 7B40:0040       refPress__AltInterface
 7B40:0048       $ED__AltInterface
 7B45:0000       $BD__G_Print
 7B45:0000       SigNam__G_Print
 7B45:0050       Zestaw__G_Print
 7B45:0052       header__G_Print
 7B45:00B7       NazwaPliku__G_Print
 7B45:00D6       GSG_flg__G_Print
 7B45:00D8       GSZ_flg__G_Print
 7B45:00DA       Zew_Marker_G__G_Print
 7B45:00DC       Srd_Marker_G__G_Print
 7B45:00DE       Wew_Marker_G__G_Print
 7B45:00E0       Zew_Marker_Z__G_Print
 7B45:00E2       Srd_Marker_Z__G_Print
 7B45:00E4       Wew_Marker_Z__G_Print
 7B45:00E6       gOdb__G_Print
 7B45:00E7       zOdb__G_Print
 7B45:00E8       $ED__G_Print
 7B54:0000       $BD__GeoArithmetic
 7B54:0000       Deklinacja__GeoArithmetic
 7B54:0008       OdniesienieMtx__GeoArithmetic
 7B54:0020       IloscOdniesien__GeoArithmetic
 7B54:0022       $ED__GeoArithmetic
 7B57:0000       $ED__Marks
 7B57:0000       $BD__Marks
 7B58:0000       SpelniaWymagania__Rap_Util
 7B58:0000       $BD__Rap_Util
 7B58:0001       SamName__Rap_Util
 7B58:0007       Sam__Rap_Util
 7B58:000B       $ED__Rap_Util
 7B59:0000       $BD__Print
 7B59:0000       PrnX__Print
 7B59:0002       PrnY__Print
 7B59:0004       PolozenieNapisu__Print
 7B59:0006       TextModeOutProc__Print
 7B59:000A       PrevIdx__Print
 7B59:000C       Flagi__Print
 7B59:000E       flgEOF__Print
 7B59:000F       scaleDiv__Print
 7B59:0011       CoKtoraProbka__Print
 7B59:0013       ZestawProbekBinDoWyboru__Print
 7B59:00D5       Tmpl__Print
 7B59:0112       $ED__Print
 7B6B:0000       PrnPort__DrawEpson
 7B6B:0000       $BD__DrawEpson
 7B6B:0002       xh__DrawEpson
 7B6B:0004       Bufor__DrawEpson
 7B6B:0784       LastPosition__DrawEpson
 7B6B:0786       Masks__DrawEpson
 7B6B:078E       Adr1__DrawEpson
 7B6B:0792       Adr2__DrawEpson
 7B6B:0796       PrevPage__DrawEpson
 7B6B:0798       CurMode__DrawEpson
 7B6B:0799       FontAdrN__DrawEpson
 7B6B:079D       FontAdrA__DrawEpson
 7B6B:07A1       FontHeight__DrawEpson
 7B6B:07A3       Rotation__DrawEpson
 7B6B:07A4       MnX__DrawEpson
 7B6B:07A6       MnY__DrawEpson
 7B6B:07A8       JuzNarysowane__DrawEpson
 7B6B:07A9       $ED__DrawEpson
 7BE6:0000       TablicaSemaforow__Semafory
 7BE6:0000       $BD__Semafory
 7BE6:0054       $ED__Semafory
 7BEC:0000       address__DGH_utils
 7BEC:0000       $BD__DGH_utils
 7BEC:0020       binAddress__DGH_utils
 7BEC:0036       $ED__DGH_utils
 7BF0:0000       $BD__ILS_EvalProcedures
 7BF0:0000       pathAng__ILS_EvalProcedures
 7BF0:0002       znakKata__ILS_EvalProcedures
 7BF0:0004       $ED__ILS_EvalProcedures
 7BF1:0000       a__Random
 7BF1:0000       $BD__Random
 7BF1:006E       j__Random
 7BF1:0070       k__Random
 7BF1:0072       $ED__Random
 7BF9:0000       $BD__M_PGPIB
 7BF9:0000       $ED__M_PGPIB
 7BFA:0000       $ED__Kl_FGenerators
 7BFA:0000       $BD__Kl_FGenerators
 7BFB:0000       $BD__L_Slupek
 7BFB:0000       WykMainProc__L_Slupek
 7BFB:0004       Wyk1Proc__L_Slupek
 7BFB:0008       Wyk2Proc__L_Slupek
 7BFB:000C       Wyk3Proc__L_Slupek
 7BFB:0010       parSlupkow__L_Slupek
 7BFB:0028       regionyWyk__L_Slupek
 7BFB:005A       screeenDIB__L_Slupek
 7BFB:005E       cursorDIB__L_Slupek
 7BFB:0062       PosTable__L_Slupek
 7BFB:013A       currSkalaWpionie__L_Slupek
 7BFB:01E4       $ED__L_Slupek
 7C1A:0000       $BD__G_CntProcedures
 7C1A:0000       procTable__G_CntProcedures
 7C1A:002C       procIdx__G_CntProcedures
 7C1A:002E       newZone__G_CntProcedures
 7C1A:002F       zoneNr__G_CntProcedures
 7C1A:0030       signalsCV__G_CntProcedures
 7C1A:0044       wysokoscCV__G_CntProcedures
 7C1A:0046       refEl__G_CntProcedures
 7C1A:0048       flgs__G_CntProcedures
 7C1A:004A       refDisCV__G_CntProcedures
 7C1A:004C       oMkrFlg__G_CntProcedures
 7C1A:004E       mMkrFlg__G_CntProcedures
 7C1A:0050       iMkrFlg__G_CntProcedures
 7C1A:0052       Az75_G_PB_Con__G_CntProcedures
 7C1A:00AA       Az75_D_PB_Con__G_CntProcedures
 7C1A:0102       Az150_G_PB_Con__G_CntProcedures
 7C1A:015A       Az190_D_PB_Con__G_CntProcedures
 7C1A:01B2       Az0_PB_Con__G_CntProcedures
 7C1A:01E2       Dif0_Con__G_CntProcedures
 7C1A:0212       AzymAV_Con__G_CntProcedures
 7C1A:0246       azAv_PO_Con__G_CntProcedures
 7C1A:025A       difAv_PO_Con__G_CntProcedures
 7C1A:026E       DifAvTotal_Con__G_CntProcedures
 7C1A:0282       alig_Con__G_CntProcedures
 7C1A:0296       odcinki150_PS__G_CntProcedures
 7C1A:0298       odcinki180_PS__G_CntProcedures
 7C1A:029A       oMkrL_Con__G_CntProcedures
 7C1A:02AA       mMkrL_Con__G_CntProcedures
 7C1A:02BA       iMkrL_Con__G_CntProcedures
 7C1A:02CA       mkrLengthCon__G_CntProcedures
 7C1A:031A       modAv_Con__G_CntProcedures
 7C1A:032E       dewAv_BD_Cont__G_CntProcedures
 7C1A:0342       currNavState__G_CntProcedures
 7C1A:0344       flag_20uV_OP_Con__G_CntProcedur
 7C1A:0346       WysokoscAv_PB_Con__G_CntProcedu
 7C1A:0350       KapaFun1_Con__G_CntProcedures
 7C1A:0374       KapaFun3_Con__G_CntProcedures
 7C1A:0398       Bend_con__G_CntProcedures
 7C1A:159C       bendState__G_CntProcedures
 7C1A:159E       aligSec_Con__G_CntProcedures
 7C1A:15A2       displSens__G_CntProcedures
 7C1A:15AA       pathAng__G_CntProcedures
 7C1A:15B2       $ED__G_CntProcedures
 7D76:0000       $BD__PrintCntroll
 7D76:0000       hDlg__PrintCntroll
 7D76:0004       Zestaw__PrintCntroll
 7D76:0006       Odniesienie__PrintCntroll
 7D76:0007       OdnB__PrintCntroll
 7D76:000B       CoKtoraProbka__PrintCntroll
 7D76:000D       IleStron__PrintCntroll
 7D76:000F       IloscProbek__PrintCntroll
 7D76:0011       lPodz__PrintCntroll
 7D76:0015       $ED__PrintCntroll
 7D78:0000       $BD__NAVInterface
 7D78:0000       disableMask__NAVInterface
 7D78:0002       speedMask__NAVInterface
 7D78:0004       fineMode__NAVInterface
 7D78:0005       killTime__NAVInterface
 7D78:0007       $ED__NAVInterface
 7D79:0000       $BD__ARINC
 7D79:0000       maxCountW__ARINC
 7D79:0002       maxCountR__ARINC
 7D79:0004       $ED__ARINC
 7D7D:0000       DriverInstalled__Mouse

Program entry point at 5C4D:03C9
