
 Start  Stop   Length Name                   Class
 00010H 006FDH 006EEH AT_TEXT                CODE
 00700H 00771H 00072H FCBS_TEXT              CODE
 00780H 008FAH 0017BH DOSENTRY_TEXT          CODE
 00900H 0270CH 01E0DH MANAGER_TEXT           CODE
 02710H 02855H 00146H ERRORMESS_TEXT         CODE
 02860H 02E0AH 005ABH V_RESULTS_TEXT         CODE
 02E10H 037CFH 009C0H VORO_AVRAGE_TEXT       CODE
 037E0H 038FFH 00120H COMMONTYPES_TEXT       CODE
 03910H 03985H 00076H D_COMMONTYPES_TEXT     CODE
 03990H 039B8H 00029H V_COMMONTYPES_TEXT     CODE
 039C0H 053B8H 019F9H SPECCONV_TEXT          CODE
 053C0H 05A9AH 006DBH FLAGANAL_TEXT          CODE
 05AA0H 05E09H 0036AH CZAS_TEXT              CODE
 05E10H 0647EH 0066FH SIMSCANNER_TEXT        CODE
 06480H 064ADH 0002EH PI_PA_TEXT             CODE
 064B0H 070F9H 00C4AH TUNE_TEXT              CODE
 07100H 081D3H 010D4H V_FILES_TEXT           CODE
 081E0H 08FE8H 00E09H D_FILES_TEXT           CODE
 08FF0H 091E4H 001F5H MMA_COUT_TEXT          CODE
 091F0H 09650H 00461H D_RESULTS_TEXT         CODE
 09660H 0A092H 00A33H ZOOMINTERFACE_TEXT     CODE
 0A0A0H 0A176H 000D7H PI_GLOWNY_TEXT         CODE
 0A180H 0B3F5H 01276H T_OBLOT_TEXT           CODE
 0B400H 0C8C3H 014C4H T_INSPEKCJA_TEXT       CODE
 0C8D0H 0C99CH 000CDH COMMONDATA_TEXT        CODE
 0C9A0H 0F56BH 02BCCH FILES_TEXT             CODE
 0F570H 10119H 00BAAH V_CP_CONTROLPROC_TEXT  CODE
 10120H 116CFH 015B0H POMIAR_TEXT            CODE
 116E0H 14E86H 037A7H SCREEN_TEXT            CODE
 14E90H 15640H 007B1H PI_ANALIZA_TEXT        CODE
 15650H 15CA4H 00655H PI_POMIAR_TEXT         CODE
 15CB0H 15DDBH 0012CH PI_ARCHDATE_TEXT       CODE
 15DE0H 15E33H 00054H PI_DRUKUJ_TEXT         CODE
 15E40H 16436H 005F7H SOFTINTHANDLINGMANAGER_TEXT CODE
 16440H 169F8H 005B9H STORAGE_TEXT           CODE
 16A00H 176BDH 00CBEH TIMER_TEXT             CODE
 176C0H 17B68H 004A9H MESSAGES_TEXT          CODE
 17B70H 19049H 014DAH STDIO_TEXT             CODE
 19050H 1972BH 006DCH MSGBOX_TEXT            CODE
 19730H 19800H 000D1H WORSEBECAUSE_TEXT      CODE
 19810H 1A931H 01122H GRAPHICS_TEXT          CODE
 1A940H 1AA69H 0012AH XMS_TEXT               CODE
 1AA70H 1AAAEH 0003FH XMS_INIT_TEXT          CODE
 1AAB0H 1AF6EH 004BFH XMSSERVICE_TEXT        CODE
 1AF70H 1B156H 001E7H GRAFTYPES_TEXT         CODE
 1B160H 1C662H 01503H MMMOUSE_TEXT           CODE
 1C670H 1CE0BH 0079CH SHORTCUTS_TEXT         CODE
 1CE10H 1D07DH 0026EH HRD_CLOCK_TEXT         CODE
 1D080H 1D328H 002A9H SCANNERI_TEXT          CODE
 1D330H 1E3C5H 01096H THEODOLITREAD_TEXT     CODE
 1E3D0H 1EA83H 006B4H GPSREAD_TEXT           CODE
 1EA90H 1F803H 00D74H DGHINI_TEXT            CODE
 1F810H 2025AH 00A4BH EVENTSMNG_TEXT         CODE
 20260H 224CEH 0226FH DATACOLLECT_TEXT       CODE
 224D0H 22F15H 00A46H FIO_TEXT               CODE
 22F20H 23F99H 0107AH DGHINTERFACE_TEXT      CODE
 23FA0H 24C01H 00C62H V_ODB_TEXT             CODE
 24C10H 25728H 00B19H D_ODB_TEXT             CODE
 25730H 27EC6H 02797H ZOOM_TEXT              CODE
 27ED0H 2984CH 0197DH GLIST_TEXT             CODE
 29850H 29A70H 00221H GRAFUTIL_TEXT          CODE
 29A80H 2A857H 00DD8H BUTTONS_TEXT           CODE
 2A860H 2C1BBH 0195CH DIALOG_TEXT            CODE
 2C1C0H 2D8A3H 016E4H HILEVGRAF_TEXT         CODE
 2D8B0H 2E5C6H 00D17H INPLINE_TEXT           CODE
 2E5D0H 2F14FH 00B80H PI_ZOOMSPECIFIC_TEXT   CODE
 2F160H 2FCB0H 00B51H MAPA_TEXT              CODE
 2FCC0H 31935H 01C76H OBLOTY_TEXT            CODE
 31940H 32715H 00DD6H GEOARITHMETIC_TEXT     CODE
 32720H 3323FH 00B20H REALCONVERSIONS_TEXT   CODE
 33250H 34428H 011D9H INI_TEXT               CODE
 34430H 34FC8H 00B99H V_DATABASE_TEXT        CODE
 34FD0H 350FEH 0012FH SWITCHCNTRL_TEXT       CODE
 35100H 35E8CH 00D8DH COCPDSP_TEXT           CODE
 35E90H 385F2H 02763H WYKRES_TEXT            CODE
 38600H 3895AH 0035BH XMSTABLE_TEXT          CODE
 38960H 3928FH 00930H PI_SCRUTILITY_TEXT     CODE
 392A0H 39986H 006E7H SLUPEK_TEXT            CODE
 39990H 39B2EH 0019FH SCREENCTYPES_TEXT      CODE
 39B30H 3AAAAH 00F7BH V_DISRESULTS_TEXT      CODE
 3AAB0H 3AE39H 0038AH DISRESUTILITIES_TEXT   CODE
 3AE40H 3B3D2H 00593H D_DISRESULTS_TEXT      CODE
 3B3E0H 3C613H 01234H PISZEVENTY_TEXT        CODE
 3C620H 3ECD2H 026B3H V_COUNT_TEXT           CODE
 3ECE0H 3F412H 00733H D_COUNT_TEXT           CODE
 3F420H 3FAA2H 00683H D_DACQUIZITION_TEXT    CODE
 3FAB0H 401F5H 00746H V_DACQUIZITION_TEXT    CODE
 40200H 4050FH 00310H ALTINTERFACE_TEXT      CODE
 40520H 419DEH 014BFH DMEPRINT_TEXT          CODE
 419E0H 436EEH 01D0FH VORPRINT_TEXT          CODE
 436F0H 43B43H 00454H SEMAFORY_TEXT          CODE
 43B50H 43E6CH 0031DH DIGIRS_TEXT            CODE
 43E70H 44058H 001E9H MATH_TEXT              CODE
 44060H 447E6H 00787H FILTR1ST_TEXT          CODE
 447F0H 459EDH 011FEH GPS_NOV_TEXT           CODE
 459F0H 462E8H 008F9H GPS_TRIMBLE_TEXT       CODE
 462F0H 46C27H 00938H MARKS_TEXT             CODE
 46C30H 47E55H 01226H POLOZENIE_TEXT         CODE
 47E60H 4AC75H 02E16H KALIBRACJA_TEXT        CODE
 4AC80H 4B524H 008A5H DGH_UTILS_TEXT         CODE
 4B530H 4B940H 00411H RANDOM_TEXT            CODE
 4B950H 4BA3EH 000EFH INT_DME_TEXT           CODE
 4BA40H 4C188H 00749H V_SLUPEK_TEXT          CODE
 4C190H 4C91BH 0078CH D_SLUPEK_TEXT          CODE
 4C920H 4DD82H 01463H DRAWEPSON_TEXT         CODE
 4DD90H 4F810H 01A81H PRINT_TEXT             CODE
 4F820H 502EEH 00ACFH VORR_AVERAGE_TEXT      CODE
 502F0H 50BD0H 008E1H PRINTCNTROLL_TEXT      CODE
 50BE0H 510DFH 00500H KL_FGENERATORS_TEXT    CODE
 510F0H 51441H 00352H NAVINTERFACE_TEXT      CODE
 51450H 51DBFH 00970H ARINC_TEXT             CODE
 51DD0H 51E2DH 0005EH RTS87_TEXT             CODE
 51E30H 51E89H 0005AH RTS87_INIT_TEXT        CODE
 51E90H 51F56H 000C7H RTSError_TEXT          CODE
 51F60H 51F8EH 0002FH RTSError_INIT_TEXT     CODE
 51F90H 52700H 00771H RTSMain_TEXT           CODE
 52710H 527C2H 000B3H RTSLanguage_TEXT       CODE
 527D0H 527D0H 00001H RTSLanguage_INIT_TEXT  CODE
 527E0H 52920H 00141H RTSDevice_TEXT         CODE
 52930H 52930H 00001H RTSDevice_INIT_TEXT    CODE
 52940H 529EEH 000AFH RTSPriority_TEXT       CODE
 529F0H 529F0H 00001H RTSPriority_INIT_TEXT  CODE
 52A00H 52BA7H 001A8H RTSCoroutine_TEXT      CODE
 52BB0H 52BB0H 00001H RTSCoroutine_INIT_TEXT CODE
 52BC0H 52E08H 00249H RTSInterrupt_TEXT      CODE
 52E10H 52E5CH 0004DH RTSInterrupt_INIT_TEXT CODE
 52E60H 52E69H 0000AH RTSRealError_TEXT      CODE
 52E70H 52E70H 00001H RTSRealError_INIT_TEXT CODE
 52E80H 53183H 00304H Strings_TEXT           CODE
 53190H 537CBH 0063CH NUMBERCONVERSION_TEXT  CODE
 537D0H 53831H 00062H SOUNDS_TEXT            CODE
 53840H 53CCCH 0048DH DebugPMD_TEXT          CODE
 53CD0H 53D68H 00099H DebugPMD_INIT_TEXT     CODE
 53D70H 53E2AH 000BBH DEVICES_TEXT           CODE
 53E30H 54033H 00204H DynMem_TEXT            CODE
 54040H 54147H 00108H BlockOps_TEXT          CODE
 54150H 54401H 002B2H MOUSE_TEXT             CODE
 54410H 546EEH 002DFH Longs_TEXT             CODE
 546F0H 548B6H 001C7H TERMINAL_TEXT          CODE
 548C0H 54CA5H 003E6H TERMBASE_TEXT          CODE
 54CB0H 54DB8H 00109H BitByteOps_TEXT        CODE
 54DC0H 54DE4H 00025H ASCII_TEXT             CODE
 54DF0H 54E8CH 0009DH DISPLAY_TEXT           CODE
 54E90H 54FF7H 00168H KEYBOARD_TEXT          CODE
 55000H 552B8H 002B9H DOSMEMORY_TEXT         CODE
 552C0H 55983H 006C4H MathLib0_TEXT          CODE
 55990H 55D3BH 003ACH MODULE_TABLE_DATA      FAR_DATA
 55D40H 55E38H 000F9H INIT_FLAG_DATA         FAR_DATA
 55E40H 5601DH 001DEH RTSMain_DATA           FAR_DATA
 56020H 56025H 00006H RTS87_DATA             FAR_DATA
 56030H 56033H 00004H RTSCoroutine_DATA      FAR_DATA
 56040H 566E1H 006A2H DebugPMD_DATA          FAR_DATA
 566F0H 566F0H 00000H MathLib0_DATA          FAR_DATA
 56700H 5670FH 00010H AT_DATA                FAR_BSS
 56720H 5675CH 0003DH FCBS_DATA              FAR_BSS
 56760H 567E7H 00088H DOSENTRY_DATA          FAR_BSS
 567F0H 56A0DH 0021EH MANAGER_DATA           FAR_BSS
 56A10H 56A10H 00000H ERRORMESS_DATA         FAR_BSS
 56A20H 56FD0H 005B1H V_RESULTS_DATA         FAR_BSS
 56FE0H 56FE0H 00000H VORO_AVRAGE_DATA       FAR_BSS
 56FF0H 56FF0H 00000H COMMONTYPES_DATA       FAR_BSS
 57000H 57000H 00000H D_COMMONTYPES_DATA     FAR_BSS
 57010H 57010H 00001H V_COMMONTYPES_DATA     FAR_BSS
 57020H 57020H 00000H SPECCONV_DATA          FAR_BSS
 57030H 57030H 00000H FLAGANAL_DATA          FAR_BSS
 57040H 57053H 00014H CZAS_DATA              FAR_BSS
 57060H 57063H 00004H SIMSCANNER_DATA        FAR_BSS
 57070H 57070H 00001H PI_PA_DATA             FAR_BSS
 57080H 57125H 000A6H TUNE_DATA              FAR_BSS
 57130H 57233H 00104H V_FILES_DATA           FAR_BSS
 57240H 572E3H 000A4H D_FILES_DATA           FAR_BSS
 572F0H 572F0H 00000H MMA_COUT_DATA          FAR_BSS
 57300H 591B1H 01EB2H D_RESULTS_DATA         FAR_BSS
 591C0H 591EFH 00030H ZOOMINTERFACE_DATA     FAR_BSS
 59200H 59200H 00000H PI_GLOWNY_DATA         FAR_BSS
 59210H 59235H 00026H T_OBLOT_DATA           FAR_BSS
 59240H 59256H 00017H T_INSPEKCJA_DATA       FAR_BSS
 59260H 593B5H 00156H COMMONDATA_DATA        FAR_BSS
 593C0H 595D8H 00219H FILES_DATA             FAR_BSS
 595E0H 59775H 00196H V_CP_CONTROLPROC_DATA  FAR_BSS
 59780H 59814H 00095H POMIAR_DATA            FAR_BSS
 59820H 5994CH 0012DH SCREEN_DATA            FAR_BSS
 59950H 59970H 00021H PI_ANALIZA_DATA        FAR_BSS
 59980H 59980H 00000H PI_POMIAR_DATA         FAR_BSS
 59990H 59990H 00000H PI_ARCHDATE_DATA       FAR_BSS
 599A0H 599A0H 00000H PI_DRUKUJ_DATA         FAR_BSS
 599B0H 599B4H 00005H SOFTINTHANDLINGMANAGER_DATA FAR_BSS
 599C0H 599E6H 00027H STORAGE_DATA           FAR_BSS
 599F0H 59A03H 00014H TIMER_DATA             FAR_BSS
 59A10H 59A1DH 0000EH MESSAGES_DATA          FAR_BSS
 59A20H 59A20H 00000H STDIO_DATA             FAR_BSS
 59A30H 59A45H 00016H MSGBOX_DATA            FAR_BSS
 59A50H 59A50H 00000H WORSEBECAUSE_DATA      FAR_BSS
 59A60H 59B8FH 00130H GRAPHICS_DATA          FAR_BSS
 59BA0H 59BA3H 00004H XMS_DATA               FAR_BSS
 59BB0H 59BB3H 00004H XMSSERVICE_DATA        FAR_BSS
 59BC0H 59BC0H 00000H GRAFTYPES_DATA         FAR_BSS
 59BD0H 59FD0H 00401H MMMOUSE_DATA           FAR_BSS
 59FE0H 59FEDH 0000EH SHORTCUTS_DATA         FAR_BSS
 59FF0H 59FF0H 00000H HRD_CLOCK_DATA         FAR_BSS
 5A000H 5A056H 00057H SCANNERI_DATA          FAR_BSS
 5A060H 5A0B6H 00057H THEODOLITREAD_DATA     FAR_BSS
 5A0C0H 5A0E1H 00022H GPSREAD_DATA           FAR_BSS
 5A0F0H 5B07DH 00F8EH DGHINI_DATA            FAR_BSS
 5B080H 5BBCFH 00B50H EVENTSMNG_DATA         FAR_BSS
 5BBE0H 69D8DH 0E1AEH DATACOLLECT_DATA       FAR_BSS
 69D90H 6A9A1H 00C12H FIO_DATA               FAR_BSS
 6A9B0H 6A9C7H 00018H DGHINTERFACE_DATA      FAR_BSS
 6A9D0H 6AA1AH 0004BH V_ODB_DATA             FAR_BSS
 6AA20H 6AA5AH 0003BH D_ODB_DATA             FAR_BSS
 6AA60H 6AFB6H 00557H ZOOM_DATA              FAR_BSS
 6AFC0H 6AFC7H 00008H GLIST_DATA             FAR_BSS
 6AFD0H 6B03FH 00070H GRAFUTIL_DATA          FAR_BSS
 6B050H 6B058H 00009H BUTTONS_DATA           FAR_BSS
 6B060H 6B067H 00008H DIALOG_DATA            FAR_BSS
 6B070H 6B0CCH 0005DH HILEVGRAF_DATA         FAR_BSS
 6B0D0H 6B0D3H 00004H INPLINE_DATA           FAR_BSS
 6B0E0H 6B8DCH 007FDH PI_ZOOMSPECIFIC_DATA   FAR_BSS
 6B8E0H 6B943H 00064H MAPA_DATA              FAR_BSS
 6B950H 6BBAEH 0025FH OBLOTY_DATA            FAR_BSS
 6BBB0H 6BBD1H 00022H GEOARITHMETIC_DATA     FAR_BSS
 6BBE0H 6BBE0H 00000H REALCONVERSIONS_DATA   FAR_BSS
 6BBF0H 70CD3H 050E4H INI_DATA               FAR_BSS
 70CE0H 70EBCH 001DDH V_DATABASE_DATA        FAR_BSS
 70EC0H 70ECDH 0000EH SWITCHCNTRL_DATA       FAR_BSS
 70ED0H 70EF7H 00028H COCPDSP_DATA           FAR_BSS
 70F00H 70F00H 00000H WYKRES_DATA            FAR_BSS
 70F10H 70F10H 00000H XMSTABLE_DATA          FAR_BSS
 70F20H 70F2CH 0000DH PI_SCRUTILITY_DATA     FAR_BSS
 70F30H 70F30H 00000H SLUPEK_DATA            FAR_BSS
 70F40H 70F93H 00054H SCREENCTYPES_DATA      FAR_BSS
 70FA0H 70FABH 0000CH V_DISRESULTS_DATA      FAR_BSS
 70FB0H 70FB0H 00000H DISRESUTILITIES_DATA   FAR_BSS
 70FC0H 70FC0H 00000H D_DISRESULTS_DATA      FAR_BSS
 70FD0H 70FD5H 00006H PISZEVENTY_DATA        FAR_BSS
 70FE0H 7487FH 038A0H V_COUNT_DATA           FAR_BSS
 74890H 74890H 00000H D_COUNT_DATA           FAR_BSS
 748A0H 748ADH 0000EH D_DACQUIZITION_DATA    FAR_BSS
 748B0H 748C3H 00014H V_DACQUIZITION_DATA    FAR_BSS
 748D0H 74917H 00048H ALTINTERFACE_DATA      FAR_BSS
 74920H 74920H 00000H DMEPRINT_DATA          FAR_BSS
 74930H 749BFH 00090H VORPRINT_DATA          FAR_BSS
 749D0H 74A23H 00054H SEMAFORY_DATA          FAR_BSS
 74A30H 74A31H 00002H DIGIRS_DATA            FAR_BSS
 74A40H 74A40H 00000H MATH_DATA              FAR_BSS
 74A50H 74A57H 00008H FILTR1ST_DATA          FAR_BSS
 74A60H 74AE3H 00084H GPS_NOV_DATA           FAR_BSS
 74AF0H 74B61H 00072H GPS_TRIMBLE_DATA       FAR_BSS
 74B70H 74B70H 00000H MARKS_DATA             FAR_BSS
 74B80H 74DB4H 00235H POLOZENIE_DATA         FAR_BSS
 74DC0H 761C0H 01401H KALIBRACJA_DATA        FAR_BSS
 761D0H 76205H 00036H DGH_UTILS_DATA         FAR_BSS
 76210H 76281H 00072H RANDOM_DATA            FAR_BSS
 76290H 76290H 00000H INT_DME_DATA           FAR_BSS
 762A0H 762BFH 00020H V_SLUPEK_DATA          FAR_BSS
 762D0H 762EFH 00020H D_SLUPEK_DATA          FAR_BSS
 76300H 76AA8H 007A9H DRAWEPSON_DATA         FAR_BSS
 76AB0H 76BC1H 00112H PRINT_DATA             FAR_BSS
 76BD0H 76BD0H 00000H VORR_AVERAGE_DATA      FAR_BSS
 76BE0H 76BF4H 00015H PRINTCNTROLL_DATA      FAR_BSS
 76C00H 76C00H 00000H KL_FGENERATORS_DATA    FAR_BSS
 76C10H 76C16H 00007H NAVINTERFACE_DATA      FAR_BSS
 76C20H 76C23H 00004H ARINC_DATA             FAR_BSS
 76C30H 76C30H 00000H NUMBERCONVERSION_DATA  FAR_BSS
 76C40H 76C40H 00000H SOUNDS_DATA            FAR_BSS
 76C50H 76C50H 00000H DEVICES_DATA           FAR_BSS
 76C60H 76C6EH 0000FH MOUSE_DATA             FAR_BSS
 76C70H 76C71H 00002H TERMINAL_DATA          FAR_BSS
 76C80H 76D12H 00093H TERMBASE_DATA          FAR_BSS
 76D20H 76D20H 00000H ASCII_DATA             FAR_BSS
 76D30H 76D30H 00000H DISPLAY_DATA           FAR_BSS
 76D40H 76DC7H 00088H KEYBOARD_DATA          FAR_BSS
 76DD0H 76DD0H 00000H DOSMEMORY_DATA         FAR_BSS
 76DE0H 7A877H 03A98H STACK                  STACK
 7A880H 7A880H 00000H FREE                   FREE_BSS

 Origin   Group
 5670:0   DGROUP

  Address         Publics by Name

 76C2:0000       $BD__ARINC
 5670:0000       $BD__AT
 748D:0000       $BD__AltInterface
 6B05:0000       $BD__Buttons
 70ED:0000       $BD__CocpDsp
 5926:0000       $BD__CommonData
 56FF:0000       $BD__CommonTypes
 5704:0000       $BD__Czas
 5A0F:0000       $BD__DGHIni
 6A9B:0000       $BD__DGHInterface
 761D:0000       $BD__DGH_utils
 7492:0000       $BD__DMEPrint
 5676:0000       $BD__DOSEntry
 5700:0000       $BD__D_CommonTypes
 7489:0000       $BD__D_Count
 748A:0000       $BD__D_DAcquizition
 70FC:0000       $BD__D_DisResults
 5724:0000       $BD__D_Files
 6AA2:0000       $BD__D_Odb
 762D:0000       $BD__D_Slupek
 5730:0000       $BD__D_results
 5BBE:0000       $BD__DataCollect
 6B06:0000       $BD__Dialog
 74A3:0000       $BD__DigiRS
 70FB:0000       $BD__DisResUtilities
 7630:0000       $BD__DrawEpson
 56A1:0000       $BD__ErrorMess
 5B08:0000       $BD__EventsMng
 5672:0000       $BD__FCBS
 69D9:0000       $BD__FIO
 74A5:0000       $BD__FIltr1St
 593C:0000       $BD__Files
 5703:0000       $BD__FlagAnal
 6AFC:0000       $BD__GList
 5A0C:0000       $BD__GPSRead
 74AF:0000       $BD__GPS_TRIMBLE
 74A6:0000       $BD__GPS_nov
 6BBB:0000       $BD__GeoArithmetic
 59BC:0000       $BD__GrafTypes
 6AFD:0000       $BD__GrafUtil
 59A6:0000       $BD__Graphics
 59FF:0000       $BD__HRD_Clock
 6B07:0000       $BD__HiLevGraf
 6BBF:0000       $BD__Ini
 6B0D:0000       $BD__InpLine
 7629:0000       $BD__Int_DME
 74DC:0000       $BD__Kalibracja
 76C0:0000       $BD__Kl_FGenerators
 567F:0000       $BD__MANAGER
 572F:0000       $BD__MMA_Cout
 59BD:0000       $BD__MMMouse
 6B8E:0000       $BD__Mapa
 74B7:0000       $BD__Marks
 74A4:0000       $BD__Math
 59A1:0000       $BD__Messages
 59A3:0000       $BD__MsgBox
 76C1:0000       $BD__NAVInterface
 6B95:0000       $BD__Obloty
 5995:0000       $BD__PI_Analiza
 5999:0000       $BD__PI_ArchDate
 599A:0000       $BD__PI_Drukuj
 5920:0000       $BD__PI_Glowny
 5707:0000       $BD__PI_PA
 5998:0000       $BD__PI_Pomiar
 70F2:0000       $BD__PI_ScrUtility
 6B0E:0000       $BD__PI_ZoomSpecific
 70FD:0000       $BD__PiszEventy
 74B8:0000       $BD__Polozenie
 5978:0000       $BD__Pomiar
 76AB:0000       $BD__Print
 76BE:0000       $BD__PrintCntroll
 5603:0000       $BD__RTSCoroutine
 55E4:0000       $BD__RTSMain
 7621:0000       $BD__Random
 6BBE:0000       $BD__RealConversions
 5A00:0000       $BD__ScannerI
 5982:0000       $BD__Screen
 70F4:0000       $BD__ScreenCTypes
 749D:0000       $BD__Semafory
 59FE:0000       $BD__ShortCuts
 5706:0000       $BD__SimScanner
 70F3:0000       $BD__Slupek
 599B:0000       $BD__SoftIntHandlingManager
 5702:0000       $BD__SpecConv
 59A2:0000       $BD__StdIO
 599C:0000       $BD__Storage
 70EC:0000       $BD__SwitchCntrl
 5924:0000       $BD__T_Inspekcja
 5921:0000       $BD__T_Oblot
 5A06:0000       $BD__TheodolitRead
 599F:0000       $BD__Timer
 5708:0000       $BD__Tune
 56FE:0000       $BD__VORO_avrage
 7493:0000       $BD__VORPrint
 76BD:0000       $BD__VORR_Average
 595E:0000       $BD__V_CP_ControlProc
 5701:0000       $BD__V_CommonTypes
 70FE:0000       $BD__V_Count
 748B:0000       $BD__V_DAcquizition
 70CE:0000       $BD__V_Database
 70FA:0000       $BD__V_DisResults
 5713:0000       $BD__V_Files
 6A9D:0000       $BD__V_Odb
 762A:0000       $BD__V_Slupek
 56A2:0000       $BD__V_results
 59A5:0000       $BD__WorseBecause
 70F0:0000       $BD__Wykres
 59BA:0000       $BD__XMS
 59BB:0000       $BD__XMSService
 70F1:0000       $BD__XMSTable
 6AA6:0000       $BD__Zoom
 591C:0000       $BD__ZoomInterface
 5145:0000       $BM__ARINC
 0001:0000       $BM__AT
 4020:0000       $BM__AltInterface
 54CB:0000       $BM__BitByteOps
 5404:0000       $BM__BlockOps
 29A8:0000       $BM__Buttons
 3510:0000       $BM__CocpDsp
 0C8D:0000       $BM__CommonData
 037E:0000       $BM__CommonTypes
 05AA:0000       $BM__Czas
 1EA9:0000       $BM__DGHIni
 22F2:0000       $BM__DGHInterface
 4AC8:0000       $BM__DGH_utils
 4052:0000       $BM__DMEPrint
 0078:0000       $BM__DOSEntry
 0391:0000       $BM__D_CommonTypes
 3ECE:0000       $BM__D_Count
 3F42:0000       $BM__D_DAcquizition
 3AE4:0000       $BM__D_DisResults
 081E:0000       $BM__D_Files
 24C1:0000       $BM__D_Odb
 4C19:0000       $BM__D_Slupek
 091F:0000       $BM__D_results
 2026:0000       $BM__DataCollect
 2A86:0000       $BM__Dialog
 43B5:0000       $BM__DigiRS
 3AAB:0000       $BM__DisResUtilities
 4C92:0000       $BM__DrawEpson
 53E3:0000       $BM__DynMem
 0271:0000       $BM__ErrorMess
 1F81:0000       $BM__EventsMng
 0070:0000       $BM__FCBS
 224D:0000       $BM__FIO
 4406:0000       $BM__FIltr1St
 0C9A:0000       $BM__Files
 053C:0000       $BM__FlagAnal
 27ED:0000       $BM__GList
 1E3D:0000       $BM__GPSRead
 459F:0000       $BM__GPS_TRIMBLE
 447F:0000       $BM__GPS_nov
 3194:0000       $BM__GeoArithmetic
 1AF7:0000       $BM__GrafTypes
 2985:0000       $BM__GrafUtil
 1981:0000       $BM__Graphics
 1CE1:0000       $BM__HRD_Clock
 2C1C:0000       $BM__HiLevGraf
 3325:0000       $BM__Ini
 2D8B:0000       $BM__InpLine
 4B95:0000       $BM__Int_DME
 47E6:0000       $BM__Kalibracja
 50BE:0000       $BM__Kl_FGenerators
 0090:0000       $BM__MANAGER
 08FF:0000       $BM__MMA_Cout
 1B16:0000       $BM__MMMouse
 2F16:0000       $BM__Mapa
 462F:0000       $BM__Marks
 43E7:0000       $BM__Math
 552C:0000       $BM__MathLib0
 176C:0000       $BM__Messages
 1905:0000       $BM__MsgBox
 510F:0000       $BM__NAVInterface
 2FCC:0000       $BM__Obloty
 14E9:0000       $BM__PI_Analiza
 15CB:0000       $BM__PI_ArchDate
 15DE:0000       $BM__PI_Drukuj
 0A0A:0000       $BM__PI_Glowny
 0648:0000       $BM__PI_PA
 1565:0000       $BM__PI_Pomiar
 3896:0000       $BM__PI_ScrUtility
 2E5D:0000       $BM__PI_ZoomSpecific
 3B3E:0000       $BM__PiszEventy
 46C3:0000       $BM__Polozenie
 1012:0000       $BM__Pomiar
 4DD9:0000       $BM__Print
 502F:0000       $BM__PrintCntroll
 52A0:0000       $BM__RTSCoroutine
 527E:0000       $BM__RTSDevice
 51F9:0000       $BM__RTSMain
 4B53:0000       $BM__Random
 3272:0000       $BM__RealConversions
 1D08:0000       $BM__ScannerI
 116E:0000       $BM__Screen
 3999:0000       $BM__ScreenCTypes
 436F:0000       $BM__Semafory
 1C67:0000       $BM__ShortCuts
 05E1:0000       $BM__SimScanner
 392A:0000       $BM__Slupek
 15E4:0000       $BM__SoftIntHandlingManager
 039C:0000       $BM__SpecConv
 17B7:0000       $BM__StdIO
 1644:0000       $BM__Storage
 34FD:0000       $BM__SwitchCntrl
 0B40:0000       $BM__T_Inspekcja
 0A18:0000       $BM__T_Oblot
 1D33:0000       $BM__TheodolitRead
 16A0:0000       $BM__Timer
 064B:0000       $BM__Tune
 02E1:0000       $BM__VORO_avrage
 419E:0000       $BM__VORPrint
 4F82:0000       $BM__VORR_Average
 0F57:0000       $BM__V_CP_ControlProc
 0399:0000       $BM__V_CommonTypes
 3C62:0000       $BM__V_Count
 3FAB:0000       $BM__V_DAcquizition
 3443:0000       $BM__V_Database
 39B3:0000       $BM__V_DisResults
 0710:0000       $BM__V_Files
 23FA:0000       $BM__V_Odb
 4BA4:0000       $BM__V_Slupek
 0286:0000       $BM__V_results
 1973:0000       $BM__WorseBecause
 35E9:0000       $BM__Wykres
 1A94:0000       $BM__XMS
 1AAB:0000       $BM__XMSService
 3860:0000       $BM__XMSTable
 2573:0000       $BM__Zoom
 0966:0000       $BM__ZoomInterface
 5145:093D       $BODY__ARINC
 0001:001F       $BODY__AT
 4020:0214       $BODY__AltInterface
 1B16:0B15       $BODY__BezPrzerwanOdMyszy__MMMo
 29A8:0D61       $BODY__Buttons
 3510:0C4D       $BODY__CocpDsp
 0C8D:0012       $BODY__CommonData
 037E:00F4       $BODY__CommonTypes
 05AA:02E0       $BODY__Czas
 1EA9:0D08       $BODY__DGHIni
 22F2:0F7B       $BODY__DGHInterface
 4AC8:0734       $BODY__DGH_utils
 4052:1425       $BODY__DMEPrint
 0078:00C2       $BODY__DOSEntry
 0391:004A       $BODY__D_CommonTypes
 3ECE:06CB       $BODY__D_Count
 3F42:05C2       $BODY__D_DAcquizition
 3AE4:053A       $BODY__D_DisResults
 081E:0D80       $BODY__D_Files
 24C1:0A98       $BODY__D_Odb
 4C19:071D       $BODY__D_Slupek
 091F:038B       $BODY__D_results
 2026:21DF       $BODY__DataCollect
 2A86:18C2       $BODY__Dialog
 43B5:02D4       $BODY__DigiRS
 3AAB:0340       $BODY__DisResUtilities
 4C92:138C       $BODY__DrawEpson
 47E6:09DC       $BODY__ErrorHand__Kalibracja
 0271:00E1       $BODY__ErrorMess
 1F81:09B8       $BODY__EventsMng
 0070:0037       $BODY__FCBS
 224D:09F0       $BODY__FIO
 4406:0737       $BODY__FIltr1St
 0C9A:2B3D       $BODY__Files
 053C:06A0       $BODY__FlagAnal
 27ED:18FD       $BODY__GList
 1E3D:05FA       $BODY__GPSRead
 459F:084A       $BODY__GPS_TRIMBLE
 447F:10EC       $BODY__GPS_nov
 3194:0D90       $BODY__GeoArithmetic
 1AF7:01C5       $BODY__GrafTypes
 2985:017A       $BODY__GrafUtil
 1981:10C2       $BODY__Graphics
 1CE1:0242       $BODY__HRD_Clock
 2C1C:1630       $BODY__HiLevGraf
 3325:1139       $BODY__Ini
 2D8B:0C9E       $BODY__InpLine
 4B95:00C8       $BODY__Int_DME
 47E6:2C81       $BODY__Kalibracja
 50BE:04D9       $BODY__Kl_FGenerators
 0090:1B1A       $BODY__MANAGER
 08FF:01BF       $BODY__MMA_Cout
 1B16:134F       $BODY__MMMouse
 29A8:041B       $BODY__MONITOR__Buttons
 2F16:0A4F       $BODY__Mapa
 462F:08FD       $BODY__Marks
 43E7:01BD       $BODY__Math
 176C:0411       $BODY__Messages
 3F42:011B       $BODY__Monitor__D_DAcquizition
 15E4:0590       $BODY__Monitor__SoftIntHandling
 16A0:08D4       $BODY__Monitor__Timer
 3FAB:0133       $BODY__Monitor__V_DAcquizition
 14E9:04A9       $BODY__MouseMonitor__PI_Analiza
 1905:0680       $BODY__MsgBox
 510F:02F2       $BODY__NAVInterface
 2FCC:1B9E       $BODY__Obloty
 14E9:072D       $BODY__PI_Analiza
 15CB:00C4       $BODY__PI_ArchDate
 15DE:0028       $BODY__PI_Drukuj
 0A0A:0092       $BODY__PI_Glowny
 0648:0002       $BODY__PI_PA
 1565:05C5       $BODY__PI_Pomiar
 3896:08E1       $BODY__PI_ScrUtility
 2E5D:0B04       $BODY__PI_ZoomSpecific
 3B3E:1199       $BODY__PiszEventy
 46C3:1164       $BODY__Polozenie
 1012:14E0       $BODY__Pomiar
 4DD9:19A5       $BODY__Print
 502F:085B       $BODY__PrintCntroll
 51F9:0743       $BODY__RTSMain
 4B53:03DC       $BODY__Random
 3272:0AF9       $BODY__RealConversions
 1D08:014C       $BODY__ScannerI
 0090:1357       $BODY__Scheduler__MANAGER
 116E:36D9       $BODY__Screen
 3999:016B       $BODY__ScreenCTypes
 436F:041D       $BODY__Semafory
 1C67:070A       $BODY__ShortCuts
 05E1:0602       $BODY__SimScanner
 392A:06A7       $BODY__Slupek
 15E4:05BE       $BODY__SoftIntHandlingManager
 039C:19B9       $BODY__SpecConv
 17B7:149F       $BODY__StdIO
 1644:0544       $BODY__Storage
 34FD:00D4       $BODY__SwitchCntrl
 0B40:13E8       $BODY__T_Inspekcja
 0A18:1144       $BODY__T_Oblot
 1D33:0EE0       $BODY__TheodolitRead
 16A0:0C72       $BODY__Timer
 064B:0A08       $BODY__Tune
 02E1:0985       $BODY__VORO_avrage
 419E:1C65       $BODY__VORPrint
 4F82:0A94       $BODY__VORR_Average
 0F57:0AF3       $BODY__V_CP_ControlProc
 0399:0002       $BODY__V_CommonTypes
 3C62:2637       $BODY__V_Count
 3FAB:0671       $BODY__V_DAcquizition
 3443:0AF8       $BODY__V_Database
 39B3:0EE2       $BODY__V_DisResults
 0710:1046       $BODY__V_Files
 23FA:0BCA       $BODY__V_Odb
 4BA4:06DF       $BODY__V_Slupek
 0286:04D3       $BODY__V_results
 1973:00A5       $BODY__WorseBecause
 35E9:270A       $BODY__Wykres
 1AAB:0450       $BODY__XMSService
 3860:0325       $BODY__XMSTable
 2573:26F2       $BODY__Zoom
 0966:098F       $BODY__ZoomInterface
 2F16:09BA       $BODY__monitor__Mapa
 1C67:0532       $BODY__monitor__ShortCuts
 5599:0000       $DD
 76C2:0004       $ED__ARINC
 5670:0010       $ED__AT
 748D:0048       $ED__AltInterface
 6B05:0009       $ED__Buttons
 70ED:0028       $ED__CocpDsp
 5926:0156       $ED__CommonData
 56FF:0000       $ED__CommonTypes
 5704:0014       $ED__Czas
 5A0F:0F8E       $ED__DGHIni
 6A9B:0018       $ED__DGHInterface
 761D:0036       $ED__DGH_utils
 7492:0000       $ED__DMEPrint
 5676:0088       $ED__DOSEntry
 5700:0000       $ED__D_CommonTypes
 7489:0000       $ED__D_Count
 748A:000E       $ED__D_DAcquizition
 70FC:0000       $ED__D_DisResults
 5724:00A4       $ED__D_Files
 6AA2:003B       $ED__D_Odb
 762D:0020       $ED__D_Slupek
 5730:1EB2       $ED__D_results
 5BBE:E1AE       $ED__DataCollect
 6B06:0008       $ED__Dialog
 74A3:0002       $ED__DigiRS
 70FB:0000       $ED__DisResUtilities
 7630:07A9       $ED__DrawEpson
 56A1:0000       $ED__ErrorMess
 5B08:0B50       $ED__EventsMng
 5672:003D       $ED__FCBS
 69D9:0C12       $ED__FIO
 74A5:0008       $ED__FIltr1St
 593C:0219       $ED__Files
 5703:0000       $ED__FlagAnal
 6AFC:0008       $ED__GList
 5A0C:0022       $ED__GPSRead
 74AF:0072       $ED__GPS_TRIMBLE
 74A6:0084       $ED__GPS_nov
 6BBB:0022       $ED__GeoArithmetic
 59BC:0000       $ED__GrafTypes
 6AFD:0070       $ED__GrafUtil
 59A6:0130       $ED__Graphics
 59FF:0000       $ED__HRD_Clock
 6B07:005D       $ED__HiLevGraf
 6BBF:50E4       $ED__Ini
 6B0D:0004       $ED__InpLine
 7629:0000       $ED__Int_DME
 74DC:1401       $ED__Kalibracja
 76C0:0000       $ED__Kl_FGenerators
 567F:021E       $ED__MANAGER
 572F:0000       $ED__MMA_Cout
 59BD:0401       $ED__MMMouse
 6B8E:0064       $ED__Mapa
 74B7:0000       $ED__Marks
 74A4:0000       $ED__Math
 59A1:000E       $ED__Messages
 59A3:0016       $ED__MsgBox
 76C1:0007       $ED__NAVInterface
 6B95:025F       $ED__Obloty
 5995:0021       $ED__PI_Analiza
 5999:0000       $ED__PI_ArchDate
 599A:0000       $ED__PI_Drukuj
 5920:0000       $ED__PI_Glowny
 5707:0001       $ED__PI_PA
 5998:0000       $ED__PI_Pomiar
 70F2:000D       $ED__PI_ScrUtility
 6B0E:07FD       $ED__PI_ZoomSpecific
 70FD:0006       $ED__PiszEventy
 74B8:0235       $ED__Polozenie
 5978:0095       $ED__Pomiar
 76AB:0112       $ED__Print
 76BE:0015       $ED__PrintCntroll
 5603:0003       $ED__RTSCoroutine
 55E4:01DD       $ED__RTSMain
 7621:0072       $ED__Random
 6BBE:0000       $ED__RealConversions
 5A00:0057       $ED__ScannerI
 5982:012D       $ED__Screen
 70F4:0054       $ED__ScreenCTypes
 749D:0054       $ED__Semafory
 59FE:000E       $ED__ShortCuts
 5706:0004       $ED__SimScanner
 70F3:0000       $ED__Slupek
 599B:0005       $ED__SoftIntHandlingManager
 5702:0000       $ED__SpecConv
 59A2:0000       $ED__StdIO
 599C:0027       $ED__Storage
 70EC:000E       $ED__SwitchCntrl
 5924:0017       $ED__T_Inspekcja
 5921:0026       $ED__T_Oblot
 5A06:0057       $ED__TheodolitRead
 599F:0014       $ED__Timer
 5708:00A6       $ED__Tune
 56FE:0000       $ED__VORO_avrage
 7493:0090       $ED__VORPrint
 76BD:0000       $ED__VORR_Average
 595E:0196       $ED__V_CP_ControlProc
 5701:0001       $ED__V_CommonTypes
 70FE:38A0       $ED__V_Count
 748B:0014       $ED__V_DAcquizition
 70CE:01DD       $ED__V_Database
 70FA:000C       $ED__V_DisResults
 5713:0104       $ED__V_Files
 6A9D:004B       $ED__V_Odb
 762A:0020       $ED__V_Slupek
 56A2:05B1       $ED__V_results
 59A5:0000       $ED__WorseBecause
 70F0:0000       $ED__Wykres
 59BA:0004       $ED__XMS
 59BB:0004       $ED__XMSService
 70F1:0000       $ED__XMSTable
 6AA6:0557       $ED__Zoom
 591C:0030       $ED__ZoomInterface
 5145:096F       $EM__ARINC
 54DC:0024       $EM__ASCII
 0001:06ED       $EM__AT
 4020:030F       $EM__AltInterface
 54CB:0109       $EM__BitByteOps
 5404:0108       $EM__BlockOps
 29A8:0DD7       $EM__Buttons
 3510:0D8C       $EM__CocpDsp
 0C8D:00CC       $EM__CommonData
 037E:011F       $EM__CommonTypes
 05AA:0369       $EM__Czas
 1EA9:0D73       $EM__DGHIni
 22F2:1079       $EM__DGHInterface
 4AC8:08A4       $EM__DGH_utils
 4052:14BE       $EM__DMEPrint
 0078:017A       $EM__DOSEntry
 5500:02B8       $EM__DOSMemory
 0391:0075       $EM__D_CommonTypes
 3ECE:0732       $EM__D_Count
 3F42:0682       $EM__D_DAcquizition
 3AE4:0592       $EM__D_DisResults
 081E:0E08       $EM__D_Files
 24C1:0B18       $EM__D_Odb
 4C19:078B       $EM__D_Slupek
 091F:0460       $EM__D_results
 2026:226E       $EM__DataCollect
 53D7:00BA       $EM__Devices
 2A86:195B       $EM__Dialog
 43B5:031C       $EM__DigiRS
 3AAB:0389       $EM__DisResUtilities
 54DF:009C       $EM__Display
 4C92:1462       $EM__DrawEpson
 53E3:0204       $EM__DynMem
 0271:0145       $EM__ErrorMess
 1F81:0A4A       $EM__EventsMng
 0070:0071       $EM__FCBS
 224D:0A45       $EM__FIO
 4406:0786       $EM__FIltr1St
 0C9A:2BCB       $EM__Files
 053C:06DA       $EM__FlagAnal
 27ED:197C       $EM__GList
 1E3D:06B3       $EM__GPSRead
 459F:08F8       $EM__GPS_TRIMBLE
 447F:11FD       $EM__GPS_nov
 3194:0DD5       $EM__GeoArithmetic
 1AF7:01E6       $EM__GrafTypes
 2985:0220       $EM__GrafUtil
 1981:1121       $EM__Graphics
 1CE1:026D       $EM__HRD_Clock
 2C1C:16E3       $EM__HiLevGraf
 3325:11D8       $EM__Ini
 2D8B:0D16       $EM__InpLine
 4B95:00EE       $EM__Int_DME
 47E6:2E15       $EM__Kalibracja
 54E9:0167       $EM__Keyboard
 50BE:04FF       $EM__Kl_FGenerators
 0090:1E0C       $EM__MANAGER
 08FF:01F4       $EM__MMA_Cout
 1B16:1502       $EM__MMMouse
 2F16:0B50       $EM__Mapa
 462F:0937       $EM__Marks
 43E7:01E8       $EM__Math
 552C:06C4       $EM__MathLib0
 176C:04A8       $EM__Messages
 5415:02B1       $EM__Mouse
 1905:06DB       $EM__MsgBox
 510F:0351       $EM__NAVInterface
 5319:063B       $EM__NumberConversion
 2FCC:1C75       $EM__Obloty
 14E9:07B0       $EM__PI_Analiza
 15CB:012B       $EM__PI_ArchDate
 15DE:0053       $EM__PI_Drukuj
 0A0A:00D6       $EM__PI_Glowny
 0648:002D       $EM__PI_PA
 1565:0654       $EM__PI_Pomiar
 3896:092F       $EM__PI_ScrUtility
 2E5D:0B7F       $EM__PI_ZoomSpecific
 3B3E:1233       $EM__PiszEventy
 46C3:1225       $EM__Polozenie
 1012:15AF       $EM__Pomiar
 4DD9:1A80       $EM__Print
 502F:08E0       $EM__PrintCntroll
 52A0:01A7       $EM__RTSCoroutine
 527E:0140       $EM__RTSDevice
 51F9:076F       $EM__RTSMain
 4B53:0410       $EM__Random
 3272:0B1F       $EM__RealConversions
 1D08:02A8       $EM__ScannerI
 116E:37A6       $EM__Screen
 3999:019E       $EM__ScreenCTypes
 436F:0453       $EM__Semafory
 1C67:079B       $EM__ShortCuts
 05E1:066E       $EM__SimScanner
 392A:06E6       $EM__Slupek
 15E4:05F6       $EM__SoftIntHandlingManager
 537D:0061       $EM__Sounds
 039C:19F8       $EM__SpecConv
 17B7:14D9       $EM__StdIO
 1644:05B8       $EM__Storage
 34FD:012E       $EM__SwitchCntrl
 0B40:14C3       $EM__T_Inspekcja
 0A18:1275       $EM__T_Oblot
 548C:03E5       $EM__Termbase
 546F:01C6       $EM__Terminal
 1D33:1095       $EM__TheodolitRead
 16A0:0CBD       $EM__Timer
 064B:0C49       $EM__Tune
 02E1:09BF       $EM__VORO_avrage
 419E:1D0E       $EM__VORPrint
 4F82:0ACE       $EM__VORR_Average
 0F57:0BA9       $EM__V_CP_ControlProc
 0399:0028       $EM__V_CommonTypes
 3C62:26B2       $EM__V_Count
 3FAB:0745       $EM__V_DAcquizition
 3443:0B98       $EM__V_Database
 39B3:0F7A       $EM__V_DisResults
 0710:10D3       $EM__V_Files
 23FA:0C61       $EM__V_Odb
 4BA4:0748       $EM__V_Slupek
 0286:05AA       $EM__V_results
 1973:00D0       $EM__WorseBecause
 35E9:2762       $EM__Wykres
 1A94:012A       $EM__XMS
 1AAB:04BE       $EM__XMSService
 3860:035A       $EM__XMSTable
 2573:2796       $EM__Zoom
 0966:0A32       $EM__ZoomInterface
 5145:0954       $INIT__ARINC
 54DC:0009       $INIT__ASCII
 4020:02DB       $INIT__AltInterface
 54CB:0108       $INIT__BitByteOps
 5404:0107       $INIT__BlockOps
 29A8:0D80       $INIT__Buttons
 3510:0D49       $INIT__CocpDsp
 0C8D:00A7       $INIT__CommonData
 037E:00FA       $INIT__CommonTypes
 05AA:0308       $INIT__Czas
 1EA9:0D49       $INIT__DGHIni
 22F2:102C       $INIT__DGHInterface
 4AC8:084D       $INIT__DGH_utils
 4052:142B       $INIT__DMEPrint
 0078:0150       $INIT__DOSEntry
 5500:0298       $INIT__DOSMemory
 0391:0050       $INIT__D_CommonTypes
 3ECE:06D1       $INIT__D_Count
 3F42:05E5       $INIT__D_DAcquizition
 3AE4:0540       $INIT__D_DisResults
 081E:0D89       $INIT__D_Files
 24C1:0AAD       $INIT__D_Odb
 4C19:0743       $INIT__D_Slupek
 091F:0413       $INIT__D_results
 2026:2221       $INIT__DataCollect
 53CD:0000       $INIT__DebugPMD
 53D7:009A       $INIT__Devices
 2A86:18EB       $INIT__Dialog
 43B5:02F2       $INIT__DigiRS
 3AAB:0346       $INIT__DisResUtilities
 54DF:007C       $INIT__Display
 4C92:1415       $INIT__DrawEpson
 53E3:0203       $INIT__DynMem
 0271:010C       $INIT__ErrorMess
 1F81:09EE       $INIT__EventsMng
 0070:004C       $INIT__FCBS
 224D:0A16       $INIT__FIO
 4406:0757       $INIT__FIltr1St
 0C9A:2B56       $INIT__Files
 053C:06A6       $INIT__FlagAnal
 27ED:1920       $INIT__GList
 1E3D:0670       $INIT__GPSRead
 459F:08B5       $INIT__GPS_TRIMBLE
 447F:11A6       $INIT__GPS_nov
 3194:0DA1       $INIT__GeoArithmetic
 1AF7:01CB       $INIT__GrafTypes
 2985:01D3       $INIT__GrafUtil
 1981:10F2       $INIT__Graphics
 1CE1:0248       $INIT__HRD_Clock
 2C1C:1678       $INIT__HiLevGraf
 3325:119F       $INIT__Ini
 2D8B:0CB5       $INIT__InpLine
 4B95:00CE       $INIT__Int_DME
 47E6:2DA5       $INIT__Kalibracja
 54E9:0142       $INIT__Keyboard
 50BE:04DF       $INIT__Kl_FGenerators
 5441:02DE       $INIT__Longs
 0090:1DCE       $INIT__MANAGER
 08FF:01C5       $INIT__MMA_Cout
 1B16:14AB       $INIT__MMMouse
 2F16:0AF4       $INIT__Mapa
 462F:0903       $INIT__Marks
 43E7:01C3       $INIT__Math
 552C:06AF       $INIT__MathLib0
 176C:046A       $INIT__Messages
 5415:0296       $INIT__Mouse
 1905:0689       $INIT__MsgBox
 510F:0322       $INIT__NAVInterface
 5319:0620       $INIT__NumberConversion
 2FCC:1C0F       $INIT__Obloty
 14E9:0736       $INIT__PI_Analiza
 15CB:00CA       $INIT__PI_ArchDate
 15DE:002E       $INIT__PI_Drukuj
 0A0A:0098       $INIT__PI_Glowny
 0648:0012       $INIT__PI_PA
 1565:05CB       $INIT__PI_Pomiar
 3896:08E7       $INIT__PI_ScrUtility
 2E5D:0B0A       $INIT__PI_ZoomSpecific
 3B3E:11AA       $INIT__PiszEventy
 46C3:11C4       $INIT__Polozenie
 1012:153F       $INIT__Pomiar
 4DD9:19F2       $INIT__Print
 502F:0861       $INIT__PrintCntroll
 51E3:0000       $INIT__RTS87
 52BB:0000       $INIT__RTSCoroutine
 5293:0000       $INIT__RTSDevice
 51F6:0000       $INIT__RTSError
 52E1:0000       $INIT__RTSInterrupt
 527D:0000       $INIT__RTSLanguage
 51F9:0731       $INIT__RTSMain
 51F9:0770       $INIT__RTSMonExit
 529F:0000       $INIT__RTSPriority
 52E7:0000       $INIT__RTSRealError
 4B53:03E6       $INIT__Random
 3272:0AFF       $INIT__RealConversions
 1D08:0265       $INIT__ScannerI
 116E:36F5       $INIT__Screen
 3999:0174       $INIT__ScreenCTypes
 436F:0433       $INIT__Semafory
 1C67:0762       $INIT__ShortCuts
 05E1:0608       $INIT__SimScanner
 392A:06AD       $INIT__Slupek
 15E4:05D1       $INIT__SoftIntHandlingManager
 537D:0046       $INIT__Sounds
 039C:19BF       $INIT__SpecConv
 17B7:14A5       $INIT__StdIO
 1644:058E       $INIT__Storage
 52E8:0303       $INIT__Strings
 34FD:0109       $INIT__SwitchCntrl
 0B40:1421       $INIT__T_Inspekcja
 0A18:11A1       $INIT__T_Oblot
 548C:03BB       $INIT__Termbase
 546F:01A1       $INIT__Terminal
 1D33:1039       $INIT__TheodolitRead
 16A0:0C8E       $INIT__Timer
 064B:0C0B       $INIT__Tune
 02E1:098B       $INIT__VORO_avrage
 419E:1C76       $INIT__VORPrint
 4F82:0A9A       $INIT__VORR_Average
 0F57:0B48       $INIT__V_CP_ControlProc
 0399:0008       $INIT__V_CommonTypes
 3C62:263D       $INIT__V_Count
 3FAB:0694       $INIT__V_DAcquizition
 3443:0B2D       $INIT__V_Database
 39B3:0F1E       $INIT__V_DisResults
 0710:104F       $INIT__V_Files
 23FA:0BFB       $INIT__V_Odb
 4BA4:0705       $INIT__V_Slupek
 0286:0558       $INIT__V_results
 1973:00AB       $INIT__WorseBecause
 35E9:2710       $INIT__Wykres
 1AA7:0000       $INIT__XMS
 1AAB:0485       $INIT__XMSService
 3860:032B       $INIT__XMSTable
 2573:270D       $INIT__Zoom
 0966:09BD       $INIT__ZoomInterface
 5599:0000       $MN__AT
 5599:0394       $OK__01mar90_1621_OF_ASCII
 5599:03A6       $OK__01mar90_1621_OF_DOSMemory
 5599:039A       $OK__01mar90_1621_OF_Display
 5599:03A0       $OK__01mar90_1621_OF_Keyboard
 5599:0352       $OK__01mar90_1621_OF_NumberConv
 5599:0388       $OK__01mar90_1621_OF_Termbase
 5599:0382       $OK__01mar90_1621_OF_Terminal
 5599:0364       $OK__01mar90_1622_OF_Devices
 5599:0376       $OK__01mar90_1622_OF_Mouse
 5599:0358       $OK__01mar90_1622_OF_Sounds
 5599:037C       $OK__05feb87_1233_OF_Longs
 5599:031C       $OK__10jul87_1400_OF_RTSError
 5599:0346       $OK__10jul87_1400_OF_RTSRealErr
 5599:0328       $OK__10jul87_1401_OF_RTSLanguag
 5599:0340       $OK__10jul87_1402_OF_RTSInterru
 5599:0316       $OK__10jul87_1403_OF_RTS87
 5599:0334       $OK__10jul87_1404_OF_RTSPriorit
 5599:0310       $OK__10jul99_1214_OF_ARINC
 5599:0286       $OK__10jul99_1214_OF_AltInterfa
 5599:01EA       $OK__10jul99_1214_OF_Buttons
 5599:0232       $OK__10jul99_1214_OF_CocpDsp
 5599:0118       $OK__10jul99_1214_OF_CommonData
 5599:00B2       $OK__10jul99_1214_OF_CommonType
 5599:00D0       $OK__10jul99_1214_OF_Czas
 5599:01AE       $OK__10jul99_1214_OF_DGHIni
 5599:01C6       $OK__10jul99_1214_OF_DGHInterfa
 5599:02CE       $OK__10jul99_1214_OF_DGH_utils
 5599:0094       $OK__10jul99_1214_OF_DOSEntry
 5599:00B8       $OK__10jul99_1214_OF_D_CommonTy
 5599:01F0       $OK__10jul99_1214_OF_Dialog
 5599:029E       $OK__10jul99_1214_OF_DigiRS
 5599:00A0       $OK__10jul99_1214_OF_ErrorMess
 5599:008E       $OK__10jul99_1214_OF_FCBS
 5599:01C0       $OK__10jul99_1214_OF_FIO
 5599:02AA       $OK__10jul99_1214_OF_FIltr1St
 5599:00CA       $OK__10jul99_1214_OF_FlagAnal
 5599:01DE       $OK__10jul99_1214_OF_GList
 5599:02B6       $OK__10jul99_1214_OF_GPS_TRIMBL
 5599:02B0       $OK__10jul99_1214_OF_GPS_nov
 5599:0184       $OK__10jul99_1214_OF_GrafTypes
 5599:01E4       $OK__10jul99_1214_OF_GrafUtil
 5599:0178       $OK__10jul99_1214_OF_Graphics
 5599:0196       $OK__10jul99_1214_OF_HRD_Clock
 5599:01F6       $OK__10jul99_1214_OF_HiLevGraf
 5599:0220       $OK__10jul99_1214_OF_Ini
 5599:01FC       $OK__10jul99_1214_OF_InpLine
 5599:02DA       $OK__10jul99_1214_OF_Int_DME
 5599:02C8       $OK__10jul99_1214_OF_Kalibracja
 5599:0304       $OK__10jul99_1214_OF_Kl_FGenera
 5599:009A       $OK__10jul99_1214_OF_MANAGER
 5599:00F4       $OK__10jul99_1214_OF_MMA_Cout
 5599:018A       $OK__10jul99_1214_OF_MMMouse
 5599:02A4       $OK__10jul99_1214_OF_Math
 5599:0160       $OK__10jul99_1214_OF_Messages
 5599:016C       $OK__10jul99_1214_OF_MsgBox
 5599:030A       $OK__10jul99_1214_OF_NAVInterfa
 5599:020E       $OK__10jul99_1214_OF_Obloty
 5599:021A       $OK__10jul99_1214_OF_RealConver
 5599:0298       $OK__10jul99_1214_OF_Semafory
 5599:0190       $OK__10jul99_1214_OF_ShortCuts
 5599:014E       $OK__10jul99_1214_OF_SoftIntHan
 5599:00C4       $OK__10jul99_1214_OF_SpecConv
 5599:0166       $OK__10jul99_1214_OF_StdIO
 5599:0154       $OK__10jul99_1214_OF_Storage
 5599:022C       $OK__10jul99_1214_OF_SwitchCntr
 5599:01A2       $OK__10jul99_1214_OF_TheodolitR
 5599:015A       $OK__10jul99_1214_OF_Timer
 5599:00E2       $OK__10jul99_1214_OF_Tune
 5599:0172       $OK__10jul99_1214_OF_WorseBecau
 5599:0238       $OK__10jul99_1214_OF_Wykres
 5599:017E       $OK__10jul99_1214_OF_XMSService
 5599:023E       $OK__10jul99_1214_OF_XMSTable
 5599:0000       $OK__10jul99_1215_OF_AT
 5599:028C       $OK__10jul99_1215_OF_DMEPrint
 5599:0274       $OK__10jul99_1215_OF_D_Count
 5599:027A       $OK__10jul99_1215_OF_D_DAcquizi
 5599:0262       $OK__10jul99_1215_OF_D_DisResul
 5599:00EE       $OK__10jul99_1215_OF_D_Files
 5599:01D2       $OK__10jul99_1215_OF_D_Odb
 5599:02E6       $OK__10jul99_1215_OF_D_Slupek
 5599:00FA       $OK__10jul99_1215_OF_D_results
 5599:01BA       $OK__10jul99_1215_OF_DataCollec
 5599:025C       $OK__10jul99_1215_OF_DisResUtil
 5599:02EC       $OK__10jul99_1215_OF_DrawEpson
 5599:01B4       $OK__10jul99_1215_OF_EventsMng
 5599:011E       $OK__10jul99_1215_OF_Files
 5599:01A8       $OK__10jul99_1215_OF_GPSRead
 5599:0214       $OK__10jul99_1215_OF_GeoArithme
 5599:0208       $OK__10jul99_1215_OF_Mapa
 5599:02BC       $OK__10jul99_1215_OF_Marks
 5599:0136       $OK__10jul99_1215_OF_PI_Analiza
 5599:0142       $OK__10jul99_1215_OF_PI_ArchDat
 5599:0148       $OK__10jul99_1215_OF_PI_Drukuj
 5599:0106       $OK__10jul99_1215_OF_PI_Glowny
 5599:00DC       $OK__10jul99_1215_OF_PI_PA
 5599:013C       $OK__10jul99_1215_OF_PI_Pomiar
 5599:0244       $OK__10jul99_1215_OF_PI_ScrUtil
 5599:0202       $OK__10jul99_1215_OF_PI_ZoomSpe
 5599:0268       $OK__10jul99_1215_OF_PiszEventy
 5599:02C2       $OK__10jul99_1215_OF_Polozenie
 5599:012A       $OK__10jul99_1215_OF_Pomiar
 5599:02F2       $OK__10jul99_1215_OF_Print
 5599:02FE       $OK__10jul99_1215_OF_PrintCntro
 5599:02D4       $OK__10jul99_1215_OF_Random
 5599:019C       $OK__10jul99_1215_OF_ScannerI
 5599:0130       $OK__10jul99_1215_OF_Screen
 5599:0250       $OK__10jul99_1215_OF_ScreenCTyp
 5599:00D6       $OK__10jul99_1215_OF_SimScanner
 5599:024A       $OK__10jul99_1215_OF_Slupek
 5599:0112       $OK__10jul99_1215_OF_T_Inspekcj
 5599:010C       $OK__10jul99_1215_OF_T_Oblot
 5599:00AC       $OK__10jul99_1215_OF_VORO_avrag
 5599:0292       $OK__10jul99_1215_OF_VORPrint
 5599:02F8       $OK__10jul99_1215_OF_VORR_Avera
 5599:0124       $OK__10jul99_1215_OF_V_CP_Contr
 5599:00BE       $OK__10jul99_1215_OF_V_CommonTy
 5599:026E       $OK__10jul99_1215_OF_V_Count
 5599:0280       $OK__10jul99_1215_OF_V_DAcquizi
 5599:0226       $OK__10jul99_1215_OF_V_Database
 5599:0256       $OK__10jul99_1215_OF_V_DisResul
 5599:00E8       $OK__10jul99_1215_OF_V_Files
 5599:01CC       $OK__10jul99_1215_OF_V_Odb
 5599:02E0       $OK__10jul99_1215_OF_V_Slupek
 5599:00A6       $OK__10jul99_1215_OF_V_results
 5599:01D8       $OK__10jul99_1215_OF_Zoom
 5599:0100       $OK__10jul99_1215_OF_ZoomInterf
 5599:033A       $OK__15jun87_0924_OF_RTSCorouti
 5599:032E       $OK__15jun87_0924_OF_RTSDevice
 5599:036A       $OK__16jun87_1952_OF_DynMem
 5599:035E       $OK__16jun87_2059_OF_DebugPMD
 5599:0322       $OK__19aug87_1403_OF_RTSMain
 5599:034C       $OK__31jul87_1000_OF_Strings
 5599:038E       $OK__31jul87_1100_OF_BitByteOps
 5599:0370       $OK__31jul87_1300_OF_BlockOps
 5A00:0024       ABOVESL__ScannerI
 74DC:08C0       AGCwartosciProgowD__Kalibracja
 74DC:0870       AGCwartosciProgowM__Kalibracja
 74DC:0800       AGCwartosciProgow__Kalibracja
 748D:0020       ALT_Conver_TabC__AltInterface
 748D:0000       ALT_Conver_Tab__AltInterface
 51DD:003E       AT87Server
 6B0D:0000       Active__InpLine
 51E9:0014       AddrOvf__RTSError
 7630:078E       Adr1__DrawEpson
 7630:0792       Adr2__DrawEpson
 6AA2:0010       Agc__D_Odb
 74B8:0018       AktKat__Polozenie
 74B8:0010       AktOdleglosc__Polozenie
 5A00:0006       AlfaF__ScannerI
 5A00:0002       Alfa__ScannerI
 6B05:0004       AllEnabled__Buttons
 6AA2:0014       Audio__D_Odb
 5A06:0014       Azymut__TheodolitRead
 59A6:000E       BK64Inc__InternalMonitor__Graph
 59A6:000A       BKSizeL__InternalMonitor__Graph
 5978:005A       B_01__Pomiar
 5978:005E       B_02__Pomiar
 5978:0062       B_03__Pomiar
 5978:0066       B_04__Pomiar
 5978:006A       B_05__Pomiar
 5995:000D       B_Abort__MouseMonitor__PI_Anali
 5995:0009       B_Akceptuj__MouseMonitor__PI_An
 5982:0056       B_CURSOR__Screen
 5995:0015       B_DOWN__MouseMonitor__PI_Analiz
 5982:0066       B_DOWN__Screen
 5995:0005       B_Drukuj__MouseMonitor__PI_Anal
 5982:005A       B_LEFT__Screen
 5982:005E       B_RIGHT__Screen
 5995:0011       B_UP__MouseMonitor__PI_Analiza
 5982:0062       B_UP__Screen
 5995:0019       B_XCHG__MouseMonitor__PI_Analiz
 5982:0080       BarOnScreen__Dialog__Screen
 74AF:006E       BladKanaluGPS__GPS_TRIMBLE
 74A6:0080       BladKanaluGPS__GPS_nov
 70CE:01D9       Blad_podczas_wczytywania_opisu_
 6BBF:0012       BuffP__Ini
 6A9B:0000       BufferFull__DGHInterface
 7630:0004       Bufor__DrawEpson
 6BBF:0016       Bufor__Ini
 74B8:0022       Bufor__Polozenie
 6B05:0005       ButtonList__MONITOR__Buttons
 567F:0114       CP__MANAGER
 5706:0000       CalkowitaLiczbaEventow__SimScan
 6B95:0157       CallBackDlaDopasuj__Obloty
 51E9:001E       CardOvf__RTSError
 51E9:0000       CaseError__RTSError
 5982:012C       ChangeKursorMode__Dialog__Scree
 5A06:004A       CheckSumIdx__TheodolitRead
 5921:0011       CisnienieOdn__T_Oblot
 5926:014E       CisnienieOdniesienia__CommonDat
 6B07:0000       ClipRect__HiLevGraf
 599F:0004       ClockPer__Timer
 76AB:0011       CoKtoraProbka__Print
 76BE:000B       CoKtoraProbka__PrintCntroll
 591C:0009       CoRobic__ZoomInterface
 5921:0000       CoRobimy__T_Oblot
 5672:0000       Code__FCBS
 6AA2:002A       CollectData__D_Odb
 6A9D:003E       CollectData__V_Odb
 70EC:0000       ControlWords__SwitchCntrl
 567F:021A       Count__MANAGER
 69D9:0C08       CriticalErrorRec__FIO
 6AFC:0000       CurH__GList
 7630:0798       CurMode__DrawEpson
 70CE:0000       CurVor1__V_Database
 70CE:00E8       CurVor2__V_Database
 5A0C:001E       CurrGPSAnalizer__GPSRead
 59BD:02F5       CursorB__BezWyszeregowania__MMM
 59BD:01F4       CursorBuf__BezWyszeregowania__M
 5982:0076       CursorMode__Dialog__Screen
 5982:007B       CursorPos__Dialog__Screen
 59BD:0008       CursorShapePtr__MMMouse
 74B8:0211       CzesciOkregu__Polozenie
 6A9D:0026       DEVAV__V_Odb
 6A9D:0022       DEVMAX__V_Odb
 6A9D:001E       DEVMIN__V_Odb
 6A9D:001A       DEVVAL__V_Odb
 5926:00FB       DME__CommonData
 5676:0084       DOSEmpty__DOSEntry
 567F:011C       DUMMY__MANAGER
 74DC:13EC       DataOstatniejKalibracji__Kalibr
 59BD:000C       DefaultShape__MMMouse
 6BBB:0000       Deklinacja__GeoArithmetic
 6B95:019C       DelDir__Obloty
 5A00:0016       DeltaDME__ScannerI
 5A00:001A       DeltaF__ScannerI
 5A00:000E       Delta__ScannerI
 55E4:0058       DescInt0__RTSMain
 6A9D:002E       DevErrSum__V_Odb
 6A9D:002A       DevNr__V_Odb
 593C:0004       DirErr__Files
 74B8:020F       Dir__Polozenie
 6AA2:0004       DisI__D_Odb
 6AA2:0000       Dis__D_Odb
 5BBE:C86E       Div2T__tablice__DataCollect
 5BBE:C86A       Div3T__tablice__DataCollect
 51E9:0046       DivZero__RTSError
 76C6:0000       DriverInstalled__Mouse
 6B95:021E       DstDir__Obloty
 599F:0012       Dumm__Monitor__Timer
 5271:0069       DynParCopy__RTSLanguage
 59BD:0063       EVC__BezPrzerwanOdMyszy__MMMous
 59BD:005F       EVF__BezPrzerwanOdMyszy__MMMous
 59BD:0061       EVL__BezPrzerwanOdMyszy__MMMous
 5A06:001C       Elewacja__TheodolitRead
 567F:0012       ErrorHandler__MANAGER
 6BBF:0000       ErrorProc__Ini
 567F:0000       ErrorQueue__MANAGER
 51F9:0636       Error__RTSMain
 5978:0050       EtapPolaryzacji__Pomiar
 70FD:0002       EvPtr__PiszEventy
 59BD:0065       EventBuff__BezPrzerwanOdMyszy__
 5B08:0000       Events__EventsMng
 51E9:000A       FctRetError__RTSError
 5724:00A0       FileDis__D_Files
 5724:0000       FileErr__D_Files
 593C:0000       FileErr__Files
 5713:0000       FileErr__V_Files
 5713:00F8       FileRes__V_Files
 5724:0090       FileSig__D_Files
 5713:0090       FileSig__V_Files
 69D9:0008       Files__FIO
 591C:0004       FirstTime__ZoomInterface
 76AB:000C       Flagi__Print
 59A6:0010       FntTable__Graphics
 6B06:0004       FocusChanged__Dialog
 7630:079D       FontAdrA__DrawEpson
 7630:0799       FontAdrN__DrawEpson
 7630:07A1       FontHeight__DrawEpson
 59A6:0000       FontPtr__Graphics
 59FE:0007       FreeKey__monitor__ShortCuts
 5A00:003B       GPS_A__ScannerI
 5A00:0050       GPS_DIFFMODE__ScannerI
 5A00:004E       GPS_GDOP__ScannerI
 5A00:004B       GPS_OK__ScannerI
 5A00:0051       GPS_PREC__ScannerI
 5A00:0043       GPS_R__ScannerI
 5A00:004C       GPS_SAT__ScannerI
 74DC:0AC0       GS_DEVPuntyKal__Kalibracja
 5708:0050       GSfreqCRT__Tune
 59BB:0000       GarbageList__XMSService
 5921:000D       GlowOdb__T_Oblot
 5926:0141       GlownyOdbiornik__CommonData
 74DC:0958       GsAgc_delay__Kalibracja
 74DC:0918       GsDev_delay__Kalibracja
 74DC:0928       GsPrcMod_delay__Kalibracja
 59BD:02F4       Hidden__BezWyszeregowania__MMMo
 6B95:0116       HomeDirDlaDopasuj__Obloty
 6B95:0058       HomeDirNazwaPlikuIni__Obloty
 6B95:0048       HomeDir__Obloty
 5BBE:C866       IDX2__tablice__DataCollect
 5BBE:C862       IDX3__tablice__DataCollect
 52BC:011E       IOTransfer__RTSInterrupt
 5BBE:C840       Idx__DataCollect
 76BE:000D       IleStron__PrintCntroll
 6BBB:0020       IloscOdniesien__GeoArithmetic
 76BE:000F       IloscProbek__PrintCntroll
 748A:0000       ImportantDiv__D_DAcquizition
 748B:0000       ImportantDiv__V_DAcquizition
 51E9:0028       IntegerOvf__RTSError
 5982:0079       JakieWykr__Dialog__Screen
 5982:0077       JakijedenWykres__Dialog__Screen
 5982:0078       JedenWykres__Dialog__Screen
 7630:07A8       JuzNarysowane__DrawEpson
 0000:0000  Abs  KEY__00xxx00_0000_OF_DebugPMD
 0000:0000  Abs  KEY__00xxx00_0000_OF_RTS87
 0000:0000  Abs  KEY__00xxx00_0000_OF_RTSCorouti
 0000:0000  Abs  KEY__00xxx00_0000_OF_RTSError
 0000:0000  Abs  KEY__00xxx00_0000_OF_RTSInterru
 0000:0000  Abs  KEY__00xxx00_0000_OF_RTSLanguag
 0000:0000  Abs  KEY__00xxx00_0000_OF_RTSMain
 0000:0000  Abs  KEY__00xxx00_0000_OF_RTSPriorit
 0000:0000  Abs  KEY__00xxx00_0000_OF_RTSRealErr
 0000:0000  Abs  KEY__05feb87_1233_OF_Longs
 0000:0000  Abs  KEY__10aug87_2030_OF_ASCII
 0000:0000  Abs  KEY__10aug87_2030_OF_BitByteOps
 0000:0000  Abs  KEY__10aug87_2030_OF_BlockOps
 0000:0000  Abs  KEY__10aug87_2031_OF_DOSMemory
 0000:0000  Abs  KEY__10aug87_2031_OF_DebugPMD
 0000:0000  Abs  KEY__10aug87_2031_OF_Devices
 0000:0000  Abs  KEY__10aug87_2031_OF_Display
 0000:0000  Abs  KEY__10aug87_2031_OF_DynMem
 0000:0000  Abs  KEY__10aug87_2031_OF_Keyboard
 0000:0000  Abs  KEY__10aug87_2031_OF_NumberConv
 0000:0000  Abs  KEY__10aug87_2031_OF_RTSDevice
 0000:0000  Abs  KEY__10aug87_2031_OF_Storage
 0000:0000  Abs  KEY__10aug87_2031_OF_Strings
 0000:0000  Abs  KEY__10aug87_2031_OF_Termbase
 0000:0000  Abs  KEY__10aug87_2031_OF_Terminal
 0000:0000  Abs  KEY__10aug87_2032_OF_MathLib0
 0000:0000  Abs  KEY__10aug87_2033_OF_Mouse
 0000:0000  Abs  KEY__10aug87_2033_OF_RTSCorouti
 0000:0000  Abs  KEY__10aug87_2033_OF_Random
 0000:0000  Abs  KEY__10aug87_2033_OF_RealConver
 0000:0000  Abs  KEY__10aug87_2033_OF_Sounds
 0000:0000  Abs  KEY__10jul87_1035_OF_RTSMonExit
 0000:0000  Abs  KEY__10jul99_1214_OF_ARINC
 0000:0000  Abs  KEY__10jul99_1214_OF_AltInterfa
 0000:0000  Abs  KEY__10jul99_1214_OF_Buttons
 0000:0000  Abs  KEY__10jul99_1214_OF_CocpDsp
 0000:0000  Abs  KEY__10jul99_1214_OF_CommonData
 0000:0000  Abs  KEY__10jul99_1214_OF_CommonType
 0000:0000  Abs  KEY__10jul99_1214_OF_Czas
 0000:0000  Abs  KEY__10jul99_1214_OF_DGHIni
 0000:0000  Abs  KEY__10jul99_1214_OF_DGHInterfa
 0000:0000  Abs  KEY__10jul99_1214_OF_DGH_utils
 0000:0000  Abs  KEY__10jul99_1214_OF_DMEPrint
 0000:0000  Abs  KEY__10jul99_1214_OF_DOSEntry
 0000:0000  Abs  KEY__10jul99_1214_OF_D_CommonTy
 0000:0000  Abs  KEY__10jul99_1214_OF_D_Count
 0000:0000  Abs  KEY__10jul99_1214_OF_D_DAcquizi
 0000:0000  Abs  KEY__10jul99_1214_OF_D_DisResul
 0000:0000  Abs  KEY__10jul99_1214_OF_D_Files
 0000:0000  Abs  KEY__10jul99_1214_OF_D_Odb
 0000:0000  Abs  KEY__10jul99_1214_OF_D_Slupek
 0000:0000  Abs  KEY__10jul99_1214_OF_D_results
 0000:0000  Abs  KEY__10jul99_1214_OF_DataCollec
 0000:0000  Abs  KEY__10jul99_1214_OF_Dialog
 0000:0000  Abs  KEY__10jul99_1214_OF_DigiRS
 0000:0000  Abs  KEY__10jul99_1214_OF_DisResUtil
 0000:0000  Abs  KEY__10jul99_1214_OF_DrawEpson
 0000:0000  Abs  KEY__10jul99_1214_OF_ErrorMess
 0000:0000  Abs  KEY__10jul99_1214_OF_EventsMng
 0000:0000  Abs  KEY__10jul99_1214_OF_FCBS
 0000:0000  Abs  KEY__10jul99_1214_OF_FIO
 0000:0000  Abs  KEY__10jul99_1214_OF_FIltr1St
 0000:0000  Abs  KEY__10jul99_1214_OF_Files
 0000:0000  Abs  KEY__10jul99_1214_OF_FlagAnal
 0000:0000  Abs  KEY__10jul99_1214_OF_GList
 0000:0000  Abs  KEY__10jul99_1214_OF_GPSRead
 0000:0000  Abs  KEY__10jul99_1214_OF_GPS_TRIMBL
 0000:0000  Abs  KEY__10jul99_1214_OF_GPS_nov
 0000:0000  Abs  KEY__10jul99_1214_OF_GeoArithme
 0000:0000  Abs  KEY__10jul99_1214_OF_GrafTypes
 0000:0000  Abs  KEY__10jul99_1214_OF_GrafUtil
 0000:0000  Abs  KEY__10jul99_1214_OF_Graphics
 0000:0000  Abs  KEY__10jul99_1214_OF_HRD_Clock
 0000:0000  Abs  KEY__10jul99_1214_OF_HiLevGraf
 0000:0000  Abs  KEY__10jul99_1214_OF_Ini
 0000:0000  Abs  KEY__10jul99_1214_OF_InpLine
 0000:0000  Abs  KEY__10jul99_1214_OF_Int_DME
 0000:0000  Abs  KEY__10jul99_1214_OF_Kalibracja
 0000:0000  Abs  KEY__10jul99_1214_OF_Kl_FGenera
 0000:0000  Abs  KEY__10jul99_1214_OF_MANAGER
 0000:0000  Abs  KEY__10jul99_1214_OF_MMA_Cout
 0000:0000  Abs  KEY__10jul99_1214_OF_MMMouse
 0000:0000  Abs  KEY__10jul99_1214_OF_Mapa
 0000:0000  Abs  KEY__10jul99_1214_OF_Marks
 0000:0000  Abs  KEY__10jul99_1214_OF_Math
 0000:0000  Abs  KEY__10jul99_1214_OF_Messages
 0000:0000  Abs  KEY__10jul99_1214_OF_MsgBox
 0000:0000  Abs  KEY__10jul99_1214_OF_NAVInterfa
 0000:0000  Abs  KEY__10jul99_1214_OF_Obloty
 0000:0000  Abs  KEY__10jul99_1214_OF_PI_Analiza
 0000:0000  Abs  KEY__10jul99_1214_OF_PI_ArchDat
 0000:0000  Abs  KEY__10jul99_1214_OF_PI_Drukuj
 0000:0000  Abs  KEY__10jul99_1214_OF_PI_Glowny
 0000:0000  Abs  KEY__10jul99_1214_OF_PI_PA
 0000:0000  Abs  KEY__10jul99_1214_OF_PI_Pomiar
 0000:0000  Abs  KEY__10jul99_1214_OF_PI_ScrUtil
 0000:0000  Abs  KEY__10jul99_1214_OF_PiszEventy
 0000:0000  Abs  KEY__10jul99_1214_OF_Polozenie
 0000:0000  Abs  KEY__10jul99_1214_OF_Pomiar
 0000:0000  Abs  KEY__10jul99_1214_OF_Print
 0000:0000  Abs  KEY__10jul99_1214_OF_PrintCntro
 0000:0000  Abs  KEY__10jul99_1214_OF_ScannerI
 0000:0000  Abs  KEY__10jul99_1214_OF_Screen
 0000:0000  Abs  KEY__10jul99_1214_OF_ScreenCTyp
 0000:0000  Abs  KEY__10jul99_1214_OF_Semafory
 0000:0000  Abs  KEY__10jul99_1214_OF_ShortCuts
 0000:0000  Abs  KEY__10jul99_1214_OF_Slupek
 0000:0000  Abs  KEY__10jul99_1214_OF_SoftIntHan
 0000:0000  Abs  KEY__10jul99_1214_OF_SpecConv
 0000:0000  Abs  KEY__10jul99_1214_OF_StdIO
 0000:0000  Abs  KEY__10jul99_1214_OF_SwitchCntr
 0000:0000  Abs  KEY__10jul99_1214_OF_TheodolitR
 0000:0000  Abs  KEY__10jul99_1214_OF_Timer
 0000:0000  Abs  KEY__10jul99_1214_OF_Tune
 0000:0000  Abs  KEY__10jul99_1214_OF_VORO_avrag
 0000:0000  Abs  KEY__10jul99_1214_OF_VORPrint
 0000:0000  Abs  KEY__10jul99_1214_OF_VORR_Avera
 0000:0000  Abs  KEY__10jul99_1214_OF_V_CP_Contr
 0000:0000  Abs  KEY__10jul99_1214_OF_V_CommonTy
 0000:0000  Abs  KEY__10jul99_1214_OF_V_Count
 0000:0000  Abs  KEY__10jul99_1214_OF_V_DAcquizi
 0000:0000  Abs  KEY__10jul99_1214_OF_V_Database
 0000:0000  Abs  KEY__10jul99_1214_OF_V_DisResul
 0000:0000  Abs  KEY__10jul99_1214_OF_V_Files
 0000:0000  Abs  KEY__10jul99_1214_OF_V_Odb
 0000:0000  Abs  KEY__10jul99_1214_OF_V_Slupek
 0000:0000  Abs  KEY__10jul99_1214_OF_V_results
 0000:0000  Abs  KEY__10jul99_1214_OF_WorseBecau
 0000:0000  Abs  KEY__10jul99_1214_OF_Wykres
 0000:0000  Abs  KEY__10jul99_1214_OF_XMSService
 0000:0000  Abs  KEY__10jul99_1214_OF_XMSTable
 0000:0000  Abs  KEY__10jul99_1215_OF_AT
 0000:0000  Abs  KEY__10jul99_1215_OF_PI_ZoomSpe
 0000:0000  Abs  KEY__10jul99_1215_OF_SimScanner
 0000:0000  Abs  KEY__10jul99_1215_OF_T_Inspekcj
 0000:0000  Abs  KEY__10jul99_1215_OF_T_Oblot
 0000:0000  Abs  KEY__10jul99_1215_OF_Zoom
 0000:0000  Abs  KEY__10jul99_1215_OF_ZoomInterf
 0000:0000  Abs  KEY__12aug87_1620_OF_RTSMain
 0000:0000  Abs  KEY__21aug96_1223_OF_XMS
 6B05:0000       KbdButton__Buttons
 6AA6:0553       KierunekZmian__Zoom
 59FE:0000       Kill__ShortCuts
 6AA6:029D       Koniec__Zoom
 591C:0000       Koniec__ZoomInterface
 5A06:0010       Kopiowanie__TheodolitRead
 5982:0030       KrokOpisuOsi__Screen
 5441:01F7       LDiv__Longs
 5441:018D       LMultU__Longs
 5441:00E6       LMult__Longs
 74DC:0A88       LOC_DEVPuntyKal__Kalibracja
 74AF:005F       L_FixNotAvailable__GPS_TRIMBLE
 74AF:0057       L_Kierunek__GPS_TRIMBLE
 74AF:006C       L_NumberOfSattelites__GPS_TRIMB
 74AF:0051       L_WspDlugosc__GPS_TRIMBLE
 74AF:004B       L_WspSzerokosc__GPS_TRIMBLE
 43E7:002A       L__ACos__Math
 1644:0002       L__ALLOCATE__Storage
 4020:0032       L__ALTConvert__AltInterface
 02E1:0956       L__AVR10_AddSample__VORO_avrage
 0090:0FEF       L__AWAITEDC__MANAGER
 0090:0FEF       L__AWAITEDC__Scheduler__MANAGER
 0090:0FB4       L__AWAITEDS__MANAGER
 0090:0FB4       L__AWAITEDS__Scheduler__MANAGER
 1012:0114       L__AbortBP__Pomiar
 3F42:0592       L__Abort__D_DAcquizition
 3FAB:0641       L__Abort__V_DAcquizition
 176C:0312       L__AcknowledgeFirst__Messages
 176C:0337       L__Acknowledge__Messages
 3F42:0142       L__Acquire__D_DAcquizition
 3FAB:015A       L__Acquire__V_DAcquizition
 039C:0E7B       L__AddAngle100__SpecConv
 039C:1858       L__AddDis__SpecConv
 039C:10CE       L__AddNormal__SpecConv
 039C:17AE       L__Add__SpecConv
 1905:00F2       L__AdvInfo__MsgBox
 039C:101A       L__AfterAngle100__SpecConv
 1012:014F       L__AkceptacjaBP__Pomiar
 1A94:00D8       L__AllocUpperMemBlock__XMS
 53E3:0059       L__Alloc__DynMem
 1A94:003C       L__AllocateExtMem__XMS
 1AAB:004E       L__Allocate__XMSService
 3860:005D       L__Allocate__XMSTable
 2A86:1666       L__AltF4__Dialog
 14E9:0518       L__AnalizaEP__PI_Analiza
 3ECE:05EE       L__Analiza__D_Count
 3C62:250B       L__Analiza__V_Count
 039C:0711       L__Ang100Str36Calk__SpecConv
 039C:06A4       L__Ang100Str36__SpecConv
 462F:015E       L__AngAddSample__Marks
 462F:0032       L__AngResetContiner__Marks
 039C:0BF8       L__Angle100__SpecConv
 039C:0D36       L__AngleDeg__SpecConv
 1D08:0037       L__AssSim_Alfa__ScannerI
 1D08:0022       L__AssSim_Dis__ScannerI
 0090:12EF       L__Assert__MANAGER
 0090:12EF       L__Assert__Scheduler__MANAGER
 3860:0002       L__AssignNil__XMSTable
 3194:0D1C       L__AssignOdniesienie__GeoArithm
 16A0:0559       L__AssignPeriodicProc__Monitor_
 16A0:0559       L__AssignPeriodicProc__Timer
 1AF7:01AD       L__AssignPoint__GrafTypes
 548C:0002       L__AssignRead__Termbase
 1AF7:0187       L__AssignRect__GrafTypes
 548C:0184       L__AssignWrite__Termbase
 52E8:005F       L__Assign__Strings
 2573:0D92       L__Assign__Zoom
 53E3:01BF       L__Avail__DynMem
 1644:02D0       L__Available__Storage
 4F82:0265       L__Bend_AddSample__VORR_Average
 4F82:002A       L__Bend_ClearContainer__VORR_Av
 4406:05B7       L__BinaryCounter__FIltr1St
 4AC8:06BA       L__BinaryValSet__DGH_utils
 5404:007D       L__BlockClear__BlockOps
 5404:00B8       L__BlockEqual__BlockOps
 5404:001A       L__BlockMoveBackward__BlockOps
 5404:0000       L__BlockMoveForward__BlockOps
 5404:003B       L__BlockMove__BlockOps
 5404:00D9       L__BlockPosition__BlockOps
 5404:0096       L__BlockSet__BlockOps
 15E4:008A       L__BreakChain__SoftIntHandlingM
 0090:0AAF       L__Broadcast__MANAGER
 0090:0AAF       L__Broadcast__Scheduler__MANAGE
 54CB:0046       L__ByteAnd__BitByteOps
 54CB:0073       L__ByteNot__BitByteOps
 54CB:0055       L__ByteOr__BitByteOps
 54CB:00C5       L__ByteRol__BitByteOps
 54CB:00B4       L__ByteRor__BitByteOps
 54CB:0092       L__ByteSar__BitByteOps
 54CB:00A3       L__ByteShl__BitByteOps
 54CB:0081       L__ByteShr__BitByteOps
 54CB:0064       L__ByteXor__BitByteOps
 224D:04B4       L__CD__FIO
 51F9:00EF       L__CallInitProc__RTSMain
 29A8:0D35       L__CallProc__Buttons
 1012:0124       L__CallStopButton__Pomiar
 51F9:00FD       L__CallTermProc__RTSMain
 27ED:1454       L__CanEnable__GList
 2F16:098B       L__CancelProcess__Mapa
 2F16:098B       L__CancelProcess__monitor__Mapa
 039C:057F       L__Card100Str__SpecConv
 039C:033A       L__Card10Str__SpecConv
 35E9:1F1D       L__Card2Real__Wykres
 039C:0225       L__Card2Str__SpecConv
 039C:0959       L__Card500Str__SpecConv
 5319:0259       L__CardToString__NumberConversi
 29A8:09D0       L__ChangeButtonText__Buttons
 29A8:0959       L__ChangeButton__Buttons
 0C9A:1E04       L__ChangeDir__Files
 2C1C:0C85       L__Circle__HiLevGraf
 1C67:006D       L__ClearBuffer__ShortCuts
 1C67:006D       L__ClearBuffer__monitor__ShortC
 02E1:00FA       L__ClearContainer__VORO_avrage
 2C1C:1026       L__Clip__HiLevGraf
 4DD9:0E2F       L__CloseAll__Print
 3325:0E08       L__CloseBuffer__Ini
 0C9A:2819       L__CloseCommSigFName__Files
 2C1C:0A9F       L__CloseDIB__HiLevGraf
 081E:075E       L__CloseFiles__D_Files
 0C9A:0F3B       L__CloseFiles__Files
 0710:072B       L__CloseFiles__V_Files
 081E:0A2E       L__CloseSignalFiles__D_Files
 0C9A:17EB       L__CloseSignalFiles__Files
 0710:097C       L__CloseSignalFiles__V_Files
 4C92:06E2       L__Close__DrawEpson
 224D:01F2       L__Close__FIO
 502F:013A       L__CoKtoraPDn__PrintCntroll
 502F:00D5       L__CoKtoraPUp__PrintCntroll
 52E8:02B2       L__CompareStr__Strings
 116E:18F9       L__ConEventButton__Screen
 52E8:025B       L__Concat__Strings
 5415:01B4       L__ConditionalOff__Mouse
 3F42:0063       L__ConsoleEv__D_DAcquizition
 3F42:0063       L__ConsoleEv__Monitor__D_DAcqui
 3FAB:007B       L__ConsoleEv__Monitor__V_DAcqui
 3FAB:007B       L__ConsoleEv__V_DAcquizition
 52E8:001D       L__ConstAssign__Strings
 3510:0A5E       L__ControlLoop__CocpDsp
 05AA:024E       L__ConvertToStr__Czas
 52E8:01E9       L__Copy__Strings
 1AAB:0110       L__Copy__XMSService
 08FF:003F       L__Count_MMA_SignalDsc__MMA_Cou
 29A8:0B2D       L__CreateButton__Buttons
 081E:0231       L__CreateFiles__D_Files
 0C9A:0273       L__CreateFiles__Files
 0710:01F6       L__CreateFiles__V_Files
 2D8B:0002       L__CreateInpLine__InpLine
 29A8:0C3C       L__CreateRadioButton__Buttons
 224D:00FA       L__Create__FIO
 224D:08B1       L__CriticalErrorHandlerProc__FI
 1D08:0086       L__CurrGPSAlfaOffset__ScannerI
 16A0:051F       L__CurrentPeriod__Monitor__Time
 16A0:051F       L__CurrentPeriod__Timer
 0090:17F9       L__CurrentProcess__MANAGER
 1644:01B9       L__DEALLOCATE__Storage
 2C1C:06E9       L__DIBHeight__HiLevGraf
 2C1C:06B5       L__DIBWidth__HiLevGraf
 4B95:0002       L__DMEConvert__Int_DME
 0090:0CE1       L__DOIO__MANAGER
 0090:0CE1       L__DOIO__Scheduler__MANAGER
 5500:0002       L__DOSAlloc__DOSMemory
 5500:01B0       L__DOSAvail__DOSMemory
 5500:00E3       L__DOSDeAlloc__DOSMemory
 5500:0241       L__DOSGetMaxSize__DOSMemory
 5500:01F0       L__DOSSetSize__DOSMemory
 1981:01B2       L__DP__Graphics
 1981:01B2       L__DP__InternalMonitor__Graphic
 0090:1A90       L__DUMMYPRO__MANAGER
 1565:0076       L__D_Analiza__PI_Pomiar
 4DD9:0186       L__DalszeOdZera__Print
 1CE1:011E       L__Data__HRD_Clock
 53E3:0102       L__DeAlloc__DynMem
 1AAB:00EE       L__Deallocate__XMSService
 3860:00F2       L__Deallocate__XMSTable
 064B:0966       L__DecADFFch__Tune
 3325:0006       L__DefaultError__Ini
 16A0:04B5       L__DefinePeriod__Monitor__Timer
 16A0:04B5       L__DefinePeriod__Timer
 1C67:0612       L__DefineShortCut__ShortCuts
 2D8B:01CA       L__DeleteInpLine__InpLine
 3325:050E       L__DeleteSection__Ini
 1C67:06DD       L__DeleteShortCut__ShortCuts
 224D:046B       L__Delete__FIO
 52E8:014C       L__Delete__Strings
 2A86:1488       L__DialogMouseHandle__Dialog
 224D:0700       L__DirQuery__FIO
 462F:0453       L__DisAddSample__Marks
 462F:0041       L__DisResetContiner__Marks
 176C:0004       L__DisableDisplay__Messages
 27ED:1470       L__Disable__GList
 3AE4:04A7       L__DispResults__D_DisResults
 39B3:0E20       L__DispResults__V_DisResults
 176C:0181       L__Display__Messages
 29A8:0AAB       L__DisposeButton__Buttons
 176C:0164       L__DisposeMessage__Messages
 16A0:0A36       L__DisposeMetronome__Timer
 3896:0708       L__DisposeSlupki__PI_ScrUtility
 16A0:0B9B       L__DisposeWatchdog__Timer
 392A:0647       L__Dispose__Slupek
 039C:1755       L__Div__SpecConv
 2985:0112       L__DoBeep__GrafUtil
 2D8B:07B4       L__DoNothing__InpLine
 27ED:06B6       L__DodajDoListy__GList
 0B40:07DE       L__DodajOblot__T_Inspekcja
 4C19:06F1       L__DoneSlupek__D_Slupek
 4BA4:06B3       L__DoneSlupek__V_Slupek
 116E:36CD       L__Done__Screen
 2573:0A0A       L__Done__Zoom
 2FCC:037F       L__Dopasuj__Obloty
 4C92:1124       L__DrawText__DrawEpson
 35E9:03D7       L__Draw__Wykres
 15DE:0002       L__Druk__PI_Drukuj
 14E9:0062       L__DrukujBP__MouseMonitor__PI_A
 2FCC:1B8B       L__Dum_Stat_File_Monitor__Oblot
 2FCC:1B83       L__Dum_Stat_Size_Monitor__Oblot
 27ED:0020       L__DummyNotification__GList
 16A0:0BFF       L__Dummy__Timer
 224D:040B       L__EOF__FIO
 29A8:0CC0       L__EnableButton__Buttons
 29A8:0D4E       L__EnableDisableAllButtons__But
 176C:002E       L__EnableDisplay__Messages
 2A86:167B       L__EnableDlg__Dialog
 27ED:1513       L__Enable__GList
 2D8B:0183       L__Enable__InpLine
 2A86:15E7       L__EndDialog__Dialog
 0090:18E5       L__EnterProtectedOp__MANAGER
 3B3E:0F04       L__EnumEv__PiszEventy
 0B40:0752       L__EnumObl__T_Inspekcja
 4DD9:0FE0       L__EvProc__Print
 1B16:07F2       L__EventDispatcher__BezPrzerwan
 1F81:055C       L__EventsMngInit__EventsMng
 51F9:0526       L__Execute__RTSMain
 0C9A:1DB9       L__ExistDIR__Files
 0090:18ED       L__ExitProtectedOp__MANAGER
 0C9A:20C9       L__FInterpolacja__Files
 039C:08C0       L__Feed500Str__SpecConv
 1981:025A       L__FillRect__Graphics
 2C1C:0F6C       L__FillRect__HiLevGraf
 1981:025A       L__FillRect__InternalMonitor__G
 4406:03DA       L__Filtr2Filters__FIltr1St
 4406:053F       L__FiltrB__FIltr1St
 4406:0199       L__Filtr__FIltr1St
 1F81:02D5       L__FindNextEvent__EventsMng
 053C:01D6       L__FlagErr_Anal__FlagAnal
 5415:0002       L__FlagReset__Mouse
 2C1C:1268       L__FrameRect__HiLevGraf
 1A94:0068       L__FreeExtMem__XMS
 2FCC:0E1A       L__FreeSlot__Obloty
 1A94:0107       L__FreeUpperMemBlock__XMS
 436F:00AA       L__Free__Semafory
 1E3D:0225       L__GPSReceive__GPSRead
 2F16:07B3       L__GdzieJest__Mapa
 3194:0719       L__Geo2Kat__GeoArithmetic
 0C9A:264E       L__GetALfaRefFName__Files
 091F:0054       L__GetAnRes__D_results
 0286:005A       L__GetAnRes__V_results
 22F2:0187       L__GetAnalogVal__DGHInterface
 1981:0191       L__GetBank__Graphics
 1981:0191       L__GetBank__InternalMonitor__Gr
 22F2:0226       L__GetBinaryVal__DGHInterface
 54CB:0000       L__GetBits__BitByteOps
 5415:006E       L__GetButPres__Mouse
 5415:00A0       L__GetButRel__Mouse
 2C1C:115F       L__GetClip__HiLevGraf
 0C9A:2735       L__GetCommSigFName__Files
 27ED:1839       L__GetContents__GList
 22F2:002B       L__GetCurrDataSign__DGHInterfac
 1E3D:02DA       L__GetCurrDataSign__GPSRead
 1D33:05AE       L__GetCurrDataSign__TheodolitRe
 53D7:0002       L__GetDeviceStatus__Devices
 527E:009B       L__GetDeviceStatus__RTSDevice
 2A86:0006       L__GetDialogDIBHandle__Dialog
 224D:05B5       L__GetDir__FIO
 1E3D:029B       L__GetDirection__GPSRead
 0C9A:26C2       L__GetDisRefFName__Files
 3860:01B7       L__GetElem__XMSTable
 47E6:097E       L__GetErrReset__ErrorHand__Kali
 47E6:097E       L__GetErrReset__Kalibracja
 1F81:041A       L__GetEventInfo__EventsMng
 081E:0B34       L__GetFileName__D_Files
 224D:0685       L__GetFileStamp__FIO
 459F:05C7       L__GetFrame__GPS_TRIMBLE
 447F:0CFB       L__GetFrame__GPS_nov
 510F:0241       L__GetGSDev__NAVInterface
 510F:0190       L__GetLocDev__NAVInterface
 51F9:0147       L__GetMessage__RTSMain
 2026:1B29       L__GetNextAMark__DataCollect
 2026:1AA3       L__GetNextDMark__DataCollect
 053C:0352       L__GetNextFrac__FlagAnal
 510F:0022       L__GetOmnibearing__NAVInterface
 1D08:010C       L__GetPilotEvent__ScannerI
 5415:0037       L__GetPosBut__Mouse
 527E:0100       L__GetPrioMask__RTSDevice
 3325:035E       L__GetPrivateProfileString__Ini
 037E:0010       L__GetRecName__CommonTypes
 27ED:1819       L__GetRect__GList
 1B16:0713       L__GetRegionRect__MMMouse
 3896:084D       L__GetRegionWyk1__PI_ScrUtility
 3896:0870       L__GetRegionWyk2__PI_ScrUtility
 3896:08BE       L__GetRegionWyk3__PI_ScrUtility
 3896:0812       L__GetRegionWykG__PI_ScrUtility
 29A8:0D0E       L__GetRegion__Buttons
 27ED:1608       L__GetRegion__GList
 2D8B:0C4D       L__GetRegion__InpLine
 1B16:06C2       L__GetRegion__MMMouse
 0710:0D8E       L__GetResFileName__V_Files
 27ED:14F4       L__GetSelection__GList
 0710:0D1B       L__GetSigFileName__V_Files
 392A:0666       L__GetSlupRect__Slupek
 1D33:0600       L__GetTeoEvent__TheodolitRead
 2D8B:0388       L__GetText__InpLine
 1D33:0700       L__GetTheoI__TheodolitRead
 1D33:0654       L__GetTheoR__TheodolitRead
 05AA:00C0       L__GetTimeAndDate__BezPrzerwan_
 05AA:00C0       L__GetTimeAndDate__Czas
 037E:0055       L__GetTranName__CommonTypes
 1F81:0366       L__GetUpdNextEvent__EventsMng
 1981:03B5       L__GetWindow__Graphics
 1981:03B5       L__GetWindow__InternalMonitor__
 43B5:0002       L__GetWrBufLength__DigiRS
 0A0A:0002       L__GlownyEP__PI_Glowny
 0C9A:1E3D       L__GoHomeDir__Files
 2A86:123F       L__Go__Dialog
 1CE1:00A1       L__Godzina__HRD_Clock
 039C:1178       L__GorszeBoBlisze__SpecConv
 039C:14AD       L__GorszeBoDalszeOdZera__SpecCo
 039C:10E9       L__GorszeBoDalszeR__SpecConv
 039C:1127       L__GorszeBoDalsze__SpecConv
 039C:142B       L__GorszeBoMniejsze1500__SpecCo
 039C:1368       L__GorszeBoMniejsze160__SpecCon
 039C:146C       L__GorszeBoMniejsze2000__SpecCo
 039C:1327       L__GorszeBoMniejsze300__SpecCon
 039C:12A5       L__GorszeBoMniejsze400__SpecCon
 039C:13A9       L__GorszeBoMniejsze5000__SpecCo
 039C:13EA       L__GorszeBoMniejsze500__SpecCon
 039C:12E6       L__GorszeBoMniejsze800__SpecCon
 039C:1264       L__GorszeBoMniejszeM60__SpecCon
 039C:11C9       L__GorszeBoMniejszePol__SpecCon
 4DD9:0159       L__GorszeBoMniejsze__Print
 039C:120A       L__GorszeBoMniejsze__SpecConv
 039C:1237       L__GorszeBoWieksze__SpecConv
 27ED:128C       L__HandleEvent__GList
 1B16:00DF       L__HideConditionally__MMMouse
 1B16:0BDE       L__HideCursor__BezWyszeregowani
 1B16:0BDE       L__HideCursor__MMMouse
 5415:002B       L__HideCursor__Mouse
 54CB:00D6       L__HighNibble__BitByteOps
 16A0:06FC       L__IBMIntHandler__Monitor__Time
 064B:0881       L__ILSDecFch__Tune
 064B:0849       L__ILSIncFch__Tune
 064B:07EE       L__ILSfrqString__Tune
 3AAB:014A       L__INCLine__DisResUtilities
 27ED:0A11       L__Idx2Str__GList
 3B3E:0A31       L__IleEventow__PiszEventy
 2FCC:0242       L__Ile__Obloty
 064B:093F       L__IncADFFch__Tune
 039C:189B       L__IncRound__SpecConv
 2985:00BB       L__InfoBeep__GrafUtil
 2985:0003       L__Info__GrafUtil
 1905:0072       L__Info__MsgBox
 3F42:0507       L__IniDataOrbit__D_DAcquizition
 3FAB:05B6       L__IniDataOrbit__V_DAcquizition
 3F42:051F       L__IniDataRadial__D_DAcquizitio
 3FAB:05CE       L__IniDataRadial__V_DAcquizitio
 24C1:08E5       L__IniData__D_Odb
 23FA:0A92       L__IniData__V_Odb
 4C19:04D4       L__IniSkale__D_Slupek
 3896:07E5       L__IniSkale__PI_ScrUtility
 4BA4:047E       L__IniSkale__V_Slupek
 459F:082D       L__Inicjacja__GPS_TRIMBLE
 447F:0DCE       L__Inicjacja__GPS_nov
 462F:0636       L__InicjujOpisStanuLuku__Marks
 02E1:0116       L__InicjujOpisStanuLuku__VORO_a
 4DD9:03D2       L__InitA__Print
 4DD9:0EC8       L__InitAll__Print
 4DD9:0821       L__InitB__Print
 0090:176C       L__InitC__MANAGER
 4406:024F       L__InitCont2Filters__FIltr1St
 4406:0598       L__InitContBCoun__FIltr1St
 4406:050E       L__InitContB__FIltr1St
 4406:00A2       L__InitCont__FIltr1St
 053C:02B3       L__InitFlagErr__FlagAnal
 2FCC:1A87       L__InitListaUrzadzen__Obloty
 0A18:0D5A       L__InitLot__T_Oblot
 4406:0712       L__InitMemFIntContiner__FIltr1S
 4406:0689       L__InitMemFiltr__FIltr1St
 2E5D:029F       L__InitNames__PI_ZoomSpecific
 1D08:00F7       L__InitPilotEventId__ScannerI
 1565:00C8       L__InitPomiar__PI_Pomiar
 1012:03EF       L__InitPomiar__Pomiar
 4C92:11C0       L__InitPort__DrawEpson
 0090:1782       L__InitS__MANAGER
 037E:0098       L__InitSignalDsc__CommonTypes
 4C19:06B1       L__InitSlupek__D_Slupek
 4BA4:065B       L__InitSlupek__V_Slupek
 1D33:05DD       L__InitTeoEventId__TheodolitRea
 08FF:00D6       L__Init_AvrDscr__MMA_Cout
 08FF:000A       L__Init_MMA_SignalDsc__MMA_Cout
 3896:078A       L__Init_ScrUtility__PI_ScrUtili
 091F:0150       L__Init__D_results
 116E:1D6D       L__Init__Screen
 436F:01B0       L__Init__Semafory
 0286:03B4       L__Init__V_results
 2573:0161       L__Init__Zoom
 037E:00B7       L__Init_flgTab__CommonTypes
 1B16:0AC3       L__InsertEvent__BezPrzerwanOdMy
 1B16:0AC3       L__InsertEvent__MMMouse
 52E8:0096       L__Insert__Strings
 0B40:106A       L__InspekcjaEP__T_Inspekcja
 2FCC:1042       L__InspekcjeNowyWpis__Obloty
 15E4:0256       L__InstEpilogueHnd__Monitor__So
 15E4:0256       L__InstEpilogueHnd__SoftIntHand
 15E4:009A       L__InstPrologueHnd__Monitor__So
 15E4:009A       L__InstPrologueHnd__SoftIntHand
 53E3:0000       L__InstallDynMem__DynMem
 53D7:006A       L__InstallHandler__Devices
 527E:0000       L__InstallHandler__RTSDevice
 1644:03A3       L__InstallHeap__Storage
 51F9:007B       L__InstallInitProc__RTSMain
 0090:1815       L__InstallTermProc__MANAGER
 51F9:0001       L__InstallTermProc__RTSMain
 039C:0A8D       L__Int1000Str__SpecConv
 039C:0535       L__Int100StrCalk__SpecConv
 039C:0411       L__Int100Str__SpecConv
 039C:025D       L__Int10Str__SpecConv
 039C:1948       L__Int2Card__SpecConv
 35E9:1F64       L__Int2Real__Wykres
 039C:165C       L__Int2StrCntr__SpecConv
 039C:01ED       L__Int2Str__SpecConv
 039C:078F       L__Int500Str__SpecConv
 5319:01B9       L__IntToString__NumberConversio
 1AF7:0058       L__Intersection__GrafTypes
 1981:0593       L__InvertW__Graphics
 1981:0593       L__InvertW__InternalMonitor__Gr
 4C92:120D       L__IsAborted__DrawEpson
 2A86:17AC       L__IsBusy__Dialog
 4C92:0322       L__IsDrawn__DrawEpson
 1AF7:014B       L__IsEqual__GrafTypes
 1B16:018A       L__IsHidden__MMMouse
 1AF7:0002       L__IsIntersect__GrafTypes
 3860:0039       L__IsValid__XMSTable
 2FCC:0A4B       L__KasujPodkartoteke__Obloty
 2FCC:068A       L__Kasuj__Obloty
 3194:0AEF       L__Kat2Geo__GeoArithmetic
 176C:03F9       L__KbdAck__Messages
 176C:0405       L__KbdDsp__Messages
 1C67:05B8       L__KbdScan__ShortCuts
 54E9:0002       L__KeyPressed__Keyboard
 1C67:0002       L__KeyPressed__ShortCuts
 548C:00D7       L__KeyPressed__Termbase
 546F:0002       L__KeyPressed__Terminal
 1C67:0002       L__KeyPressed__monitor__ShortCu
 2D8B:03DC       L__Key__InpLine
 27ED:18E1       L__KillContents__GList
 2D8B:07C4       L__KillFocus__InpLine
 2A86:0E94       L__KlawiszShiftTab__Dialog
 2A86:0D8A       L__KlawiszSpacji__Dialog
 2A86:0E12       L__KlawiszTab__Dialog
 447F:014D       L__KopijZnakZTeo__GPS_nov
 2FCC:15DB       L__KopiujInspekcje__Obloty
 2FCC:13F8       L__KopiujPodkartoteke__Obloty
 081E:0A48       L__KopiujWszystkiePliki__D_File
 0C9A:19D4       L__KopiujWszystkiePliki__Files
 0710:0BEB       L__KopiujWszystkiePliki__V_File
 0C9A:016F       L__Kopiuj__Files
 116E:0F7E       L__KursorLewoBP__Dialog__Screen
 116E:0BC1       L__KursorLewoButton__Dialog__Sc
 116E:0D49       L__KursorOnOffBP__Dialog__Scree
 116E:0F54       L__KursorPrawoBP__Dialog__Scree
 116E:0BDA       L__KursorPrawoPar__Dialog__Scre
 224D:0389       L__Length__FIO
 52E8:0000       L__Length__Strings
 35E9:1F01       L__LessCard__Wykres
 35E9:1EE5       L__LessInt__Wykres
 27ED:0B6F       L__LiczbaElementow__GList
 5415:0194       L__LightPenOff__Mouse
 5415:0188       L__LightPenOn__Mouse
 2C1C:0B20       L__LineS__HiLevGraf
 2C1C:1234       L__LineTo__HiLevGraf
 4C92:06FE       L__Line__DrawEpson
 2C1C:0AF4       L__Line__HiLevGraf
 0C9A:1BE4       L__LoadAResult__Files
 2C1C:03A5       L__LoadDIB__HiLevGraf
 081E:0557       L__LoadData__D_Files
 0C9A:0CB2       L__LoadData__Files
 15CB:0002       L__LoadData__PI_ArchDate
 0710:0524       L__LoadData__V_Files
 1F81:0519       L__LoadDistEvents__EventsMng
 05E1:03B7       L__LoadEvents__SimScanner
 3443:095E       L__LoadVorData1__V_Database
 3443:09D2       L__LoadVorData2__V_Database
 1D08:00B5       L__LocationsTogether__ScannerI
 5319:01FE       L__LongIntToString__NumberConve
 50BE:0002       L__LookupM__Kl_FGenerators
 47E6:0F88       L__Lookup__Kalibracja
 54CB:00E6       L__LowNibble__BitByteOps
 1981:000B       L__MaxHor__Graphics
 1981:0014       L__MaxVer__Graphics
 4C92:00E9       L__MaxX__DrawEpson
 4C92:00F8       L__MaxY__DrawEpson
 4DD9:01C3       L__MaxY__Print
 4406:06B5       L__MemFiltrInt__FIltr1St
 4406:0607       L__MemFiltr__FIltr1St
 08FF:0124       L__MinMaxAvr__MMA_Cout
 053C:0513       L__MinPoczKonDis__FlagAnal
 053C:044F       L__MinPoczKonSig__FlagAnal
 224D:0510       L__MkDir__FIO
 4C92:11A6       L__Mnoznik__DrawEpson
 29A8:07E1       L__MouseHandler__Buttons
 1B16:1031       L__MouseLoop__MMMouse
 1A94:008B       L__MoveExtMemBlock__XMS
 1AF7:0100       L__MoveRect__GrafTypes
 2C1C:121A       L__MoveTo__HiLevGraf
 039C:1782       L__Mul__SpecConv
 0271:0029       L__MyErrorHand__ErrorMess
 0A18:022D       L__NadajnikNaVor1__T_Oblot
 0A18:02B8       L__NadajnikNaVor2__T_Oblot
 4C19:0264       L__NapiszSygnaly__D_Slupek
 3896:076F       L__NapiszSygnaly__PI_ScrUtility
 4BA4:0234       L__NapiszSygnaly__V_Slupek
 2E5D:0AC1       L__NazwaOdniesienia__PI_ZoomSpe
 1F81:0252       L__NewConsoleEvent__EventsMng
 1D08:004C       L__NewDataAvailable__ScannerI
 1F81:0037       L__NewEvent__EventsMng
 176C:010B       L__NewMessage__Messages
 16A0:0940       L__NewMetronome__Timer
 1F81:01CF       L__NewPilotEvent__EventsMng
 1F81:014C       L__NewTeoEvent__EventsMng
 16A0:0A94       L__NewWatchdog__Timer
 1D33:0ECB       L__NicNieRob__TheodolitRead
 29A8:0B27       L__Nic__Buttons
 0391:0002       L__NilDlaPOdleglosci__D_CommonT
 2026:21D7       L__NilProc__DataCollect
 392A:0695       L__Nil__Slupek
 2C1C:10F4       L__NoClip__HiLevGraf
 537D:0032       L__NoSound__Sounds
 392A:065C       L__Nothing__Slupek
 0090:0A58       L__Notify__MANAGER
 0090:0A58       L__Notify__Scheduler__MANAGER
 46C3:0E6A       L__NoweCzesciOkregu__Polozenie
 0B40:0EC4       L__NowyOblot__T_Inspekcja
 1565:00C0       L__NullPolV__PI_Pomiar
 5319:028D       L__NumToString__NumberConversio
 24C1:04CF       L__Oblicz__D_Odb
 23FA:0434       L__Oblicz__V_Odb
 0B40:0F13       L__OblotOK__T_Inspekcja
 2573:055B       L__ObslugaMyszy__Zoom
 502F:037E       L__Odn__PrintCntroll
 05E1:05A8       L__OdtworzEventy__SimScanner
 502F:0232       L__OkP__PrintCntroll
 47E6:0E16       L__OmnibearingV__Kalibracja
 0C9A:27A8       L__OpenCommSigFName__Files
 081E:024D       L__OpenFiles__D_Files
 0C9A:0638       L__OpenFiles__Files
 0710:0212       L__OpenFiles__V_Files
 081E:081C       L__OpenSignalFiles__D_Files
 0C9A:1096       L__OpenSignalFiles__Files
 0710:07BC       L__OpenSignalFiles__V_Files
 4C92:0670       L__Open__DrawEpson
 224D:0002       L__Open__FIO
 35E9:1330       L__OpisLog__Wykres
 4DD9:0CF3       L__Opis__Print
 35E9:0B0C       L__Opis__Wykres
 02E1:0082       L__OrbitDscClear__VORO_avrage
 0F57:07B7       L__Orbit__V_CP_ControlProc
 4C92:03D3       L__Out__DrawEpson
 1905:05C9       L__P0__MsgBox
 1905:05EA       L__P1__MsgBox
 502F:03D5       L__P1__PrintCntroll
 1905:060B       L__P2__MsgBox
 502F:03F6       L__P2__PrintCntroll
 1905:062C       L__P3__MsgBox
 14E9:00C0       L__PWyjscieZProgramuBP__MouseMo
 14E9:014D       L__PageDownBP__MouseMonitor__PI
 14E9:00EF       L__PageUpBP__MouseMonitor__PI_A
 3B3E:0D6B       L__PiszNaDrukarce__PiszEventy
 3B3E:0B99       L__PiszNaEkranie__PiszEventy
 0A18:0383       L__PlayP__T_Oblot
 3510:02E6       L__PodajFormat__CocpDsp
 4C92:01C6       L__Point__DrawEpson
 2C1C:117A       L__Point__HiLevGraf
 4DD9:0CBF       L__Point__Print
 2F16:0545       L__PokazKatyLotu__Mapa
 35E9:09B4       L__PokazWykres1__Wykres
 35E9:1B1F       L__PokazWykresNSLog__Wykres
 35E9:14E2       L__PokazWykresNS__Wykres
 35E9:256B       L__PokazWykresZXms__Wykres
 35E9:0758       L__PokazWykres__Wykres
 0966:0969       L__Pokaz__ZoomInterface
 3FAB:0002       L__PolV__V_DAcquizition
 1012:01F6       L__PolaryzacjaBP__Pomiar
 1012:0EC2       L__PomiarEP__Pomiar
 0A18:0464       L__PomiarP__T_Oblot
 24C1:071E       L__PoprawDane__D_Odb
 23FA:063C       L__PoprawDane__V_Odb
 52E8:0188       L__Pos__Strings
 29A8:0AE2       L__PressRadio__Buttons
 4DD9:1998       L__PrintScreenProc__Print
 0090:1629       L__PriorityDecrease__MANAGER
 0B40:0472       L__ProbujWstawicOblot__T_Inspek
 2F16:06B6       L__Promienie__Mapa
 46C3:1084       L__Promienie__Polozenie
 14E9:011E       L__PrzelaczPomiaryBP__MouseMoni
 1012:013E       L__PrzelaczPomiaryBP__Pomiar
 3860:0142       L__PutElem__XMSTable
 1C67:003B       L__PutKeyStrokeIntoBuffer__Shor
 1C67:003B       L__PutKeyStrokeIntoBuffer__moni
 1A94:0011       L__QueryFreeExtMem__XMS
 039C:0C58       L__RAngle100__SpecConv
 27ED:0E9F       L__RChoose__GList
 27ED:0D8F       L__RScrollDn__GList
 27ED:0C76       L__RScrollUp__GList
 0F57:0329       L__Radial__V_CP_ControlProc
 2A86:02EB       L__RadioBProc__Dialog
 4B53:01A8       L__RandomCard__Random
 4B53:00DE       L__RandomInit__Random
 4B53:0245       L__RandomInt__Random
 4B53:026A       L__RandomReal__Random
 4B53:0385       L__Randomize__Random
 0A18:0363       L__Raport_PROC__T_Oblot
 4052:135C       L__Raport__DMEPrint
 419E:1BB8       L__Raport__VORPrint
 1C67:0104       L__Rd__ShortCuts
 1C67:0104       L__Rd__monitor__ShortCuts
 5145:00BF       L__ReInitialize__ARINC
 546F:010A       L__ReadAgain__Terminal
 081E:08AC       L__ReadAllSignals__D_Files
 0C9A:1729       L__ReadAllSignals__Files
 0710:0857       L__ReadAllSignals__V_Files
 0C9A:2833       L__ReadCommSigFName__Files
 5145:051B       L__ReadConfiguration__ARINC
 0C9A:0240       L__ReadDef__Files
 224D:0346       L__ReadExt__FIO
 0C9A:16EA       L__ReadFlgs__Files
 5415:013E       L__ReadMotionCounters__Mouse
 4AC8:063C       L__ReadOmniber__DGH_utils
 5145:079E       L__ReadRXSlot__ARINC
 43B5:007D       L__ReadString__DigiRS
 546F:0089       L__ReadString__Terminal
 5145:0637       L__ReadTXSlot__ARINC
 4AC8:04A8       L__ReadValue__DGH_utils
 0C9A:1685       L__ReadXref__Files
 1E3D:001A       L__Read_Nic__GPSRead
 1E3D:002D       L__Read_Nov__GPSRead
 1E3D:0177       L__Read_Trimble__GPSRead
 224D:0301       L__Read__FIO
 54E9:0033       L__Read__Keyboard
 1C67:008B       L__Read__ShortCuts
 548C:0088       L__Read__Termbase
 546F:000E       L__Read__Terminal
 1C67:008B       L__Read__monitor__ShortCuts
 0A18:054D       L__RealCisnValid__T_Oblot
 3272:06AC       L__RealToString__RealConversion
 0090:17E6       L__RecoveryTime__MANAGER
 3F42:03A1       L__RedrawMarksReq__D_DAcquiziti
 3FAB:0436       L__RedrawMarksReq__V_DAcquiziti
 3F42:0352       L__RedrawReq__D_DAcquizition
 2026:004E       L__RedrawReq__DataCollect
 3FAB:03E7       L__RedrawReq__V_DAcquizition
 2026:004E       L__RedrawReq__tablice__DataColl
 2A86:17EF       L__Redraw__Dialog
 116E:03CA       L__RegionWyk1Button__Dialog__Sc
 116E:037F       L__RegionWyk1Event__Dialog__Scr
 116E:0464       L__RegionWyk2Button__Dialog__Sc
 116E:0419       L__RegionWyk2Event__Dialog__Scr
 116E:04FE       L__RegionWyk3Button__Dialog__Sc
 116E:04B3       L__RegionWyk3Event__Dialog__Scr
 116E:0323       L__RegionWykGButton__Dialog__Sc
 116E:02D8       L__RegionWykGEvent__Dialog__Scr
 1B16:019E       L__RegisterRegion__MMMouse
 436F:0120       L__Register__Semafory
 0090:1798       L__Release__MANAGER
 1644:0422       L__RemoveHeap__Storage
 0090:188B       L__RemoveTermProc__MANAGER
 224D:0614       L__Rename__FIO
 2026:2002       L__ResetDataCollect__DataCollec
 2026:1A69       L__ResetMarks_A__DataCollect
 2026:1A86       L__ResetMarks_D__DataCollect
 16A0:09B7       L__ResetMetronome__Timer
 1A94:00B2       L__ResizeExtMemBlock__XMS
 0966:0413       L__RespProc__ZoomInterface
 1012:0104       L__RestartBP__Pomiar
 3F42:0092       L__Restart__D_DAcquizition
 3F42:0092       L__Restart__Monitor__D_DAcquizi
 3FAB:00AA       L__Restart__Monitor__V_DAcquizi
 3FAB:00AA       L__Restart__V_DAcquizition
 15E4:0041       L__RestoreEventHandler__SoftInt
 53D7:004D       L__RestoreInterruptVector__Devi
 527E:00FB       L__RestoreInterruptVector__RTSD
 16A0:08B3       L__RestoreTimer__Monitor__Timer
 0966:097F       L__Rezygnuj__ZoomInterface
 224D:056C       L__RmDir__FIO
 4F82:070A       L__Roughness_AddSample__VORR_Av
 4F82:0461       L__Roughness_ClearContainer__VO
 46C3:0E09       L__RresetCzesciOkregu__Polozeni
 2573:08D9       L__Run__Zoom
 0090:0892       L__SEND__MANAGER
 0090:0892       L__SEND__Scheduler__MANAGER
 0090:137C       L__STARTPROCESS__MANAGER
 2026:1867       L__Samp2Dis__DataCollect
 2026:1867       L__Samp2Dis__tablice__DataColle
 2026:1968       L__Samp2Kat__DataCollect
 2026:1968       L__Samp2Kat__tablice__DataColle
 2026:0002       L__SampleNr__DataCollect
 2026:0002       L__SampleNr__tablice__DataColle
 0C9A:1D15       L__SaveAResult__Files
 091F:0022       L__SaveAnRes__D_results
 0286:0028       L__SaveAnRes__V_results
 081E:02EF       L__SaveData__D_Files
 0C9A:09FD       L__SaveData__Files
 0710:02B4       L__SaveData__V_Files
 1F81:04AA       L__SaveDistEvents__EventsMng
 53D7:002C       L__SaveInterruptVector__Devices
 527E:00F6       L__SaveInterruptVector__RTSDevi
 47E6:2A2F       L__SaveSegmentTables__Kalibracj
 116E:35A5       L__ScreenStart__Screen
 224D:026A       L__Seek__FIO
 462F:0806       L__SegZakonczony__Marks
 02E1:0294       L__SegmentZakonczony__VORO_avra
 2D8B:0B2F       L__SetActive__InpLine
 22F2:02BB       L__SetAnalogVal__DGHInterface
 1981:0136       L__SetBank__Graphics
 1981:0136       L__SetBank__InternalMonitor__Gr
 43B5:018F       L__SetBaudRate__DigiRS
 22F2:0392       L__SetBinaryVal__DGHInterface
 54CB:0018       L__SetBits__BitByteOps
 116E:190A       L__SetButtons__Screen
 064B:0998       L__SetCPFlags__Tune
 27ED:1860       L__SetContents__GList
 5415:005A       L__SetCursorPos__Mouse
 2D8B:09E5       L__SetCursor__InpLine
 05AA:021B       L__SetDate__Czas
 53D7:0018       L__SetDeviceStatus__Devices
 527E:00BE       L__SetDeviceStatus__RTSDevice
 4C92:1193       L__SetDir__DrawEpson
 1D08:0137       L__SetEvalPROC__ScannerI
 5415:0157       L__SetEventHandler__Mouse
 15E4:0002       L__SetEventHandler__SoftIntHand
 4C92:085C       L__SetFont__DrawEpson
 5415:00FA       L__SetGraphicCursor__Mouse
 5415:00D2       L__SetHorizontalLimits__Mouse
 3510:058F       L__SetIdleMsg__CocpDsp
 2C1C:0AE1       L__SetLineStyle__HiLevGraf
 22F2:04A0       L__SetMessage__DGHInterface
 5415:01A0       L__SetMickeysPerPixel__Mouse
 27ED:0002       L__SetNotificationProc__GList
 1B16:02C7       L__SetOnTop__MMMouse
 2C1C:0182       L__SetPaletteEntry__HiLevGraf
 1B16:0780       L__SetParent__MMMouse
 4020:0012       L__SetPressure__AltInterface
 527E:011F       L__SetPrioMask__RTSDevice
 27ED:1754       L__SetSelectionNotf__GList
 27ED:1772       L__SetSelection__GList
 5415:01CE       L__SetSpeedThreshold__Mouse
 5415:0127       L__SetTextCursor__Mouse
 4C92:0849       L__SetTextMode__DrawEpson
 2D8B:02C9       L__SetText__InpLine
 05AA:01DA       L__SetTime__Czas
 5415:00E6       L__SetVerticalLimits__Mouse
 1981:0703       L__SetWindow__Graphics
 1981:0703       L__SetWindow__InternalMonitor__
 0070:0002       L__Set__FCBS
 436F:0002       L__Set__Semafory
 4C19:00DE       L__ShowCursorDIB__D_Slupek
 3896:0053       L__ShowCursorDIB__PI_ScrUtility
 4BA4:00CB       L__ShowCursorDIB__V_Slupek
 1B16:0BB2       L__ShowCursor__BezWyszeregowani
 1B16:0BB2       L__ShowCursor__MMMouse
 5415:001F       L__ShowCursor__Mouse
 2C1C:0785       L__ShowDIB__HiLevGraf
 176C:0265       L__ShowFirst__Messages
 4C19:0092       L__ShowScreenDIB__D_Slupek
 3896:0002       L__ShowScreenDIB__PI_ScrUtility
 4BA4:007F       L__ShowScreenDIB__V_Slupek
 0966:0062       L__Show__ZoomInterface
 0C9A:246E       L__SigInterpolacja__Files
 05E1:0032       L__Simulate__SimScanner
 3860:0018       L__Size__XMSTable
 116E:0E5D       L__SkalaMinusBP__Dialog__Screen
 116E:0D66       L__SkalaPlusBP__Dialog__Screen
 2FCC:0B98       L__SkasujInspekcje__Obloty
 2FCC:078A       L__SkasujOblot__Obloty
 27ED:033D       L__SkasujWszystko__GList
 27ED:0387       L__Skasuj__GList
 27ED:1698       L__Sortowana__GList
 537D:0002       L__Sound__Sounds
 43E7:018D       L__Sqr__Math
 1012:00F4       L__StartBP__Pomiar
 0F57:09BD       L__StartCPLoop__V_CP_ControlPro
 0710:0996       L__StartFileRes__V_Files
 2FCC:171F       L__StartInspection__Obloty
 2F16:0951       L__StartProcess__Mapa
 2F16:0951       L__StartProcess__monitor__Mapa
 16A0:0AE2       L__StartProtectedOperation__Tim
 0090:17CC       L__StartTimeSlicing__MANAGER
 46C3:08FE       L__Start_Polozenie__Polozenie
 3F42:0537       L__Start__D_DAcquizition
 24C1:08B2       L__Start__D_Odb
 1D08:005F       L__Start__ScannerI
 3FAB:05E6       L__Start__V_DAcquizition
 23FA:0A38       L__Start__V_Odb
 1012:012E       L__StopBP__Pomiar
 0F57:0A8A       L__StopCPLoop__V_CP_ControlProc
 0710:0B62       L__StopFileRes__V_Files
 16A0:0B56       L__StopProtectedOperation__Time
 46C3:0DD7       L__Stop_Polozenie__Polozenie
 3F42:0034       L__Stop__D_DAcquizition
 3F42:0034       L__Stop__Monitor__D_DAcquizitio
 3FAB:004C       L__Stop__Monitor__V_DAcquizitio
 1D08:00E4       L__Stop__ScannerI
 3FAB:004C       L__Stop__V_DAcquizition
 5319:0522       L__StringToCard__NumberConversi
 5319:04BA       L__StringToInt__NumberConversio
 5319:0587       L__StringToLongInt__NumberConve
 5319:05B5       L__StringToNum__NumberConversio
 3272:0052       L__StringToReal__RealConversion
 039C:0F4F       L__SubAng360__SpecConv
 039C:0DA7       L__SubAngle100__SpecConv
 039C:180D       L__SubDis__SpecConv
 039C:10B3       L__SubNormal__SpecConv
 039C:18A9       L__SubWCheck__SpecConv
 039C:17DA       L__Sub__SpecConv
 0C9A:1F1C       L__SubstituteAngle100__Files
 053C:05D7       L__SumaDlugosciSig__FlagAnal
 54CB:00F4       L__Swap__BitByteOps
 34FD:0002       L__SwitchTo__SwitchCntrl
 2FCC:051E       L__SzczegolowyPlikOpisu__Obloty
 16A0:092C       L__TInOneSecond__Timer
 0078:009C       L__TerminalProcedure__DOSEntry
 51F9:068A       L__Terminate__RTSMain
 05AA:02AF       L__Terminator__Czas
 1F81:087E       L__Terminator__EventsMng
 224D:08BA       L__Terminator__FIO
 1981:1059       L__Terminator__Graphics
 0090:1973       L__Terminator__MANAGER
 1B16:133C       L__Terminator__MMMouse
 1644:051E       L__Terminator__Storage
 1AAB:02F4       L__Terminator__XMSService
 0A18:0343       L__TestUP_PROC__T_Oblot
 1D33:01B7       L__TheodolitView__TheodolitRead
 1981:001D       L__Tryb__Graphics
 064B:014C       L__TuneADF__Tune
 064B:061B       L__TuneDMEforILS__Tune
 064B:05D9       L__TuneDMEforVOR__Tune
 064B:0409       L__TuneILS__Tune
 064B:065D       L__TuneVOR__Tune
 4AC8:0432       L__TurnOffADFSig__DGH_utils
 064B:009C       L__TurnOffADF__Tune
 4AC8:0366       L__TurnOffDMESig__DGH_utils
 4AC8:0002       L__TurnOffILSSig__DGH_utils
 4AC8:027A       L__TurnOffVORSig__DGH_utils
 064B:00F4       L__TurnOffVOR_ILS__Tune
 22F2:00A0       L__TurnOff__DGHInterface
 4AC8:03E4       L__TurnOnADFSig__DGH_utils
 4AC8:02E8       L__TurnOnDMESig__DGH_utils
 4AC8:016E       L__TurnOnGSSig__DGH_utils
 4AC8:00D0       L__TurnOnLOCSig__DGH_utils
 4AC8:020C       L__TurnOnVORSig__DGH_utils
 22F2:00F2       L__TurnOn__DGHInterface
 2A86:0663       L__TworzDialog__Dialog
 3B3E:0A53       L__TworzEventy__PiszEventy
 27ED:0028       L__TworzListe__GList
 548C:0127       L__UnAssignRead__Termbase
 548C:023E       L__UnAssignWrite__Termbase
 15E4:0517       L__UnInstallAllHandlers__Monito
 15E4:03FA       L__UnInstallHandler__Monitor__S
 15E4:03FA       L__UnInstallHandler__SoftIntHan
 53D7:0080       L__UninstallHandler__Devices
 527E:0058       L__UninstallHandler__RTSDevice
 29A8:0790       L__UniversalKBD__Buttons
 3896:024B       L__UniversalLAB__PI_ScrUtility
 3896:015B       L__UniversalLAF__PI_ScrUtility
 3896:02C3       L__UniversalLBB__PI_ScrUtility
 3896:01D3       L__UniversalLBF__PI_ScrUtility
 3896:029B       L__UniversalPAB__PI_ScrUtility
 3896:01AB       L__UniversalPAF__PI_ScrUtility
 3896:0313       L__UniversalPBB__PI_ScrUtility
 3896:0223       L__UniversalPBF__PI_ScrUtility
 3896:0273       L__UniversalSAB__PI_ScrUtility
 3896:0183       L__UniversalSAF__PI_ScrUtility
 3896:02EB       L__UniversalSBB__PI_ScrUtility
 3896:01FB       L__UniversalSBF__PI_ScrUtility
 1B16:03E9       L__UnregisterRegion__MMMouse
 436F:01FC       L__Unregister__Semafory
 4C19:011C       L__UnverslVal__D_Slupek
 4BA4:0109       L__UnverslVal__V_Slupek
 2026:2171       L__UpdTab800__DataCollect
 46C3:0C2C       L__UpdateM__Polozenie
 3F42:03CE       L__UpdateMarksOrbit__D_DAcquizi
 3FAB:0463       L__UpdateMarksOrbit__V_DAcquizi
 3F42:0431       L__UpdateMarksRadial__D_DAcquiz
 3FAB:04C6       L__UpdateMarksRadial__V_DAcquiz
 3896:06A1       L__UpdateSlupki__PI_ScrUtility
 1F81:060A       L__UpdateStrefa__EventsMng
 116E:34A4       L__Update__Screen
 392A:058F       L__Update__Slupek
 502F:0417       L__UstalSkalowanie__PrintCntrol
 3510:0002       L__UstawFormat__CocpDsp
 2FCC:01EB       L__UstawHomeDir__Obloty
 4406:0082       L__UstawOkresImpulsowania__FIlt
 3510:0315       L__UstawZmienne__CocpDsp
 2A86:0B28       L__UsunDialog__Dialog
 27ED:04C1       L__UsunListe__GList
 0B40:0423       L__UsunOblotP__T_Inspekcja
 0B40:0388       L__UsunOblot__T_Inspekcja
 064B:08FF       L__VORDecFch__Tune
 064B:08B9       L__VORIncFch__Tune
 1565:0022       L__V_Analiza__PI_Pomiar
 502F:0248       L__ValidPodz__PrintCntroll
 0A18:03A3       L__View_PROC__T_Oblot
 0090:0BEF       L__WAITC__MANAGER
 0090:0BEF       L__WAITC__Scheduler__MANAGER
 0090:0AFD       L__WAITS__MANAGER
 0090:0AFD       L__WAITS__Scheduler__MANAGER
 16A0:0309       L__WaitBefProtOper__Monitor__Ti
 16A0:0309       L__WaitBefProtOper__Timer
 22F2:005A       L__WaitForNewData__DGHInterface
 16A0:03B8       L__WaitMetronomeBefProtOper__Mo
 16A0:03B8       L__WaitMetronomeBefProtOper__Ti
 16A0:043F       L__WaitMetronome__Monitor__Time
 16A0:043F       L__WaitMetronome__Timer
 16A0:0277       L__Wait__Monitor__Timer
 16A0:0277       L__Wait__Timer
 1905:0017       L__Warn__MsgBox
 3510:0C01       L__WatchDogProcess__CocpDsp
 1E3D:0309       L__WatchDog__GPSRead
 1D33:0DF1       L__WatchDog__TheodolitRead
 1973:0069       L__WorseBGreater__WorseBecause
 1973:003E       L__WorseBLessDis__WorseBecause
 1973:0002       L__WorseBLess__WorseBecause
 2C1C:144C       L__Wr2StrXY__HiLevGraf
 2C1C:1504       L__Wr2fStrXY__HiLevGraf
 3AAB:02AF       L__WrF_TablicaOdci__DisResUtili
 4DD9:1799       L__WrF_TablicaOdci__Print
 3AAB:0170       L__WrFlagsTableWHeading__DisRes
 4DD9:15A6       L__WrFlagsTableWHeading__Print
 3AAB:023C       L__WrFlagsTable__DisResUtilitie
 4DD9:16BA       L__WrFlagsTable__Print
 4DD9:0360       L__WrLn__Print
 4DD9:0390       L__WrPrnLn__Print
 4DD9:02A2       L__WrPrn__Print
 4C92:1253       L__WrProc__DrawEpson
 3AAB:00F4       L__WrSPlus__DisResUtilities
 3AAB:00BE       L__WrS__DisResUtilities
 2C1C:138A       L__WrStrXY__HiLevGraf
 2C1C:12D2       L__WrStr__HiLevGraf
 4DD9:0232       L__Wr__Print
 5145:04B2       L__WriteCardMode__ARINC
 0710:0AF8       L__WriteFileRes__V_Files
 5145:03F4       L__WriteKillTime__ARINC
 546F:012C       L__WriteLn__Terminal
 3325:06C6       L__WritePrivateProfileString__I
 43B5:00F3       L__WriteString__DigiRS
 546F:013B       L__WriteString__Terminal
 5145:0173       L__WriteTXChannel__ARINC
 5145:026F       L__WriteTXData__ARINC
 5145:01F1       L__WriteTXLabel__ARINC
 5145:00FF       L__WriteTXParity__ARINC
 5145:032A       L__WriteTXRate__ARINC
 3AE4:00B4       L__WriteTab__D_DisResults
 3AAB:000A       L__WriteTab__DisResUtilities
 39B3:0220       L__WriteTab__V_DisResults
 05AA:0128       L__WriteTime__Czas
 54DF:0002       L__Write__Display
 224D:02BC       L__Write__FIO
 548C:01F1       L__Write__Termbase
 546F:011B       L__Write__Terminal
 22F2:0CCB       L__Writer__DGHInterface
 2A86:002D       L__WstawButton__Dialog
 27ED:08C9       L__WstawDoListy__GList
 2A86:03EC       L__WstawInpLine__Dialog
 2A86:0518       L__WstawListe__Dialog
 2A86:0156       L__WstawRadioButton__Dialog
 27ED:100F       L__Wybor__GList
 3896:0545       L__WykSlup__PI_ScrUtility
 116E:0B48       L__WykrEvent__Dialog__Screen
 392A:0002       L__WykresSlupkowy__Slupek
 2FCC:041D       L__WymInspekcjeDlaUrz__Obloty
 0B40:077C       L__WymienPasujaceObloty__T_Insp
 2FCC:04E4       L__WymienWszystkiePasujace__Obl
 4DD9:183C       L__WypiszStrefy__Print
 24C1:08D5       L__Wznow__D_Odb
 23FA:0A75       L__Wznow__V_Odb
 1A94:0000       L__XmsInstalled__XMS
 039C:197A       L__ZaokraglicDo500__SpecConv
 14E9:0091       L__ZapamietajBP__MouseMonitor__
 0A18:1021       L__Zapisz__T_Oblot
 24C1:08C5       L__Zatrzymaj__D_Odb
 23FA:0A58       L__Zatrzymaj__V_Odb
 2FCC:06B2       L__ZmienISkasuj__Obloty
 27ED:0AC4       L__ZmienListe__GList
 0B40:0488       L__ZmienOblot__T_Inspekcja
 0966:0892       L__ZmienOdniesienie__ZoomInterf
 2573:0A04       L__ZmienPDefault__Zoom
 2E5D:01C8       L__ZmiennaNiezalezna__PI_ZoomSp
 2573:1B58       L__ZmiennaNiezalezna__Zoom
 4DD9:12D3       L__ZnacznikiOdleglosci__Print
 2FCC:0FF8       L__ZnajdzInspekcje__Obloty
 2573:0889       L__ZoomOutPionP1__Zoom
 2573:089D       L__ZoomOutPionP2__Zoom
 2573:08B1       L__ZoomOutPionP3__Zoom
 2573:08C5       L__ZoomOutPionP4__Zoom
 2573:0880       L__ZoomOutPoziomP__Zoom
 1981:0CF3       L___Wr16StrXY__Graphics
 1981:0CF3       L___Wr16StrXY__InternalMonitor_
 1981:0DC9       L___Wr2StrXY__Graphics
 1981:0DC9       L___Wr2StrXY__InternalMonitor__
 1981:0F13       L___Wr2fStrXY__Graphics
 1981:0F13       L___Wr2fStrXY__InternalMonitor_
 1981:08E1       L___WrStrXY__Graphics
 1981:08E1       L___WrStrXY__InternalMonitor__G
 0C9A:1F61       L__addAngle100__Files
 0C9A:203F       L__addNormal__Files
 552C:04CA       L__arctan__MathLib0
 15E4:0067       L__checkBreak__SoftIntHandlingM
 552C:03A5       L__cos__MathLib0
 039C:14EA       L__entierCheck__SpecConv
 552C:05BE       L__entier__MathLib0
 039C:15A6       L__entier__SpecConv
 552C:0098       L__exp__MathLib0
 447F:109C       L__gpzdaOff__GPS_nov
 27ED:0B8E       L__kbHandler__GList
 552C:0209       L__ln__MathLib0
 4DD9:01DE       L__log__Print
 0078:0002       L__onEntryHandler__DOSEntry
 0078:004F       L__onExitHandler__DOSEntry
 552C:05AC       L__real__MathLib0
 552C:0251       L__sin__MathLib0
 17B7:1383       L__sprintf2__StdIO
 17B7:11F3       L__sprintf3__StdIO
 17B7:0D80       L__sprintf4__StdIO
 17B7:0F81       L__sprintf5__StdIO
 17B7:037B       L__sprintf__StdIO
 552C:002A       L__sqrt__MathLib0
 0C9A:1FCB       L__subNormal__Files
 74AF:0062       L_day__GPS_TRIMBLE
 74AF:0049       L_epe__GPS_TRIMBLE
 74AF:0066       L_hour__GPS_TRIMBLE
 74AF:0068       L_min__GPS_TRIMBLE
 74AF:0060       L_month__GPS_TRIMBLE
 74AF:006A       L_sec__GPS_TRIMBLE
 74AF:0064       L_year__GPS_TRIMBLE
 567F:0016       LastCreated__MANAGER
 5982:0027       LastDTidx__Screen
 6BBF:507D       LastDir__Ini
 5982:002E       LastEventIDX__Screen
 567F:021C       LastMask__MANAGER
 7630:0784       LastPosition__DrawEpson
 6B07:000A       LastPosition__HiLevGraf
 59BD:0004       LastX__MMMouse
 59BD:0006       LastY__MMMouse
 5A0C:0013       Last_Diffmode__GPSRead
 5A0C:001C       Last_EPE__GPSRead
 5A0C:0003       Last_Gdop__GPSRead
 5A0C:0005       Last_NumberOfSattelites__GPSRea
 5A0C:0007       Last_polGeo__GPSRead
 5A0C:0014       Last_tog__GPSRead
 6B06:0000       ListaDlg__Dialog
 5924:0011       ListaLokalizacjiBAK__T_Inspekcj
 5924:000D       ListaLokalizacji__T_Inspekcja
 5924:0009       ListaOblotowBAK__T_Inspekcja
 5924:0005       ListaOblotow__T_Inspekcja
 6AFC:0004       Lista__GList
 591C:0019       Lista__ZoomInterface
 5294:006F       Listen__RTSPriority
 74DC:0910       LocDev_delay__Kalibracja
 74DC:0920       LocPrcMod_delay__Kalibracja
 51E9:0032       LongIntegerOvf__RTSError
 567F:000E       LongestProcess__MANAGER
 51F9:0683       M2Halt__RTSMain
 59A1:0004       MDispl__Messages
 59A1:0000       MList__Messages
 59BD:03F5       MSemafor__MMMouse
 74B8:011F       MarkerShapes__Polozenie
 7630:0786       Masks__DrawEpson
 567F:000A       MaxNumOfReady__MANAGER
 567F:0126       MaxRecTime__MANAGER
 567F:000C       MaxRunTime__MANAGER
 74B8:0008       MaxVal__Polozenie
 6AA2:0016       Mem__D_Odb
 59A1:0008       MessageSound__Messages
 74DC:0960       MkrAgc_delay__Kalibracja
 7630:07A4       MnX__DrawEpson
 7630:07A6       MnY__DrawEpson
 6BBF:50E1       Modified__Ini
 5294:0000       MonEntry__RTSPriority
 5294:0043       MonExit__RTSPriority
 59BD:0058       MonitoCheck__BezPrzerwanOdMyszy
 55E4:0036       MonitorExitProc__RTSMonExit
 59BD:005A       MouseEvent__BezPrzerwanOdMyszy_
 591C:002F       MozeBycDme__ZoomInterface
 591C:002E       MozeBycGlowny__ZoomInterface
 7493:008C       NAVG_AFlg__VORPrint
 7493:0088       NAVG_flg__VORPrint
 7493:008E       NAVZ_AFlg__VORPrint
 7493:008A       NAVZ_flg__VORPrint
 74B8:011B       NCO__Polozenie
 51DD:0000       NMIServer
 6B95:00D5       NUrzadzDlaDopasuj__Obloty
 3C62:1D2C       N__AddAvrArr__AnalizujWynikiNaL
 3C62:1CB4       N__AddAvrDscr__AnalizujWynikiNa
 3C62:1E13       N__AddDevAvrArr__AnalizujWyniki
 02E1:0528       N__AddSample__AVR10_AddSample__
 1012:0B92       N__AlfaRefInfo__PomiarEP__Pomia
 447F:05E2       N__An_Frame_DOPA__GetFrame__GPS
 447F:0A2D       N__An_Frame_GPGGA__GetFrame__GP
 447F:0B25       N__An_Frame_GPVTG__GetFrame__GP
 447F:0C2E       N__An_Frame_GPZDA__GetFrame__GP
 3C62:1EF7       N__AnalizujWynikiNaLuku__O_Anal
 1D33:0107       N__Angle360__TheodolitView__The
 0A18:079C       N__AssignButt__InitLot__T_Oblot
 081E:0BA7       N__AssignName__InitLocals__D_Fi
 0710:0E01       N__AssignName__InitLocals__V_Fi
 3C62:09B3       N__AssignPolRes__R_Analiza__Ana
 1D33:086F       N__AssignRes__Analizer__Theodol
 35E9:0B8B       N__AutoFormat__OpisLog__Wykres
 17B7:031F       N__BuildNumber__sprintf__StdIO
 1B16:08F0       N__Button2Ev__GetEvent__BezPrze
 22F2:06B0       N__CHKSRight__Reader__Writer__D
 3ECE:011E       N__ClearAllCont__DoAnaliza__Ana
 3C62:1B1B       N__ClearAllCont__O_Analiza__Ana
 3C62:0D43       N__ClearAllCont__R_Analiza__Ana
 0286:0102       N__ClearAnRes__Init__V_results
 3C62:07FD       N__ClearAvrArr__Analiza__V_Coun
 3C62:0888       N__ClearDevAvrArr__Analiza__V_C
 3C62:1A68       N__ClearDevOAvr__O_Analiza__Ana
 064B:052E       N__ConvertFrqTOControlWord__Tun
 447F:0193       N__ConvertHexChar__ReadGPS__Get
 447F:0929       N__ConvertStrToWspGeo__GetWspGe
 3C62:01F8       N__CountAv__Analiza__V_Count
 3C62:0F9F       N__CountBends__R_Analiza__Anali
 1D33:097D       N__CountCrc__Analizer__Theodoli
 3C62:00EA       N__CountDev__Analiza__V_Count
 2F16:0260       N__CountMaxDist__resolveSituati
 3ECE:01A8       N__CountResult__DoAnaliza__Anal
 4F82:007A       N__Count__Bend_AddSample__VORR_
 16A0:057E       N__Count__IBMIntHandler__Monito
 4F82:0511       N__Count__Roughness_AddSample__
 116E:0FD7       N__CurrCursorMode__RuszKursor__
 116E:1236       N__CurrDistance__OpisDla__InitW
 1012:0C3F       N__DataLosInfo__PomiarEP__Pomia
 29A8:043F       N__Dec__DrawInter__Buttons
 116E:1B5E       N__Define__InitSlupki__Screen
 447F:0426       N__DekomozycjaRamki__GetFrame__
 1012:0BD2       N__DeltaRefInfo__PomiarEP__Pomi
 1012:0B16       N__DisposeButtons__Done__Pomiar
 116E:3664       N__DisposeButtons__Done__Screen
 3ECE:0235       N__DoAnaliza__Analiza__D_Count
 1012:0B84       N__Done__PomiarEP__Pomiar
 116E:20D1       N__DrawEvent__ShowMarks__Update
 2FCC:0DD3       N__ExistDIR__FreeSlot__Obloty
 2A86:0F3F       N__Expand__Aktywizuj__Dialog
 0A18:0B50       N__FillData__InitLot__T_Oblot
 392A:0317       N__FillR__Odswiez__Update__Slup
 46C3:0120       N__FlipX__InitMarkers__Polozeni
 46C3:005A       N__FlipY__InitMarkers__Polozeni
 447F:0538       N__GetCardinal__GetFrame__GPS_n
 3443:0A1B       N__GetCardinal__LoadProgramPar_
 1C67:056C       N__GetChar__KbdScan__ShortCuts
 3ECE:008A       N__GetEvent__DoAnaliza__Analiza
 1012:0767       N__GetEvent__PomiarEP__Pomiar
 3C62:0912       N__GetEvent__R_Analiza__Analiza
 2F16:0151       N__GetGPS__resolveSituation__Ma
 447F:058D       N__GetInteger__GetFrame__GPS_no
 1D33:09A8       N__GetNum__Analizer__TheodolitR
 17B7:0022       N__GetNum__sprintf__StdIO
 447F:04F0       N__GetReal__GetFrame__GPS_nov
 3443:01BC       N__GetStr__LoadVorData__V_Datab
 447F:09E3       N__GetWspGeo__An_Frame_GPGGA__G
 35E9:1FA0       N__GetX__PokazWykresZXms__Wykre
 35E9:1FC9       N__GetY__PokazWykresZXms__Wykre
 22F2:065C       N__HexDigit__CHKSRight__Reader_
 3C62:19FF       N__Ini_T_WynikAnalizyOrbita__O_
 1012:08A5       N__InitButtony__PomiarEP__Pomia
 0A18:063D       N__InitDefault__InitLot__T_Oblo
 091F:00FF       N__Init_MMA_SignalDscArr__Init_
 17B7:00C8       N__IntConv__sprintf__StdIO
 4052:089A       N__IntFrac__WrSignalDesc__OpisP
 3ECE:05BB       N__Interpolacja__Analiza__D_Cou
 3C62:249B       N__Interpolacja__Analiza__V_Cou
 447F:06A2       N__Isolate__ConvertStrToWspGeo_
 459F:01D7       N__Isolate__ReadG__GetFrame__GP
 2FCC:09B5       N__KasujPlik__KasujPodkartoteke
 116E:35AE       N__KasujSlupki__Done__Screen
 29A8:0A36       N__KillButton__DisposeButton__B
 1C67:0691       N__Kill__DeleteShortCut__ShortC
 392A:02EE       N__Kolor__Update__Slupek
 2FCC:11EB       N__KopiujPlik__KopiujPodkartote
 46C3:0A88       N__LL__DrawNCO__Polozenie
 35E9:1024       N__LineH__OpisLog__Wykres
 35E9:0C63       N__LineV__OpisLog__Wykres
 47E6:17D7       N__LoadChannel__LoadSegmentTabl
 47E6:15EC       N__LoadReal__LoadSegmentTables_
 47E6:1719       N__LoadSegment__LoadChannel__Lo
 47E6:1673       N__LoadTable__LoadSegmentTables
 47E6:14D4       N__LoadValue__LoadSegmentTables
 47E6:09FA       N__Lookup__OmnibearingV__Kalibr
 4052:03E8       N__MakeHeader__Raport__DMEPrint
 116E:2CA3       N__MarkDraw__WskazWykresy__Upda
 2F16:0696       N__Min__Promienie__Mapa
 116E:2D80       N__NapiszGPSFlg__NapiszGPS__Upd
 116E:2DE6       N__NapiszGPS__UpdateNapisy__Upd
 116E:30F6       N__NapiszTEO__UpdateNapisy__Upd
 1012:06EF       N__NastepnyStan__GetEvent__Pomi
 0966:0184       N__Niepusty__Load__ZoomInterfac
 3C62:2036       N__O_Analiza__Analiza__V_Count
 02E1:08B9       N__O_AvrCountErr__AVR10_AddSamp
 392A:036C       N__Odswiez__Update__Slupek
 2C1C:030F       N__OpenF__LoadDIB__HiLevGraf
 4052:0638       N__OpisBleduDME__OpisPomiaru__R
 116E:13D2       N__OpisDla__InitWykr__Dialog__S
 4052:0B08       N__OpisPomiaru__Raport__DMEPrin
 0F57:05DE       N__OrbitDirection__Orbit__V_CP_
 3C62:1C26       N__PodstawWynikNaLuku__O_Analiz
 459F:0509       N__PodstawWyniki__GetFrame__GPS
 3C62:0CD7       N__Pol_AddSample__R_Analiza__An
 419E:07B7       N__Pomiar2Str__OpisPomiaru__VOR
 1012:05EF       N__PoprawnieUstawButtony__Pomia
 3510:077A       N__PozWskazowki__SetLOC_G_SCP__
 4052:0C40       N__Print__Raport__DMEPrint
 1012:0C88       N__PrologAnalyse__PomiarEP__Pom
 4052:03C9       N__PromienANieOrbita__Raport__D
 3C62:1159       N__R_Analiza__Analiza__V_Count
 0F57:0149       N__RadialDirection__Radial__V_C
 1D33:0915       N__Rd__Analizer__TheodolitRead
 081E:0516       N__Rd__LoadData__D_Files
 0710:04DB       N__Rd__LoadData__V_Files
 4AC8:0480       N__ReadAnalog__ReadValue__DGH_u
 24C1:01EF       N__ReadDME__Oblicz__D_Odb
 3C62:1B68       N__ReadData__O_Analiza__Analiza
 459F:006A       N__ReadEOL__GetFrame__GPS_TRIMB
 459F:00C9       N__ReadGPS__GetFrame__GPS_TRIMB
 447F:0200       N__ReadGPS__GetFrame__GPS_nov
 459F:0306       N__ReadG__GetFrame__GPS_TRIMBLE
 23FA:002A       N__ReadNAV__Oblicz__V_Odb
 459F:0021       N__ReadPacketHead__GetFrame__GP
 24C1:001A       N__ReadSimul__ReadDME__Oblicz__
 22F2:07A4       N__Reader__Writer__DGHInterface
 116E:0BF3       N__RedrawRqs__Xchg__Dialog__Scr
 29A8:0052       N__Remove__RemoveToKill__MONITO
 1C67:01A0       N__Remove__RemoveToKill__monito
 46C3:0226       N__Rot90__InitMarkers__Polozeni
 46C3:0EEE       N__Rysuj__Promienie__Polozenie
 47E6:243E       N__SaveChannel__SaveSegmentTabl
 0A18:073A       N__SaveDefault__InitLot__T_Oblo
 47E6:2293       N__SaveReal__SaveSegmentTables_
 47E6:23A0       N__SaveSegment__SaveChannel__Sa
 47E6:230E       N__SaveTable__SaveSegmentTables
 47E6:219B       N__SaveValue__SaveSegmentTables
 1012:015F       N__Sek2__PolaryzacjaBP__Pomiar
 3510:05AF       N__SendMsg__ControlLoop__CocpDs
 0B40:0FC0       N__SetDefInsp__InspekcjaEP__T_I
 3510:0823       N__SetLOC_G_SCP__ControlLoop__C
 116E:1AFD       N__ShowCurrDIB__InitSlupki__Scr
 116E:22B6       N__ShowMarks__UpdateWykr__Updat
 2026:034B       N__ShrinkX__Tablice800__tablice
 2026:0219       N__Shrink__Tablice800__tablice_
 02E1:0495       N__Side__AddSample__AVR10_AddSa
 462F:010A       N__Side__AngAddSample__Marks
 462F:0423       N__Side__DisAddSample__Marks
 3C62:010B       N__SigMaxAvr__Analiza__V_Count
 35E9:17B3       N__SkalX__PokazWykresNSLog__Wyk
 35E9:222D       N__SkalX__PokazWykresZXms__Wykr
 35E9:062B       N__SkalX__PokazWykres__Wykres
 35E9:0101       N__SkalY__Draw__Wykres
 35E9:0853       N__SkalY__PokazWykres1__Wykres
 35E9:1546       N__SkalY__PokazWykresNSLog__Wyk
 35E9:1FF2       N__SkalY__PokazWykresZXms__Wykr
 35E9:052F       N__SkalY__PokazWykres__Wykres
 392A:0229       N__Skala__Update__Slupek
 47E6:143A       N__Status__Error__Kalibracja
 17B7:023F       N__StripSpaces__sprintf__StdIO
 3325:018F       N__ToEOL__LookForEntry__Ini
 064B:0303       N__TuneGS__TuneILS__Tune
 0C9A:1965       N__TworzK__KopiujWszystkiePliki
 459F:03CB       N__TypGPS__GetFrame__GPS_TRIMBL
 2026:20FA       N__UpdateAlfaMarks__UpdTab800__
 2026:2092       N__UpdateDistMarks__UpdTab800__
 2026:0152       N__UpdateNR__Tablice800__tablic
 116E:3357       N__UpdateNapisy__Update__Screen
 116E:2485       N__UpdateWykr__Update__Screen
 053C:0010       N__UsunNajmniejszy__FlagErr_Ana
 2A86:0A79       N__UsunPola__UsunDialog__Dialog
 27ED:02FB       N__UsunStr__SkasujWszystko__GLi
 419E:05C6       N__Wr4Signals__OpisPomiaru__VOR
 4052:0533       N__WrSignalDesc__OpisBleduDME__
 4052:098B       N__WrSignalDesc__OpisPomiaru__R
 419E:0718       N__WrSignalDesc__OpisPomiaru__V
 4052:05D9       N__WrSignalInt__OpisBleduDME__O
 27ED:107D       N__WrStr__Draw__GList
 3B3E:0AA6       N__WrStr__PiszNaEkranie__PiszEv
 39B3:03F7       N__WriteBends__DispResults__V_D
 39B3:0B25       N__WriteDevOrbit__DispResults__
 39B3:05DF       N__WriteDev__DispResults__V_Dis
 39B3:0DA2       N__WriteFlgAndLowSignal__DispRe
 419E:0936       N__WriteFlgAndLowSignal__OpisPo
 3AE4:027A       N__WriteMod__DispResults__D_Dis
 39B3:0861       N__WriteMod__DispResults__V_Dis
 116E:1F5F       N__WriteText__ShowMarks__Update
 116E:2D08       N__WskazWykresy__Update__Screen
 459F:016D       N__WspGeoPoprawne__ReadG__GetFr
 447F:0B90       N__Wydziel__An_Frame_GPZDA__Get
 459F:043F       N__Wydziel__GetFrame__GPS_TRIMB
 3896:039B       N__WykSlupB__WykSlup__PI_ScrUti
 3896:0470       N__WykSlupF__WykSlup__PI_ScrUti
 46C3:0959       N__XY__LL__DrawNCO__Polozenie
 3C62:1AEF       N__ZerujFlagi__O_Analiza__Anali
 3B3E:038B       N__Znacznik__Decode__PiszEventy
 116E:2201       N__ZwKrokOpisuOsi__ShowMarks__U
 0F57:0586       N__checkDir__OrbitDirection__Or
 0F57:009B       N__checkDir__RadialDirection__R
 3272:04DF       N__convDigit__RealToString__Rea
 3272:0572       N__convertnumber__RealToString_
 3272:05EA       N__exp10__RealToString__RealCon
 02E1:0349       N__findidx__AddSample__AVR10_Ad
 462F:0050       N__findidx__AngAddSample__Marks
 462F:037F       N__findidx__DisAddSample__Marks
 462F:0670       N__findidx__SegZakonczony__Mark
 02E1:013A       N__findidx__SegmentZakonczony__
 3510:090E       N__pozycjaStrzalki__ControlLoop
 4F82:04E1       N__sqr__Count__Roughness_AddSam
 0F57:0559       N__succ__OrbitDirection__Orbit_
 0F57:006E       N__succ__RadialDirection__Radia
 447F:03B1       N__szukaniePola__GetFrame__GPS_
 5926:013F       Nadajnik1__CommonData
 5926:0140       Nadajnik2__CommonData
 5713:00A4       NameRes__V_Files
 593C:00B0       NamesAlfa__Files
 593C:0008       NamesAn__Files
 593C:00E8       NamesComm__Files
 5724:0074       NamesDis__D_Files
 593C:0040       NamesDist__Files
 5724:0004       NamesSig__D_Files
 5713:0004       NamesSig__V_Files
 5978:006E       NapisB_01__Pomiar
 74B8:0020       Narysowany__Polozenie
 5926:0052       NazwaOblotu__CommonData
 6B95:0000       NazwaPlikuIni__Obloty
 5926:007B       NazwaPlikuOpisu__CommonData
 6B95:015B       NazwaPlikuZOpisem__Obloty
 7493:0067       NazwaPliku__VORPrint
 5926:0000       NazwaUrzadz1__CommonData
 5926:0029       NazwaUrzadz2__CommonData
 52A0:0000       NewProcess__RTSCoroutine
 5982:002D       NextRedraw__Screen
 5A06:0053       Nie_mozna_uruchomic_kanalu_Teod
 6AA6:0274       NrX__Zoom
 567F:0008       NuOfErrorProc__MANAGER
 567F:0120       NuOfReady__MANAGER
 59FE:000B       NumEl__monitor__ShortCuts
 567F:001A       NumberOfProc__MANAGER
 599C:0000       OCCUPED__Storage
 5A0C:0000       ObecnyStan__GPSRead
 6AA6:0288       ObslugaWylaczona__Zoom
 76BE:0007       OdnB__PrintCntroll
 591C:002A       OdnB__ZoomInterface
 5926:013D       OdnDlaPomBledu__CommonData
 6A9D:003F       OdnDlaPomBledu__V_Odb
 5926:013E       OdnDlaPomOdl__CommonData
 6BBB:0008       OdniesienieMtx__GeoArithmetic
 76BE:0006       Odniesienie__PrintCntroll
 7493:0002       Odniesienie__VORPrint
 5982:007D       OileKursor__Dialog__Screen
 59BD:005E       OldButtons__BezPrzerwanOdMyszy_
 74DC:0968       OmnibearingProgi__Kalibracja
 74DC:0948       Omnibearing_delay__Kalibracja
 6AA6:0004       OpisWykresu__Zoom
 6B0E:0000       Opisy__PI_ZoomSpecific
 5926:0144       Orbita__CommonData
 5924:0015       OstatniOblot__T_Inspekcja
 591C:0029       OstatniStan__ZoomInterface
 6A9B:0014       Ostrzezenie_ze_za_dlugo__DGHInt
 6AA6:0555       PMDLicznik__Zoom
 55E4:0002       PSPAddress__RTSMain
 59A3:0006       P_A__MsgBox
 5271:004D       ParCopy__RTSLanguage
 74DC:0AF8       Par__Kalibracja
 6B07:0018       Path__HiLevGraf
 599F:000C       PeriodCount__Monitor__Timer
 599F:000A       Period__Monitor__Timer
 599F:000E       PeriodicProcedure__Monitor__Tim
 70FD:0000       PoczatekStrony__PiszEventy
 6B8E:0052       PokazywacPolozenie__Mapa
 76AB:0004       PolozenieNapisu__Print
 5A06:0000       PolozenieTeodolitu__TheodolitRe
 5921:0021       Pomiar1__T_Oblot
 5707:0000       PomiarANieArchiwum__PI_PA
 5921:001D       Pomiar__T_Oblot
 6AA6:0224       PosMarkerX__Zoom
 5926:0146       Predkosc__CommonData
 5982:0032       Predrawmarksreq__Screen
 5982:0036       Predrawreq__Screen
 76AB:000A       PrevIdx__Print
 7630:0796       PrevPage__DrawEpson
 59BD:0054       PrevReg__MMMouse
 7630:0000       PrnPort__DrawEpson
 76AB:0000       PrnX__Print
 76AB:0002       PrnY__Print
 5978:0000       ProcPom__Pomiar
 5701:0000       Procedura__V_CommonTypes
 74B8:011A       ProcesAktywny__Polozenie
 5926:0142       Promien__CommonData
 74B8:0006       Promien__Polozenie
 6AA6:0278       PrzeskokWDol__Zoom
 6AA6:0276       PrzeskokWGore__Zoom
 51E9:003C       RangeError__RTSError
 5921:0019       Raport__T_Oblot
 567F:0004       ReadyFirst__MANAGER
 567F:0118       ReadyLast__MANAGER
 52E6:0000       RealError__RTSRealError
 74B8:0112       Rect__Polozenie
 5924:0004       RedrawScr__T_Inspekcja
 5921:0025       RedrawScr__T_Oblot
 5A00:000A       RefAlfa__ScannerI
 5A00:0022       RefDis__ScannerI
 5982:0047       RegionWyk1Created__Screen
 5982:0043       RegionWyk1__Screen
 5982:004C       RegionWyk2Created__Screen
 5982:0048       RegionWyk2__Screen
 5982:0051       RegionWyk3Created__Screen
 5982:004D       RegionWyk3__Screen
 5982:0042       RegionWykGCreated__Screen
 5982:003E       RegionWykG__Screen
 5982:0052       RegionWykresow__Screen
 59BD:0000       Regiony__MMMouse
 6AA2:0008       Reply__D_Odb
 7630:07A3       Rotation__DrawEpson
 595E:0195       Running__V_CP_ControlProc
 5982:006E       RysSytMaxDis__Dialog__Screen
 6B8E:0053       RysSytMaxDis__Mapa
 6AA2:0024       SSmin__D_Odb
 176C:0058       S__ACKMess__Messages
 0090:0002       S__ASSERT__MANAGER
 0090:11B5       S__ActivateProcess__Scheduler__
 2A86:0FCA       S__Aktywizuj__Dialog
 3325:0F29       S__AllocateBuffer__Ini
 1D33:0A73       S__Analizer__TheodolitRead
 0C9A:1E70       S__AssignName__Files
 1CE1:0002       S__BCD__HRD_Clock
 176C:0382       S__Beep__Messages
 1AAB:03C4       S__Blad__XMSService
 16A0:0C05       S__BreakKey__Timer
 27ED:0FE8       S__CP__GList
 0090:18F5       S__CallTerminatingProcedures__M
 039C:0163       S__CheckCNil__SpecConv
 039C:009C       S__CheckINil__SpecConv
 1CE1:003A       S__CheckUpdateCycle__HRD_Clock
 2A86:15B1       S__ChwilowoZablokujDialog__Dial
 0F57:04FD       S__ClearAngVelContiner__V_CP_Co
 24C1:077B       S__ClearContiners__D_Odb
 23FA:08AB       S__ClearContiners__V_Odb
 0F57:0012       S__ClearLinVelContiner__V_CP_Co
 0090:04D7       S__ClearQueue__MANAGER
 3F42:0002       S__CommReq__Monitor__D_DAcquizi
 3FAB:001A       S__CommReq__Monitor__V_DAcquizi
 4C92:0942       S__Conv2PL__DrawEpson
 0070:001A       S__CtrlBreakProc__FCBS
 2A86:1185       S__CzyMoznaSkonczyc__Dialog
 3B3E:0786       S__Decode__PiszEventy
 1B16:0002       S__DefineStdCursor__MMMouse
 14E9:042C       S__DisposeButtons__MouseMonitor
 116E:1876       S__DisposeKursor__Dialog__Scree
 2573:12E0       S__DobierzDzialki__Zoom
 3194:006A       S__DodajPolozenieGeo__GeoArithm
 4C92:0ABD       S__DrawChar0__DrawEpson
 4C92:0E1D       S__DrawChar90__DrawEpson
 1B16:0C8E       S__DrawCursor__BezWyszeregowani
 29A8:047D       S__DrawInter__Buttons
 46C3:044A       S__DrawMarker__Polozenie
 46C3:0BA8       S__DrawNCO__Polozenie
 4C92:0DA0       S__DrawText0__DrawEpson
 4C92:10A7       S__DrawText90__DrawEpson
 27ED:1181       S__Draw__GList
 2D8B:0827       S__Draw__InpLine
 2573:0978       S__EnableAll__Zoom
 46C3:0855       S__EraseMarker__Polozenie
 47E6:1489       S__Error__Kalibracja
 436F:02B0       S__ExceptionHandler__Semafory
 3325:0BE2       S__Expand__Ini
 2573:0B17       S__FillData__Zoom
 2F16:09DC       S__FillPromieie__Mapa
 1EA9:08D1       S__FillSignalTable__DGHIni
 29A8:0205       S__FindAMark__MONITOR__Buttons
 1C67:0424       S__FindAMark__monitor__ShortCut
 1981:1064       S__FindROMFontAddr__Graphics
 1C67:0382       S__Find__monitor__ShortCuts
 3325:001E       S__FormSectionString__Ini
 1AAB:01F3       S__Free__XMSService
 1644:04FF       S__GetChain__Storage
 2C1C:15BC       S__GetDir__HiLevGraf
 1B16:096B       S__GetEvent__BezPrzerwanOdMyszy
 3F42:00C1       S__GetEvent__Monitor__D_DAcquiz
 3FAB:00D9       S__GetEvent__Monitor__V_DAcquiz
 14E9:036D       S__GetEvent__MouseMonitor__PI_A
 1981:09BB       S__GetFontPtr__InternalMonitor_
 1CE1:006D       S__GetGodzina__HRD_Clock
 1644:04CB       S__GetStrategia__Storage
 1981:008B       S__HugeMemCpy__Graphics
 5145:0002       S__INByte__ARINC
 0090:05E2       S__INSERT__MANAGER
 2FCC:0266       S__IleInspekcji__Obloty
 3F42:0494       S__IniData__D_DAcquizition
 3FAB:0529       S__IniData__V_DAcquizition
 14E9:017C       S__InitButtony__MouseMonitor__P
 116E:1983       S__InitButtony__Screen
 116E:17F1       S__InitDialog__Dialog__Screen
 1F81:04F4       S__InitEvents__EventsMng
 224D:097A       S__InitFiles__FIO
 116E:1D4C       S__InitKrokOpisuOsi__Screen
 081E:0C53       S__InitLocals__D_Files
 0710:0EAD       S__InitLocals__V_Files
 46C3:032E       S__InitMarkers__Polozenie
 116E:1B9A       S__InitSlupki__Screen
 2026:15DF       S__InitTab__tablice__DataCollec
 1EA9:03D8       S__InitTableOfNames__DGHIni
 436F:03BE       S__InitTbl__Semafory
 116E:1749       S__InitWykr__Dialog__Screen
 4C19:0211       S__Init__D_Slupek
 0C9A:2852       S__Init__Files
 1B16:00D9       S__Init__MMMouse
 1905:064D       S__Init__MsgBox
 3999:0002       S__Init__ScreenCTypes
 4BA4:01E1       S__Init__V_Slupek
 0090:002D       S__InsertReady__MANAGER
 29A8:0002       S__Insert__MONITOR__Buttons
 16A0:0002       S__Insert__Monitor__Timer
 1C67:013F       S__Insert__monitor__ShortCuts
 0090:1A6A       S__InstallTerminator__MANAGER
 2FCC:0B21       S__Kasuj_DelDir__Obloty
 447F:0170       S__KopZnakDoKanaluMonitora__GPS
 2FCC:1564       S__KopiujKartoteke__Obloty
 2573:04E7       S__KtoryWykres__Zoom
 116E:18A7       S__KursoffOff__Dialog__Screen
 116E:18CD       S__KursoffOn__Dialog__Screen
 2573:0BAE       S__LoadData__Zoom
 1981:108B       S__LoadPLFonts__Graphics
 3443:0A8A       S__LoadProgramPar__V_Database
 47E6:1E6D       S__LoadSegmentTables__Kalibracj
 3443:0303       S__LoadVorData__V_Database
 0966:01E1       S__Load__ZoomInterface
 35E9:009B       S__Log10__Wykres
 35E9:1DFD       S__LogPos__Wykres
 3325:020F       S__LookForEntry__Ini
 3325:010A       S__LookForSection__Ini
 419E:03E2       S__MakeHeader__VORPrint
 2F16:0419       S__MakeMAP__Mapa
 4C92:0107       S__Map__DrawEpson
 3860:0245       S__Map__XMSTable
 29A8:0318       S__MarkBut__MONITOR__Buttons
 43B5:004E       S__MarkError__DigiRS
 2573:1E59       S__MaxV__Zoom
 2C1C:0007       S__Max__HiLevGraf
 3194:0601       S__Mile__GeoArithmetic
 2573:1EA8       S__MinMax__Zoom
 2573:1E0A       S__MinV__Zoom
 2C1C:0027       S__Min__HiLevGraf
 0A18:0616       S__NadajnikCH__T_Oblot
 4B53:002A       S__Next__Random
 2C1C:0741       S__Norm__HiLevGraf
 3896:033B       S__NowySlup__PI_ScrUtility
 5145:0062       S__OUTByte__ARINC
 176C:0358       S__OUTMessage__Messages
 3194:01D4       S__OdejmijPolozenieGeo__GeoArit
 3194:04C0       S__Odl2Geo__GeoArithmetic
 3194:012E       S__Odwr__GeoArithmetic
 419E:09C0       S__OpisPomiaru__VORPrint
 4DD9:0886       S__PointA__Print
 4DD9:0ADD       S__PointB__Print
 116E:054D       S__PokazWgKursora__Dialog__Scre
 0B40:031E       S__Pokaz__T_Inspekcja
 0A18:0420       S__Pokaz__T_Oblot
 2573:182C       S__PopX__Zoom
 2573:1A0A       S__PopY__Zoom
 419E:0F86       S__Print__VORPrint
 419E:03C3       S__PromienANieOrbita__VORPrint
 2573:179A       S__PushX__Zoom
 2573:18B7       S__PushY__Zoom
 0090:07D2       S__REMOVE__MANAGER
 3194:03A9       S__Rad__GeoArithmetic
 1EA9:0CDC       S__ReadDGHIniFile__DGHIni
 0A18:03C3       S__RealVal__T_Oblot
 0A18:0484       S__RealValid__T_Oblot
 116E:01D5       S__RectWykresy__Screen
 2F16:008A       S__RedefineMaxDist__Mapa
 2573:082E       S__RedrawAll__Zoom
 1B16:0B5F       S__RedrawAt__BezWyszeregowania_
 27ED:1046       S__Redraw__GList
 2573:2059       S__Redraw__Zoom
 0C9A:1902       S__RemoveBSl__Files
 1B16:0C0A       S__RemoveCursor__BezWyszeregowa
 0090:0236       S__RemoveReady__MANAGER
 29A8:01B5       S__RemoveToKill__MONITOR__Butto
 1C67:032C       S__RemoveToKill__monitor__Short
 16A0:0159       S__Remove__Monitor__Timer
 02E1:00C8       S__ResetContiner__VORO_avrage
 116E:10CD       S__RuszKursor__Dialog__Screen
 0090:102A       S__STOPPROCESS__Scheduler__MANA
 0A18:0E5E       S__SciezkaDoKataloguOpisu__T_Ob
 064B:049F       S__SendDMECntrlWrd__Tune
 064B:0007       S__Send__Tune
 1644:04E7       S__SetChain__Storage
 16A0:07F7       S__SetCount__Monitor__Timer
 47E6:09B6       S__SetError__ErrorHand__Kalibra
 2C1C:0230       S__SetPalette__HiLevGraf
 27ED:1790       S__SetPositions__GList
 27ED:16B4       S__SetSelectionInt__GList
 1B16:0639       S__SetShape__MMMouse
 1644:04B3       S__SetStrategia__Storage
 05AA:00E8       S__SetTimeAndDate__BezPrzerwan_
 116E:0CC9       S__ShowBarCursor__Dialog__Scree
 2FCC:0738       S__SkasujKartoteke__Obloty
 3194:02F0       S__SredniPolozenieGeo__GeoArith
 081E:0065       S__StartFiles__D_Files
 0710:007F       S__StartFiles__V_Files
 2026:1BBB       S__Start__DataCollect
 2C1C:0047       S__StdPalette__HiLevGraf
 0090:1144       S__StopAError__Scheduler__MANAG
 2F16:0922       S__Stop__monitor__Mapa
 2C1C:071E       S__Swap__HiLevGraf
 1B16:0623       S__Swap__MMMouse
 0001:0002       S__SwitchContext__AT
 2026:0422       S__Tablice800__tablice__DataCol
 064B:0697       S__TuneVOR_ILS__Tune
 3896:009A       S__UniversalAB__PI_ScrUtility
 116E:0259       S__UniversalEvent__Dialog__Scre
 29A8:03BB       S__Unmark__MONITOR__Buttons
 1C67:04D2       S__Unmark__monitor__ShortCuts
 116E:0FA8       S__UpdateMap__Dialog__Screen
 502F:01FC       S__UstawLiczbe__PrintCntroll
 502F:01BC       S__UstawStrony__PrintCntroll
 4C92:00A5       S__UstawTrybTekstowy__DrawEpson
 0A18:0F56       S__Wlacz_Wylacz__T_Oblot
 1B16:066E       S__WrBit__MMMouse
 1B16:0651       S__WrIdx__MMMouse
 3B3E:1163       S__WrLn__PiszEventy
 3B3E:117D       S__WrP__PiszEventy
 3B3E:10B0       S__WrStrLn__PiszEventy
 3B3E:10DC       S__WrStr__PiszEventy
 1AAB:0412       S__WrWarning__XMSService
 05AA:003B       S__Write__BezPrzerwan__Czas
 2FCC:02DC       S__WymienWszystkie__Obloty
 116E:0C7D       S__Xchg__Dialog__Screen
 0A18:044E       S__ZakonczDlg__T_Oblot
 2FCC:0EB9       S__ZnajdzNumInspekcji__Obloty
 3B3E:0D48       S__min__PiszEventy
 2F16:037D       S__resolveSituation__Mapa
 1D33:0852       S__signalError__TheodolitRead
 59FE:0005       SavedChar__monitor__ShortCuts
 6BBF:5019       SavedFileName__Ini
 5926:00FC       SciezkaOpisuPomiaru__CommonData
 6B0E:07BC       Sciezka__PI_ZoomSpecific
 59FE:0001       ShortCutList__monitor__ShortCut
 5A0F:0F70       SignalDescr__DGHIni
 5A00:0053       Simul__ScannerI
 70ED:000C       SkalaCPMax__CocpDsp
 70ED:0008       SkalaCP__CocpDsp
 70ED:000E       SkalaWPMax__CocpDsp
 70ED:000A       Skala__CocpDsp
 5271:0000       SpecialCASE__RTSLanguage
 6AA2:000C       Squitter__D_Odb
 6B95:01DD       SrcDir__Obloty
 74B8:0002       Srodek__Polozenie
 51F9:0673       StackCheck__RTSMain
 51F9:067C       StackOvf__RTSMain
 74B8:0000       StalyKat__Polozenie
 5978:0054       StanButtonow__Pomiar
 5978:0075       StanZestawu__Pomiar
 599C:0023       StaraStrategia__Storage
 0001:062E       StartModula
 599C:0025       StaryCh__Storage
 6B95:0044       Stat_File_Monitor__Obloty
 6B95:0040       Stat_Size_Monitor__Obloty
 5A06:003D       State__TheodolitRead
 567F:001C       Statistic__MANAGER
 6AFD:0000       StatusR__GrafUtil
 59BD:01E5       Stored__BezPrzerwanOdMyszy__MMM
 5704:0000       StringRect__BezPrzerwan__Czas
 6B07:0008       Style__HiLevGraf
 74DC:0940       SubcarPrcMod_delay__Kalibracja
 5704:0008       SystemTime__BezPrzerwan__Czas
 5A00:0028       TEO_A__ScannerI
 5A00:003A       TEO_DGPSpoprawki__ScannerI
 5A00:0030       TEO_E__ScannerI
 5A00:0038       TEO_OK__ScannerI
 599F:0002       TIOS__Timer
 599F:0006       TOQueue__Monitor__Timer
 567F:0124       TSSInterval__MANAGER
 74DC:0000       TabKalib2P__Kalibracja
 5A0F:08E8       TableOfNames__DGHIni
 749D:0000       TablicaSemaforow__Semafory
 5A00:000C       TeoAlfaF__ScannerI
 5A06:0036       TeoEvNr__TheodolitRead
 5921:0015       TestUP__T_Oblot
 76AB:0006       TextModeOutProc__Print
 5982:0029       ThisDTidx__Screen
 599F:0000       TimeCounter__Timer
 567F:0128       TimeIntNum__MANAGER
 76AB:00D5       Tmpl__Print
 6AFD:006E       Tone__GrafUtil
 6AA2:0018       Trace__D_Odb
 52A0:0143       Transfer__RTSCoroutine
 748B:0009       TrwaPomiarPolaryzacji__V_DAcqui
 59A1:000A       TurnBeepOn__Messages
 5BBE:0000       VAL1__DataCollect
 5982:0000       VAL1__Screen
 5BBE:3210       VAL2__DataCollect
 5982:0004       VAL2__Screen
 5BBE:6420       VAL3__DataCollect
 5982:0008       VAL3__Screen
 5BBE:9630       VAL4__DataCollect
 5982:000C       VAL4__Screen
 5BBE:C8A6       VALX__tablice__DataCollect
 70CE:01D3       VOR_O_czuloscCP__V_Database
 70CE:01D1       VOR_O_czuloscWP__V_Database
 70CE:01D7       VOR_R_czuloscCP__V_Database
 70CE:01D5       VOR_R_czuloscWP__V_Database
 5708:0000       VORfreqCRT__Tune
 567F:0208       VarDR__MANAGER
 74DC:0950       VorAgc_delay__Kalibracja
 74DC:0930       VorRefPrcMod_delay__Kalibracja
 74DC:0938       VorVarPrcMod_delay__Kalibracja
 567F:0122       WaitForInt__MANAGER
 6AFD:006C       WaitTime__GrafUtil
 74DC:13F8       WystapilBlad__Kalibracja
 6B07:0059       XS__HiLevGraf
 6AA6:02C9       XStackDepth__Zoom
 6AA6:02A1       XStack__Zoom
 6B07:005B       YS__HiLevGraf
 6AA6:054B       YStackDepth__Zoom
 6AA6:02CB       YStack__Zoom
 591C:0005       Zawartosc__ZoomInterface
 76AB:0013       ZestawProbekBinDoWyboru__Print
 5670:0003       Zestaw__AT
 76BE:0004       Zestaw__PrintCntroll
 5982:0010       Zestaw__Screen
 7493:0000       Zestaw__VORPrint
 5982:007F       ZmianaSkaliWpionie__Dialog__Scr
 6AA6:0000       ZmienP__Zoom
 6AA6:0286       ZnacznikPrzerwy__Zoom
 6AA6:028D       ZoomOutPion__Zoom
 6AA6:0289       ZoomOutPoziom__Zoom
 7621:0000       a__Random
 74AF:0006       actPart__GPS_TRIMBLE
 74A6:0006       actPart__GPS_nov
 55E4:001A       activProcess__RTSMain
 6A9B:0010       activated__DGHInterface
 5603:0000       addProcess__RTSCoroutine
 761D:0000       address__DGH_utils
 6A9D:0014       agc__V_Odb
 5982:001C       aktFormat360__Screen
 595E:0192       aktOrbita__V_CP_ControlProc
 5982:0013       aktPromienOdAnt__Screen
 5982:0011       aktPromien__Screen
 6B8E:0040       aktualny__Mapa
 5978:0082       alfaOff__Pomiar
 5730:0000       anRes__D_results
 56A2:0000       anRes__V_results
 595E:00CD       angCont__V_CP_ControlProc
 5BBE:C844       angContiner__DataCollect
 74B8:011C       angContiner__Polozenie
 5441:001E       areSetsEQ__Longs
 6A9D:0002       audio__V_Odb
 5921:0005       bNadajnik__T_Oblot
 59A6:0004       bank__InternalMonitor__Graphics
 59A6:0006       bankstart__InternalMonitor__Gra
 6B95:0099       bd_NazwaPliku__Obloty
 6B95:00AA       bd_Sekcja__Obloty
 6B95:00B5       bd_WpisNazwa__Obloty
 70FE:00FC       bendsCon__V_Count
 761D:0020       binAddress__DGH_utils
 6A9B:0006       binaryDtaSign__DGHInterface
 55E4:0006       blockList__RTSMain
 599B:0000       break__SoftIntHandlingManager
 74AF:0009       bufor__GPS_TRIMBLE
 74A6:000C       bufor__GPS_nov
 5982:0025       by23__Screen
 6BBF:5017       charsInBuffer__Ini
 6BBF:50E2       check__Ini
 74AF:0002       chrCount__GPS_TRIMBLE
 74A6:0002       chrCount__GPS_nov
 70FA:0000       colPos__V_DisResults
 5441:00B4       complement__Longs
 5B08:0B48       conEnr__EventsMng
 6A9B:0008       csErrorCnt__DGHInterface
 55E4:0016       curProcess__RTSMain
 5BBE:C85E       curr23__tablice__DataCollect
 5A00:0054       currAlfaOff__ScannerI
 5995:0004       currButtonSet__MouseMonitor__PI
 5978:0058       currButtonSet__Pomiar
 5982:003A       currConsoleEv__Screen
 5730:1EA4       currDT__D_results
 56A2:05A3       currDT__V_results
 70ED:0019       currErrorCP__CocpDsp
 70ED:001D       currErrorGS__CocpDsp
 70ED:001B       currErrorWP__CocpDsp
 70ED:0002       currFROMflg__CocpDsp
 70ED:0000       currGSflg__CocpDsp
 748B:0008       currGlownyOdbiornik__V_DAcquizi
 70ED:0015       currLNumber__CocpDsp
 70ED:0026       currMsg__CocpDsp
 70ED:0001       currNAVflg__CocpDsp
 70ED:0017       currRNumber__CocpDsp
 70ED:0014       currState__CocpDsp
 5A06:003F       currState__TheodolitRead
 70ED:0003       currTOflg__CocpDsp
 748A:0004       currUpdMarks__D_DAcquizition
 748B:0004       currUpdMarks__V_DAcquizition
 5978:0092       currZestaw__Pomiar
 6A9B:0004       currentSign__DGHInterface
 5A0C:0001       currentSign__GPSRead
 5A06:0034       currentSign__TheodolitRead
 6BBF:0010       currfile__Ini
 762D:001C       cursorDIB__D_Slupek
 762A:001C       cursorDIB__V_Slupek
 5978:0093       dataInBuff__Pomiar
 5670:000E       dataOk__AT
 55E4:001E       debuggerRecord__RTSMain
 5982:001D       devDistR__Screen
 55E4:0030       deviceMask__RTSMain
 70ED:0004       dirCP__CocpDsp
 70ED:0006       dirWP__CocpDsp
 595E:0000       disCont__V_CP_ControlProc
 5BBE:C84C       disContiner__DataCollect
 76C1:0000       disableMask__NAVInterface
 5995:0000       dispResults__PI_Analiza
 6AA2:002B       distErrF_MemFIntContiner__D_Odb
 6AA2:0020       distErrF__D_Odb
 6AA2:001C       distErr__D_Odb
 5978:007E       distOff__Pomiar
 6B8E:004A       distRect__Mapa
 5BBE:C872       div2n__tablice__DataCollect
 5BBE:C876       div3n__tablice__DataCollect
 6B8E:0000       doZrobienia__Mapa
 59FE:000D       done__ShortCuts
 70ED:0023       dtaSign__CocpDsp
 70FE:0000       dvAVcont__V_Count
 55E4:0032       dyingOverlay__RTSMain
 5676:007A       entryTmpPtr__DOSEntry
 5676:0000       entryTmp__DOSEntry
 74A6:007B       eos__GPS_nov
 74DC:13B8       errDetected__Kalibracja
 74A6:007E       err_unrec_cnt__GPS_nov
 55E4:0000       errorCode__RTSMain
 5676:007E       exitTmpPtr__DOSEntry
 5676:003D       exitTmp__DOSEntry
 567F:01F6       expInter__Scheduler__MANAGER
 74DC:13FF       f__Kalibracja
 593C:01A0       filesAlfa__Files
 593C:01A8       filesComm__Files
 593C:0190       filesDist__Files
 748A:0008       filesNotEmpty__D_DAcquizition
 748B:0013       filesNotEmpty__V_DAcquizition
 76C1:0004       fineMode__NAVInterface
 599B:0001       firstISRDescriptorPtr__Monitor_
 76AB:000E       flgEOF__Print
 6AA2:001A       flg__D_Odb
 5A00:0000       flg__ScannerI
 6A9D:0018       flg__V_Odb
 74DC:13FB       for_counter__Kalibracja
 70ED:0025       force__CocpDsp
 5978:007C       format360__Pomiar
 74AF:0000       framesWError__GPS_TRIMBLE
 74A6:0000       framesWError__GPS_nov
 55E4:0128       freeList__RTSMain
 74AF:0004       frmCount__GPS_TRIMBLE
 74A6:0004       frmCount__GPS_nov
 5978:0077       frstBut__Pomiar
 7493:0086       gOdb__VORPrint
 59A3:0000       hDlg__MsgBox
 76BE:0000       hDlg__PrintCntroll
 5924:0000       hDlg__T_Inspekcja
 5921:0001       hDlg__T_Oblot
 7493:0003       header__VORPrint
 599C:0001       heapList__Storage
 593C:01C8       homeDir__Files
 70ED:0012       iloscStrzal__CocpDsp
 6BBF:0004       ini__Ini
 74DC:13BC       inputCoeff__Kalibracja
 5676:0082       insideFlag__DOSEntry
 6B95:00C0       insp_DirTmp__Obloty
 5441:009D       intersection__Longs
 5BBE:C87A       ix2__tablice__DataCollect
 5BBE:C87E       ix3__tablice__DataCollect
 7621:006E       j__Random
 7621:0070       k__Random
 5978:0079       katPromien__Pomiar
 76C1:0005       killTime__NAVInterface
 76BE:0011       lPodz__PrintCntroll
 5708:00A0       lastCPFlags__Tune
 748A:000D       lastComm__Monitor__D_DAcquiziti
 748B:0012       lastComm__Monitor__V_DAcquiziti
 5A06:0046       lastCrc__TheodolitRead
 5708:00A2       lastDMEfrqBits__Tune
 69D9:0000       lastErr__FIO
 74DC:13F9       lastError__ErrorHand__Kalibracj
 5A06:0040       lastNum__TheodolitRead
 6A9D:0049       licznik__V_Odb
 5A00:0056       loc_tog__ScannerI
 6A9D:0048       locationsTogether__V_Odb
 5A06:0024       lstAzymuth__TheodolitRead
 5A06:002C       lstElevation__TheodolitRead
 5A06:003A       lstEvent__TheodolitRead
 5A06:003B       lstTracking__TheodolitRead
 59BD:01EC       lx__BezWyszeregowania__MMMouse
 59BD:01EE       ly__BezWyszeregowania__MMMouse
 5670:0000       mainState__AT
 6B8E:0042       mapRct__Mapa
 5BBE:C857       marks_Con_A__DataCollect
 5BBE:C854       marks_Con_D__DataCollect
 6A9B:000E       maxClicks__DGHInterface
 76C2:0002       maxCountR__ARINC
 76C2:0000       maxCountW__ARINC
 69D9:0006       maxOpened__FIO
 59BD:0050       maxX__MMMouse
 59BD:0052       maxY__MMMouse
 74A3:0000       minWrBufLength__DigiRS
 6B8E:005B       myPoint__Mapa
 595E:0190       myRadial__V_CP_ControlProc
 6A9D:0040       navFlgCon__V_Odb
 6A9D:0000       navFlg__V_Odb
 70ED:001F       newState__CocpDsp
 6B8E:0060       noActive__monitor__Mapa
 748A:0009       notify__Monitor__D_DAcquizition
 748B:000E       notify__Monitor__V_DAcquizition
 69D9:0002       numErr__FIO
 5A06:0048       numPos__TheodolitRead
 6A9B:000A       nvErrorCndF__DGHInterface
 6A9B:000C       nvErrorCndS__DGHInterface
 6A9D:0004       obr__V_Odb
 74A5:0000       okresImp__FIltr1St
 55E4:01CE       oldNMIvector
 69D9:0004       opened__FIO
 55E4:000E       overlayInitProc__RTSMain
 55E4:000A       overlayList__RTSMain
 55E4:0012       overlayTermProc__RTSMain
 762D:0000       parSlupkow__D_Slupek
 762A:0000       parSlupkow__V_Slupek
 5B08:0B44       pilEnr__EventsMng
 5A00:0026       pilErr__ScannerI
 6AA6:027A       podz__Zoom
 5670:0006       podzielnik__AT
 5670:0004       polaryzacjaOK__AT
 748B:000A       polvfaza__V_DAcquizition
 748B:000C       pom2sek__V_DAcquizition
 5982:001B       pomPromieniowy__Screen
 5982:007A       popJakieWykr__Dialog__Screen
 74AF:0007       posInRecBuf__GPS_TRIMBLE
 74A6:000A       posInRecBuf__GPS_nov
 599C:0021       prevHeap__Storage
 55E4:0046       priorityMasks__RTSMain
 5BBE:C882       procVAL1__tablice__DataCollect
 5BBE:C88A       procVAL2__tablice__DataCollect
 5BBE:C892       procVAL3__tablice__DataCollect
 5BBE:C89A       procVAL4__tablice__DataCollect
 55E4:003E       programSize
 5978:007B       promien__Pomiar
 5441:0000       pushLSet__Longs
 595E:0194       radial__V_CP_ControlProc
 748A:0003       redrawM__D_DAcquizition
 748B:0003       redrawM__V_DAcquizition
 748A:0002       redraw__D_DAcquizition
 6B8E:005F       redraw__Mapa
 748B:0002       redraw__V_DAcquizition
 748D:0040       refPress__AltInterface
 6A9D:000C       ref__V_Odb
 59A3:0004       ret__MsgBox
 70FE:34F8       roughnessCon__V_Count
 59BD:01F0       rx__BezWyszeregowania__MMMouse
 59BD:01F2       ry__BezWyszeregowania__MMMouse
 5982:002B       samplediv__Screen
 5BBE:C85A       samplediv__tablice__DataCollect
 6AA2:0028       samples__D_Odb
 5BBE:C8A2       samples__tablice__DataCollect
 76AB:000F       scaleDiv__Print
 762D:0018       screeenDIB__D_Slupek
 762A:0018       screeenDIB__V_Slupek
 5982:006A       screenDIB__Screen
 5730:1EB0       sec__D_results
 56A2:05AF       sec__V_results
 6B07:000C       semafor__HiLevGraf
 70FE:006C       signalsAVcont__V_Count
 5A0F:0000       signals__DGHIni
 5982:0082       skalaWpionie__Dialog__Screen
 70F4:0014       slLDib_rec__ScreenCTypes
 70F4:000C       slLReg_rec__ScreenCTypes
 70F4:0008       slL_pnt__ScreenCTypes
 70F4:0000       slL_rec__ScreenCTypes
 70F4:004C       slPDib_rec__ScreenCTypes
 70F4:0044       slPReg_rec__ScreenCTypes
 70F4:0040       slP_pnt__ScreenCTypes
 70F4:0038       slP_rec__ScreenCTypes
 70F4:0030       slSDib_rec__ScreenCTypes
 70F4:0028       slSReg_rec__ScreenCTypes
 70F4:0024       slS_pnt__ScreenCTypes
 70F4:001C       slS_rec__ScreenCTypes
 70F2:000C       slupkiAktywne__PI_ScrUtility
 70F2:0000       slupki__PI_ScrUtility
 567F:012A       spTab__MANAGER
 76C1:0002       speedMask__NAVInterface
 70ED:0010       srodekSkali__CocpDsp
 6B95:00D3       stat_Files__Obloty
 6B95:00CB       stat_Size__Obloty
 5995:001D       sthPressed__MouseMonitor__PI_An
 6AFD:0008       str__GrafUtil
 5441:005E       subSet__Longs
 6A9D:0010       sub__V_Odb
 74A6:0007       sumaModC__GPS_nov
 74A6:0008       sumaModF__GPS_nov
 5441:0036       superSet__Longs
 5670:0002       switchAble__AT
 5670:000A       synResult__AT
 5B08:0B4C       teoEnr__EventsMng
 5A06:003C       teoEvBit__TheodolitRead
 5A06:004C       teoEvCon__TheodolitRead
 5A06:0050       teoEvNrCOn__TheodolitRead
 70CE:01D0       twoLocations__V_Database
 5441:00CF       unionCompl__Longs
 5441:0086       union__Longs
 6A9D:0008       var__V_Odb
 74DC:13FD       void__Kalibracja
 5A06:0038       wd_dgps_currSign__TheodolitRead
 6AA6:0282       xFirst__Zoom
 6AA6:0284       xLast__Zoom
 593C:01C4       xRefDefV__Files
 593C:01C0       xRefFile__Files
 6AA6:021C       x_odn__Zoom
 6AA6:0220       x_time__Zoom
 7630:0002       xh__DrawEpson
 7493:0087       zOdb__VORPrint
 6B8E:0020       zrobione__Mapa

  Address         Publics by Value

 0000:0000  Abs  KEY__10jul99_1214_OF_HiLevGraf
 0000:0000  Abs  KEY__10jul99_1214_OF_Ini
 0000:0000  Abs  KEY__10jul99_1214_OF_InpLine
 0000:0000  Abs  KEY__10jul99_1214_OF_GrafUtil
 0000:0000  Abs  KEY__10jul99_1214_OF_Graphics
 0000:0000  Abs  KEY__10jul99_1214_OF_HRD_Clock
 0000:0000  Abs  KEY__10jul99_1214_OF_Int_DME
 0000:0000  Abs  KEY__10jul99_1214_OF_MMA_Cout
 0000:0000  Abs  KEY__10jul99_1214_OF_MMMouse
 0000:0000  Abs  KEY__10jul99_1214_OF_Mapa
 0000:0000  Abs  KEY__10jul99_1214_OF_Kalibracja
 0000:0000  Abs  KEY__10jul99_1214_OF_Kl_FGenera
 0000:0000  Abs  KEY__10jul99_1214_OF_MANAGER
 0000:0000  Abs  KEY__10jul99_1214_OF_GrafTypes
 0000:0000  Abs  KEY__10jul99_1214_OF_FCBS
 0000:0000  Abs  KEY__10jul99_1214_OF_FIO
 0000:0000  Abs  KEY__10jul99_1214_OF_FIltr1St
 0000:0000  Abs  KEY__10jul99_1214_OF_DrawEpson
 0000:0000  Abs  KEY__10jul99_1214_OF_ErrorMess
 0000:0000  Abs  KEY__10jul99_1214_OF_EventsMng
 0000:0000  Abs  KEY__10jul99_1214_OF_Files
 0000:0000  Abs  KEY__10jul99_1214_OF_GPS_TRIMBL
 0000:0000  Abs  KEY__10jul99_1214_OF_GPS_nov
 0000:0000  Abs  KEY__10jul99_1214_OF_GeoArithme
 0000:0000  Abs  KEY__10jul99_1214_OF_FlagAnal
 0000:0000  Abs  KEY__10jul99_1214_OF_GList
 0000:0000  Abs  KEY__10jul99_1214_OF_GPSRead
 0000:0000  Abs  KEY__10jul99_1214_OF_Marks
 0000:0000  Abs  KEY__10jul99_1214_OF_ScannerI
 0000:0000  Abs  KEY__10jul99_1214_OF_Screen
 0000:0000  Abs  KEY__10jul99_1214_OF_ScreenCTyp
 0000:0000  Abs  KEY__10jul99_1214_OF_Pomiar
 0000:0000  Abs  KEY__10jul99_1214_OF_Print
 0000:0000  Abs  KEY__10jul99_1214_OF_PrintCntro
 0000:0000  Abs  KEY__10jul99_1214_OF_Semafory
 0000:0000  Abs  KEY__10jul99_1214_OF_SpecConv
 0000:0000  Abs  KEY__10jul99_1214_OF_StdIO
 0000:0000  Abs  KEY__10jul99_1214_OF_SwitchCntr
 0000:0000  Abs  KEY__10jul99_1214_OF_ShortCuts
 0000:0000  Abs  KEY__10jul99_1214_OF_Slupek
 0000:0000  Abs  KEY__10jul99_1214_OF_SoftIntHan
 0000:0000  Abs  KEY__10jul99_1214_OF_Polozenie
 0000:0000  Abs  KEY__10jul99_1214_OF_NAVInterfa
 0000:0000  Abs  KEY__10jul99_1214_OF_Obloty
 0000:0000  Abs  KEY__10jul99_1214_OF_PI_Analiza
 0000:0000  Abs  KEY__10jul99_1214_OF_Math
 0000:0000  Abs  KEY__10jul99_1214_OF_Messages
 0000:0000  Abs  KEY__10jul99_1214_OF_MsgBox
 0000:0000  Abs  KEY__10jul99_1214_OF_PI_ArchDat
 0000:0000  Abs  KEY__10jul99_1214_OF_PI_Pomiar
 0000:0000  Abs  KEY__10jul99_1214_OF_PI_ScrUtil
 0000:0000  Abs  KEY__10jul99_1214_OF_PiszEventy
 0000:0000  Abs  KEY__10jul99_1214_OF_PI_Drukuj
 0000:0000  Abs  KEY__10jul99_1214_OF_PI_Glowny
 0000:0000  Abs  KEY__10jul99_1214_OF_PI_PA
 0000:0000  Abs  KEY__10jul99_1214_OF_DisResUtil
 0000:0000  Abs  KEY__10aug87_2031_OF_DynMem
 0000:0000  Abs  KEY__10aug87_2031_OF_Keyboard
 0000:0000  Abs  KEY__10aug87_2031_OF_NumberConv
 0000:0000  Abs  KEY__10aug87_2031_OF_DebugPMD
 0000:0000  Abs  KEY__10aug87_2031_OF_Devices
 0000:0000  Abs  KEY__10aug87_2031_OF_Display
 0000:0000  Abs  KEY__10aug87_2031_OF_RTSDevice
 0000:0000  Abs  KEY__10aug87_2031_OF_Terminal
 0000:0000  Abs  KEY__10aug87_2032_OF_MathLib0
 0000:0000  Abs  KEY__10aug87_2033_OF_Mouse
 0000:0000  Abs  KEY__10aug87_2031_OF_Storage
 0000:0000  Abs  KEY__10aug87_2031_OF_Strings
 0000:0000  Abs  KEY__10aug87_2031_OF_Termbase
 0000:0000  Abs  KEY__10aug87_2031_OF_DOSMemory
 0000:0000  Abs  KEY__00xxx00_0000_OF_RTSError
 0000:0000  Abs  KEY__00xxx00_0000_OF_RTSInterru
 0000:0000  Abs  KEY__00xxx00_0000_OF_RTSLanguag
 0000:0000  Abs  KEY__00xxx00_0000_OF_DebugPMD
 0000:0000  Abs  KEY__00xxx00_0000_OF_RTS87
 0000:0000  Abs  KEY__00xxx00_0000_OF_RTSCorouti
 0000:0000  Abs  KEY__00xxx00_0000_OF_RTSMain
 0000:0000  Abs  KEY__10aug87_2030_OF_ASCII
 0000:0000  Abs  KEY__10aug87_2030_OF_BitByteOps
 0000:0000  Abs  KEY__10aug87_2030_OF_BlockOps
 0000:0000  Abs  KEY__00xxx00_0000_OF_RTSPriorit
 0000:0000  Abs  KEY__00xxx00_0000_OF_RTSRealErr
 0000:0000  Abs  KEY__05feb87_1233_OF_Longs
 0000:0000  Abs  KEY__10aug87_2033_OF_RTSCorouti
 0000:0000  Abs  KEY__10jul99_1214_OF_D_Count
 0000:0000  Abs  KEY__10jul99_1214_OF_D_DAcquizi
 0000:0000  Abs  KEY__10jul99_1214_OF_D_DisResul
 0000:0000  Abs  KEY__10jul99_1214_OF_DMEPrint
 0000:0000  Abs  KEY__10jul99_1214_OF_DOSEntry
 0000:0000  Abs  KEY__10jul99_1214_OF_D_CommonTy
 0000:0000  Abs  KEY__10jul99_1214_OF_D_Files
 0000:0000  Abs  KEY__10jul99_1214_OF_DataCollec
 0000:0000  Abs  KEY__10jul99_1214_OF_Dialog
 0000:0000  Abs  KEY__10jul99_1214_OF_DigiRS
 0000:0000  Abs  KEY__10jul99_1214_OF_D_Odb
 0000:0000  Abs  KEY__10jul99_1214_OF_D_Slupek
 0000:0000  Abs  KEY__10jul99_1214_OF_D_results
 0000:0000  Abs  KEY__10jul99_1214_OF_DGH_utils
 0000:0000  Abs  KEY__10jul87_1035_OF_RTSMonExit
 0000:0000  Abs  KEY__10jul99_1214_OF_ARINC
 0000:0000  Abs  KEY__10jul99_1214_OF_AltInterfa
 0000:0000  Abs  KEY__10aug87_2033_OF_Random
 0000:0000  Abs  KEY__10aug87_2033_OF_RealConver
 0000:0000  Abs  KEY__10aug87_2033_OF_Sounds
 0000:0000  Abs  KEY__10jul99_1214_OF_Buttons
 0000:0000  Abs  KEY__10jul99_1214_OF_Czas
 0000:0000  Abs  KEY__10jul99_1214_OF_DGHIni
 0000:0000  Abs  KEY__10jul99_1214_OF_DGHInterfa
 0000:0000  Abs  KEY__10jul99_1214_OF_CocpDsp
 0000:0000  Abs  KEY__10jul99_1214_OF_CommonData
 0000:0000  Abs  KEY__10jul99_1214_OF_CommonType
 0000:0000  Abs  KEY__10jul99_1214_OF_TheodolitR
 0000:0000  Abs  KEY__10jul99_1214_OF_XMSService
 0000:0000  Abs  KEY__10jul99_1214_OF_Wykres
 0000:0000  Abs  KEY__10jul99_1215_OF_AT
 0000:0000  Abs  KEY__10jul99_1214_OF_XMSTable
 0000:0000  Abs  KEY__10jul99_1214_OF_V_Slupek
 0000:0000  Abs  KEY__10jul99_1214_OF_V_Odb
 0000:0000  Abs  KEY__10jul99_1214_OF_WorseBecau
 0000:0000  Abs  KEY__10jul99_1214_OF_V_results
 0000:0000  Abs  KEY__10jul99_1215_OF_ZoomInterf
 0000:0000  Abs  KEY__10jul99_1215_OF_Zoom
 0000:0000  Abs  KEY__21aug96_1223_OF_XMS
 0000:0000  Abs  KEY__12aug87_1620_OF_RTSMain
 0000:0000  Abs  KEY__10jul99_1215_OF_SimScanner
 0000:0000  Abs  KEY__10jul99_1215_OF_PI_ZoomSpe
 0000:0000  Abs  KEY__10jul99_1215_OF_T_Oblot
 0000:0000  Abs  KEY__10jul99_1215_OF_T_Inspekcj
 0000:0000  Abs  KEY__10jul99_1214_OF_VORR_Avera
 0000:0000  Abs  KEY__10jul99_1214_OF_V_CP_Contr
 0000:0000  Abs  KEY__10jul99_1214_OF_V_CommonTy
 0000:0000  Abs  KEY__10jul99_1214_OF_VORPrint
 0000:0000  Abs  KEY__10jul99_1214_OF_Timer
 0000:0000  Abs  KEY__10jul99_1214_OF_Tune
 0000:0000  Abs  KEY__10jul99_1214_OF_VORO_avrag
 0000:0000  Abs  KEY__10jul99_1214_OF_V_Database
 0000:0000  Abs  KEY__10jul99_1214_OF_V_DisResul
 0000:0000  Abs  KEY__10jul99_1214_OF_V_Files
 0000:0000  Abs  KEY__10jul99_1214_OF_V_Count
 0000:0000  Abs  KEY__10jul99_1214_OF_V_DAcquizi
 0001:0000       $BM__AT
 0001:0002       S__SwitchContext__AT
 0001:001F       $BODY__AT
 0001:062E       StartModula
 0001:06ED       $EM__AT
 0070:0000       $BM__FCBS
 0070:0002       L__Set__FCBS
 0070:001A       S__CtrlBreakProc__FCBS
 0070:0037       $BODY__FCBS
 0070:004C       $INIT__FCBS
 0070:0071       $EM__FCBS
 0078:0000       $BM__DOSEntry
 0078:0002       L__onEntryHandler__DOSEntry
 0078:004F       L__onExitHandler__DOSEntry
 0078:009C       L__TerminalProcedure__DOSEntry
 0078:00C2       $BODY__DOSEntry
 0078:0150       $INIT__DOSEntry
 0078:017A       $EM__DOSEntry
 0090:0000       $BM__MANAGER
 0090:0002       S__ASSERT__MANAGER
 0090:002D       S__InsertReady__MANAGER
 0090:0236       S__RemoveReady__MANAGER
 0090:04D7       S__ClearQueue__MANAGER
 0090:05E2       S__INSERT__MANAGER
 0090:07D2       S__REMOVE__MANAGER
 0090:0892       L__SEND__MANAGER
 0090:0892       L__SEND__Scheduler__MANAGER
 0090:0A58       L__Notify__MANAGER
 0090:0A58       L__Notify__Scheduler__MANAGER
 0090:0AAF       L__Broadcast__Scheduler__MANAGE
 0090:0AAF       L__Broadcast__MANAGER
 0090:0AFD       L__WAITS__Scheduler__MANAGER
 0090:0AFD       L__WAITS__MANAGER
 0090:0BEF       L__WAITC__Scheduler__MANAGER
 0090:0BEF       L__WAITC__MANAGER
 0090:0CE1       L__DOIO__MANAGER
 0090:0CE1       L__DOIO__Scheduler__MANAGER
 0090:0FB4       L__AWAITEDS__MANAGER
 0090:0FB4       L__AWAITEDS__Scheduler__MANAGER
 0090:0FEF       L__AWAITEDC__MANAGER
 0090:0FEF       L__AWAITEDC__Scheduler__MANAGER
 0090:102A       S__STOPPROCESS__Scheduler__MANA
 0090:1144       S__StopAError__Scheduler__MANAG
 0090:11B5       S__ActivateProcess__Scheduler__
 0090:12EF       L__Assert__MANAGER
 0090:12EF       L__Assert__Scheduler__MANAGER
 0090:1357       $BODY__Scheduler__MANAGER
 0090:137C       L__STARTPROCESS__MANAGER
 0090:1629       L__PriorityDecrease__MANAGER
 0090:176C       L__InitC__MANAGER
 0090:1782       L__InitS__MANAGER
 0090:1798       L__Release__MANAGER
 0090:17CC       L__StartTimeSlicing__MANAGER
 0090:17E6       L__RecoveryTime__MANAGER
 0090:17F9       L__CurrentProcess__MANAGER
 0090:1815       L__InstallTermProc__MANAGER
 0090:188B       L__RemoveTermProc__MANAGER
 0090:18E5       L__EnterProtectedOp__MANAGER
 0090:18ED       L__ExitProtectedOp__MANAGER
 0090:18F5       S__CallTerminatingProcedures__M
 0090:1973       L__Terminator__MANAGER
 0090:1A6A       S__InstallTerminator__MANAGER
 0090:1A90       L__DUMMYPRO__MANAGER
 0090:1B1A       $BODY__MANAGER
 0090:1DCE       $INIT__MANAGER
 0090:1E0C       $EM__MANAGER
 0271:0000       $BM__ErrorMess
 0271:0029       L__MyErrorHand__ErrorMess
 0271:00E1       $BODY__ErrorMess
 0271:010C       $INIT__ErrorMess
 0271:0145       $EM__ErrorMess
 0286:0000       $BM__V_results
 0286:0028       L__SaveAnRes__V_results
 0286:005A       L__GetAnRes__V_results
 0286:0102       N__ClearAnRes__Init__V_results
 0286:03B4       L__Init__V_results
 0286:04D3       $BODY__V_results
 0286:0558       $INIT__V_results
 0286:05AA       $EM__V_results
 02E1:0000       $BM__VORO_avrage
 02E1:0082       L__OrbitDscClear__VORO_avrage
 02E1:00C8       S__ResetContiner__VORO_avrage
 02E1:00FA       L__ClearContainer__VORO_avrage
 02E1:0116       L__InicjujOpisStanuLuku__VORO_a
 02E1:013A       N__findidx__SegmentZakonczony__
 02E1:0294       L__SegmentZakonczony__VORO_avra
 02E1:0349       N__findidx__AddSample__AVR10_Ad
 02E1:0495       N__Side__AddSample__AVR10_AddSa
 02E1:0528       N__AddSample__AVR10_AddSample__
 02E1:08B9       N__O_AvrCountErr__AVR10_AddSamp
 02E1:0956       L__AVR10_AddSample__VORO_avrage
 02E1:0985       $BODY__VORO_avrage
 02E1:098B       $INIT__VORO_avrage
 02E1:09BF       $EM__VORO_avrage
 037E:0000       $BM__CommonTypes
 037E:0010       L__GetRecName__CommonTypes
 037E:0055       L__GetTranName__CommonTypes
 037E:0098       L__InitSignalDsc__CommonTypes
 037E:00B7       L__Init_flgTab__CommonTypes
 037E:00F4       $BODY__CommonTypes
 037E:00FA       $INIT__CommonTypes
 037E:011F       $EM__CommonTypes
 0391:0000       $BM__D_CommonTypes
 0391:0002       L__NilDlaPOdleglosci__D_CommonT
 0391:004A       $BODY__D_CommonTypes
 0391:0050       $INIT__D_CommonTypes
 0391:0075       $EM__D_CommonTypes
 0399:0000       $BM__V_CommonTypes
 0399:0002       $BODY__V_CommonTypes
 0399:0008       $INIT__V_CommonTypes
 0399:0028       $EM__V_CommonTypes
 039C:0000       $BM__SpecConv
 039C:009C       S__CheckINil__SpecConv
 039C:0163       S__CheckCNil__SpecConv
 039C:01ED       L__Int2Str__SpecConv
 039C:0225       L__Card2Str__SpecConv
 039C:025D       L__Int10Str__SpecConv
 039C:033A       L__Card10Str__SpecConv
 039C:0411       L__Int100Str__SpecConv
 039C:0535       L__Int100StrCalk__SpecConv
 039C:057F       L__Card100Str__SpecConv
 039C:06A4       L__Ang100Str36__SpecConv
 039C:0711       L__Ang100Str36Calk__SpecConv
 039C:078F       L__Int500Str__SpecConv
 039C:08C0       L__Feed500Str__SpecConv
 039C:0959       L__Card500Str__SpecConv
 039C:0A8D       L__Int1000Str__SpecConv
 039C:0BF8       L__Angle100__SpecConv
 039C:0C58       L__RAngle100__SpecConv
 039C:0D36       L__AngleDeg__SpecConv
 039C:0DA7       L__SubAngle100__SpecConv
 039C:0E7B       L__AddAngle100__SpecConv
 039C:0F4F       L__SubAng360__SpecConv
 039C:101A       L__AfterAngle100__SpecConv
 039C:10B3       L__SubNormal__SpecConv
 039C:10CE       L__AddNormal__SpecConv
 039C:10E9       L__GorszeBoDalszeR__SpecConv
 039C:1127       L__GorszeBoDalsze__SpecConv
 039C:1178       L__GorszeBoBlisze__SpecConv
 039C:11C9       L__GorszeBoMniejszePol__SpecCon
 039C:120A       L__GorszeBoMniejsze__SpecConv
 039C:1237       L__GorszeBoWieksze__SpecConv
 039C:1264       L__GorszeBoMniejszeM60__SpecCon
 039C:12A5       L__GorszeBoMniejsze400__SpecCon
 039C:12E6       L__GorszeBoMniejsze800__SpecCon
 039C:1327       L__GorszeBoMniejsze300__SpecCon
 039C:1368       L__GorszeBoMniejsze160__SpecCon
 039C:13A9       L__GorszeBoMniejsze5000__SpecCo
 039C:13EA       L__GorszeBoMniejsze500__SpecCon
 039C:142B       L__GorszeBoMniejsze1500__SpecCo
 039C:146C       L__GorszeBoMniejsze2000__SpecCo
 039C:14AD       L__GorszeBoDalszeOdZera__SpecCo
 039C:14EA       L__entierCheck__SpecConv
 039C:15A6       L__entier__SpecConv
 039C:165C       L__Int2StrCntr__SpecConv
 039C:1755       L__Div__SpecConv
 039C:1782       L__Mul__SpecConv
 039C:17AE       L__Add__SpecConv
 039C:17DA       L__Sub__SpecConv
 039C:180D       L__SubDis__SpecConv
 039C:1858       L__AddDis__SpecConv
 039C:189B       L__IncRound__SpecConv
 039C:18A9       L__SubWCheck__SpecConv
 039C:1948       L__Int2Card__SpecConv
 039C:197A       L__ZaokraglicDo500__SpecConv
 039C:19B9       $BODY__SpecConv
 039C:19BF       $INIT__SpecConv
 039C:19F8       $EM__SpecConv
 053C:0000       $BM__FlagAnal
 053C:0010       N__UsunNajmniejszy__FlagErr_Ana
 053C:01D6       L__FlagErr_Anal__FlagAnal
 053C:02B3       L__InitFlagErr__FlagAnal
 053C:0352       L__GetNextFrac__FlagAnal
 053C:044F       L__MinPoczKonSig__FlagAnal
 053C:0513       L__MinPoczKonDis__FlagAnal
 053C:05D7       L__SumaDlugosciSig__FlagAnal
 053C:06A0       $BODY__FlagAnal
 053C:06A6       $INIT__FlagAnal
 053C:06DA       $EM__FlagAnal
 05AA:0000       $BM__Czas
 05AA:003B       S__Write__BezPrzerwan__Czas
 05AA:00C0       L__GetTimeAndDate__Czas
 05AA:00C0       L__GetTimeAndDate__BezPrzerwan_
 05AA:00E8       S__SetTimeAndDate__BezPrzerwan_
 05AA:0128       L__WriteTime__Czas
 05AA:01DA       L__SetTime__Czas
 05AA:021B       L__SetDate__Czas
 05AA:024E       L__ConvertToStr__Czas
 05AA:02AF       L__Terminator__Czas
 05AA:02E0       $BODY__Czas
 05AA:0308       $INIT__Czas
 05AA:0369       $EM__Czas
 05E1:0000       $BM__SimScanner
 05E1:0032       L__Simulate__SimScanner
 05E1:03B7       L__LoadEvents__SimScanner
 05E1:05A8       L__OdtworzEventy__SimScanner
 05E1:0602       $BODY__SimScanner
 05E1:0608       $INIT__SimScanner
 05E1:066E       $EM__SimScanner
 0648:0000       $BM__PI_PA
 0648:0002       $BODY__PI_PA
 0648:0012       $INIT__PI_PA
 0648:002D       $EM__PI_PA
 064B:0000       $BM__Tune
 064B:0007       S__Send__Tune
 064B:009C       L__TurnOffADF__Tune
 064B:00F4       L__TurnOffVOR_ILS__Tune
 064B:014C       L__TuneADF__Tune
 064B:0303       N__TuneGS__TuneILS__Tune
 064B:0409       L__TuneILS__Tune
 064B:049F       S__SendDMECntrlWrd__Tune
 064B:052E       N__ConvertFrqTOControlWord__Tun
 064B:05D9       L__TuneDMEforVOR__Tune
 064B:061B       L__TuneDMEforILS__Tune
 064B:065D       L__TuneVOR__Tune
 064B:0697       S__TuneVOR_ILS__Tune
 064B:07EE       L__ILSfrqString__Tune
 064B:0849       L__ILSIncFch__Tune
 064B:0881       L__ILSDecFch__Tune
 064B:08B9       L__VORIncFch__Tune
 064B:08FF       L__VORDecFch__Tune
 064B:093F       L__IncADFFch__Tune
 064B:0966       L__DecADFFch__Tune
 064B:0998       L__SetCPFlags__Tune
 064B:0A08       $BODY__Tune
 064B:0C0B       $INIT__Tune
 064B:0C49       $EM__Tune
 0710:0000       $BM__V_Files
 0710:007F       S__StartFiles__V_Files
 0710:01F6       L__CreateFiles__V_Files
 0710:0212       L__OpenFiles__V_Files
 0710:02B4       L__SaveData__V_Files
 0710:04DB       N__Rd__LoadData__V_Files
 0710:0524       L__LoadData__V_Files
 0710:072B       L__CloseFiles__V_Files
 0710:07BC       L__OpenSignalFiles__V_Files
 0710:0857       L__ReadAllSignals__V_Files
 0710:097C       L__CloseSignalFiles__V_Files
 0710:0996       L__StartFileRes__V_Files
 0710:0AF8       L__WriteFileRes__V_Files
 0710:0B62       L__StopFileRes__V_Files
 0710:0BEB       L__KopiujWszystkiePliki__V_File
 0710:0D1B       L__GetSigFileName__V_Files
 0710:0D8E       L__GetResFileName__V_Files
 0710:0E01       N__AssignName__InitLocals__V_Fi
 0710:0EAD       S__InitLocals__V_Files
 0710:1046       $BODY__V_Files
 0710:104F       $INIT__V_Files
 0710:10D3       $EM__V_Files
 081E:0000       $BM__D_Files
 081E:0065       S__StartFiles__D_Files
 081E:0231       L__CreateFiles__D_Files
 081E:024D       L__OpenFiles__D_Files
 081E:02EF       L__SaveData__D_Files
 081E:0516       N__Rd__LoadData__D_Files
 081E:0557       L__LoadData__D_Files
 081E:075E       L__CloseFiles__D_Files
 081E:081C       L__OpenSignalFiles__D_Files
 081E:08AC       L__ReadAllSignals__D_Files
 081E:0A2E       L__CloseSignalFiles__D_Files
 081E:0A48       L__KopiujWszystkiePliki__D_File
 081E:0B34       L__GetFileName__D_Files
 081E:0BA7       N__AssignName__InitLocals__D_Fi
 081E:0C53       S__InitLocals__D_Files
 081E:0D80       $BODY__D_Files
 081E:0D89       $INIT__D_Files
 081E:0E08       $EM__D_Files
 08FF:0000       $BM__MMA_Cout
 08FF:000A       L__Init_MMA_SignalDsc__MMA_Cout
 08FF:003F       L__Count_MMA_SignalDsc__MMA_Cou
 08FF:00D6       L__Init_AvrDscr__MMA_Cout
 08FF:0124       L__MinMaxAvr__MMA_Cout
 08FF:01BF       $BODY__MMA_Cout
 08FF:01C5       $INIT__MMA_Cout
 08FF:01F4       $EM__MMA_Cout
 091F:0000       $BM__D_results
 091F:0022       L__SaveAnRes__D_results
 091F:0054       L__GetAnRes__D_results
 091F:00FF       N__Init_MMA_SignalDscArr__Init_
 091F:0150       L__Init__D_results
 091F:038B       $BODY__D_results
 091F:0413       $INIT__D_results
 091F:0460       $EM__D_results
 0966:0000       $BM__ZoomInterface
 0966:0062       L__Show__ZoomInterface
 0966:0184       N__Niepusty__Load__ZoomInterfac
 0966:01E1       S__Load__ZoomInterface
 0966:0413       L__RespProc__ZoomInterface
 0966:0892       L__ZmienOdniesienie__ZoomInterf
 0966:0969       L__Pokaz__ZoomInterface
 0966:097F       L__Rezygnuj__ZoomInterface
 0966:098F       $BODY__ZoomInterface
 0966:09BD       $INIT__ZoomInterface
 0966:0A32       $EM__ZoomInterface
 0A0A:0000       $BM__PI_Glowny
 0A0A:0002       L__GlownyEP__PI_Glowny
 0A0A:0092       $BODY__PI_Glowny
 0A0A:0098       $INIT__PI_Glowny
 0A0A:00D6       $EM__PI_Glowny
 0A18:0000       $BM__T_Oblot
 0A18:022D       L__NadajnikNaVor1__T_Oblot
 0A18:02B8       L__NadajnikNaVor2__T_Oblot
 0A18:0343       L__TestUP_PROC__T_Oblot
 0A18:0363       L__Raport_PROC__T_Oblot
 0A18:0383       L__PlayP__T_Oblot
 0A18:03A3       L__View_PROC__T_Oblot
 0A18:03C3       S__RealVal__T_Oblot
 0A18:0420       S__Pokaz__T_Oblot
 0A18:044E       S__ZakonczDlg__T_Oblot
 0A18:0464       L__PomiarP__T_Oblot
 0A18:0484       S__RealValid__T_Oblot
 0A18:054D       L__RealCisnValid__T_Oblot
 0A18:0616       S__NadajnikCH__T_Oblot
 0A18:063D       N__InitDefault__InitLot__T_Oblo
 0A18:073A       N__SaveDefault__InitLot__T_Oblo
 0A18:079C       N__AssignButt__InitLot__T_Oblot
 0A18:0B50       N__FillData__InitLot__T_Oblot
 0A18:0D5A       L__InitLot__T_Oblot
 0A18:0E5E       S__SciezkaDoKataloguOpisu__T_Ob
 0A18:0F56       S__Wlacz_Wylacz__T_Oblot
 0A18:1021       L__Zapisz__T_Oblot
 0A18:1144       $BODY__T_Oblot
 0A18:11A1       $INIT__T_Oblot
 0A18:1275       $EM__T_Oblot
 0B40:0000       $BM__T_Inspekcja
 0B40:031E       S__Pokaz__T_Inspekcja
 0B40:0388       L__UsunOblot__T_Inspekcja
 0B40:0423       L__UsunOblotP__T_Inspekcja
 0B40:0472       L__ProbujWstawicOblot__T_Inspek
 0B40:0488       L__ZmienOblot__T_Inspekcja
 0B40:0752       L__EnumObl__T_Inspekcja
 0B40:077C       L__WymienPasujaceObloty__T_Insp
 0B40:07DE       L__DodajOblot__T_Inspekcja
 0B40:0EC4       L__NowyOblot__T_Inspekcja
 0B40:0F13       L__OblotOK__T_Inspekcja
 0B40:0FC0       N__SetDefInsp__InspekcjaEP__T_I
 0B40:106A       L__InspekcjaEP__T_Inspekcja
 0B40:13E8       $BODY__T_Inspekcja
 0B40:1421       $INIT__T_Inspekcja
 0B40:14C3       $EM__T_Inspekcja
 0C8D:0000       $BM__CommonData
 0C8D:0012       $BODY__CommonData
 0C8D:00A7       $INIT__CommonData
 0C8D:00CC       $EM__CommonData
 0C9A:0000       $BM__Files
 0C9A:016F       L__Kopiuj__Files
 0C9A:0240       L__ReadDef__Files
 0C9A:0273       L__CreateFiles__Files
 0C9A:0638       L__OpenFiles__Files
 0C9A:09FD       L__SaveData__Files
 0C9A:0CB2       L__LoadData__Files
 0C9A:0F3B       L__CloseFiles__Files
 0C9A:1096       L__OpenSignalFiles__Files
 0C9A:1685       L__ReadXref__Files
 0C9A:16EA       L__ReadFlgs__Files
 0C9A:1729       L__ReadAllSignals__Files
 0C9A:17EB       L__CloseSignalFiles__Files
 0C9A:1902       S__RemoveBSl__Files
 0C9A:1965       N__TworzK__KopiujWszystkiePliki
 0C9A:19D4       L__KopiujWszystkiePliki__Files
 0C9A:1BE4       L__LoadAResult__Files
 0C9A:1D15       L__SaveAResult__Files
 0C9A:1DB9       L__ExistDIR__Files
 0C9A:1E04       L__ChangeDir__Files
 0C9A:1E3D       L__GoHomeDir__Files
 0C9A:1E70       S__AssignName__Files
 0C9A:1F1C       L__SubstituteAngle100__Files
 0C9A:1F61       L__addAngle100__Files
 0C9A:1FCB       L__subNormal__Files
 0C9A:203F       L__addNormal__Files
 0C9A:20C9       L__FInterpolacja__Files
 0C9A:246E       L__SigInterpolacja__Files
 0C9A:264E       L__GetALfaRefFName__Files
 0C9A:26C2       L__GetDisRefFName__Files
 0C9A:2735       L__GetCommSigFName__Files
 0C9A:27A8       L__OpenCommSigFName__Files
 0C9A:2819       L__CloseCommSigFName__Files
 0C9A:2833       L__ReadCommSigFName__Files
 0C9A:2852       S__Init__Files
 0C9A:2B3D       $BODY__Files
 0C9A:2B56       $INIT__Files
 0C9A:2BCB       $EM__Files
 0F57:0000       $BM__V_CP_ControlProc
 0F57:0012       S__ClearLinVelContiner__V_CP_Co
 0F57:006E       N__succ__RadialDirection__Radia
 0F57:009B       N__checkDir__RadialDirection__R
 0F57:0149       N__RadialDirection__Radial__V_C
 0F57:0329       L__Radial__V_CP_ControlProc
 0F57:04FD       S__ClearAngVelContiner__V_CP_Co
 0F57:0559       N__succ__OrbitDirection__Orbit_
 0F57:0586       N__checkDir__OrbitDirection__Or
 0F57:05DE       N__OrbitDirection__Orbit__V_CP_
 0F57:07B7       L__Orbit__V_CP_ControlProc
 0F57:09BD       L__StartCPLoop__V_CP_ControlPro
 0F57:0A8A       L__StopCPLoop__V_CP_ControlProc
 0F57:0AF3       $BODY__V_CP_ControlProc
 0F57:0B48       $INIT__V_CP_ControlProc
 0F57:0BA9       $EM__V_CP_ControlProc
 1012:0000       $BM__Pomiar
 1012:00F4       L__StartBP__Pomiar
 1012:0104       L__RestartBP__Pomiar
 1012:0114       L__AbortBP__Pomiar
 1012:0124       L__CallStopButton__Pomiar
 1012:012E       L__StopBP__Pomiar
 1012:013E       L__PrzelaczPomiaryBP__Pomiar
 1012:014F       L__AkceptacjaBP__Pomiar
 1012:015F       N__Sek2__PolaryzacjaBP__Pomiar
 1012:01F6       L__PolaryzacjaBP__Pomiar
 1012:03EF       L__InitPomiar__Pomiar
 1012:05EF       N__PoprawnieUstawButtony__Pomia
 1012:06EF       N__NastepnyStan__GetEvent__Pomi
 1012:0767       N__GetEvent__PomiarEP__Pomiar
 1012:08A5       N__InitButtony__PomiarEP__Pomia
 1012:0B16       N__DisposeButtons__Done__Pomiar
 1012:0B84       N__Done__PomiarEP__Pomiar
 1012:0B92       N__AlfaRefInfo__PomiarEP__Pomia
 1012:0BD2       N__DeltaRefInfo__PomiarEP__Pomi
 1012:0C3F       N__DataLosInfo__PomiarEP__Pomia
 1012:0C88       N__PrologAnalyse__PomiarEP__Pom
 1012:0EC2       L__PomiarEP__Pomiar
 1012:14E0       $BODY__Pomiar
 1012:153F       $INIT__Pomiar
 1012:15AF       $EM__Pomiar
 116E:0000       $BM__Screen
 116E:01D5       S__RectWykresy__Screen
 116E:0259       S__UniversalEvent__Dialog__Scre
 116E:02D8       L__RegionWykGEvent__Dialog__Scr
 116E:0323       L__RegionWykGButton__Dialog__Sc
 116E:037F       L__RegionWyk1Event__Dialog__Scr
 116E:03CA       L__RegionWyk1Button__Dialog__Sc
 116E:0419       L__RegionWyk2Event__Dialog__Scr
 116E:0464       L__RegionWyk2Button__Dialog__Sc
 116E:04B3       L__RegionWyk3Event__Dialog__Scr
 116E:04FE       L__RegionWyk3Button__Dialog__Sc
 116E:054D       S__PokazWgKursora__Dialog__Scre
 116E:0B48       L__WykrEvent__Dialog__Screen
 116E:0BC1       L__KursorLewoButton__Dialog__Sc
 116E:0BDA       L__KursorPrawoPar__Dialog__Scre
 116E:0BF3       N__RedrawRqs__Xchg__Dialog__Scr
 116E:0C7D       S__Xchg__Dialog__Screen
 116E:0CC9       S__ShowBarCursor__Dialog__Scree
 116E:0D49       L__KursorOnOffBP__Dialog__Scree
 116E:0D66       L__SkalaPlusBP__Dialog__Screen
 116E:0E5D       L__SkalaMinusBP__Dialog__Screen
 116E:0F54       L__KursorPrawoBP__Dialog__Scree
 116E:0F7E       L__KursorLewoBP__Dialog__Screen
 116E:0FA8       S__UpdateMap__Dialog__Screen
 116E:0FD7       N__CurrCursorMode__RuszKursor__
 116E:10CD       S__RuszKursor__Dialog__Screen
 116E:1236       N__CurrDistance__OpisDla__InitW
 116E:13D2       N__OpisDla__InitWykr__Dialog__S
 116E:1749       S__InitWykr__Dialog__Screen
 116E:17F1       S__InitDialog__Dialog__Screen
 116E:1876       S__DisposeKursor__Dialog__Scree
 116E:18A7       S__KursoffOff__Dialog__Screen
 116E:18CD       S__KursoffOn__Dialog__Screen
 116E:18F9       L__ConEventButton__Screen
 116E:190A       L__SetButtons__Screen
 116E:1983       S__InitButtony__Screen
 116E:1AFD       N__ShowCurrDIB__InitSlupki__Scr
 116E:1B5E       N__Define__InitSlupki__Screen
 116E:1B9A       S__InitSlupki__Screen
 116E:1D4C       S__InitKrokOpisuOsi__Screen
 116E:1D6D       L__Init__Screen
 116E:1F5F       N__WriteText__ShowMarks__Update
 116E:20D1       N__DrawEvent__ShowMarks__Update
 116E:2201       N__ZwKrokOpisuOsi__ShowMarks__U
 116E:22B6       N__ShowMarks__UpdateWykr__Updat
 116E:2485       N__UpdateWykr__Update__Screen
 116E:2CA3       N__MarkDraw__WskazWykresy__Upda
 116E:2D08       N__WskazWykresy__Update__Screen
 116E:2D80       N__NapiszGPSFlg__NapiszGPS__Upd
 116E:2DE6       N__NapiszGPS__UpdateNapisy__Upd
 116E:30F6       N__NapiszTEO__UpdateNapisy__Upd
 116E:3357       N__UpdateNapisy__Update__Screen
 116E:34A4       L__Update__Screen
 116E:35A5       L__ScreenStart__Screen
 116E:35AE       N__KasujSlupki__Done__Screen
 116E:3664       N__DisposeButtons__Done__Screen
 116E:36CD       L__Done__Screen
 116E:36D9       $BODY__Screen
 116E:36F5       $INIT__Screen
 116E:37A6       $EM__Screen
 14E9:0000       $BM__PI_Analiza
 14E9:0062       L__DrukujBP__MouseMonitor__PI_A
 14E9:0091       L__ZapamietajBP__MouseMonitor__
 14E9:00C0       L__PWyjscieZProgramuBP__MouseMo
 14E9:00EF       L__PageUpBP__MouseMonitor__PI_A
 14E9:011E       L__PrzelaczPomiaryBP__MouseMoni
 14E9:014D       L__PageDownBP__MouseMonitor__PI
 14E9:017C       S__InitButtony__MouseMonitor__P
 14E9:036D       S__GetEvent__MouseMonitor__PI_A
 14E9:042C       S__DisposeButtons__MouseMonitor
 14E9:04A9       $BODY__MouseMonitor__PI_Analiza
 14E9:0518       L__AnalizaEP__PI_Analiza
 14E9:072D       $BODY__PI_Analiza
 14E9:0736       $INIT__PI_Analiza
 14E9:07B0       $EM__PI_Analiza
 1565:0000       $BM__PI_Pomiar
 1565:0022       L__V_Analiza__PI_Pomiar
 1565:0076       L__D_Analiza__PI_Pomiar
 1565:00C0       L__NullPolV__PI_Pomiar
 1565:00C8       L__InitPomiar__PI_Pomiar
 1565:05C5       $BODY__PI_Pomiar
 1565:05CB       $INIT__PI_Pomiar
 1565:0654       $EM__PI_Pomiar
 15CB:0000       $BM__PI_ArchDate
 15CB:0002       L__LoadData__PI_ArchDate
 15CB:00C4       $BODY__PI_ArchDate
 15CB:00CA       $INIT__PI_ArchDate
 15CB:012B       $EM__PI_ArchDate
 15DE:0000       $BM__PI_Drukuj
 15DE:0002       L__Druk__PI_Drukuj
 15DE:0028       $BODY__PI_Drukuj
 15DE:002E       $INIT__PI_Drukuj
 15DE:0053       $EM__PI_Drukuj
 15E4:0000       $BM__SoftIntHandlingManager
 15E4:0002       L__SetEventHandler__SoftIntHand
 15E4:0041       L__RestoreEventHandler__SoftInt
 15E4:0067       L__checkBreak__SoftIntHandlingM
 15E4:008A       L__BreakChain__SoftIntHandlingM
 15E4:009A       L__InstPrologueHnd__SoftIntHand
 15E4:009A       L__InstPrologueHnd__Monitor__So
 15E4:0256       L__InstEpilogueHnd__SoftIntHand
 15E4:0256       L__InstEpilogueHnd__Monitor__So
 15E4:03FA       L__UnInstallHandler__SoftIntHan
 15E4:03FA       L__UnInstallHandler__Monitor__S
 15E4:0517       L__UnInstallAllHandlers__Monito
 15E4:0590       $BODY__Monitor__SoftIntHandling
 15E4:05BE       $BODY__SoftIntHandlingManager
 15E4:05D1       $INIT__SoftIntHandlingManager
 15E4:05F6       $EM__SoftIntHandlingManager
 1644:0000       $BM__Storage
 1644:0002       L__ALLOCATE__Storage
 1644:01B9       L__DEALLOCATE__Storage
 1644:02D0       L__Available__Storage
 1644:03A3       L__InstallHeap__Storage
 1644:0422       L__RemoveHeap__Storage
 1644:04B3       S__SetStrategia__Storage
 1644:04CB       S__GetStrategia__Storage
 1644:04E7       S__SetChain__Storage
 1644:04FF       S__GetChain__Storage
 1644:051E       L__Terminator__Storage
 1644:0544       $BODY__Storage
 1644:058E       $INIT__Storage
 1644:05B8       $EM__Storage
 16A0:0000       $BM__Timer
 16A0:0002       S__Insert__Monitor__Timer
 16A0:0159       S__Remove__Monitor__Timer
 16A0:0277       L__Wait__Timer
 16A0:0277       L__Wait__Monitor__Timer
 16A0:0309       L__WaitBefProtOper__Monitor__Ti
 16A0:0309       L__WaitBefProtOper__Timer
 16A0:03B8       L__WaitMetronomeBefProtOper__Mo
 16A0:03B8       L__WaitMetronomeBefProtOper__Ti
 16A0:043F       L__WaitMetronome__Timer
 16A0:043F       L__WaitMetronome__Monitor__Time
 16A0:04B5       L__DefinePeriod__Monitor__Timer
 16A0:04B5       L__DefinePeriod__Timer
 16A0:051F       L__CurrentPeriod__Monitor__Time
 16A0:051F       L__CurrentPeriod__Timer
 16A0:0559       L__AssignPeriodicProc__Monitor_
 16A0:0559       L__AssignPeriodicProc__Timer
 16A0:057E       N__Count__IBMIntHandler__Monito
 16A0:06FC       L__IBMIntHandler__Monitor__Time
 16A0:07F7       S__SetCount__Monitor__Timer
 16A0:08B3       L__RestoreTimer__Monitor__Timer
 16A0:08D4       $BODY__Monitor__Timer
 16A0:092C       L__TInOneSecond__Timer
 16A0:0940       L__NewMetronome__Timer
 16A0:09B7       L__ResetMetronome__Timer
 16A0:0A36       L__DisposeMetronome__Timer
 16A0:0A94       L__NewWatchdog__Timer
 16A0:0AE2       L__StartProtectedOperation__Tim
 16A0:0B56       L__StopProtectedOperation__Time
 16A0:0B9B       L__DisposeWatchdog__Timer
 16A0:0BFF       L__Dummy__Timer
 16A0:0C05       S__BreakKey__Timer
 16A0:0C72       $BODY__Timer
 16A0:0C8E       $INIT__Timer
 16A0:0CBD       $EM__Timer
 176C:0000       $BM__Messages
 176C:0004       L__DisableDisplay__Messages
 176C:002E       L__EnableDisplay__Messages
 176C:0058       S__ACKMess__Messages
 176C:010B       L__NewMessage__Messages
 176C:0164       L__DisposeMessage__Messages
 176C:0181       L__Display__Messages
 176C:0265       L__ShowFirst__Messages
 176C:0312       L__AcknowledgeFirst__Messages
 176C:0337       L__Acknowledge__Messages
 176C:0358       S__OUTMessage__Messages
 176C:0382       S__Beep__Messages
 176C:03F9       L__KbdAck__Messages
 176C:0405       L__KbdDsp__Messages
 176C:0411       $BODY__Messages
 176C:046A       $INIT__Messages
 176C:04A8       $EM__Messages
 17B7:0000       $BM__StdIO
 17B7:0022       N__GetNum__sprintf__StdIO
 17B7:00C8       N__IntConv__sprintf__StdIO
 17B7:023F       N__StripSpaces__sprintf__StdIO
 17B7:031F       N__BuildNumber__sprintf__StdIO
 17B7:037B       L__sprintf__StdIO
 17B7:0D80       L__sprintf4__StdIO
 17B7:0F81       L__sprintf5__StdIO
 17B7:11F3       L__sprintf3__StdIO
 17B7:1383       L__sprintf2__StdIO
 17B7:149F       $BODY__StdIO
 17B7:14A5       $INIT__StdIO
 17B7:14D9       $EM__StdIO
 1905:0000       $BM__MsgBox
 1905:0017       L__Warn__MsgBox
 1905:0072       L__Info__MsgBox
 1905:00F2       L__AdvInfo__MsgBox
 1905:05C9       L__P0__MsgBox
 1905:05EA       L__P1__MsgBox
 1905:060B       L__P2__MsgBox
 1905:062C       L__P3__MsgBox
 1905:064D       S__Init__MsgBox
 1905:0680       $BODY__MsgBox
 1905:0689       $INIT__MsgBox
 1905:06DB       $EM__MsgBox
 1973:0000       $BM__WorseBecause
 1973:0002       L__WorseBLess__WorseBecause
 1973:003E       L__WorseBLessDis__WorseBecause
 1973:0069       L__WorseBGreater__WorseBecause
 1973:00A5       $BODY__WorseBecause
 1973:00AB       $INIT__WorseBecause
 1973:00D0       $EM__WorseBecause
 1981:0000       $BM__Graphics
 1981:000B       L__MaxHor__Graphics
 1981:0014       L__MaxVer__Graphics
 1981:001D       L__Tryb__Graphics
 1981:008B       S__HugeMemCpy__Graphics
 1981:0136       L__SetBank__InternalMonitor__Gr
 1981:0136       L__SetBank__Graphics
 1981:0191       L__GetBank__Graphics
 1981:0191       L__GetBank__InternalMonitor__Gr
 1981:01B2       L__DP__Graphics
 1981:01B2       L__DP__InternalMonitor__Graphic
 1981:025A       L__FillRect__InternalMonitor__G
 1981:025A       L__FillRect__Graphics
 1981:03B5       L__GetWindow__InternalMonitor__
 1981:03B5       L__GetWindow__Graphics
 1981:0593       L__InvertW__Graphics
 1981:0593       L__InvertW__InternalMonitor__Gr
 1981:0703       L__SetWindow__InternalMonitor__
 1981:0703       L__SetWindow__Graphics
 1981:08E1       L___WrStrXY__InternalMonitor__G
 1981:08E1       L___WrStrXY__Graphics
 1981:09BB       S__GetFontPtr__InternalMonitor_
 1981:0CF3       L___Wr16StrXY__Graphics
 1981:0CF3       L___Wr16StrXY__InternalMonitor_
 1981:0DC9       L___Wr2StrXY__InternalMonitor__
 1981:0DC9       L___Wr2StrXY__Graphics
 1981:0F13       L___Wr2fStrXY__InternalMonitor_
 1981:0F13       L___Wr2fStrXY__Graphics
 1981:1059       L__Terminator__Graphics
 1981:1064       S__FindROMFontAddr__Graphics
 1981:108B       S__LoadPLFonts__Graphics
 1981:10C2       $BODY__Graphics
 1981:10F2       $INIT__Graphics
 1981:1121       $EM__Graphics
 1A94:0000       $BM__XMS
 1A94:0000       L__XmsInstalled__XMS
 1A94:0011       L__QueryFreeExtMem__XMS
 1A94:003C       L__AllocateExtMem__XMS
 1A94:0068       L__FreeExtMem__XMS
 1A94:008B       L__MoveExtMemBlock__XMS
 1A94:00B2       L__ResizeExtMemBlock__XMS
 1A94:00D8       L__AllocUpperMemBlock__XMS
 1A94:0107       L__FreeUpperMemBlock__XMS
 1A94:012A       $EM__XMS
 1AA7:0000       $INIT__XMS
 1AAB:0000       $BM__XMSService
 1AAB:004E       L__Allocate__XMSService
 1AAB:00EE       L__Deallocate__XMSService
 1AAB:0110       L__Copy__XMSService
 1AAB:01F3       S__Free__XMSService
 1AAB:02F4       L__Terminator__XMSService
 1AAB:03C4       S__Blad__XMSService
 1AAB:0412       S__WrWarning__XMSService
 1AAB:0450       $BODY__XMSService
 1AAB:0485       $INIT__XMSService
 1AAB:04BE       $EM__XMSService
 1AF7:0000       $BM__GrafTypes
 1AF7:0002       L__IsIntersect__GrafTypes
 1AF7:0058       L__Intersection__GrafTypes
 1AF7:0100       L__MoveRect__GrafTypes
 1AF7:014B       L__IsEqual__GrafTypes
 1AF7:0187       L__AssignRect__GrafTypes
 1AF7:01AD       L__AssignPoint__GrafTypes
 1AF7:01C5       $BODY__GrafTypes
 1AF7:01CB       $INIT__GrafTypes
 1AF7:01E6       $EM__GrafTypes
 1B16:0000       $BM__MMMouse
 1B16:0002       S__DefineStdCursor__MMMouse
 1B16:00D9       S__Init__MMMouse
 1B16:00DF       L__HideConditionally__MMMouse
 1B16:018A       L__IsHidden__MMMouse
 1B16:019E       L__RegisterRegion__MMMouse
 1B16:02C7       L__SetOnTop__MMMouse
 1B16:03E9       L__UnregisterRegion__MMMouse
 1B16:0623       S__Swap__MMMouse
 1B16:0639       S__SetShape__MMMouse
 1B16:0651       S__WrIdx__MMMouse
 1B16:066E       S__WrBit__MMMouse
 1B16:06C2       L__GetRegion__MMMouse
 1B16:0713       L__GetRegionRect__MMMouse
 1B16:0780       L__SetParent__MMMouse
 1B16:07F2       L__EventDispatcher__BezPrzerwan
 1B16:08F0       N__Button2Ev__GetEvent__BezPrze
 1B16:096B       S__GetEvent__BezPrzerwanOdMyszy
 1B16:0AC3       L__InsertEvent__BezPrzerwanOdMy
 1B16:0AC3       L__InsertEvent__MMMouse
 1B16:0B15       $BODY__BezPrzerwanOdMyszy__MMMo
 1B16:0B5F       S__RedrawAt__BezWyszeregowania_
 1B16:0BB2       L__ShowCursor__MMMouse
 1B16:0BB2       L__ShowCursor__BezWyszeregowani
 1B16:0BDE       L__HideCursor__MMMouse
 1B16:0BDE       L__HideCursor__BezWyszeregowani
 1B16:0C0A       S__RemoveCursor__BezWyszeregowa
 1B16:0C8E       S__DrawCursor__BezWyszeregowani
 1B16:1031       L__MouseLoop__MMMouse
 1B16:133C       L__Terminator__MMMouse
 1B16:134F       $BODY__MMMouse
 1B16:14AB       $INIT__MMMouse
 1B16:1502       $EM__MMMouse
 1C67:0000       $BM__ShortCuts
 1C67:0002       L__KeyPressed__monitor__ShortCu
 1C67:0002       L__KeyPressed__ShortCuts
 1C67:003B       L__PutKeyStrokeIntoBuffer__moni
 1C67:003B       L__PutKeyStrokeIntoBuffer__Shor
 1C67:006D       L__ClearBuffer__monitor__ShortC
 1C67:006D       L__ClearBuffer__ShortCuts
 1C67:008B       L__Read__monitor__ShortCuts
 1C67:008B       L__Read__ShortCuts
 1C67:0104       L__Rd__monitor__ShortCuts
 1C67:0104       L__Rd__ShortCuts
 1C67:013F       S__Insert__monitor__ShortCuts
 1C67:01A0       N__Remove__RemoveToKill__monito
 1C67:032C       S__RemoveToKill__monitor__Short
 1C67:0382       S__Find__monitor__ShortCuts
 1C67:0424       S__FindAMark__monitor__ShortCut
 1C67:04D2       S__Unmark__monitor__ShortCuts
 1C67:0532       $BODY__monitor__ShortCuts
 1C67:056C       N__GetChar__KbdScan__ShortCuts
 1C67:05B8       L__KbdScan__ShortCuts
 1C67:0612       L__DefineShortCut__ShortCuts
 1C67:0691       N__Kill__DeleteShortCut__ShortC
 1C67:06DD       L__DeleteShortCut__ShortCuts
 1C67:070A       $BODY__ShortCuts
 1C67:0762       $INIT__ShortCuts
 1C67:079B       $EM__ShortCuts
 1CE1:0000       $BM__HRD_Clock
 1CE1:0002       S__BCD__HRD_Clock
 1CE1:003A       S__CheckUpdateCycle__HRD_Clock
 1CE1:006D       S__GetGodzina__HRD_Clock
 1CE1:00A1       L__Godzina__HRD_Clock
 1CE1:011E       L__Data__HRD_Clock
 1CE1:0242       $BODY__HRD_Clock
 1CE1:0248       $INIT__HRD_Clock
 1CE1:026D       $EM__HRD_Clock
 1D08:0000       $BM__ScannerI
 1D08:0022       L__AssSim_Dis__ScannerI
 1D08:0037       L__AssSim_Alfa__ScannerI
 1D08:004C       L__NewDataAvailable__ScannerI
 1D08:005F       L__Start__ScannerI
 1D08:0086       L__CurrGPSAlfaOffset__ScannerI
 1D08:00B5       L__LocationsTogether__ScannerI
 1D08:00E4       L__Stop__ScannerI
 1D08:00F7       L__InitPilotEventId__ScannerI
 1D08:010C       L__GetPilotEvent__ScannerI
 1D08:0137       L__SetEvalPROC__ScannerI
 1D08:014C       $BODY__ScannerI
 1D08:0265       $INIT__ScannerI
 1D08:02A8       $EM__ScannerI
 1D33:0000       $BM__TheodolitRead
 1D33:0107       N__Angle360__TheodolitView__The
 1D33:01B7       L__TheodolitView__TheodolitRead
 1D33:05AE       L__GetCurrDataSign__TheodolitRe
 1D33:05DD       L__InitTeoEventId__TheodolitRea
 1D33:0600       L__GetTeoEvent__TheodolitRead
 1D33:0654       L__GetTheoR__TheodolitRead
 1D33:0700       L__GetTheoI__TheodolitRead
 1D33:0852       S__signalError__TheodolitRead
 1D33:086F       N__AssignRes__Analizer__Theodol
 1D33:0915       N__Rd__Analizer__TheodolitRead
 1D33:097D       N__CountCrc__Analizer__Theodoli
 1D33:09A8       N__GetNum__Analizer__TheodolitR
 1D33:0A73       S__Analizer__TheodolitRead
 1D33:0DF1       L__WatchDog__TheodolitRead
 1D33:0ECB       L__NicNieRob__TheodolitRead
 1D33:0EE0       $BODY__TheodolitRead
 1D33:1039       $INIT__TheodolitRead
 1D33:1095       $EM__TheodolitRead
 1E3D:0000       $BM__GPSRead
 1E3D:001A       L__Read_Nic__GPSRead
 1E3D:002D       L__Read_Nov__GPSRead
 1E3D:0177       L__Read_Trimble__GPSRead
 1E3D:0225       L__GPSReceive__GPSRead
 1E3D:029B       L__GetDirection__GPSRead
 1E3D:02DA       L__GetCurrDataSign__GPSRead
 1E3D:0309       L__WatchDog__GPSRead
 1E3D:05FA       $BODY__GPSRead
 1E3D:0670       $INIT__GPSRead
 1E3D:06B3       $EM__GPSRead
 1EA9:0000       $BM__DGHIni
 1EA9:03D8       S__InitTableOfNames__DGHIni
 1EA9:08D1       S__FillSignalTable__DGHIni
 1EA9:0CDC       S__ReadDGHIniFile__DGHIni
 1EA9:0D08       $BODY__DGHIni
 1EA9:0D49       $INIT__DGHIni
 1EA9:0D73       $EM__DGHIni
 1F81:0000       $BM__EventsMng
 1F81:0037       L__NewEvent__EventsMng
 1F81:014C       L__NewTeoEvent__EventsMng
 1F81:01CF       L__NewPilotEvent__EventsMng
 1F81:0252       L__NewConsoleEvent__EventsMng
 1F81:02D5       L__FindNextEvent__EventsMng
 1F81:0366       L__GetUpdNextEvent__EventsMng
 1F81:041A       L__GetEventInfo__EventsMng
 1F81:04AA       L__SaveDistEvents__EventsMng
 1F81:04F4       S__InitEvents__EventsMng
 1F81:0519       L__LoadDistEvents__EventsMng
 1F81:055C       L__EventsMngInit__EventsMng
 1F81:060A       L__UpdateStrefa__EventsMng
 1F81:087E       L__Terminator__EventsMng
 1F81:09B8       $BODY__EventsMng
 1F81:09EE       $INIT__EventsMng
 1F81:0A4A       $EM__EventsMng
 2026:0000       $BM__DataCollect
 2026:0002       L__SampleNr__DataCollect
 2026:0002       L__SampleNr__tablice__DataColle
 2026:004E       L__RedrawReq__tablice__DataColl
 2026:004E       L__RedrawReq__DataCollect
 2026:0152       N__UpdateNR__Tablice800__tablic
 2026:0219       N__Shrink__Tablice800__tablice_
 2026:034B       N__ShrinkX__Tablice800__tablice
 2026:0422       S__Tablice800__tablice__DataCol
 2026:15DF       S__InitTab__tablice__DataCollec
 2026:1867       L__Samp2Dis__tablice__DataColle
 2026:1867       L__Samp2Dis__DataCollect
 2026:1968       L__Samp2Kat__DataCollect
 2026:1968       L__Samp2Kat__tablice__DataColle
 2026:1A69       L__ResetMarks_A__DataCollect
 2026:1A86       L__ResetMarks_D__DataCollect
 2026:1AA3       L__GetNextDMark__DataCollect
 2026:1B29       L__GetNextAMark__DataCollect
 2026:1BBB       S__Start__DataCollect
 2026:2002       L__ResetDataCollect__DataCollec
 2026:2092       N__UpdateDistMarks__UpdTab800__
 2026:20FA       N__UpdateAlfaMarks__UpdTab800__
 2026:2171       L__UpdTab800__DataCollect
 2026:21D7       L__NilProc__DataCollect
 2026:21DF       $BODY__DataCollect
 2026:2221       $INIT__DataCollect
 2026:226E       $EM__DataCollect
 224D:0000       $BM__FIO
 224D:0002       L__Open__FIO
 224D:00FA       L__Create__FIO
 224D:01F2       L__Close__FIO
 224D:026A       L__Seek__FIO
 224D:02BC       L__Write__FIO
 224D:0301       L__Read__FIO
 224D:0346       L__ReadExt__FIO
 224D:0389       L__Length__FIO
 224D:040B       L__EOF__FIO
 224D:046B       L__Delete__FIO
 224D:04B4       L__CD__FIO
 224D:0510       L__MkDir__FIO
 224D:056C       L__RmDir__FIO
 224D:05B5       L__GetDir__FIO
 224D:0614       L__Rename__FIO
 224D:0685       L__GetFileStamp__FIO
 224D:0700       L__DirQuery__FIO
 224D:08B1       L__CriticalErrorHandlerProc__FI
 224D:08BA       L__Terminator__FIO
 224D:097A       S__InitFiles__FIO
 224D:09F0       $BODY__FIO
 224D:0A16       $INIT__FIO
 224D:0A45       $EM__FIO
 22F2:0000       $BM__DGHInterface
 22F2:002B       L__GetCurrDataSign__DGHInterfac
 22F2:005A       L__WaitForNewData__DGHInterface
 22F2:00A0       L__TurnOff__DGHInterface
 22F2:00F2       L__TurnOn__DGHInterface
 22F2:0187       L__GetAnalogVal__DGHInterface
 22F2:0226       L__GetBinaryVal__DGHInterface
 22F2:02BB       L__SetAnalogVal__DGHInterface
 22F2:0392       L__SetBinaryVal__DGHInterface
 22F2:04A0       L__SetMessage__DGHInterface
 22F2:065C       N__HexDigit__CHKSRight__Reader_
 22F2:06B0       N__CHKSRight__Reader__Writer__D
 22F2:07A4       N__Reader__Writer__DGHInterface
 22F2:0CCB       L__Writer__DGHInterface
 22F2:0F7B       $BODY__DGHInterface
 22F2:102C       $INIT__DGHInterface
 22F2:1079       $EM__DGHInterface
 23FA:0000       $BM__V_Odb
 23FA:002A       N__ReadNAV__Oblicz__V_Odb
 23FA:0434       L__Oblicz__V_Odb
 23FA:063C       L__PoprawDane__V_Odb
 23FA:08AB       S__ClearContiners__V_Odb
 23FA:0A38       L__Start__V_Odb
 23FA:0A58       L__Zatrzymaj__V_Odb
 23FA:0A75       L__Wznow__V_Odb
 23FA:0A92       L__IniData__V_Odb
 23FA:0BCA       $BODY__V_Odb
 23FA:0BFB       $INIT__V_Odb
 23FA:0C61       $EM__V_Odb
 24C1:0000       $BM__D_Odb
 24C1:001A       N__ReadSimul__ReadDME__Oblicz__
 24C1:01EF       N__ReadDME__Oblicz__D_Odb
 24C1:04CF       L__Oblicz__D_Odb
 24C1:071E       L__PoprawDane__D_Odb
 24C1:077B       S__ClearContiners__D_Odb
 24C1:08B2       L__Start__D_Odb
 24C1:08C5       L__Zatrzymaj__D_Odb
 24C1:08D5       L__Wznow__D_Odb
 24C1:08E5       L__IniData__D_Odb
 24C1:0A98       $BODY__D_Odb
 24C1:0AAD       $INIT__D_Odb
 24C1:0B18       $EM__D_Odb
 2573:0000       $BM__Zoom
 2573:0161       L__Init__Zoom
 2573:04E7       S__KtoryWykres__Zoom
 2573:055B       L__ObslugaMyszy__Zoom
 2573:082E       S__RedrawAll__Zoom
 2573:0880       L__ZoomOutPoziomP__Zoom
 2573:0889       L__ZoomOutPionP1__Zoom
 2573:089D       L__ZoomOutPionP2__Zoom
 2573:08B1       L__ZoomOutPionP3__Zoom
 2573:08C5       L__ZoomOutPionP4__Zoom
 2573:08D9       L__Run__Zoom
 2573:0978       S__EnableAll__Zoom
 2573:0A04       L__ZmienPDefault__Zoom
 2573:0A0A       L__Done__Zoom
 2573:0B17       S__FillData__Zoom
 2573:0BAE       S__LoadData__Zoom
 2573:0D92       L__Assign__Zoom
 2573:12E0       S__DobierzDzialki__Zoom
 2573:179A       S__PushX__Zoom
 2573:182C       S__PopX__Zoom
 2573:18B7       S__PushY__Zoom
 2573:1A0A       S__PopY__Zoom
 2573:1B58       L__ZmiennaNiezalezna__Zoom
 2573:1E0A       S__MinV__Zoom
 2573:1E59       S__MaxV__Zoom
 2573:1EA8       S__MinMax__Zoom
 2573:2059       S__Redraw__Zoom
 2573:26F2       $BODY__Zoom
 2573:270D       $INIT__Zoom
 2573:2796       $EM__Zoom
 27ED:0000       $BM__GList
 27ED:0002       L__SetNotificationProc__GList
 27ED:0020       L__DummyNotification__GList
 27ED:0028       L__TworzListe__GList
 27ED:02FB       N__UsunStr__SkasujWszystko__GLi
 27ED:033D       L__SkasujWszystko__GList
 27ED:0387       L__Skasuj__GList
 27ED:04C1       L__UsunListe__GList
 27ED:06B6       L__DodajDoListy__GList
 27ED:08C9       L__WstawDoListy__GList
 27ED:0A11       L__Idx2Str__GList
 27ED:0AC4       L__ZmienListe__GList
 27ED:0B6F       L__LiczbaElementow__GList
 27ED:0B8E       L__kbHandler__GList
 27ED:0C76       L__RScrollUp__GList
 27ED:0D8F       L__RScrollDn__GList
 27ED:0E9F       L__RChoose__GList
 27ED:0FE8       S__CP__GList
 27ED:100F       L__Wybor__GList
 27ED:1046       S__Redraw__GList
 27ED:107D       N__WrStr__Draw__GList
 27ED:1181       S__Draw__GList
 27ED:128C       L__HandleEvent__GList
 27ED:1454       L__CanEnable__GList
 27ED:1470       L__Disable__GList
 27ED:14F4       L__GetSelection__GList
 27ED:1513       L__Enable__GList
 27ED:1608       L__GetRegion__GList
 27ED:1698       L__Sortowana__GList
 27ED:16B4       S__SetSelectionInt__GList
 27ED:1754       L__SetSelectionNotf__GList
 27ED:1772       L__SetSelection__GList
 27ED:1790       S__SetPositions__GList
 27ED:1819       L__GetRect__GList
 27ED:1839       L__GetContents__GList
 27ED:1860       L__SetContents__GList
 27ED:18E1       L__KillContents__GList
 27ED:18FD       $BODY__GList
 27ED:1920       $INIT__GList
 27ED:197C       $EM__GList
 2985:0000       $BM__GrafUtil
 2985:0003       L__Info__GrafUtil
 2985:00BB       L__InfoBeep__GrafUtil
 2985:0112       L__DoBeep__GrafUtil
 2985:017A       $BODY__GrafUtil
 2985:01D3       $INIT__GrafUtil
 2985:0220       $EM__GrafUtil
 29A8:0000       $BM__Buttons
 29A8:0002       S__Insert__MONITOR__Buttons
 29A8:0052       N__Remove__RemoveToKill__MONITO
 29A8:01B5       S__RemoveToKill__MONITOR__Butto
 29A8:0205       S__FindAMark__MONITOR__Buttons
 29A8:0318       S__MarkBut__MONITOR__Buttons
 29A8:03BB       S__Unmark__MONITOR__Buttons
 29A8:041B       $BODY__MONITOR__Buttons
 29A8:043F       N__Dec__DrawInter__Buttons
 29A8:047D       S__DrawInter__Buttons
 29A8:0790       L__UniversalKBD__Buttons
 29A8:07E1       L__MouseHandler__Buttons
 29A8:0959       L__ChangeButton__Buttons
 29A8:09D0       L__ChangeButtonText__Buttons
 29A8:0A36       N__KillButton__DisposeButton__B
 29A8:0AAB       L__DisposeButton__Buttons
 29A8:0AE2       L__PressRadio__Buttons
 29A8:0B27       L__Nic__Buttons
 29A8:0B2D       L__CreateButton__Buttons
 29A8:0C3C       L__CreateRadioButton__Buttons
 29A8:0CC0       L__EnableButton__Buttons
 29A8:0D0E       L__GetRegion__Buttons
 29A8:0D35       L__CallProc__Buttons
 29A8:0D4E       L__EnableDisableAllButtons__But
 29A8:0D61       $BODY__Buttons
 29A8:0D80       $INIT__Buttons
 29A8:0DD7       $EM__Buttons
 2A86:0000       $BM__Dialog
 2A86:0006       L__GetDialogDIBHandle__Dialog
 2A86:002D       L__WstawButton__Dialog
 2A86:0156       L__WstawRadioButton__Dialog
 2A86:02EB       L__RadioBProc__Dialog
 2A86:03EC       L__WstawInpLine__Dialog
 2A86:0518       L__WstawListe__Dialog
 2A86:0663       L__TworzDialog__Dialog
 2A86:0A79       N__UsunPola__UsunDialog__Dialog
 2A86:0B28       L__UsunDialog__Dialog
 2A86:0D8A       L__KlawiszSpacji__Dialog
 2A86:0E12       L__KlawiszTab__Dialog
 2A86:0E94       L__KlawiszShiftTab__Dialog
 2A86:0F3F       N__Expand__Aktywizuj__Dialog
 2A86:0FCA       S__Aktywizuj__Dialog
 2A86:1185       S__CzyMoznaSkonczyc__Dialog
 2A86:123F       L__Go__Dialog
 2A86:1488       L__DialogMouseHandle__Dialog
 2A86:15B1       S__ChwilowoZablokujDialog__Dial
 2A86:15E7       L__EndDialog__Dialog
 2A86:1666       L__AltF4__Dialog
 2A86:167B       L__EnableDlg__Dialog
 2A86:17AC       L__IsBusy__Dialog
 2A86:17EF       L__Redraw__Dialog
 2A86:18C2       $BODY__Dialog
 2A86:18EB       $INIT__Dialog
 2A86:195B       $EM__Dialog
 2C1C:0000       $BM__HiLevGraf
 2C1C:0007       S__Max__HiLevGraf
 2C1C:0027       S__Min__HiLevGraf
 2C1C:0047       S__StdPalette__HiLevGraf
 2C1C:0182       L__SetPaletteEntry__HiLevGraf
 2C1C:0230       S__SetPalette__HiLevGraf
 2C1C:030F       N__OpenF__LoadDIB__HiLevGraf
 2C1C:03A5       L__LoadDIB__HiLevGraf
 2C1C:06B5       L__DIBWidth__HiLevGraf
 2C1C:06E9       L__DIBHeight__HiLevGraf
 2C1C:071E       S__Swap__HiLevGraf
 2C1C:0741       S__Norm__HiLevGraf
 2C1C:0785       L__ShowDIB__HiLevGraf
 2C1C:0A9F       L__CloseDIB__HiLevGraf
 2C1C:0AE1       L__SetLineStyle__HiLevGraf
 2C1C:0AF4       L__Line__HiLevGraf
 2C1C:0B20       L__LineS__HiLevGraf
 2C1C:0C85       L__Circle__HiLevGraf
 2C1C:0F6C       L__FillRect__HiLevGraf
 2C1C:1026       L__Clip__HiLevGraf
 2C1C:10F4       L__NoClip__HiLevGraf
 2C1C:115F       L__GetClip__HiLevGraf
 2C1C:117A       L__Point__HiLevGraf
 2C1C:121A       L__MoveTo__HiLevGraf
 2C1C:1234       L__LineTo__HiLevGraf
 2C1C:1268       L__FrameRect__HiLevGraf
 2C1C:12D2       L__WrStr__HiLevGraf
 2C1C:138A       L__WrStrXY__HiLevGraf
 2C1C:144C       L__Wr2StrXY__HiLevGraf
 2C1C:1504       L__Wr2fStrXY__HiLevGraf
 2C1C:15BC       S__GetDir__HiLevGraf
 2C1C:1630       $BODY__HiLevGraf
 2C1C:1678       $INIT__HiLevGraf
 2C1C:16E3       $EM__HiLevGraf
 2D8B:0000       $BM__InpLine
 2D8B:0002       L__CreateInpLine__InpLine
 2D8B:0183       L__Enable__InpLine
 2D8B:01CA       L__DeleteInpLine__InpLine
 2D8B:02C9       L__SetText__InpLine
 2D8B:0388       L__GetText__InpLine
 2D8B:03DC       L__Key__InpLine
 2D8B:07B4       L__DoNothing__InpLine
 2D8B:07C4       L__KillFocus__InpLine
 2D8B:0827       S__Draw__InpLine
 2D8B:09E5       L__SetCursor__InpLine
 2D8B:0B2F       L__SetActive__InpLine
 2D8B:0C4D       L__GetRegion__InpLine
 2D8B:0C9E       $BODY__InpLine
 2D8B:0CB5       $INIT__InpLine
 2D8B:0D16       $EM__InpLine
 2E5D:0000       $BM__PI_ZoomSpecific
 2E5D:01C8       L__ZmiennaNiezalezna__PI_ZoomSp
 2E5D:029F       L__InitNames__PI_ZoomSpecific
 2E5D:0AC1       L__NazwaOdniesienia__PI_ZoomSpe
 2E5D:0B04       $BODY__PI_ZoomSpecific
 2E5D:0B0A       $INIT__PI_ZoomSpecific
 2E5D:0B7F       $EM__PI_ZoomSpecific
 2F16:0000       $BM__Mapa
 2F16:008A       S__RedefineMaxDist__Mapa
 2F16:0151       N__GetGPS__resolveSituation__Ma
 2F16:0260       N__CountMaxDist__resolveSituati
 2F16:037D       S__resolveSituation__Mapa
 2F16:0419       S__MakeMAP__Mapa
 2F16:0545       L__PokazKatyLotu__Mapa
 2F16:0696       N__Min__Promienie__Mapa
 2F16:06B6       L__Promienie__Mapa
 2F16:07B3       L__GdzieJest__Mapa
 2F16:0922       S__Stop__monitor__Mapa
 2F16:0951       L__StartProcess__monitor__Mapa
 2F16:0951       L__StartProcess__Mapa
 2F16:098B       L__CancelProcess__monitor__Mapa
 2F16:098B       L__CancelProcess__Mapa
 2F16:09BA       $BODY__monitor__Mapa
 2F16:09DC       S__FillPromieie__Mapa
 2F16:0A4F       $BODY__Mapa
 2F16:0AF4       $INIT__Mapa
 2F16:0B50       $EM__Mapa
 2FCC:0000       $BM__Obloty
 2FCC:01EB       L__UstawHomeDir__Obloty
 2FCC:0242       L__Ile__Obloty
 2FCC:0266       S__IleInspekcji__Obloty
 2FCC:02DC       S__WymienWszystkie__Obloty
 2FCC:037F       L__Dopasuj__Obloty
 2FCC:041D       L__WymInspekcjeDlaUrz__Obloty
 2FCC:04E4       L__WymienWszystkiePasujace__Obl
 2FCC:051E       L__SzczegolowyPlikOpisu__Obloty
 2FCC:068A       L__Kasuj__Obloty
 2FCC:06B2       L__ZmienISkasuj__Obloty
 2FCC:0738       S__SkasujKartoteke__Obloty
 2FCC:078A       L__SkasujOblot__Obloty
 2FCC:09B5       N__KasujPlik__KasujPodkartoteke
 2FCC:0A4B       L__KasujPodkartoteke__Obloty
 2FCC:0B21       S__Kasuj_DelDir__Obloty
 2FCC:0B98       L__SkasujInspekcje__Obloty
 2FCC:0DD3       N__ExistDIR__FreeSlot__Obloty
 2FCC:0E1A       L__FreeSlot__Obloty
 2FCC:0EB9       S__ZnajdzNumInspekcji__Obloty
 2FCC:0FF8       L__ZnajdzInspekcje__Obloty
 2FCC:1042       L__InspekcjeNowyWpis__Obloty
 2FCC:11EB       N__KopiujPlik__KopiujPodkartote
 2FCC:13F8       L__KopiujPodkartoteke__Obloty
 2FCC:1564       S__KopiujKartoteke__Obloty
 2FCC:15DB       L__KopiujInspekcje__Obloty
 2FCC:171F       L__StartInspection__Obloty
 2FCC:1A87       L__InitListaUrzadzen__Obloty
 2FCC:1B83       L__Dum_Stat_Size_Monitor__Oblot
 2FCC:1B8B       L__Dum_Stat_File_Monitor__Oblot
 2FCC:1B9E       $BODY__Obloty
 2FCC:1C0F       $INIT__Obloty
 2FCC:1C75       $EM__Obloty
 3194:0000       $BM__GeoArithmetic
 3194:006A       S__DodajPolozenieGeo__GeoArithm
 3194:012E       S__Odwr__GeoArithmetic
 3194:01D4       S__OdejmijPolozenieGeo__GeoArit
 3194:02F0       S__SredniPolozenieGeo__GeoArith
 3194:03A9       S__Rad__GeoArithmetic
 3194:04C0       S__Odl2Geo__GeoArithmetic
 3194:0601       S__Mile__GeoArithmetic
 3194:0719       L__Geo2Kat__GeoArithmetic
 3194:0AEF       L__Kat2Geo__GeoArithmetic
 3194:0D1C       L__AssignOdniesienie__GeoArithm
 3194:0D90       $BODY__GeoArithmetic
 3194:0DA1       $INIT__GeoArithmetic
 3194:0DD5       $EM__GeoArithmetic
 3272:0000       $BM__RealConversions
 3272:0052       L__StringToReal__RealConversion
 3272:04DF       N__convDigit__RealToString__Rea
 3272:0572       N__convertnumber__RealToString_
 3272:05EA       N__exp10__RealToString__RealCon
 3272:06AC       L__RealToString__RealConversion
 3272:0AF9       $BODY__RealConversions
 3272:0AFF       $INIT__RealConversions
 3272:0B1F       $EM__RealConversions
 3325:0000       $BM__Ini
 3325:0006       L__DefaultError__Ini
 3325:001E       S__FormSectionString__Ini
 3325:010A       S__LookForSection__Ini
 3325:018F       N__ToEOL__LookForEntry__Ini
 3325:020F       S__LookForEntry__Ini
 3325:035E       L__GetPrivateProfileString__Ini
 3325:050E       L__DeleteSection__Ini
 3325:06C6       L__WritePrivateProfileString__I
 3325:0BE2       S__Expand__Ini
 3325:0E08       L__CloseBuffer__Ini
 3325:0F29       S__AllocateBuffer__Ini
 3325:1139       $BODY__Ini
 3325:119F       $INIT__Ini
 3325:11D8       $EM__Ini
 3443:0000       $BM__V_Database
 3443:01BC       N__GetStr__LoadVorData__V_Datab
 3443:0303       S__LoadVorData__V_Database
 3443:095E       L__LoadVorData1__V_Database
 3443:09D2       L__LoadVorData2__V_Database
 3443:0A1B       N__GetCardinal__LoadProgramPar_
 3443:0A8A       S__LoadProgramPar__V_Database
 3443:0AF8       $BODY__V_Database
 3443:0B2D       $INIT__V_Database
 3443:0B98       $EM__V_Database
 34FD:0000       $BM__SwitchCntrl
 34FD:0002       L__SwitchTo__SwitchCntrl
 34FD:00D4       $BODY__SwitchCntrl
 34FD:0109       $INIT__SwitchCntrl
 34FD:012E       $EM__SwitchCntrl
 3510:0000       $BM__CocpDsp
 3510:0002       L__UstawFormat__CocpDsp
 3510:02E6       L__PodajFormat__CocpDsp
 3510:0315       L__UstawZmienne__CocpDsp
 3510:058F       L__SetIdleMsg__CocpDsp
 3510:05AF       N__SendMsg__ControlLoop__CocpDs
 3510:077A       N__PozWskazowki__SetLOC_G_SCP__
 3510:0823       N__SetLOC_G_SCP__ControlLoop__C
 3510:090E       N__pozycjaStrzalki__ControlLoop
 3510:0A5E       L__ControlLoop__CocpDsp
 3510:0C01       L__WatchDogProcess__CocpDsp
 3510:0C4D       $BODY__CocpDsp
 3510:0D49       $INIT__CocpDsp
 3510:0D8C       $EM__CocpDsp
 35E9:0000       $BM__Wykres
 35E9:009B       S__Log10__Wykres
 35E9:0101       N__SkalY__Draw__Wykres
 35E9:03D7       L__Draw__Wykres
 35E9:052F       N__SkalY__PokazWykres__Wykres
 35E9:062B       N__SkalX__PokazWykres__Wykres
 35E9:0758       L__PokazWykres__Wykres
 35E9:0853       N__SkalY__PokazWykres1__Wykres
 35E9:09B4       L__PokazWykres1__Wykres
 35E9:0B0C       L__Opis__Wykres
 35E9:0B8B       N__AutoFormat__OpisLog__Wykres
 35E9:0C63       N__LineV__OpisLog__Wykres
 35E9:1024       N__LineH__OpisLog__Wykres
 35E9:1330       L__OpisLog__Wykres
 35E9:14E2       L__PokazWykresNS__Wykres
 35E9:1546       N__SkalY__PokazWykresNSLog__Wyk
 35E9:17B3       N__SkalX__PokazWykresNSLog__Wyk
 35E9:1B1F       L__PokazWykresNSLog__Wykres
 35E9:1DFD       S__LogPos__Wykres
 35E9:1EE5       L__LessInt__Wykres
 35E9:1F01       L__LessCard__Wykres
 35E9:1F1D       L__Card2Real__Wykres
 35E9:1F64       L__Int2Real__Wykres
 35E9:1FA0       N__GetX__PokazWykresZXms__Wykre
 35E9:1FC9       N__GetY__PokazWykresZXms__Wykre
 35E9:1FF2       N__SkalY__PokazWykresZXms__Wykr
 35E9:222D       N__SkalX__PokazWykresZXms__Wykr
 35E9:256B       L__PokazWykresZXms__Wykres
 35E9:270A       $BODY__Wykres
 35E9:2710       $INIT__Wykres
 35E9:2762       $EM__Wykres
 3860:0000       $BM__XMSTable
 3860:0002       L__AssignNil__XMSTable
 3860:0018       L__Size__XMSTable
 3860:0039       L__IsValid__XMSTable
 3860:005D       L__Allocate__XMSTable
 3860:00F2       L__Deallocate__XMSTable
 3860:0142       L__PutElem__XMSTable
 3860:01B7       L__GetElem__XMSTable
 3860:0245       S__Map__XMSTable
 3860:0325       $BODY__XMSTable
 3860:032B       $INIT__XMSTable
 3860:035A       $EM__XMSTable
 3896:0000       $BM__PI_ScrUtility
 3896:0002       L__ShowScreenDIB__PI_ScrUtility
 3896:0053       L__ShowCursorDIB__PI_ScrUtility
 3896:009A       S__UniversalAB__PI_ScrUtility
 3896:015B       L__UniversalLAF__PI_ScrUtility
 3896:0183       L__UniversalSAF__PI_ScrUtility
 3896:01AB       L__UniversalPAF__PI_ScrUtility
 3896:01D3       L__UniversalLBF__PI_ScrUtility
 3896:01FB       L__UniversalSBF__PI_ScrUtility
 3896:0223       L__UniversalPBF__PI_ScrUtility
 3896:024B       L__UniversalLAB__PI_ScrUtility
 3896:0273       L__UniversalSAB__PI_ScrUtility
 3896:029B       L__UniversalPAB__PI_ScrUtility
 3896:02C3       L__UniversalLBB__PI_ScrUtility
 3896:02EB       L__UniversalSBB__PI_ScrUtility
 3896:0313       L__UniversalPBB__PI_ScrUtility
 3896:033B       S__NowySlup__PI_ScrUtility
 3896:039B       N__WykSlupB__WykSlup__PI_ScrUti
 3896:0470       N__WykSlupF__WykSlup__PI_ScrUti
 3896:0545       L__WykSlup__PI_ScrUtility
 3896:06A1       L__UpdateSlupki__PI_ScrUtility
 3896:0708       L__DisposeSlupki__PI_ScrUtility
 3896:076F       L__NapiszSygnaly__PI_ScrUtility
 3896:078A       L__Init_ScrUtility__PI_ScrUtili
 3896:07E5       L__IniSkale__PI_ScrUtility
 3896:0812       L__GetRegionWykG__PI_ScrUtility
 3896:084D       L__GetRegionWyk1__PI_ScrUtility
 3896:0870       L__GetRegionWyk2__PI_ScrUtility
 3896:08BE       L__GetRegionWyk3__PI_ScrUtility
 3896:08E1       $BODY__PI_ScrUtility
 3896:08E7       $INIT__PI_ScrUtility
 3896:092F       $EM__PI_ScrUtility
 392A:0000       $BM__Slupek
 392A:0002       L__WykresSlupkowy__Slupek
 392A:0229       N__Skala__Update__Slupek
 392A:02EE       N__Kolor__Update__Slupek
 392A:0317       N__FillR__Odswiez__Update__Slup
 392A:036C       N__Odswiez__Update__Slupek
 392A:058F       L__Update__Slupek
 392A:0647       L__Dispose__Slupek
 392A:065C       L__Nothing__Slupek
 392A:0666       L__GetSlupRect__Slupek
 392A:0695       L__Nil__Slupek
 392A:06A7       $BODY__Slupek
 392A:06AD       $INIT__Slupek
 392A:06E6       $EM__Slupek
 3999:0000       $BM__ScreenCTypes
 3999:0002       S__Init__ScreenCTypes
 3999:016B       $BODY__ScreenCTypes
 3999:0174       $INIT__ScreenCTypes
 3999:019E       $EM__ScreenCTypes
 39B3:0000       $BM__V_DisResults
 39B3:0220       L__WriteTab__V_DisResults
 39B3:03F7       N__WriteBends__DispResults__V_D
 39B3:05DF       N__WriteDev__DispResults__V_Dis
 39B3:0861       N__WriteMod__DispResults__V_Dis
 39B3:0B25       N__WriteDevOrbit__DispResults__
 39B3:0DA2       N__WriteFlgAndLowSignal__DispRe
 39B3:0E20       L__DispResults__V_DisResults
 39B3:0EE2       $BODY__V_DisResults
 39B3:0F1E       $INIT__V_DisResults
 39B3:0F7A       $EM__V_DisResults
 3AAB:0000       $BM__DisResUtilities
 3AAB:000A       L__WriteTab__DisResUtilities
 3AAB:00BE       L__WrS__DisResUtilities
 3AAB:00F4       L__WrSPlus__DisResUtilities
 3AAB:014A       L__INCLine__DisResUtilities
 3AAB:0170       L__WrFlagsTableWHeading__DisRes
 3AAB:023C       L__WrFlagsTable__DisResUtilitie
 3AAB:02AF       L__WrF_TablicaOdci__DisResUtili
 3AAB:0340       $BODY__DisResUtilities
 3AAB:0346       $INIT__DisResUtilities
 3AAB:0389       $EM__DisResUtilities
 3AE4:0000       $BM__D_DisResults
 3AE4:00B4       L__WriteTab__D_DisResults
 3AE4:027A       N__WriteMod__DispResults__D_Dis
 3AE4:04A7       L__DispResults__D_DisResults
 3AE4:053A       $BODY__D_DisResults
 3AE4:0540       $INIT__D_DisResults
 3AE4:0592       $EM__D_DisResults
 3B3E:0000       $BM__PiszEventy
 3B3E:038B       N__Znacznik__Decode__PiszEventy
 3B3E:0786       S__Decode__PiszEventy
 3B3E:0A31       L__IleEventow__PiszEventy
 3B3E:0A53       L__TworzEventy__PiszEventy
 3B3E:0AA6       N__WrStr__PiszNaEkranie__PiszEv
 3B3E:0B99       L__PiszNaEkranie__PiszEventy
 3B3E:0D48       S__min__PiszEventy
 3B3E:0D6B       L__PiszNaDrukarce__PiszEventy
 3B3E:0F04       L__EnumEv__PiszEventy
 3B3E:10B0       S__WrStrLn__PiszEventy
 3B3E:10DC       S__WrStr__PiszEventy
 3B3E:1163       S__WrLn__PiszEventy
 3B3E:117D       S__WrP__PiszEventy
 3B3E:1199       $BODY__PiszEventy
 3B3E:11AA       $INIT__PiszEventy
 3B3E:1233       $EM__PiszEventy
 3C62:0000       $BM__V_Count
 3C62:00EA       N__CountDev__Analiza__V_Count
 3C62:010B       N__SigMaxAvr__Analiza__V_Count
 3C62:01F8       N__CountAv__Analiza__V_Count
 3C62:07FD       N__ClearAvrArr__Analiza__V_Coun
 3C62:0888       N__ClearDevAvrArr__Analiza__V_C
 3C62:0912       N__GetEvent__R_Analiza__Analiza
 3C62:09B3       N__AssignPolRes__R_Analiza__Ana
 3C62:0CD7       N__Pol_AddSample__R_Analiza__An
 3C62:0D43       N__ClearAllCont__R_Analiza__Ana
 3C62:0F9F       N__CountBends__R_Analiza__Anali
 3C62:1159       N__R_Analiza__Analiza__V_Count
 3C62:19FF       N__Ini_T_WynikAnalizyOrbita__O_
 3C62:1A68       N__ClearDevOAvr__O_Analiza__Ana
 3C62:1AEF       N__ZerujFlagi__O_Analiza__Anali
 3C62:1B1B       N__ClearAllCont__O_Analiza__Ana
 3C62:1B68       N__ReadData__O_Analiza__Analiza
 3C62:1C26       N__PodstawWynikNaLuku__O_Analiz
 3C62:1CB4       N__AddAvrDscr__AnalizujWynikiNa
 3C62:1D2C       N__AddAvrArr__AnalizujWynikiNaL
 3C62:1E13       N__AddDevAvrArr__AnalizujWyniki
 3C62:1EF7       N__AnalizujWynikiNaLuku__O_Anal
 3C62:2036       N__O_Analiza__Analiza__V_Count
 3C62:249B       N__Interpolacja__Analiza__V_Cou
 3C62:250B       L__Analiza__V_Count
 3C62:2637       $BODY__V_Count
 3C62:263D       $INIT__V_Count
 3C62:26B2       $EM__V_Count
 3ECE:0000       $BM__D_Count
 3ECE:008A       N__GetEvent__DoAnaliza__Analiza
 3ECE:011E       N__ClearAllCont__DoAnaliza__Ana
 3ECE:01A8       N__CountResult__DoAnaliza__Anal
 3ECE:0235       N__DoAnaliza__Analiza__D_Count
 3ECE:05BB       N__Interpolacja__Analiza__D_Cou
 3ECE:05EE       L__Analiza__D_Count
 3ECE:06CB       $BODY__D_Count
 3ECE:06D1       $INIT__D_Count
 3ECE:0732       $EM__D_Count
 3F42:0000       $BM__D_DAcquizition
 3F42:0002       S__CommReq__Monitor__D_DAcquizi
 3F42:0034       L__Stop__Monitor__D_DAcquizitio
 3F42:0034       L__Stop__D_DAcquizition
 3F42:0063       L__ConsoleEv__Monitor__D_DAcqui
 3F42:0063       L__ConsoleEv__D_DAcquizition
 3F42:0092       L__Restart__Monitor__D_DAcquizi
 3F42:0092       L__Restart__D_DAcquizition
 3F42:00C1       S__GetEvent__Monitor__D_DAcquiz
 3F42:011B       $BODY__Monitor__D_DAcquizition
 3F42:0142       L__Acquire__D_DAcquizition
 3F42:0352       L__RedrawReq__D_DAcquizition
 3F42:03A1       L__RedrawMarksReq__D_DAcquiziti
 3F42:03CE       L__UpdateMarksOrbit__D_DAcquizi
 3F42:0431       L__UpdateMarksRadial__D_DAcquiz
 3F42:0494       S__IniData__D_DAcquizition
 3F42:0507       L__IniDataOrbit__D_DAcquizition
 3F42:051F       L__IniDataRadial__D_DAcquizitio
 3F42:0537       L__Start__D_DAcquizition
 3F42:0592       L__Abort__D_DAcquizition
 3F42:05C2       $BODY__D_DAcquizition
 3F42:05E5       $INIT__D_DAcquizition
 3F42:0682       $EM__D_DAcquizition
 3FAB:0000       $BM__V_DAcquizition
 3FAB:0002       L__PolV__V_DAcquizition
 3FAB:001A       S__CommReq__Monitor__V_DAcquizi
 3FAB:004C       L__Stop__Monitor__V_DAcquizitio
 3FAB:004C       L__Stop__V_DAcquizition
 3FAB:007B       L__ConsoleEv__Monitor__V_DAcqui
 3FAB:007B       L__ConsoleEv__V_DAcquizition
 3FAB:00AA       L__Restart__Monitor__V_DAcquizi
 3FAB:00AA       L__Restart__V_DAcquizition
 3FAB:00D9       S__GetEvent__Monitor__V_DAcquiz
 3FAB:0133       $BODY__Monitor__V_DAcquizition
 3FAB:015A       L__Acquire__V_DAcquizition
 3FAB:03E7       L__RedrawReq__V_DAcquizition
 3FAB:0436       L__RedrawMarksReq__V_DAcquiziti
 3FAB:0463       L__UpdateMarksOrbit__V_DAcquizi
 3FAB:04C6       L__UpdateMarksRadial__V_DAcquiz
 3FAB:0529       S__IniData__V_DAcquizition
 3FAB:05B6       L__IniDataOrbit__V_DAcquizition
 3FAB:05CE       L__IniDataRadial__V_DAcquizitio
 3FAB:05E6       L__Start__V_DAcquizition
 3FAB:0641       L__Abort__V_DAcquizition
 3FAB:0671       $BODY__V_DAcquizition
 3FAB:0694       $INIT__V_DAcquizition
 3FAB:0745       $EM__V_DAcquizition
 4020:0000       $BM__AltInterface
 4020:0012       L__SetPressure__AltInterface
 4020:0032       L__ALTConvert__AltInterface
 4020:0214       $BODY__AltInterface
 4020:02DB       $INIT__AltInterface
 4020:030F       $EM__AltInterface
 4052:0000       $BM__DMEPrint
 4052:03C9       N__PromienANieOrbita__Raport__D
 4052:03E8       N__MakeHeader__Raport__DMEPrint
 4052:0533       N__WrSignalDesc__OpisBleduDME__
 4052:05D9       N__WrSignalInt__OpisBleduDME__O
 4052:0638       N__OpisBleduDME__OpisPomiaru__R
 4052:089A       N__IntFrac__WrSignalDesc__OpisP
 4052:098B       N__WrSignalDesc__OpisPomiaru__R
 4052:0B08       N__OpisPomiaru__Raport__DMEPrin
 4052:0C40       N__Print__Raport__DMEPrint
 4052:135C       L__Raport__DMEPrint
 4052:1425       $BODY__DMEPrint
 4052:142B       $INIT__DMEPrint
 4052:14BE       $EM__DMEPrint
 419E:0000       $BM__VORPrint
 419E:03C3       S__PromienANieOrbita__VORPrint
 419E:03E2       S__MakeHeader__VORPrint
 419E:05C6       N__Wr4Signals__OpisPomiaru__VOR
 419E:0718       N__WrSignalDesc__OpisPomiaru__V
 419E:07B7       N__Pomiar2Str__OpisPomiaru__VOR
 419E:0936       N__WriteFlgAndLowSignal__OpisPo
 419E:09C0       S__OpisPomiaru__VORPrint
 419E:0F86       S__Print__VORPrint
 419E:1BB8       L__Raport__VORPrint
 419E:1C65       $BODY__VORPrint
 419E:1C76       $INIT__VORPrint
 419E:1D0E       $EM__VORPrint
 436F:0000       $BM__Semafory
 436F:0002       L__Set__Semafory
 436F:00AA       L__Free__Semafory
 436F:0120       L__Register__Semafory
 436F:01B0       L__Init__Semafory
 436F:01FC       L__Unregister__Semafory
 436F:02B0       S__ExceptionHandler__Semafory
 436F:03BE       S__InitTbl__Semafory
 436F:041D       $BODY__Semafory
 436F:0433       $INIT__Semafory
 436F:0453       $EM__Semafory
 43B5:0000       $BM__DigiRS
 43B5:0002       L__GetWrBufLength__DigiRS
 43B5:004E       S__MarkError__DigiRS
 43B5:007D       L__ReadString__DigiRS
 43B5:00F3       L__WriteString__DigiRS
 43B5:018F       L__SetBaudRate__DigiRS
 43B5:02D4       $BODY__DigiRS
 43B5:02F2       $INIT__DigiRS
 43B5:031C       $EM__DigiRS
 43E7:0000       $BM__Math
 43E7:002A       L__ACos__Math
 43E7:018D       L__Sqr__Math
 43E7:01BD       $BODY__Math
 43E7:01C3       $INIT__Math
 43E7:01E8       $EM__Math
 4406:0000       $BM__FIltr1St
 4406:0082       L__UstawOkresImpulsowania__FIlt
 4406:00A2       L__InitCont__FIltr1St
 4406:0199       L__Filtr__FIltr1St
 4406:024F       L__InitCont2Filters__FIltr1St
 4406:03DA       L__Filtr2Filters__FIltr1St
 4406:050E       L__InitContB__FIltr1St
 4406:053F       L__FiltrB__FIltr1St
 4406:0598       L__InitContBCoun__FIltr1St
 4406:05B7       L__BinaryCounter__FIltr1St
 4406:0607       L__MemFiltr__FIltr1St
 4406:0689       L__InitMemFiltr__FIltr1St
 4406:06B5       L__MemFiltrInt__FIltr1St
 4406:0712       L__InitMemFIntContiner__FIltr1S
 4406:0737       $BODY__FIltr1St
 4406:0757       $INIT__FIltr1St
 4406:0786       $EM__FIltr1St
 447F:0000       $BM__GPS_nov
 447F:014D       L__KopijZnakZTeo__GPS_nov
 447F:0170       S__KopZnakDoKanaluMonitora__GPS
 447F:0193       N__ConvertHexChar__ReadGPS__Get
 447F:0200       N__ReadGPS__GetFrame__GPS_nov
 447F:03B1       N__szukaniePola__GetFrame__GPS_
 447F:0426       N__DekomozycjaRamki__GetFrame__
 447F:04F0       N__GetReal__GetFrame__GPS_nov
 447F:0538       N__GetCardinal__GetFrame__GPS_n
 447F:058D       N__GetInteger__GetFrame__GPS_no
 447F:05E2       N__An_Frame_DOPA__GetFrame__GPS
 447F:06A2       N__Isolate__ConvertStrToWspGeo_
 447F:0929       N__ConvertStrToWspGeo__GetWspGe
 447F:09E3       N__GetWspGeo__An_Frame_GPGGA__G
 447F:0A2D       N__An_Frame_GPGGA__GetFrame__GP
 447F:0B25       N__An_Frame_GPVTG__GetFrame__GP
 447F:0B90       N__Wydziel__An_Frame_GPZDA__Get
 447F:0C2E       N__An_Frame_GPZDA__GetFrame__GP
 447F:0CFB       L__GetFrame__GPS_nov
 447F:0DCE       L__Inicjacja__GPS_nov
 447F:109C       L__gpzdaOff__GPS_nov
 447F:10EC       $BODY__GPS_nov
 447F:11A6       $INIT__GPS_nov
 447F:11FD       $EM__GPS_nov
 459F:0000       $BM__GPS_TRIMBLE
 459F:0021       N__ReadPacketHead__GetFrame__GP
 459F:006A       N__ReadEOL__GetFrame__GPS_TRIMB
 459F:00C9       N__ReadGPS__GetFrame__GPS_TRIMB
 459F:016D       N__WspGeoPoprawne__ReadG__GetFr
 459F:01D7       N__Isolate__ReadG__GetFrame__GP
 459F:0306       N__ReadG__GetFrame__GPS_TRIMBLE
 459F:03CB       N__TypGPS__GetFrame__GPS_TRIMBL
 459F:043F       N__Wydziel__GetFrame__GPS_TRIMB
 459F:0509       N__PodstawWyniki__GetFrame__GPS
 459F:05C7       L__GetFrame__GPS_TRIMBLE
 459F:082D       L__Inicjacja__GPS_TRIMBLE
 459F:084A       $BODY__GPS_TRIMBLE
 459F:08B5       $INIT__GPS_TRIMBLE
 459F:08F8       $EM__GPS_TRIMBLE
 462F:0000       $BM__Marks
 462F:0032       L__AngResetContiner__Marks
 462F:0041       L__DisResetContiner__Marks
 462F:0050       N__findidx__AngAddSample__Marks
 462F:010A       N__Side__AngAddSample__Marks
 462F:015E       L__AngAddSample__Marks
 462F:037F       N__findidx__DisAddSample__Marks
 462F:0423       N__Side__DisAddSample__Marks
 462F:0453       L__DisAddSample__Marks
 462F:0636       L__InicjujOpisStanuLuku__Marks
 462F:0670       N__findidx__SegZakonczony__Mark
 462F:0806       L__SegZakonczony__Marks
 462F:08FD       $BODY__Marks
 462F:0903       $INIT__Marks
 462F:0937       $EM__Marks
 46C3:0000       $BM__Polozenie
 46C3:005A       N__FlipY__InitMarkers__Polozeni
 46C3:0120       N__FlipX__InitMarkers__Polozeni
 46C3:0226       N__Rot90__InitMarkers__Polozeni
 46C3:032E       S__InitMarkers__Polozenie
 46C3:044A       S__DrawMarker__Polozenie
 46C3:0855       S__EraseMarker__Polozenie
 46C3:08FE       L__Start_Polozenie__Polozenie
 46C3:0959       N__XY__LL__DrawNCO__Polozenie
 46C3:0A88       N__LL__DrawNCO__Polozenie
 46C3:0BA8       S__DrawNCO__Polozenie
 46C3:0C2C       L__UpdateM__Polozenie
 46C3:0DD7       L__Stop_Polozenie__Polozenie
 46C3:0E09       L__RresetCzesciOkregu__Polozeni
 46C3:0E6A       L__NoweCzesciOkregu__Polozenie
 46C3:0EEE       N__Rysuj__Promienie__Polozenie
 46C3:1084       L__Promienie__Polozenie
 46C3:1164       $BODY__Polozenie
 46C3:11C4       $INIT__Polozenie
 46C3:1225       $EM__Polozenie
 47E6:0000       $BM__Kalibracja
 47E6:097E       L__GetErrReset__ErrorHand__Kali
 47E6:097E       L__GetErrReset__Kalibracja
 47E6:09B6       S__SetError__ErrorHand__Kalibra
 47E6:09DC       $BODY__ErrorHand__Kalibracja
 47E6:09FA       N__Lookup__OmnibearingV__Kalibr
 47E6:0E16       L__OmnibearingV__Kalibracja
 47E6:0F88       L__Lookup__Kalibracja
 47E6:143A       N__Status__Error__Kalibracja
 47E6:1489       S__Error__Kalibracja
 47E6:14D4       N__LoadValue__LoadSegmentTables
 47E6:15EC       N__LoadReal__LoadSegmentTables_
 47E6:1673       N__LoadTable__LoadSegmentTables
 47E6:1719       N__LoadSegment__LoadChannel__Lo
 47E6:17D7       N__LoadChannel__LoadSegmentTabl
 47E6:1E6D       S__LoadSegmentTables__Kalibracj
 47E6:219B       N__SaveValue__SaveSegmentTables
 47E6:2293       N__SaveReal__SaveSegmentTables_
 47E6:230E       N__SaveTable__SaveSegmentTables
 47E6:23A0       N__SaveSegment__SaveChannel__Sa
 47E6:243E       N__SaveChannel__SaveSegmentTabl
 47E6:2A2F       L__SaveSegmentTables__Kalibracj
 47E6:2C81       $BODY__Kalibracja
 47E6:2DA5       $INIT__Kalibracja
 47E6:2E15       $EM__Kalibracja
 4AC8:0000       $BM__DGH_utils
 4AC8:0002       L__TurnOffILSSig__DGH_utils
 4AC8:00D0       L__TurnOnLOCSig__DGH_utils
 4AC8:016E       L__TurnOnGSSig__DGH_utils
 4AC8:020C       L__TurnOnVORSig__DGH_utils
 4AC8:027A       L__TurnOffVORSig__DGH_utils
 4AC8:02E8       L__TurnOnDMESig__DGH_utils
 4AC8:0366       L__TurnOffDMESig__DGH_utils
 4AC8:03E4       L__TurnOnADFSig__DGH_utils
 4AC8:0432       L__TurnOffADFSig__DGH_utils
 4AC8:0480       N__ReadAnalog__ReadValue__DGH_u
 4AC8:04A8       L__ReadValue__DGH_utils
 4AC8:063C       L__ReadOmniber__DGH_utils
 4AC8:06BA       L__BinaryValSet__DGH_utils
 4AC8:0734       $BODY__DGH_utils
 4AC8:084D       $INIT__DGH_utils
 4AC8:08A4       $EM__DGH_utils
 4B53:0000       $BM__Random
 4B53:002A       S__Next__Random
 4B53:00DE       L__RandomInit__Random
 4B53:01A8       L__RandomCard__Random
 4B53:0245       L__RandomInt__Random
 4B53:026A       L__RandomReal__Random
 4B53:0385       L__Randomize__Random
 4B53:03DC       $BODY__Random
 4B53:03E6       $INIT__Random
 4B53:0410       $EM__Random
 4B95:0000       $BM__Int_DME
 4B95:0002       L__DMEConvert__Int_DME
 4B95:00C8       $BODY__Int_DME
 4B95:00CE       $INIT__Int_DME
 4B95:00EE       $EM__Int_DME
 4BA4:0000       $BM__V_Slupek
 4BA4:007F       L__ShowScreenDIB__V_Slupek
 4BA4:00CB       L__ShowCursorDIB__V_Slupek
 4BA4:0109       L__UnverslVal__V_Slupek
 4BA4:01E1       S__Init__V_Slupek
 4BA4:0234       L__NapiszSygnaly__V_Slupek
 4BA4:047E       L__IniSkale__V_Slupek
 4BA4:065B       L__InitSlupek__V_Slupek
 4BA4:06B3       L__DoneSlupek__V_Slupek
 4BA4:06DF       $BODY__V_Slupek
 4BA4:0705       $INIT__V_Slupek
 4BA4:0748       $EM__V_Slupek
 4C19:0000       $BM__D_Slupek
 4C19:0092       L__ShowScreenDIB__D_Slupek
 4C19:00DE       L__ShowCursorDIB__D_Slupek
 4C19:011C       L__UnverslVal__D_Slupek
 4C19:0211       S__Init__D_Slupek
 4C19:0264       L__NapiszSygnaly__D_Slupek
 4C19:04D4       L__IniSkale__D_Slupek
 4C19:06B1       L__InitSlupek__D_Slupek
 4C19:06F1       L__DoneSlupek__D_Slupek
 4C19:071D       $BODY__D_Slupek
 4C19:0743       $INIT__D_Slupek
 4C19:078B       $EM__D_Slupek
 4C92:0000       $BM__DrawEpson
 4C92:00A5       S__UstawTrybTekstowy__DrawEpson
 4C92:00E9       L__MaxX__DrawEpson
 4C92:00F8       L__MaxY__DrawEpson
 4C92:0107       S__Map__DrawEpson
 4C92:01C6       L__Point__DrawEpson
 4C92:0322       L__IsDrawn__DrawEpson
 4C92:03D3       L__Out__DrawEpson
 4C92:0670       L__Open__DrawEpson
 4C92:06E2       L__Close__DrawEpson
 4C92:06FE       L__Line__DrawEpson
 4C92:0849       L__SetTextMode__DrawEpson
 4C92:085C       L__SetFont__DrawEpson
 4C92:0942       S__Conv2PL__DrawEpson
 4C92:0ABD       S__DrawChar0__DrawEpson
 4C92:0DA0       S__DrawText0__DrawEpson
 4C92:0E1D       S__DrawChar90__DrawEpson
 4C92:10A7       S__DrawText90__DrawEpson
 4C92:1124       L__DrawText__DrawEpson
 4C92:1193       L__SetDir__DrawEpson
 4C92:11A6       L__Mnoznik__DrawEpson
 4C92:11C0       L__InitPort__DrawEpson
 4C92:120D       L__IsAborted__DrawEpson
 4C92:1253       L__WrProc__DrawEpson
 4C92:138C       $BODY__DrawEpson
 4C92:1415       $INIT__DrawEpson
 4C92:1462       $EM__DrawEpson
 4DD9:0000       $BM__Print
 4DD9:0159       L__GorszeBoMniejsze__Print
 4DD9:0186       L__DalszeOdZera__Print
 4DD9:01C3       L__MaxY__Print
 4DD9:01DE       L__log__Print
 4DD9:0232       L__Wr__Print
 4DD9:02A2       L__WrPrn__Print
 4DD9:0360       L__WrLn__Print
 4DD9:0390       L__WrPrnLn__Print
 4DD9:03D2       L__InitA__Print
 4DD9:0821       L__InitB__Print
 4DD9:0886       S__PointA__Print
 4DD9:0ADD       S__PointB__Print
 4DD9:0CBF       L__Point__Print
 4DD9:0CF3       L__Opis__Print
 4DD9:0E2F       L__CloseAll__Print
 4DD9:0EC8       L__InitAll__Print
 4DD9:0FE0       L__EvProc__Print
 4DD9:12D3       L__ZnacznikiOdleglosci__Print
 4DD9:15A6       L__WrFlagsTableWHeading__Print
 4DD9:16BA       L__WrFlagsTable__Print
 4DD9:1799       L__WrF_TablicaOdci__Print
 4DD9:183C       L__WypiszStrefy__Print
 4DD9:1998       L__PrintScreenProc__Print
 4DD9:19A5       $BODY__Print
 4DD9:19F2       $INIT__Print
 4DD9:1A80       $EM__Print
 4F82:0000       $BM__VORR_Average
 4F82:002A       L__Bend_ClearContainer__VORR_Av
 4F82:007A       N__Count__Bend_AddSample__VORR_
 4F82:0265       L__Bend_AddSample__VORR_Average
 4F82:0461       L__Roughness_ClearContainer__VO
 4F82:04E1       N__sqr__Count__Roughness_AddSam
 4F82:0511       N__Count__Roughness_AddSample__
 4F82:070A       L__Roughness_AddSample__VORR_Av
 4F82:0A94       $BODY__VORR_Average
 4F82:0A9A       $INIT__VORR_Average
 4F82:0ACE       $EM__VORR_Average
 502F:0000       $BM__PrintCntroll
 502F:00D5       L__CoKtoraPUp__PrintCntroll
 502F:013A       L__CoKtoraPDn__PrintCntroll
 502F:01BC       S__UstawStrony__PrintCntroll
 502F:01FC       S__UstawLiczbe__PrintCntroll
 502F:0232       L__OkP__PrintCntroll
 502F:0248       L__ValidPodz__PrintCntroll
 502F:037E       L__Odn__PrintCntroll
 502F:03D5       L__P1__PrintCntroll
 502F:03F6       L__P2__PrintCntroll
 502F:0417       L__UstalSkalowanie__PrintCntrol
 502F:085B       $BODY__PrintCntroll
 502F:0861       $INIT__PrintCntroll
 502F:08E0       $EM__PrintCntroll
 50BE:0000       $BM__Kl_FGenerators
 50BE:0002       L__LookupM__Kl_FGenerators
 50BE:04D9       $BODY__Kl_FGenerators
 50BE:04DF       $INIT__Kl_FGenerators
 50BE:04FF       $EM__Kl_FGenerators
 510F:0000       $BM__NAVInterface
 510F:0022       L__GetOmnibearing__NAVInterface
 510F:0190       L__GetLocDev__NAVInterface
 510F:0241       L__GetGSDev__NAVInterface
 510F:02F2       $BODY__NAVInterface
 510F:0322       $INIT__NAVInterface
 510F:0351       $EM__NAVInterface
 5145:0000       $BM__ARINC
 5145:0002       S__INByte__ARINC
 5145:0062       S__OUTByte__ARINC
 5145:00BF       L__ReInitialize__ARINC
 5145:00FF       L__WriteTXParity__ARINC
 5145:0173       L__WriteTXChannel__ARINC
 5145:01F1       L__WriteTXLabel__ARINC
 5145:026F       L__WriteTXData__ARINC
 5145:032A       L__WriteTXRate__ARINC
 5145:03F4       L__WriteKillTime__ARINC
 5145:04B2       L__WriteCardMode__ARINC
 5145:051B       L__ReadConfiguration__ARINC
 5145:0637       L__ReadTXSlot__ARINC
 5145:079E       L__ReadRXSlot__ARINC
 5145:093D       $BODY__ARINC
 5145:0954       $INIT__ARINC
 5145:096F       $EM__ARINC
 51DD:0000       NMIServer
 51DD:003E       AT87Server
 51E3:0000       $INIT__RTS87
 51E9:0000       CaseError__RTSError
 51E9:000A       FctRetError__RTSError
 51E9:0014       AddrOvf__RTSError
 51E9:001E       CardOvf__RTSError
 51E9:0028       IntegerOvf__RTSError
 51E9:0032       LongIntegerOvf__RTSError
 51E9:003C       RangeError__RTSError
 51E9:0046       DivZero__RTSError
 51F6:0000       $INIT__RTSError
 51F9:0000       $BM__RTSMain
 51F9:0001       L__InstallTermProc__RTSMain
 51F9:007B       L__InstallInitProc__RTSMain
 51F9:00EF       L__CallInitProc__RTSMain
 51F9:00FD       L__CallTermProc__RTSMain
 51F9:0147       L__GetMessage__RTSMain
 51F9:0526       L__Execute__RTSMain
 51F9:0636       Error__RTSMain
 51F9:0673       StackCheck__RTSMain
 51F9:067C       StackOvf__RTSMain
 51F9:0683       M2Halt__RTSMain
 51F9:068A       L__Terminate__RTSMain
 51F9:0731       $INIT__RTSMain
 51F9:0743       $BODY__RTSMain
 51F9:076F       $EM__RTSMain
 51F9:0770       $INIT__RTSMonExit
 5271:0000       SpecialCASE__RTSLanguage
 5271:004D       ParCopy__RTSLanguage
 5271:0069       DynParCopy__RTSLanguage
 527D:0000       $INIT__RTSLanguage
 527E:0000       $BM__RTSDevice
 527E:0000       L__InstallHandler__RTSDevice
 527E:0058       L__UninstallHandler__RTSDevice
 527E:009B       L__GetDeviceStatus__RTSDevice
 527E:00BE       L__SetDeviceStatus__RTSDevice
 527E:00F6       L__SaveInterruptVector__RTSDevi
 527E:00FB       L__RestoreInterruptVector__RTSD
 527E:0100       L__GetPrioMask__RTSDevice
 527E:011F       L__SetPrioMask__RTSDevice
 527E:0140       $EM__RTSDevice
 5293:0000       $INIT__RTSDevice
 5294:0000       MonEntry__RTSPriority
 5294:0043       MonExit__RTSPriority
 5294:006F       Listen__RTSPriority
 529F:0000       $INIT__RTSPriority
 52A0:0000       $BM__RTSCoroutine
 52A0:0000       NewProcess__RTSCoroutine
 52A0:0143       Transfer__RTSCoroutine
 52A0:01A7       $EM__RTSCoroutine
 52BB:0000       $INIT__RTSCoroutine
 52BC:011E       IOTransfer__RTSInterrupt
 52E1:0000       $INIT__RTSInterrupt
 52E6:0000       RealError__RTSRealError
 52E7:0000       $INIT__RTSRealError
 52E8:0000       L__Length__Strings
 52E8:001D       L__ConstAssign__Strings
 52E8:005F       L__Assign__Strings
 52E8:0096       L__Insert__Strings
 52E8:014C       L__Delete__Strings
 52E8:0188       L__Pos__Strings
 52E8:01E9       L__Copy__Strings
 52E8:025B       L__Concat__Strings
 52E8:02B2       L__CompareStr__Strings
 52E8:0303       $INIT__Strings
 5319:01B9       L__IntToString__NumberConversio
 5319:01FE       L__LongIntToString__NumberConve
 5319:0259       L__CardToString__NumberConversi
 5319:028D       L__NumToString__NumberConversio
 5319:04BA       L__StringToInt__NumberConversio
 5319:0522       L__StringToCard__NumberConversi
 5319:0587       L__StringToLongInt__NumberConve
 5319:05B5       L__StringToNum__NumberConversio
 5319:0620       $INIT__NumberConversion
 5319:063B       $EM__NumberConversion
 537D:0002       L__Sound__Sounds
 537D:0032       L__NoSound__Sounds
 537D:0046       $INIT__Sounds
 537D:0061       $EM__Sounds
 53CD:0000       $INIT__DebugPMD
 53D7:0002       L__GetDeviceStatus__Devices
 53D7:0018       L__SetDeviceStatus__Devices
 53D7:002C       L__SaveInterruptVector__Devices
 53D7:004D       L__RestoreInterruptVector__Devi
 53D7:006A       L__InstallHandler__Devices
 53D7:0080       L__UninstallHandler__Devices
 53D7:009A       $INIT__Devices
 53D7:00BA       $EM__Devices
 53E3:0000       $BM__DynMem
 53E3:0000       L__InstallDynMem__DynMem
 53E3:0059       L__Alloc__DynMem
 53E3:0102       L__DeAlloc__DynMem
 53E3:01BF       L__Avail__DynMem
 53E3:0203       $INIT__DynMem
 53E3:0204       $EM__DynMem
 5404:0000       L__BlockMoveForward__BlockOps
 5404:0000       $BM__BlockOps
 5404:001A       L__BlockMoveBackward__BlockOps
 5404:003B       L__BlockMove__BlockOps
 5404:007D       L__BlockClear__BlockOps
 5404:0096       L__BlockSet__BlockOps
 5404:00B8       L__BlockEqual__BlockOps
 5404:00D9       L__BlockPosition__BlockOps
 5404:0107       $INIT__BlockOps
 5404:0108       $EM__BlockOps
 5415:0002       L__FlagReset__Mouse
 5415:001F       L__ShowCursor__Mouse
 5415:002B       L__HideCursor__Mouse
 5415:0037       L__GetPosBut__Mouse
 5415:005A       L__SetCursorPos__Mouse
 5415:006E       L__GetButPres__Mouse
 5415:00A0       L__GetButRel__Mouse
 5415:00D2       L__SetHorizontalLimits__Mouse
 5415:00E6       L__SetVerticalLimits__Mouse
 5415:00FA       L__SetGraphicCursor__Mouse
 5415:0127       L__SetTextCursor__Mouse
 5415:013E       L__ReadMotionCounters__Mouse
 5415:0157       L__SetEventHandler__Mouse
 5415:0188       L__LightPenOn__Mouse
 5415:0194       L__LightPenOff__Mouse
 5415:01A0       L__SetMickeysPerPixel__Mouse
 5415:01B4       L__ConditionalOff__Mouse
 5415:01CE       L__SetSpeedThreshold__Mouse
 5415:0296       $INIT__Mouse
 5415:02B1       $EM__Mouse
 5441:0000       pushLSet__Longs
 5441:001E       areSetsEQ__Longs
 5441:0036       superSet__Longs
 5441:005E       subSet__Longs
 5441:0086       union__Longs
 5441:009D       intersection__Longs
 5441:00B4       complement__Longs
 5441:00CF       unionCompl__Longs
 5441:00E6       LMult__Longs
 5441:018D       LMultU__Longs
 5441:01F7       LDiv__Longs
 5441:02DE       $INIT__Longs
 546F:0002       L__KeyPressed__Terminal
 546F:000E       L__Read__Terminal
 546F:0089       L__ReadString__Terminal
 546F:010A       L__ReadAgain__Terminal
 546F:011B       L__Write__Terminal
 546F:012C       L__WriteLn__Terminal
 546F:013B       L__WriteString__Terminal
 546F:01A1       $INIT__Terminal
 546F:01C6       $EM__Terminal
 548C:0002       L__AssignRead__Termbase
 548C:0088       L__Read__Termbase
 548C:00D7       L__KeyPressed__Termbase
 548C:0127       L__UnAssignRead__Termbase
 548C:0184       L__AssignWrite__Termbase
 548C:01F1       L__Write__Termbase
 548C:023E       L__UnAssignWrite__Termbase
 548C:03BB       $INIT__Termbase
 548C:03E5       $EM__Termbase
 54CB:0000       $BM__BitByteOps
 54CB:0000       L__GetBits__BitByteOps
 54CB:0018       L__SetBits__BitByteOps
 54CB:0046       L__ByteAnd__BitByteOps
 54CB:0055       L__ByteOr__BitByteOps
 54CB:0064       L__ByteXor__BitByteOps
 54CB:0073       L__ByteNot__BitByteOps
 54CB:0081       L__ByteShr__BitByteOps
 54CB:0092       L__ByteSar__BitByteOps
 54CB:00A3       L__ByteShl__BitByteOps
 54CB:00B4       L__ByteRor__BitByteOps
 54CB:00C5       L__ByteRol__BitByteOps
 54CB:00D6       L__HighNibble__BitByteOps
 54CB:00E6       L__LowNibble__BitByteOps
 54CB:00F4       L__Swap__BitByteOps
 54CB:0108       $INIT__BitByteOps
 54CB:0109       $EM__BitByteOps
 54DC:0009       $INIT__ASCII
 54DC:0024       $EM__ASCII
 54DF:0002       L__Write__Display
 54DF:007C       $INIT__Display
 54DF:009C       $EM__Display
 54E9:0002       L__KeyPressed__Keyboard
 54E9:0033       L__Read__Keyboard
 54E9:0142       $INIT__Keyboard
 54E9:0167       $EM__Keyboard
 5500:0002       L__DOSAlloc__DOSMemory
 5500:00E3       L__DOSDeAlloc__DOSMemory
 5500:01B0       L__DOSAvail__DOSMemory
 5500:01F0       L__DOSSetSize__DOSMemory
 5500:0241       L__DOSGetMaxSize__DOSMemory
 5500:0298       $INIT__DOSMemory
 5500:02B8       $EM__DOSMemory
 552C:0000       $BM__MathLib0
 552C:002A       L__sqrt__MathLib0
 552C:0098       L__exp__MathLib0
 552C:0209       L__ln__MathLib0
 552C:0251       L__sin__MathLib0
 552C:03A5       L__cos__MathLib0
 552C:04CA       L__arctan__MathLib0
 552C:05AC       L__real__MathLib0
 552C:05BE       L__entier__MathLib0
 552C:06AF       $INIT__MathLib0
 552C:06C4       $EM__MathLib0
 5599:0000       $OK__10jul99_1215_OF_AT
 5599:0000       $DD
 5599:0000       $MN__AT
 5599:008E       $OK__10jul99_1214_OF_FCBS
 5599:0094       $OK__10jul99_1214_OF_DOSEntry
 5599:009A       $OK__10jul99_1214_OF_MANAGER
 5599:00A0       $OK__10jul99_1214_OF_ErrorMess
 5599:00A6       $OK__10jul99_1215_OF_V_results
 5599:00AC       $OK__10jul99_1215_OF_VORO_avrag
 5599:00B2       $OK__10jul99_1214_OF_CommonType
 5599:00B8       $OK__10jul99_1214_OF_D_CommonTy
 5599:00BE       $OK__10jul99_1215_OF_V_CommonTy
 5599:00C4       $OK__10jul99_1214_OF_SpecConv
 5599:00CA       $OK__10jul99_1214_OF_FlagAnal
 5599:00D0       $OK__10jul99_1214_OF_Czas
 5599:00D6       $OK__10jul99_1215_OF_SimScanner
 5599:00DC       $OK__10jul99_1215_OF_PI_PA
 5599:00E2       $OK__10jul99_1214_OF_Tune
 5599:00E8       $OK__10jul99_1215_OF_V_Files
 5599:00EE       $OK__10jul99_1215_OF_D_Files
 5599:00F4       $OK__10jul99_1214_OF_MMA_Cout
 5599:00FA       $OK__10jul99_1215_OF_D_results
 5599:0100       $OK__10jul99_1215_OF_ZoomInterf
 5599:0106       $OK__10jul99_1215_OF_PI_Glowny
 5599:010C       $OK__10jul99_1215_OF_T_Oblot
 5599:0112       $OK__10jul99_1215_OF_T_Inspekcj
 5599:0118       $OK__10jul99_1214_OF_CommonData
 5599:011E       $OK__10jul99_1215_OF_Files
 5599:0124       $OK__10jul99_1215_OF_V_CP_Contr
 5599:012A       $OK__10jul99_1215_OF_Pomiar
 5599:0130       $OK__10jul99_1215_OF_Screen
 5599:0136       $OK__10jul99_1215_OF_PI_Analiza
 5599:013C       $OK__10jul99_1215_OF_PI_Pomiar
 5599:0142       $OK__10jul99_1215_OF_PI_ArchDat
 5599:0148       $OK__10jul99_1215_OF_PI_Drukuj
 5599:014E       $OK__10jul99_1214_OF_SoftIntHan
 5599:0154       $OK__10jul99_1214_OF_Storage
 5599:015A       $OK__10jul99_1214_OF_Timer
 5599:0160       $OK__10jul99_1214_OF_Messages
 5599:0166       $OK__10jul99_1214_OF_StdIO
 5599:016C       $OK__10jul99_1214_OF_MsgBox
 5599:0172       $OK__10jul99_1214_OF_WorseBecau
 5599:0178       $OK__10jul99_1214_OF_Graphics
 5599:017E       $OK__10jul99_1214_OF_XMSService
 5599:0184       $OK__10jul99_1214_OF_GrafTypes
 5599:018A       $OK__10jul99_1214_OF_MMMouse
 5599:0190       $OK__10jul99_1214_OF_ShortCuts
 5599:0196       $OK__10jul99_1214_OF_HRD_Clock
 5599:019C       $OK__10jul99_1215_OF_ScannerI
 5599:01A2       $OK__10jul99_1214_OF_TheodolitR
 5599:01A8       $OK__10jul99_1215_OF_GPSRead
 5599:01AE       $OK__10jul99_1214_OF_DGHIni
 5599:01B4       $OK__10jul99_1215_OF_EventsMng
 5599:01BA       $OK__10jul99_1215_OF_DataCollec
 5599:01C0       $OK__10jul99_1214_OF_FIO
 5599:01C6       $OK__10jul99_1214_OF_DGHInterfa
 5599:01CC       $OK__10jul99_1215_OF_V_Odb
 5599:01D2       $OK__10jul99_1215_OF_D_Odb
 5599:01D8       $OK__10jul99_1215_OF_Zoom
 5599:01DE       $OK__10jul99_1214_OF_GList
 5599:01E4       $OK__10jul99_1214_OF_GrafUtil
 5599:01EA       $OK__10jul99_1214_OF_Buttons
 5599:01F0       $OK__10jul99_1214_OF_Dialog
 5599:01F6       $OK__10jul99_1214_OF_HiLevGraf
 5599:01FC       $OK__10jul99_1214_OF_InpLine
 5599:0202       $OK__10jul99_1215_OF_PI_ZoomSpe
 5599:0208       $OK__10jul99_1215_OF_Mapa
 5599:020E       $OK__10jul99_1214_OF_Obloty
 5599:0214       $OK__10jul99_1215_OF_GeoArithme
 5599:021A       $OK__10jul99_1214_OF_RealConver
 5599:0220       $OK__10jul99_1214_OF_Ini
 5599:0226       $OK__10jul99_1215_OF_V_Database
 5599:022C       $OK__10jul99_1214_OF_SwitchCntr
 5599:0232       $OK__10jul99_1214_OF_CocpDsp
 5599:0238       $OK__10jul99_1214_OF_Wykres
 5599:023E       $OK__10jul99_1214_OF_XMSTable
 5599:0244       $OK__10jul99_1215_OF_PI_ScrUtil
 5599:024A       $OK__10jul99_1215_OF_Slupek
 5599:0250       $OK__10jul99_1215_OF_ScreenCTyp
 5599:0256       $OK__10jul99_1215_OF_V_DisResul
 5599:025C       $OK__10jul99_1215_OF_DisResUtil
 5599:0262       $OK__10jul99_1215_OF_D_DisResul
 5599:0268       $OK__10jul99_1215_OF_PiszEventy
 5599:026E       $OK__10jul99_1215_OF_V_Count
 5599:0274       $OK__10jul99_1215_OF_D_Count
 5599:027A       $OK__10jul99_1215_OF_D_DAcquizi
 5599:0280       $OK__10jul99_1215_OF_V_DAcquizi
 5599:0286       $OK__10jul99_1214_OF_AltInterfa
 5599:028C       $OK__10jul99_1215_OF_DMEPrint
 5599:0292       $OK__10jul99_1215_OF_VORPrint
 5599:0298       $OK__10jul99_1214_OF_Semafory
 5599:029E       $OK__10jul99_1214_OF_DigiRS
 5599:02A4       $OK__10jul99_1214_OF_Math
 5599:02AA       $OK__10jul99_1214_OF_FIltr1St
 5599:02B0       $OK__10jul99_1214_OF_GPS_nov
 5599:02B6       $OK__10jul99_1214_OF_GPS_TRIMBL
 5599:02BC       $OK__10jul99_1215_OF_Marks
 5599:02C2       $OK__10jul99_1215_OF_Polozenie
 5599:02C8       $OK__10jul99_1214_OF_Kalibracja
 5599:02CE       $OK__10jul99_1214_OF_DGH_utils
 5599:02D4       $OK__10jul99_1215_OF_Random
 5599:02DA       $OK__10jul99_1214_OF_Int_DME
 5599:02E0       $OK__10jul99_1215_OF_V_Slupek
 5599:02E6       $OK__10jul99_1215_OF_D_Slupek
 5599:02EC       $OK__10jul99_1215_OF_DrawEpson
 5599:02F2       $OK__10jul99_1215_OF_Print
 5599:02F8       $OK__10jul99_1215_OF_VORR_Avera
 5599:02FE       $OK__10jul99_1215_OF_PrintCntro
 5599:0304       $OK__10jul99_1214_OF_Kl_FGenera
 5599:030A       $OK__10jul99_1214_OF_NAVInterfa
 5599:0310       $OK__10jul99_1214_OF_ARINC
 5599:0316       $OK__10jul87_1403_OF_RTS87
 5599:031C       $OK__10jul87_1400_OF_RTSError
 5599:0322       $OK__19aug87_1403_OF_RTSMain
 5599:0328       $OK__10jul87_1401_OF_RTSLanguag
 5599:032E       $OK__15jun87_0924_OF_RTSDevice
 5599:0334       $OK__10jul87_1404_OF_RTSPriorit
 5599:033A       $OK__15jun87_0924_OF_RTSCorouti
 5599:0340       $OK__10jul87_1402_OF_RTSInterru
 5599:0346       $OK__10jul87_1400_OF_RTSRealErr
 5599:034C       $OK__31jul87_1000_OF_Strings
 5599:0352       $OK__01mar90_1621_OF_NumberConv
 5599:0358       $OK__01mar90_1622_OF_Sounds
 5599:035E       $OK__16jun87_2059_OF_DebugPMD
 5599:0364       $OK__01mar90_1622_OF_Devices
 5599:036A       $OK__16jun87_1952_OF_DynMem
 5599:0370       $OK__31jul87_1300_OF_BlockOps
 5599:0376       $OK__01mar90_1622_OF_Mouse
 5599:037C       $OK__05feb87_1233_OF_Longs
 5599:0382       $OK__01mar90_1621_OF_Terminal
 5599:0388       $OK__01mar90_1621_OF_Termbase
 5599:038E       $OK__31jul87_1100_OF_BitByteOps
 5599:0394       $OK__01mar90_1621_OF_ASCII
 5599:039A       $OK__01mar90_1621_OF_Display
 5599:03A0       $OK__01mar90_1621_OF_Keyboard
 5599:03A6       $OK__01mar90_1621_OF_DOSMemory
 55E4:0000       errorCode__RTSMain
 55E4:0000       $BD__RTSMain
 55E4:0002       PSPAddress__RTSMain
 55E4:0006       blockList__RTSMain
 55E4:000A       overlayList__RTSMain
 55E4:000E       overlayInitProc__RTSMain
 55E4:0012       overlayTermProc__RTSMain
 55E4:0016       curProcess__RTSMain
 55E4:001A       activProcess__RTSMain
 55E4:001E       debuggerRecord__RTSMain
 55E4:0030       deviceMask__RTSMain
 55E4:0032       dyingOverlay__RTSMain
 55E4:0036       MonitorExitProc__RTSMonExit
 55E4:003E       programSize
 55E4:0046       priorityMasks__RTSMain
 55E4:0058       DescInt0__RTSMain
 55E4:0128       freeList__RTSMain
 55E4:01CE       oldNMIvector
 55E4:01DD       $ED__RTSMain
 5603:0000       $BD__RTSCoroutine
 5603:0000       addProcess__RTSCoroutine
 5603:0003       $ED__RTSCoroutine
 5670:0000       $BD__AT
 5670:0000       mainState__AT
 5670:0002       switchAble__AT
 5670:0003       Zestaw__AT
 5670:0004       polaryzacjaOK__AT
 5670:0006       podzielnik__AT
 5670:000A       synResult__AT
 5670:000E       dataOk__AT
 5670:0010       $ED__AT
 5672:0000       Code__FCBS
 5672:0000       $BD__FCBS
 5672:003D       $ED__FCBS
 5676:0000       $BD__DOSEntry
 5676:0000       entryTmp__DOSEntry
 5676:003D       exitTmp__DOSEntry
 5676:007A       entryTmpPtr__DOSEntry
 5676:007E       exitTmpPtr__DOSEntry
 5676:0082       insideFlag__DOSEntry
 5676:0084       DOSEmpty__DOSEntry
 5676:0088       $ED__DOSEntry
 567F:0000       $BD__MANAGER
 567F:0000       ErrorQueue__MANAGER
 567F:0004       ReadyFirst__MANAGER
 567F:0008       NuOfErrorProc__MANAGER
 567F:000A       MaxNumOfReady__MANAGER
 567F:000C       MaxRunTime__MANAGER
 567F:000E       LongestProcess__MANAGER
 567F:0012       ErrorHandler__MANAGER
 567F:0016       LastCreated__MANAGER
 567F:001A       NumberOfProc__MANAGER
 567F:001C       Statistic__MANAGER
 567F:0114       CP__MANAGER
 567F:0118       ReadyLast__MANAGER
 567F:011C       DUMMY__MANAGER
 567F:0120       NuOfReady__MANAGER
 567F:0122       WaitForInt__MANAGER
 567F:0124       TSSInterval__MANAGER
 567F:0126       MaxRecTime__MANAGER
 567F:0128       TimeIntNum__MANAGER
 567F:012A       spTab__MANAGER
 567F:01F6       expInter__Scheduler__MANAGER
 567F:0208       VarDR__MANAGER
 567F:021A       Count__MANAGER
 567F:021C       LastMask__MANAGER
 567F:021E       $ED__MANAGER
 56A1:0000       $ED__ErrorMess
 56A1:0000       $BD__ErrorMess
 56A2:0000       anRes__V_results
 56A2:0000       $BD__V_results
 56A2:05A3       currDT__V_results
 56A2:05AF       sec__V_results
 56A2:05B1       $ED__V_results
 56FE:0000       $BD__VORO_avrage
 56FE:0000       $ED__VORO_avrage
 56FF:0000       $ED__CommonTypes
 56FF:0000       $BD__CommonTypes
 5700:0000       $ED__D_CommonTypes
 5700:0000       $BD__D_CommonTypes
 5701:0000       $BD__V_CommonTypes
 5701:0000       Procedura__V_CommonTypes
 5701:0001       $ED__V_CommonTypes
 5702:0000       $BD__SpecConv
 5702:0000       $ED__SpecConv
 5703:0000       $BD__FlagAnal
 5703:0000       $ED__FlagAnal
 5704:0000       $BD__Czas
 5704:0000       StringRect__BezPrzerwan__Czas
 5704:0008       SystemTime__BezPrzerwan__Czas
 5704:0014       $ED__Czas
 5706:0000       CalkowitaLiczbaEventow__SimScan
 5706:0000       $BD__SimScanner
 5706:0004       $ED__SimScanner
 5707:0000       PomiarANieArchiwum__PI_PA
 5707:0000       $BD__PI_PA
 5707:0001       $ED__PI_PA
 5708:0000       VORfreqCRT__Tune
 5708:0000       $BD__Tune
 5708:0050       GSfreqCRT__Tune
 5708:00A0       lastCPFlags__Tune
 5708:00A2       lastDMEfrqBits__Tune
 5708:00A6       $ED__Tune
 5713:0000       FileErr__V_Files
 5713:0000       $BD__V_Files
 5713:0004       NamesSig__V_Files
 5713:0090       FileSig__V_Files
 5713:00A4       NameRes__V_Files
 5713:00F8       FileRes__V_Files
 5713:0104       $ED__V_Files
 5724:0000       FileErr__D_Files
 5724:0000       $BD__D_Files
 5724:0004       NamesSig__D_Files
 5724:0074       NamesDis__D_Files
 5724:0090       FileSig__D_Files
 5724:00A0       FileDis__D_Files
 5724:00A4       $ED__D_Files
 572F:0000       $BD__MMA_Cout
 572F:0000       $ED__MMA_Cout
 5730:0000       anRes__D_results
 5730:0000       $BD__D_results
 5730:1EA4       currDT__D_results
 5730:1EB0       sec__D_results
 5730:1EB2       $ED__D_results
 591C:0000       $BD__ZoomInterface
 591C:0000       Koniec__ZoomInterface
 591C:0004       FirstTime__ZoomInterface
 591C:0005       Zawartosc__ZoomInterface
 591C:0009       CoRobic__ZoomInterface
 591C:0019       Lista__ZoomInterface
 591C:0029       OstatniStan__ZoomInterface
 591C:002A       OdnB__ZoomInterface
 591C:002E       MozeBycGlowny__ZoomInterface
 591C:002F       MozeBycDme__ZoomInterface
 591C:0030       $ED__ZoomInterface
 5920:0000       $ED__PI_Glowny
 5920:0000       $BD__PI_Glowny
 5921:0000       $BD__T_Oblot
 5921:0000       CoRobimy__T_Oblot
 5921:0001       hDlg__T_Oblot
 5921:0005       bNadajnik__T_Oblot
 5921:000D       GlowOdb__T_Oblot
 5921:0011       CisnienieOdn__T_Oblot
 5921:0015       TestUP__T_Oblot
 5921:0019       Raport__T_Oblot
 5921:001D       Pomiar__T_Oblot
 5921:0021       Pomiar1__T_Oblot
 5921:0025       RedrawScr__T_Oblot
 5921:0026       $ED__T_Oblot
 5924:0000       hDlg__T_Inspekcja
 5924:0000       $BD__T_Inspekcja
 5924:0004       RedrawScr__T_Inspekcja
 5924:0005       ListaOblotow__T_Inspekcja
 5924:0009       ListaOblotowBAK__T_Inspekcja
 5924:000D       ListaLokalizacji__T_Inspekcja
 5924:0011       ListaLokalizacjiBAK__T_Inspekcj
 5924:0015       OstatniOblot__T_Inspekcja
 5924:0017       $ED__T_Inspekcja
 5926:0000       $BD__CommonData
 5926:0000       NazwaUrzadz1__CommonData
 5926:0029       NazwaUrzadz2__CommonData
 5926:0052       NazwaOblotu__CommonData
 5926:007B       NazwaPlikuOpisu__CommonData
 5926:00FB       DME__CommonData
 5926:00FC       SciezkaOpisuPomiaru__CommonData
 5926:013D       OdnDlaPomBledu__CommonData
 5926:013E       OdnDlaPomOdl__CommonData
 5926:013F       Nadajnik1__CommonData
 5926:0140       Nadajnik2__CommonData
 5926:0141       GlownyOdbiornik__CommonData
 5926:0142       Promien__CommonData
 5926:0144       Orbita__CommonData
 5926:0146       Predkosc__CommonData
 5926:014E       CisnienieOdniesienia__CommonDat
 5926:0156       $ED__CommonData
 593C:0000       $BD__Files
 593C:0000       FileErr__Files
 593C:0004       DirErr__Files
 593C:0008       NamesAn__Files
 593C:0040       NamesDist__Files
 593C:00B0       NamesAlfa__Files
 593C:00E8       NamesComm__Files
 593C:0190       filesDist__Files
 593C:01A0       filesAlfa__Files
 593C:01A8       filesComm__Files
 593C:01C0       xRefFile__Files
 593C:01C4       xRefDefV__Files
 593C:01C8       homeDir__Files
 593C:0219       $ED__Files
 595E:0000       $BD__V_CP_ControlProc
 595E:0000       disCont__V_CP_ControlProc
 595E:00CD       angCont__V_CP_ControlProc
 595E:0190       myRadial__V_CP_ControlProc
 595E:0192       aktOrbita__V_CP_ControlProc
 595E:0194       radial__V_CP_ControlProc
 595E:0195       Running__V_CP_ControlProc
 595E:0196       $ED__V_CP_ControlProc
 5978:0000       ProcPom__Pomiar
 5978:0000       $BD__Pomiar
 5978:0050       EtapPolaryzacji__Pomiar
 5978:0054       StanButtonow__Pomiar
 5978:0058       currButtonSet__Pomiar
 5978:005A       B_01__Pomiar
 5978:005E       B_02__Pomiar
 5978:0062       B_03__Pomiar
 5978:0066       B_04__Pomiar
 5978:006A       B_05__Pomiar
 5978:006E       NapisB_01__Pomiar
 5978:0075       StanZestawu__Pomiar
 5978:0077       frstBut__Pomiar
 5978:0079       katPromien__Pomiar
 5978:007B       promien__Pomiar
 5978:007C       format360__Pomiar
 5978:007E       distOff__Pomiar
 5978:0082       alfaOff__Pomiar
 5978:0092       currZestaw__Pomiar
 5978:0093       dataInBuff__Pomiar
 5978:0095       $ED__Pomiar
 5982:0000       VAL1__Screen
 5982:0000       $BD__Screen
 5982:0004       VAL2__Screen
 5982:0008       VAL3__Screen
 5982:000C       VAL4__Screen
 5982:0010       Zestaw__Screen
 5982:0011       aktPromien__Screen
 5982:0013       aktPromienOdAnt__Screen
 5982:001B       pomPromieniowy__Screen
 5982:001C       aktFormat360__Screen
 5982:001D       devDistR__Screen
 5982:0025       by23__Screen
 5982:0027       LastDTidx__Screen
 5982:0029       ThisDTidx__Screen
 5982:002B       samplediv__Screen
 5982:002D       NextRedraw__Screen
 5982:002E       LastEventIDX__Screen
 5982:0030       KrokOpisuOsi__Screen
 5982:0032       Predrawmarksreq__Screen
 5982:0036       Predrawreq__Screen
 5982:003A       currConsoleEv__Screen
 5982:003E       RegionWykG__Screen
 5982:0042       RegionWykGCreated__Screen
 5982:0043       RegionWyk1__Screen
 5982:0047       RegionWyk1Created__Screen
 5982:0048       RegionWyk2__Screen
 5982:004C       RegionWyk2Created__Screen
 5982:004D       RegionWyk3__Screen
 5982:0051       RegionWyk3Created__Screen
 5982:0052       RegionWykresow__Screen
 5982:0056       B_CURSOR__Screen
 5982:005A       B_LEFT__Screen
 5982:005E       B_RIGHT__Screen
 5982:0062       B_UP__Screen
 5982:0066       B_DOWN__Screen
 5982:006A       screenDIB__Screen
 5982:006E       RysSytMaxDis__Dialog__Screen
 5982:0076       CursorMode__Dialog__Screen
 5982:0077       JakijedenWykres__Dialog__Screen
 5982:0078       JedenWykres__Dialog__Screen
 5982:0079       JakieWykr__Dialog__Screen
 5982:007A       popJakieWykr__Dialog__Screen
 5982:007B       CursorPos__Dialog__Screen
 5982:007D       OileKursor__Dialog__Screen
 5982:007F       ZmianaSkaliWpionie__Dialog__Scr
 5982:0080       BarOnScreen__Dialog__Screen
 5982:0082       skalaWpionie__Dialog__Screen
 5982:012C       ChangeKursorMode__Dialog__Scree
 5982:012D       $ED__Screen
 5995:0000       $BD__PI_Analiza
 5995:0000       dispResults__PI_Analiza
 5995:0004       currButtonSet__MouseMonitor__PI
 5995:0005       B_Drukuj__MouseMonitor__PI_Anal
 5995:0009       B_Akceptuj__MouseMonitor__PI_An
 5995:000D       B_Abort__MouseMonitor__PI_Anali
 5995:0011       B_UP__MouseMonitor__PI_Analiza
 5995:0015       B_DOWN__MouseMonitor__PI_Analiz
 5995:0019       B_XCHG__MouseMonitor__PI_Analiz
 5995:001D       sthPressed__MouseMonitor__PI_An
 5995:0021       $ED__PI_Analiza
 5998:0000       $ED__PI_Pomiar
 5998:0000       $BD__PI_Pomiar
 5999:0000       $ED__PI_ArchDate
 5999:0000       $BD__PI_ArchDate
 599A:0000       $BD__PI_Drukuj
 599A:0000       $ED__PI_Drukuj
 599B:0000       break__SoftIntHandlingManager
 599B:0000       $BD__SoftIntHandlingManager
 599B:0001       firstISRDescriptorPtr__Monitor_
 599B:0005       $ED__SoftIntHandlingManager
 599C:0000       OCCUPED__Storage
 599C:0000       $BD__Storage
 599C:0001       heapList__Storage
 599C:0021       prevHeap__Storage
 599C:0023       StaraStrategia__Storage
 599C:0025       StaryCh__Storage
 599C:0027       $ED__Storage
 599F:0000       TimeCounter__Timer
 599F:0000       $BD__Timer
 599F:0002       TIOS__Timer
 599F:0004       ClockPer__Timer
 599F:0006       TOQueue__Monitor__Timer
 599F:000A       Period__Monitor__Timer
 599F:000C       PeriodCount__Monitor__Timer
 599F:000E       PeriodicProcedure__Monitor__Tim
 599F:0012       Dumm__Monitor__Timer
 599F:0014       $ED__Timer
 59A1:0000       $BD__Messages
 59A1:0000       MList__Messages
 59A1:0004       MDispl__Messages
 59A1:0008       MessageSound__Messages
 59A1:000A       TurnBeepOn__Messages
 59A1:000E       $ED__Messages
 59A2:0000       $BD__StdIO
 59A2:0000       $ED__StdIO
 59A3:0000       $BD__MsgBox
 59A3:0000       hDlg__MsgBox
 59A3:0004       ret__MsgBox
 59A3:0006       P_A__MsgBox
 59A3:0016       $ED__MsgBox
 59A5:0000       $ED__WorseBecause
 59A5:0000       $BD__WorseBecause
 59A6:0000       FontPtr__Graphics
 59A6:0000       $BD__Graphics
 59A6:0004       bank__InternalMonitor__Graphics
 59A6:0006       bankstart__InternalMonitor__Gra
 59A6:000A       BKSizeL__InternalMonitor__Graph
 59A6:000E       BK64Inc__InternalMonitor__Graph
 59A6:0010       FntTable__Graphics
 59A6:0130       $ED__Graphics
 59BA:0000       $BD__XMS
 59BA:0004       $ED__XMS
 59BB:0000       GarbageList__XMSService
 59BB:0000       $BD__XMSService
 59BB:0004       $ED__XMSService
 59BC:0000       $BD__GrafTypes
 59BC:0000       $ED__GrafTypes
 59BD:0000       Regiony__MMMouse
 59BD:0000       $BD__MMMouse
 59BD:0004       LastX__MMMouse
 59BD:0006       LastY__MMMouse
 59BD:0008       CursorShapePtr__MMMouse
 59BD:000C       DefaultShape__MMMouse
 59BD:0050       maxX__MMMouse
 59BD:0052       maxY__MMMouse
 59BD:0054       PrevReg__MMMouse
 59BD:0058       MonitoCheck__BezPrzerwanOdMyszy
 59BD:005A       MouseEvent__BezPrzerwanOdMyszy_
 59BD:005E       OldButtons__BezPrzerwanOdMyszy_
 59BD:005F       EVF__BezPrzerwanOdMyszy__MMMous
 59BD:0061       EVL__BezPrzerwanOdMyszy__MMMous
 59BD:0063       EVC__BezPrzerwanOdMyszy__MMMous
 59BD:0065       EventBuff__BezPrzerwanOdMyszy__
 59BD:01E5       Stored__BezPrzerwanOdMyszy__MMM
 59BD:01EC       lx__BezWyszeregowania__MMMouse
 59BD:01EE       ly__BezWyszeregowania__MMMouse
 59BD:01F0       rx__BezWyszeregowania__MMMouse
 59BD:01F2       ry__BezWyszeregowania__MMMouse
 59BD:01F4       CursorBuf__BezWyszeregowania__M
 59BD:02F4       Hidden__BezWyszeregowania__MMMo
 59BD:02F5       CursorB__BezWyszeregowania__MMM
 59BD:03F5       MSemafor__MMMouse
 59BD:0401       $ED__MMMouse
 59FE:0000       $BD__ShortCuts
 59FE:0000       Kill__ShortCuts
 59FE:0001       ShortCutList__monitor__ShortCut
 59FE:0005       SavedChar__monitor__ShortCuts
 59FE:0007       FreeKey__monitor__ShortCuts
 59FE:000B       NumEl__monitor__ShortCuts
 59FE:000D       done__ShortCuts
 59FE:000E       $ED__ShortCuts
 59FF:0000       $BD__HRD_Clock
 59FF:0000       $ED__HRD_Clock
 5A00:0000       flg__ScannerI
 5A00:0000       $BD__ScannerI
 5A00:0002       Alfa__ScannerI
 5A00:0006       AlfaF__ScannerI
 5A00:000A       RefAlfa__ScannerI
 5A00:000C       TeoAlfaF__ScannerI
 5A00:000E       Delta__ScannerI
 5A00:0016       DeltaDME__ScannerI
 5A00:001A       DeltaF__ScannerI
 5A00:0022       RefDis__ScannerI
 5A00:0024       ABOVESL__ScannerI
 5A00:0026       pilErr__ScannerI
 5A00:0028       TEO_A__ScannerI
 5A00:0030       TEO_E__ScannerI
 5A00:0038       TEO_OK__ScannerI
 5A00:003A       TEO_DGPSpoprawki__ScannerI
 5A00:003B       GPS_A__ScannerI
 5A00:0043       GPS_R__ScannerI
 5A00:004B       GPS_OK__ScannerI
 5A00:004C       GPS_SAT__ScannerI
 5A00:004E       GPS_GDOP__ScannerI
 5A00:0050       GPS_DIFFMODE__ScannerI
 5A00:0051       GPS_PREC__ScannerI
 5A00:0053       Simul__ScannerI
 5A00:0054       currAlfaOff__ScannerI
 5A00:0056       loc_tog__ScannerI
 5A00:0057       $ED__ScannerI
 5A06:0000       PolozenieTeodolitu__TheodolitRe
 5A06:0000       $BD__TheodolitRead
 5A06:0010       Kopiowanie__TheodolitRead
 5A06:0014       Azymut__TheodolitRead
 5A06:001C       Elewacja__TheodolitRead
 5A06:0024       lstAzymuth__TheodolitRead
 5A06:002C       lstElevation__TheodolitRead
 5A06:0034       currentSign__TheodolitRead
 5A06:0036       TeoEvNr__TheodolitRead
 5A06:0038       wd_dgps_currSign__TheodolitRead
 5A06:003A       lstEvent__TheodolitRead
 5A06:003B       lstTracking__TheodolitRead
 5A06:003C       teoEvBit__TheodolitRead
 5A06:003D       State__TheodolitRead
 5A06:003F       currState__TheodolitRead
 5A06:0040       lastNum__TheodolitRead
 5A06:0046       lastCrc__TheodolitRead
 5A06:0048       numPos__TheodolitRead
 5A06:004A       CheckSumIdx__TheodolitRead
 5A06:004C       teoEvCon__TheodolitRead
 5A06:0050       teoEvNrCOn__TheodolitRead
 5A06:0053       Nie_mozna_uruchomic_kanalu_Teod
 5A06:0057       $ED__TheodolitRead
 5A0C:0000       $BD__GPSRead
 5A0C:0000       ObecnyStan__GPSRead
 5A0C:0001       currentSign__GPSRead
 5A0C:0003       Last_Gdop__GPSRead
 5A0C:0005       Last_NumberOfSattelites__GPSRea
 5A0C:0007       Last_polGeo__GPSRead
 5A0C:0013       Last_Diffmode__GPSRead
 5A0C:0014       Last_tog__GPSRead
 5A0C:001C       Last_EPE__GPSRead
 5A0C:001E       CurrGPSAnalizer__GPSRead
 5A0C:0022       $ED__GPSRead
 5A0F:0000       signals__DGHIni
 5A0F:0000       $BD__DGHIni
 5A0F:08E8       TableOfNames__DGHIni
 5A0F:0F70       SignalDescr__DGHIni
 5A0F:0F8E       $ED__DGHIni
 5B08:0000       $BD__EventsMng
 5B08:0000       Events__EventsMng
 5B08:0B44       pilEnr__EventsMng
 5B08:0B48       conEnr__EventsMng
 5B08:0B4C       teoEnr__EventsMng
 5B08:0B50       $ED__EventsMng
 5BBE:0000       $BD__DataCollect
 5BBE:0000       VAL1__DataCollect
 5BBE:3210       VAL2__DataCollect
 5BBE:6420       VAL3__DataCollect
 5BBE:9630       VAL4__DataCollect
 5BBE:C840       Idx__DataCollect
 5BBE:C844       angContiner__DataCollect
 5BBE:C84C       disContiner__DataCollect
 5BBE:C854       marks_Con_D__DataCollect
 5BBE:C857       marks_Con_A__DataCollect
 5BBE:C85A       samplediv__tablice__DataCollect
 5BBE:C85E       curr23__tablice__DataCollect
 5BBE:C862       IDX3__tablice__DataCollect
 5BBE:C866       IDX2__tablice__DataCollect
 5BBE:C86A       Div3T__tablice__DataCollect
 5BBE:C86E       Div2T__tablice__DataCollect
 5BBE:C872       div2n__tablice__DataCollect
 5BBE:C876       div3n__tablice__DataCollect
 5BBE:C87A       ix2__tablice__DataCollect
 5BBE:C87E       ix3__tablice__DataCollect
 5BBE:C882       procVAL1__tablice__DataCollect
 5BBE:C88A       procVAL2__tablice__DataCollect
 5BBE:C892       procVAL3__tablice__DataCollect
 5BBE:C89A       procVAL4__tablice__DataCollect
 5BBE:C8A2       samples__tablice__DataCollect
 5BBE:C8A6       VALX__tablice__DataCollect
 5BBE:E1AE       $ED__DataCollect
 69D9:0000       lastErr__FIO
 69D9:0000       $BD__FIO
 69D9:0002       numErr__FIO
 69D9:0004       opened__FIO
 69D9:0006       maxOpened__FIO
 69D9:0008       Files__FIO
 69D9:0C08       CriticalErrorRec__FIO
 69D9:0C12       $ED__FIO
 6A9B:0000       $BD__DGHInterface
 6A9B:0000       BufferFull__DGHInterface
 6A9B:0004       currentSign__DGHInterface
 6A9B:0006       binaryDtaSign__DGHInterface
 6A9B:0008       csErrorCnt__DGHInterface
 6A9B:000A       nvErrorCndF__DGHInterface
 6A9B:000C       nvErrorCndS__DGHInterface
 6A9B:000E       maxClicks__DGHInterface
 6A9B:0010       activated__DGHInterface
 6A9B:0014       Ostrzezenie_ze_za_dlugo__DGHInt
 6A9B:0018       $ED__DGHInterface
 6A9D:0000       $BD__V_Odb
 6A9D:0000       navFlg__V_Odb
 6A9D:0002       audio__V_Odb
 6A9D:0004       obr__V_Odb
 6A9D:0008       var__V_Odb
 6A9D:000C       ref__V_Odb
 6A9D:0010       sub__V_Odb
 6A9D:0014       agc__V_Odb
 6A9D:0018       flg__V_Odb
 6A9D:001A       DEVVAL__V_Odb
 6A9D:001E       DEVMIN__V_Odb
 6A9D:0022       DEVMAX__V_Odb
 6A9D:0026       DEVAV__V_Odb
 6A9D:002A       DevNr__V_Odb
 6A9D:002E       DevErrSum__V_Odb
 6A9D:003E       CollectData__V_Odb
 6A9D:003F       OdnDlaPomBledu__V_Odb
 6A9D:0040       navFlgCon__V_Odb
 6A9D:0048       locationsTogether__V_Odb
 6A9D:0049       licznik__V_Odb
 6A9D:004B       $ED__V_Odb
 6AA2:0000       $BD__D_Odb
 6AA2:0000       Dis__D_Odb
 6AA2:0004       DisI__D_Odb
 6AA2:0008       Reply__D_Odb
 6AA2:000C       Squitter__D_Odb
 6AA2:0010       Agc__D_Odb
 6AA2:0014       Audio__D_Odb
 6AA2:0016       Mem__D_Odb
 6AA2:0018       Trace__D_Odb
 6AA2:001A       flg__D_Odb
 6AA2:001C       distErr__D_Odb
 6AA2:0020       distErrF__D_Odb
 6AA2:0024       SSmin__D_Odb
 6AA2:0028       samples__D_Odb
 6AA2:002A       CollectData__D_Odb
 6AA2:002B       distErrF_MemFIntContiner__D_Odb
 6AA2:003B       $ED__D_Odb
 6AA6:0000       $BD__Zoom
 6AA6:0000       ZmienP__Zoom
 6AA6:0004       OpisWykresu__Zoom
 6AA6:021C       x_odn__Zoom
 6AA6:0220       x_time__Zoom
 6AA6:0224       PosMarkerX__Zoom
 6AA6:0274       NrX__Zoom
 6AA6:0276       PrzeskokWGore__Zoom
 6AA6:0278       PrzeskokWDol__Zoom
 6AA6:027A       podz__Zoom
 6AA6:0282       xFirst__Zoom
 6AA6:0284       xLast__Zoom
 6AA6:0286       ZnacznikPrzerwy__Zoom
 6AA6:0288       ObslugaWylaczona__Zoom
 6AA6:0289       ZoomOutPoziom__Zoom
 6AA6:028D       ZoomOutPion__Zoom
 6AA6:029D       Koniec__Zoom
 6AA6:02A1       XStack__Zoom
 6AA6:02C9       XStackDepth__Zoom
 6AA6:02CB       YStack__Zoom
 6AA6:054B       YStackDepth__Zoom
 6AA6:0553       KierunekZmian__Zoom
 6AA6:0555       PMDLicznik__Zoom
 6AA6:0557       $ED__Zoom
 6AFC:0000       CurH__GList
 6AFC:0000       $BD__GList
 6AFC:0004       Lista__GList
 6AFC:0008       $ED__GList
 6AFD:0000       StatusR__GrafUtil
 6AFD:0000       $BD__GrafUtil
 6AFD:0008       str__GrafUtil
 6AFD:006C       WaitTime__GrafUtil
 6AFD:006E       Tone__GrafUtil
 6AFD:0070       $ED__GrafUtil
 6B05:0000       $BD__Buttons
 6B05:0000       KbdButton__Buttons
 6B05:0004       AllEnabled__Buttons
 6B05:0005       ButtonList__MONITOR__Buttons
 6B05:0009       $ED__Buttons
 6B06:0000       ListaDlg__Dialog
 6B06:0000       $BD__Dialog
 6B06:0004       FocusChanged__Dialog
 6B06:0008       $ED__Dialog
 6B07:0000       ClipRect__HiLevGraf
 6B07:0000       $BD__HiLevGraf
 6B07:0008       Style__HiLevGraf
 6B07:000A       LastPosition__HiLevGraf
 6B07:000C       semafor__HiLevGraf
 6B07:0018       Path__HiLevGraf
 6B07:0059       XS__HiLevGraf
 6B07:005B       YS__HiLevGraf
 6B07:005D       $ED__HiLevGraf
 6B0D:0000       Active__InpLine
 6B0D:0000       $BD__InpLine
 6B0D:0004       $ED__InpLine
 6B0E:0000       Opisy__PI_ZoomSpecific
 6B0E:0000       $BD__PI_ZoomSpecific
 6B0E:07BC       Sciezka__PI_ZoomSpecific
 6B0E:07FD       $ED__PI_ZoomSpecific
 6B8E:0000       $BD__Mapa
 6B8E:0000       doZrobienia__Mapa
 6B8E:0020       zrobione__Mapa
 6B8E:0040       aktualny__Mapa
 6B8E:0042       mapRct__Mapa
 6B8E:004A       distRect__Mapa
 6B8E:0052       PokazywacPolozenie__Mapa
 6B8E:0053       RysSytMaxDis__Mapa
 6B8E:005B       myPoint__Mapa
 6B8E:005F       redraw__Mapa
 6B8E:0060       noActive__monitor__Mapa
 6B8E:0064       $ED__Mapa
 6B95:0000       $BD__Obloty
 6B95:0000       NazwaPlikuIni__Obloty
 6B95:0040       Stat_Size_Monitor__Obloty
 6B95:0044       Stat_File_Monitor__Obloty
 6B95:0048       HomeDir__Obloty
 6B95:0058       HomeDirNazwaPlikuIni__Obloty
 6B95:0099       bd_NazwaPliku__Obloty
 6B95:00AA       bd_Sekcja__Obloty
 6B95:00B5       bd_WpisNazwa__Obloty
 6B95:00C0       insp_DirTmp__Obloty
 6B95:00CB       stat_Size__Obloty
 6B95:00D3       stat_Files__Obloty
 6B95:00D5       NUrzadzDlaDopasuj__Obloty
 6B95:0116       HomeDirDlaDopasuj__Obloty
 6B95:0157       CallBackDlaDopasuj__Obloty
 6B95:015B       NazwaPlikuZOpisem__Obloty
 6B95:019C       DelDir__Obloty
 6B95:01DD       SrcDir__Obloty
 6B95:021E       DstDir__Obloty
 6B95:025F       $ED__Obloty
 6BBB:0000       Deklinacja__GeoArithmetic
 6BBB:0000       $BD__GeoArithmetic
 6BBB:0008       OdniesienieMtx__GeoArithmetic
 6BBB:0020       IloscOdniesien__GeoArithmetic
 6BBB:0022       $ED__GeoArithmetic
 6BBE:0000       $ED__RealConversions
 6BBE:0000       $BD__RealConversions
 6BBF:0000       $BD__Ini
 6BBF:0000       ErrorProc__Ini
 6BBF:0004       ini__Ini
 6BBF:0010       currfile__Ini
 6BBF:0012       BuffP__Ini
 6BBF:0016       Bufor__Ini
 6BBF:5017       charsInBuffer__Ini
 6BBF:5019       SavedFileName__Ini
 6BBF:507D       LastDir__Ini
 6BBF:50E1       Modified__Ini
 6BBF:50E2       check__Ini
 6BBF:50E4       $ED__Ini
 70CE:0000       CurVor1__V_Database
 70CE:0000       $BD__V_Database
 70CE:00E8       CurVor2__V_Database
 70CE:01D0       twoLocations__V_Database
 70CE:01D1       VOR_O_czuloscWP__V_Database
 70CE:01D3       VOR_O_czuloscCP__V_Database
 70CE:01D5       VOR_R_czuloscWP__V_Database
 70CE:01D7       VOR_R_czuloscCP__V_Database
 70CE:01D9       Blad_podczas_wczytywania_opisu_
 70CE:01DD       $ED__V_Database
 70EC:0000       $BD__SwitchCntrl
 70EC:0000       ControlWords__SwitchCntrl
 70EC:000E       $ED__SwitchCntrl
 70ED:0000       $BD__CocpDsp
 70ED:0000       currGSflg__CocpDsp
 70ED:0001       currNAVflg__CocpDsp
 70ED:0002       currFROMflg__CocpDsp
 70ED:0003       currTOflg__CocpDsp
 70ED:0004       dirCP__CocpDsp
 70ED:0006       dirWP__CocpDsp
 70ED:0008       SkalaCP__CocpDsp
 70ED:000A       Skala__CocpDsp
 70ED:000C       SkalaCPMax__CocpDsp
 70ED:000E       SkalaWPMax__CocpDsp
 70ED:0010       srodekSkali__CocpDsp
 70ED:0012       iloscStrzal__CocpDsp
 70ED:0014       currState__CocpDsp
 70ED:0015       currLNumber__CocpDsp
 70ED:0017       currRNumber__CocpDsp
 70ED:0019       currErrorCP__CocpDsp
 70ED:001B       currErrorWP__CocpDsp
 70ED:001D       currErrorGS__CocpDsp
 70ED:001F       newState__CocpDsp
 70ED:0023       dtaSign__CocpDsp
 70ED:0025       force__CocpDsp
 70ED:0026       currMsg__CocpDsp
 70ED:0028       $ED__CocpDsp
 70F0:0000       $ED__Wykres
 70F0:0000       $BD__Wykres
 70F1:0000       $BD__XMSTable
 70F1:0000       $ED__XMSTable
 70F2:0000       slupki__PI_ScrUtility
 70F2:0000       $BD__PI_ScrUtility
 70F2:000C       slupkiAktywne__PI_ScrUtility
 70F2:000D       $ED__PI_ScrUtility
 70F3:0000       $BD__Slupek
 70F3:0000       $ED__Slupek
 70F4:0000       slL_rec__ScreenCTypes
 70F4:0000       $BD__ScreenCTypes
 70F4:0008       slL_pnt__ScreenCTypes
 70F4:000C       slLReg_rec__ScreenCTypes
 70F4:0014       slLDib_rec__ScreenCTypes
 70F4:001C       slS_rec__ScreenCTypes
 70F4:0024       slS_pnt__ScreenCTypes
 70F4:0028       slSReg_rec__ScreenCTypes
 70F4:0030       slSDib_rec__ScreenCTypes
 70F4:0038       slP_rec__ScreenCTypes
 70F4:0040       slP_pnt__ScreenCTypes
 70F4:0044       slPReg_rec__ScreenCTypes
 70F4:004C       slPDib_rec__ScreenCTypes
 70F4:0054       $ED__ScreenCTypes
 70FA:0000       colPos__V_DisResults
 70FA:0000       $BD__V_DisResults
 70FA:000C       $ED__V_DisResults
 70FB:0000       $ED__DisResUtilities
 70FB:0000       $BD__DisResUtilities
 70FC:0000       $ED__D_DisResults
 70FC:0000       $BD__D_DisResults
 70FD:0000       PoczatekStrony__PiszEventy
 70FD:0000       $BD__PiszEventy
 70FD:0002       EvPtr__PiszEventy
 70FD:0006       $ED__PiszEventy
 70FE:0000       dvAVcont__V_Count
 70FE:0000       $BD__V_Count
 70FE:006C       signalsAVcont__V_Count
 70FE:00FC       bendsCon__V_Count
 70FE:34F8       roughnessCon__V_Count
 70FE:38A0       $ED__V_Count
 7489:0000       $BD__D_Count
 7489:0000       $ED__D_Count
 748A:0000       ImportantDiv__D_DAcquizition
 748A:0000       $BD__D_DAcquizition
 748A:0002       redraw__D_DAcquizition
 748A:0003       redrawM__D_DAcquizition
 748A:0004       currUpdMarks__D_DAcquizition
 748A:0008       filesNotEmpty__D_DAcquizition
 748A:0009       notify__Monitor__D_DAcquizition
 748A:000D       lastComm__Monitor__D_DAcquiziti
 748A:000E       $ED__D_DAcquizition
 748B:0000       $BD__V_DAcquizition
 748B:0000       ImportantDiv__V_DAcquizition
 748B:0002       redraw__V_DAcquizition
 748B:0003       redrawM__V_DAcquizition
 748B:0004       currUpdMarks__V_DAcquizition
 748B:0008       currGlownyOdbiornik__V_DAcquizi
 748B:0009       TrwaPomiarPolaryzacji__V_DAcqui
 748B:000A       polvfaza__V_DAcquizition
 748B:000C       pom2sek__V_DAcquizition
 748B:000E       notify__Monitor__V_DAcquizition
 748B:0012       lastComm__Monitor__V_DAcquiziti
 748B:0013       filesNotEmpty__V_DAcquizition
 748B:0014       $ED__V_DAcquizition
 748D:0000       $BD__AltInterface
 748D:0000       ALT_Conver_Tab__AltInterface
 748D:0020       ALT_Conver_TabC__AltInterface
 748D:0040       refPress__AltInterface
 748D:0048       $ED__AltInterface
 7492:0000       $ED__DMEPrint
 7492:0000       $BD__DMEPrint
 7493:0000       $BD__VORPrint
 7493:0000       Zestaw__VORPrint
 7493:0002       Odniesienie__VORPrint
 7493:0003       header__VORPrint
 7493:0067       NazwaPliku__VORPrint
 7493:0086       gOdb__VORPrint
 7493:0087       zOdb__VORPrint
 7493:0088       NAVG_flg__VORPrint
 7493:008A       NAVZ_flg__VORPrint
 7493:008C       NAVG_AFlg__VORPrint
 7493:008E       NAVZ_AFlg__VORPrint
 7493:0090       $ED__VORPrint
 749D:0000       TablicaSemaforow__Semafory
 749D:0000       $BD__Semafory
 749D:0054       $ED__Semafory
 74A3:0000       minWrBufLength__DigiRS
 74A3:0000       $BD__DigiRS
 74A3:0002       $ED__DigiRS
 74A4:0000       $ED__Math
 74A4:0000       $BD__Math
 74A5:0000       $BD__FIltr1St
 74A5:0000       okresImp__FIltr1St
 74A5:0008       $ED__FIltr1St
 74A6:0000       $BD__GPS_nov
 74A6:0000       framesWError__GPS_nov
 74A6:0002       chrCount__GPS_nov
 74A6:0004       frmCount__GPS_nov
 74A6:0006       actPart__GPS_nov
 74A6:0007       sumaModC__GPS_nov
 74A6:0008       sumaModF__GPS_nov
 74A6:000A       posInRecBuf__GPS_nov
 74A6:000C       bufor__GPS_nov
 74A6:007B       eos__GPS_nov
 74A6:007E       err_unrec_cnt__GPS_nov
 74A6:0080       BladKanaluGPS__GPS_nov
 74A6:0084       $ED__GPS_nov
 74AF:0000       framesWError__GPS_TRIMBLE
 74AF:0000       $BD__GPS_TRIMBLE
 74AF:0002       chrCount__GPS_TRIMBLE
 74AF:0004       frmCount__GPS_TRIMBLE
 74AF:0006       actPart__GPS_TRIMBLE
 74AF:0007       posInRecBuf__GPS_TRIMBLE
 74AF:0009       bufor__GPS_TRIMBLE
 74AF:0049       L_epe__GPS_TRIMBLE
 74AF:004B       L_WspSzerokosc__GPS_TRIMBLE
 74AF:0051       L_WspDlugosc__GPS_TRIMBLE
 74AF:0057       L_Kierunek__GPS_TRIMBLE
 74AF:005F       L_FixNotAvailable__GPS_TRIMBLE
 74AF:0060       L_month__GPS_TRIMBLE
 74AF:0062       L_day__GPS_TRIMBLE
 74AF:0064       L_year__GPS_TRIMBLE
 74AF:0066       L_hour__GPS_TRIMBLE
 74AF:0068       L_min__GPS_TRIMBLE
 74AF:006A       L_sec__GPS_TRIMBLE
 74AF:006C       L_NumberOfSattelites__GPS_TRIMB
 74AF:006E       BladKanaluGPS__GPS_TRIMBLE
 74AF:0072       $ED__GPS_TRIMBLE
 74B7:0000       $BD__Marks
 74B7:0000       $ED__Marks
 74B8:0000       StalyKat__Polozenie
 74B8:0000       $BD__Polozenie
 74B8:0002       Srodek__Polozenie
 74B8:0006       Promien__Polozenie
 74B8:0008       MaxVal__Polozenie
 74B8:0010       AktOdleglosc__Polozenie
 74B8:0018       AktKat__Polozenie
 74B8:0020       Narysowany__Polozenie
 74B8:0022       Bufor__Polozenie
 74B8:0112       Rect__Polozenie
 74B8:011A       ProcesAktywny__Polozenie
 74B8:011B       NCO__Polozenie
 74B8:011C       angContiner__Polozenie
 74B8:011F       MarkerShapes__Polozenie
 74B8:020F       Dir__Polozenie
 74B8:0211       CzesciOkregu__Polozenie
 74B8:0235       $ED__Polozenie
 74DC:0000       $BD__Kalibracja
 74DC:0000       TabKalib2P__Kalibracja
 74DC:0800       AGCwartosciProgow__Kalibracja
 74DC:0870       AGCwartosciProgowM__Kalibracja
 74DC:08C0       AGCwartosciProgowD__Kalibracja
 74DC:0910       LocDev_delay__Kalibracja
 74DC:0918       GsDev_delay__Kalibracja
 74DC:0920       LocPrcMod_delay__Kalibracja
 74DC:0928       GsPrcMod_delay__Kalibracja
 74DC:0930       VorRefPrcMod_delay__Kalibracja
 74DC:0938       VorVarPrcMod_delay__Kalibracja
 74DC:0940       SubcarPrcMod_delay__Kalibracja
 74DC:0948       Omnibearing_delay__Kalibracja
 74DC:0950       VorAgc_delay__Kalibracja
 74DC:0958       GsAgc_delay__Kalibracja
 74DC:0960       MkrAgc_delay__Kalibracja
 74DC:0968       OmnibearingProgi__Kalibracja
 74DC:0A88       LOC_DEVPuntyKal__Kalibracja
 74DC:0AC0       GS_DEVPuntyKal__Kalibracja
 74DC:0AF8       Par__Kalibracja
 74DC:13B8       errDetected__Kalibracja
 74DC:13BC       inputCoeff__Kalibracja
 74DC:13EC       DataOstatniejKalibracji__Kalibr
 74DC:13F8       WystapilBlad__Kalibracja
 74DC:13F9       lastError__ErrorHand__Kalibracj
 74DC:13FB       for_counter__Kalibracja
 74DC:13FD       void__Kalibracja
 74DC:13FF       f__Kalibracja
 74DC:1401       $ED__Kalibracja
 761D:0000       $BD__DGH_utils
 761D:0000       address__DGH_utils
 761D:0020       binAddress__DGH_utils
 761D:0036       $ED__DGH_utils
 7621:0000       a__Random
 7621:0000       $BD__Random
 7621:006E       j__Random
 7621:0070       k__Random
 7621:0072       $ED__Random
 7629:0000       $ED__Int_DME
 7629:0000       $BD__Int_DME
 762A:0000       parSlupkow__V_Slupek
 762A:0000       $BD__V_Slupek
 762A:0018       screeenDIB__V_Slupek
 762A:001C       cursorDIB__V_Slupek
 762A:0020       $ED__V_Slupek
 762D:0000       $BD__D_Slupek
 762D:0000       parSlupkow__D_Slupek
 762D:0018       screeenDIB__D_Slupek
 762D:001C       cursorDIB__D_Slupek
 762D:0020       $ED__D_Slupek
 7630:0000       $BD__DrawEpson
 7630:0000       PrnPort__DrawEpson
 7630:0002       xh__DrawEpson
 7630:0004       Bufor__DrawEpson
 7630:0784       LastPosition__DrawEpson
 7630:0786       Masks__DrawEpson
 7630:078E       Adr1__DrawEpson
 7630:0792       Adr2__DrawEpson
 7630:0796       PrevPage__DrawEpson
 7630:0798       CurMode__DrawEpson
 7630:0799       FontAdrN__DrawEpson
 7630:079D       FontAdrA__DrawEpson
 7630:07A1       FontHeight__DrawEpson
 7630:07A3       Rotation__DrawEpson
 7630:07A4       MnX__DrawEpson
 7630:07A6       MnY__DrawEpson
 7630:07A8       JuzNarysowane__DrawEpson
 7630:07A9       $ED__DrawEpson
 76AB:0000       PrnX__Print
 76AB:0000       $BD__Print
 76AB:0002       PrnY__Print
 76AB:0004       PolozenieNapisu__Print
 76AB:0006       TextModeOutProc__Print
 76AB:000A       PrevIdx__Print
 76AB:000C       Flagi__Print
 76AB:000E       flgEOF__Print
 76AB:000F       scaleDiv__Print
 76AB:0011       CoKtoraProbka__Print
 76AB:0013       ZestawProbekBinDoWyboru__Print
 76AB:00D5       Tmpl__Print
 76AB:0112       $ED__Print
 76BD:0000       $BD__VORR_Average
 76BD:0000       $ED__VORR_Average
 76BE:0000       $BD__PrintCntroll
 76BE:0000       hDlg__PrintCntroll
 76BE:0004       Zestaw__PrintCntroll
 76BE:0006       Odniesienie__PrintCntroll
 76BE:0007       OdnB__PrintCntroll
 76BE:000B       CoKtoraProbka__PrintCntroll
 76BE:000D       IleStron__PrintCntroll
 76BE:000F       IloscProbek__PrintCntroll
 76BE:0011       lPodz__PrintCntroll
 76BE:0015       $ED__PrintCntroll
 76C0:0000       $BD__Kl_FGenerators
 76C0:0000       $ED__Kl_FGenerators
 76C1:0000       disableMask__NAVInterface
 76C1:0000       $BD__NAVInterface
 76C1:0002       speedMask__NAVInterface
 76C1:0004       fineMode__NAVInterface
 76C1:0005       killTime__NAVInterface
 76C1:0007       $ED__NAVInterface
 76C2:0000       $BD__ARINC
 76C2:0000       maxCountW__ARINC
 76C2:0002       maxCountR__ARINC
 76C2:0004       $ED__ARINC
 76C6:0000       DriverInstalled__Mouse

Program entry point at 51F9:03C9
