
 Start  Stop   Length Name                   Class
 00010H 0079EH 0078FH AV_TEXT                CODE
 007A0H 00811H 00072H FCBS_TEXT              CODE
 00820H 0099AH 0017BH DOSENTRY_TEXT          CODE
 009A0H 027ACH 01E0DH MANAGER_TEXT           CODE
 027B0H 028F5H 00146H ERRORMESS_TEXT         CODE
 02900H 02EAAH 005ABH V_RESULTS_TEXT         CODE
 02EB0H 0386FH 009C0H VORO_AVRAGE_TEXT       CODE
 03880H 0399FH 00120H COMMONTYPES_TEXT       CODE
 039B0H 03A25H 00076H D_COMMONTYPES_TEXT     CODE
 03A30H 03A58H 00029H V_COMMONTYPES_TEXT     CODE
 03A60H 05458H 019F9H SPECCONV_TEXT          CODE
 05460H 05B3AH 006DBH FLAGANAL_TEXT          CODE
 05B40H 05EA9H 0036AH CZAS_TEXT              CODE
 05EB0H 06F83H 010D4H V_FILES_TEXT           CODE
 06F90H 07D98H 00E09H D_FILES_TEXT           CODE
 07DA0H 07F94H 001F5H MMA_COUT_TEXT          CODE
 07FA0H 08400H 00461H D_RESULTS_TEXT         CODE
 08410H 08E42H 00A33H ZOOMINTERFACE_TEXT     CODE
 08E50H 091BEH 0036FH PRINTSCREEN_TEXT       CODE
 091C0H 0C5C8H 03409H D_REPORT_TEXT          CODE
 0C5D0H 0C7B6H 001E7H GRAFTYPES_TEXT         CODE
 0C7C0H 0DEA3H 016E4H HILEVGRAF_TEXT         CODE
 0DEB0H 0E64BH 0079CH SHORTCUTS_TEXT         CODE
 0E650H 0FB52H 01503H MMMOUSE_TEXT           CODE
 0FB60H 10876H 00D17H INPLINE_TEXT           CODE
 10880H 11657H 00DD8H BUTTONS_TEXT           CODE
 11660H 12FDCH 0197DH GLIST_TEXT             CODE
 12FE0H 1493BH 0195CH DIALOG_TEXT            CODE
 14940H 1496DH 0002EH PI_PA_TEXT             CODE
 14970H 14A58H 000E9H PI_GLOWNY_TEXT         CODE
 14A60H 1A7E5H 05D86H V_OBLOT_TEXT           CODE
 1A7F0H 1A8BCH 000CDH COMMONDATA_TEXT        CODE
 1A8C0H 1D48BH 02BCCH FILES_TEXT             CODE
 1D490H 1E039H 00BAAH V_CP_CONTROLPROC_TEXT  CODE
 1E040H 1F5EFH 015B0H POMIAR_TEXT            CODE
 1F600H 22DA6H 037A7H SCREEN_TEXT            CODE
 22DB0H 23560H 007B1H PI_ANALIZA_TEXT        CODE
 23570H 23BC4H 00655H PI_POMIAR_TEXT         CODE
 23BD0H 23CFBH 0012CH PI_ARCHDATE_TEXT       CODE
 23D00H 23D53H 00054H PI_DRUKUJ_TEXT         CODE
 23D60H 28149H 043EAH PI_REPORT_TEXT         CODE
 28150H 28746H 005F7H SOFTINTHANDLINGMANAGER_TEXT CODE
 28750H 28D08H 005B9H STORAGE_TEXT           CODE
 28D10H 299CDH 00CBEH TIMER_TEXT             CODE
 299D0H 29E78H 004A9H MESSAGES_TEXT          CODE
 29E80H 2B359H 014DAH STDIO_TEXT             CODE
 2B360H 2BA3BH 006DCH MSGBOX_TEXT            CODE
 2BA40H 2BB10H 000D1H WORSEBECAUSE_TEXT      CODE
 2BB20H 2CC41H 01122H GRAPHICS_TEXT          CODE
 2CC50H 2CD79H 0012AH XMS_TEXT               CODE
 2CD80H 2CDBEH 0003FH XMS_INIT_TEXT          CODE
 2CDC0H 2D27EH 004BFH XMSSERVICE_TEXT        CODE
 2D280H 2D4EDH 0026EH HRD_CLOCK_TEXT         CODE
 2D4F0H 2DF35H 00A46H FIO_TEXT               CODE
 2DF40H 2EBA1H 00C62H V_ODB_TEXT             CODE
 2EBB0H 2EE58H 002A9H SCANNERI_TEXT          CODE
 2EE60H 2FEF5H 01096H THEODOLITREAD_TEXT     CODE
 2FF00H 305B3H 006B4H GPSREAD_TEXT           CODE
 305C0H 31333H 00D74H DGHINI_TEXT            CODE
 31340H 31E58H 00B19H D_ODB_TEXT             CODE
 31E60H 345F6H 02797H ZOOM_TEXT              CODE
 34600H 34820H 00221H GRAFUTIL_TEXT          CODE
 34830H 353AFH 00B80H PI_ZOOMSPECIFIC_TEXT   CODE
 353C0H 3588BH 004CCH RAP_UTIL_TEXT          CODE
 35890H 37310H 01A81H PRINT_TEXT             CODE
 37320H 38782H 01463H DRAWEPSON_TEXT         CODE
 38790H 38BCBH 0043CH PI_DMENAGLOWEK_TEXT    CODE
 38BD0H 3961AH 00A4BH EVENTSMNG_TEXT         CODE
 39620H 3A7F8H 011D9H INI_TEXT               CODE
 3A800H 3AC9AH 0049BH PRINTUTL_TEXT          CODE
 3ACA0H 3B0F3H 00454H SEMAFORY_TEXT          CODE
 3B100H 3C325H 01226H POLOZENIE_TEXT         CODE
 3C330H 3CEC8H 00B99H V_DATABASE_TEXT        CODE
 3CED0H 3DA20H 00B51H MAPA_TEXT              CODE
 3DA30H 3E54FH 00B20H REALCONVERSIONS_TEXT   CODE
 3E560H 3F1A9H 00C4AH TUNE_TEXT              CODE
 3F1B0H 40E25H 01C76H OBLOTY_TEXT            CODE
 40E30H 40F5EH 0012FH SWITCHCNTRL_TEXT       CODE
 40F60H 43D75H 02E16H KALIBRACJA_TEXT        CODE
 43D80H 44B0CH 00D8DH COCPDSP_TEXT           CODE
 44B10H 46D7EH 0226FH DATACOLLECT_TEXT       CODE
 46D80H 494E2H 02763H WYKRES_TEXT            CODE
 494F0H 4984AH 0035BH XMSTABLE_TEXT          CODE
 49850H 4A17FH 00930H PI_SCRUTILITY_TEXT     CODE
 4A190H 4A876H 006E7H SLUPEK_TEXT            CODE
 4A880H 4AA1EH 0019FH SCREENCTYPES_TEXT      CODE
 4AA20H 4B99AH 00F7BH V_DISRESULTS_TEXT      CODE
 4B9A0H 4BD29H 0038AH DISRESUTILITIES_TEXT   CODE
 4BD30H 4C2C2H 00593H D_DISRESULTS_TEXT      CODE
 4C2D0H 4D503H 01234H PISZEVENTY_TEXT        CODE
 4D510H 4FBC2H 026B3H V_COUNT_TEXT           CODE
 4FBD0H 50302H 00733H D_COUNT_TEXT           CODE
 50310H 50992H 00683H D_DACQUIZITION_TEXT    CODE
 509A0H 510E5H 00746H V_DACQUIZITION_TEXT    CODE
 510F0H 513FFH 00310H ALTINTERFACE_TEXT      CODE
 51410H 528CEH 014BFH DMEPRINT_TEXT          CODE
 528D0H 545DEH 01D0FH VORPRINT_TEXT          CODE
 545E0H 54F17H 00938H MARKS_TEXT             CODE
 54F20H 556A6H 00787H FILTR1ST_TEXT          CODE
 556B0H 55F54H 008A5H DGH_UTILS_TEXT         CODE
 55F60H 56370H 00411H RANDOM_TEXT            CODE
 56380H 5669CH 0031DH DIGIRS_TEXT            CODE
 566A0H 56888H 001E9H MATH_TEXT              CODE
 56890H 57A8DH 011FEH GPS_NOV_TEXT           CODE
 57A90H 58388H 008F9H GPS_TRIMBLE_TEXT       CODE
 58390H 59409H 0107AH DGHINTERFACE_TEXT      CODE
 59410H 594FEH 000EFH INT_DME_TEXT           CODE
 59500H 5A2D5H 00DD6H GEOARITHMETIC_TEXT     CODE
 5A2E0H 5A7DFH 00500H KL_FGENERATORS_TEXT    CODE
 5A7F0H 5AF38H 00749H V_SLUPEK_TEXT          CODE
 5AF40H 5B6CBH 0078CH D_SLUPEK_TEXT          CODE
 5B6D0H 5C19EH 00ACFH VORR_AVERAGE_TEXT      CODE
 5C1A0H 5C80EH 0066FH SIMSCANNER_TEXT        CODE
 5C810H 5D0F0H 008E1H PRINTCNTROLL_TEXT      CODE
 5D100H 5D451H 00352H NAVINTERFACE_TEXT      CODE
 5D460H 5DDCFH 00970H ARINC_TEXT             CODE
 5DDE0H 5DE3DH 0005EH RTS87_TEXT             CODE
 5DE40H 5DE99H 0005AH RTS87_INIT_TEXT        CODE
 5DEA0H 5DF66H 000C7H RTSError_TEXT          CODE
 5DF70H 5DF9EH 0002FH RTSError_INIT_TEXT     CODE
 5DFA0H 5E710H 00771H RTSMain_TEXT           CODE
 5E720H 5E7D2H 000B3H RTSLanguage_TEXT       CODE
 5E7E0H 5E7E0H 00001H RTSLanguage_INIT_TEXT  CODE
 5E7F0H 5E930H 00141H RTSDevice_TEXT         CODE
 5E940H 5E940H 00001H RTSDevice_INIT_TEXT    CODE
 5E950H 5E9FEH 000AFH RTSPriority_TEXT       CODE
 5EA00H 5EA00H 00001H RTSPriority_INIT_TEXT  CODE
 5EA10H 5EBB7H 001A8H RTSCoroutine_TEXT      CODE
 5EBC0H 5EBC0H 00001H RTSCoroutine_INIT_TEXT CODE
 5EBD0H 5EE18H 00249H RTSInterrupt_TEXT      CODE
 5EE20H 5EE6CH 0004DH RTSInterrupt_INIT_TEXT CODE
 5EE70H 5EE79H 0000AH RTSRealError_TEXT      CODE
 5EE80H 5EE80H 00001H RTSRealError_INIT_TEXT CODE
 5EE90H 5F193H 00304H Strings_TEXT           CODE
 5F1A0H 5F3A3H 00204H DynMem_TEXT            CODE
 5F3B0H 5F795H 003E6H TERMBASE_TEXT          CODE
 5F7A0H 5F8A7H 00108H BlockOps_TEXT          CODE
 5F8B0H 5FEEBH 0063CH NUMBERCONVERSION_TEXT  CODE
 5FEF0H 5FF14H 00025H ASCII_TEXT             CODE
 5FF20H 60028H 00109H BitByteOps_TEXT        CODE
 60030H 60091H 00062H SOUNDS_TEXT            CODE
 600A0H 6015AH 000BBH DEVICES_TEXT           CODE
 60160H 6043EH 002DFH Longs_TEXT             CODE
 60440H 606F8H 002B9H DOSMEMORY_TEXT         CODE
 60700H 609B1H 002B2H MOUSE_TEXT             CODE
 609C0H 60B27H 00168H KEYBOARD_TEXT          CODE
 60B30H 60CF6H 001C7H TERMINAL_TEXT          CODE
 60D00H 6118CH 0048DH DebugPMD_TEXT          CODE
 61190H 61228H 00099H DebugPMD_INIT_TEXT     CODE
 61230H 612CCH 0009DH DISPLAY_TEXT           CODE
 612D0H 61993H 006C4H MathLib0_TEXT          CODE
 619A0H 61D69H 003CAH MODULE_TABLE_DATA      FAR_DATA
 61D70H 61E72H 00103H INIT_FLAG_DATA         FAR_DATA
 61E80H 6205DH 001DEH RTSMain_DATA           FAR_DATA
 62060H 62065H 00006H RTS87_DATA             FAR_DATA
 62070H 62073H 00004H RTSCoroutine_DATA      FAR_DATA
 62080H 62721H 006A2H DebugPMD_DATA          FAR_DATA
 62730H 62730H 00000H MathLib0_DATA          FAR_DATA
 62740H 6274FH 00010H AV_DATA                FAR_BSS
 62760H 6279CH 0003DH FCBS_DATA              FAR_BSS
 627A0H 62827H 00088H DOSENTRY_DATA          FAR_BSS
 62830H 62A4DH 0021EH MANAGER_DATA           FAR_BSS
 62A50H 62A50H 00000H ERRORMESS_DATA         FAR_BSS
 62A60H 63010H 005B1H V_RESULTS_DATA         FAR_BSS
 63020H 63020H 00000H VORO_AVRAGE_DATA       FAR_BSS
 63030H 63030H 00000H COMMONTYPES_DATA       FAR_BSS
 63040H 63040H 00000H D_COMMONTYPES_DATA     FAR_BSS
 63050H 63050H 00001H V_COMMONTYPES_DATA     FAR_BSS
 63060H 63060H 00000H SPECCONV_DATA          FAR_BSS
 63070H 63070H 00000H FLAGANAL_DATA          FAR_BSS
 63080H 63093H 00014H CZAS_DATA              FAR_BSS
 630A0H 631A3H 00104H V_FILES_DATA           FAR_BSS
 631B0H 63253H 000A4H D_FILES_DATA           FAR_BSS
 63260H 63260H 00000H MMA_COUT_DATA          FAR_BSS
 63270H 65121H 01EB2H D_RESULTS_DATA         FAR_BSS
 65130H 6515FH 00030H ZOOMINTERFACE_DATA     FAR_BSS
 65170H 65170H 00000H PRINTSCREEN_DATA       FAR_BSS
 65180H 653C0H 00241H D_REPORT_DATA          FAR_BSS
 653D0H 653D0H 00000H GRAFTYPES_DATA         FAR_BSS
 653E0H 6543CH 0005DH HILEVGRAF_DATA         FAR_BSS
 65440H 6544DH 0000EH SHORTCUTS_DATA         FAR_BSS
 65450H 65850H 00401H MMMOUSE_DATA           FAR_BSS
 65860H 65863H 00004H INPLINE_DATA           FAR_BSS
 65870H 65878H 00009H BUTTONS_DATA           FAR_BSS
 65880H 65887H 00008H GLIST_DATA             FAR_BSS
 65890H 65897H 00008H DIALOG_DATA            FAR_BSS
 658A0H 658A0H 00001H PI_PA_DATA             FAR_BSS
 658B0H 658B0H 00000H PI_GLOWNY_DATA         FAR_BSS
 658C0H 6595FH 000A0H V_OBLOT_DATA           FAR_BSS
 65970H 65AC5H 00156H COMMONDATA_DATA        FAR_BSS
 65AD0H 65CE8H 00219H FILES_DATA             FAR_BSS
 65CF0H 65E85H 00196H V_CP_CONTROLPROC_DATA  FAR_BSS
 65E90H 65F24H 00095H POMIAR_DATA            FAR_BSS
 65F30H 6605CH 0012DH SCREEN_DATA            FAR_BSS
 66060H 66080H 00021H PI_ANALIZA_DATA        FAR_BSS
 66090H 66090H 00000H PI_POMIAR_DATA         FAR_BSS
 660A0H 660A0H 00000H PI_ARCHDATE_DATA       FAR_BSS
 660B0H 660B0H 00000H PI_DRUKUJ_DATA         FAR_BSS
 660C0H 674D2H 01413H PI_REPORT_DATA         FAR_BSS
 674E0H 674E4H 00005H SOFTINTHANDLINGMANAGER_DATA FAR_BSS
 674F0H 67516H 00027H STORAGE_DATA           FAR_BSS
 67520H 67533H 00014H TIMER_DATA             FAR_BSS
 67540H 6754DH 0000EH MESSAGES_DATA          FAR_BSS
 67550H 67550H 00000H STDIO_DATA             FAR_BSS
 67560H 67575H 00016H MSGBOX_DATA            FAR_BSS
 67580H 67580H 00000H WORSEBECAUSE_DATA      FAR_BSS
 67590H 676BFH 00130H GRAPHICS_DATA          FAR_BSS
 676D0H 676D3H 00004H XMS_DATA               FAR_BSS
 676E0H 676E3H 00004H XMSSERVICE_DATA        FAR_BSS
 676F0H 676F0H 00000H HRD_CLOCK_DATA         FAR_BSS
 67700H 68311H 00C12H FIO_DATA               FAR_BSS
 68320H 6836AH 0004BH V_ODB_DATA             FAR_BSS
 68370H 683C6H 00057H SCANNERI_DATA          FAR_BSS
 683D0H 68426H 00057H THEODOLITREAD_DATA     FAR_BSS
 68430H 68451H 00022H GPSREAD_DATA           FAR_BSS
 68460H 693EDH 00F8EH DGHINI_DATA            FAR_BSS
 693F0H 6942AH 0003BH D_ODB_DATA             FAR_BSS
 69430H 69986H 00557H ZOOM_DATA              FAR_BSS
 69990H 699FFH 00070H GRAFUTIL_DATA          FAR_BSS
 69A10H 6A20CH 007FDH PI_ZOOMSPECIFIC_DATA   FAR_BSS
 6A210H 6A21AH 0000BH RAP_UTIL_DATA          FAR_BSS
 6A220H 6A331H 00112H PRINT_DATA             FAR_BSS
 6A340H 6AAE8H 007A9H DRAWEPSON_DATA         FAR_BSS
 6AAF0H 6AAF0H 00000H PI_DMENAGLOWEK_DATA    FAR_BSS
 6AB00H 6B64FH 00B50H EVENTSMNG_DATA         FAR_BSS
 6B660H 70743H 050E4H INI_DATA               FAR_BSS
 70750H 70753H 00004H PRINTUTL_DATA          FAR_BSS
 70760H 707B3H 00054H SEMAFORY_DATA          FAR_BSS
 707C0H 709F4H 00235H POLOZENIE_DATA         FAR_BSS
 70A00H 70BDCH 001DDH V_DATABASE_DATA        FAR_BSS
 70BE0H 70C43H 00064H MAPA_DATA              FAR_BSS
 70C50H 70C50H 00000H REALCONVERSIONS_DATA   FAR_BSS
 70C60H 70D05H 000A6H TUNE_DATA              FAR_BSS
 70D10H 70F6EH 0025FH OBLOTY_DATA            FAR_BSS
 70F70H 70F7DH 0000EH SWITCHCNTRL_DATA       FAR_BSS
 70F80H 72380H 01401H KALIBRACJA_DATA        FAR_BSS
 72390H 723B7H 00028H COCPDSP_DATA           FAR_BSS
 723C0H 8056DH 0E1AEH DATACOLLECT_DATA       FAR_BSS
 80570H 80570H 00000H WYKRES_DATA            FAR_BSS
 80580H 80580H 00000H XMSTABLE_DATA          FAR_BSS
 80590H 8059CH 0000DH PI_SCRUTILITY_DATA     FAR_BSS
 805A0H 805A0H 00000H SLUPEK_DATA            FAR_BSS
 805B0H 80603H 00054H SCREENCTYPES_DATA      FAR_BSS
 80610H 8061BH 0000CH V_DISRESULTS_DATA      FAR_BSS
 80620H 80620H 00000H DISRESUTILITIES_DATA   FAR_BSS
 80630H 80630H 00000H D_DISRESULTS_DATA      FAR_BSS
 80640H 80645H 00006H PISZEVENTY_DATA        FAR_BSS
 80650H 83EEFH 038A0H V_COUNT_DATA           FAR_BSS
 83F00H 83F00H 00000H D_COUNT_DATA           FAR_BSS
 83F10H 83F1DH 0000EH D_DACQUIZITION_DATA    FAR_BSS
 83F20H 83F33H 00014H V_DACQUIZITION_DATA    FAR_BSS
 83F40H 83F87H 00048H ALTINTERFACE_DATA      FAR_BSS
 83F90H 83F90H 00000H DMEPRINT_DATA          FAR_BSS
 83FA0H 8402FH 00090H VORPRINT_DATA          FAR_BSS
 84040H 84040H 00000H MARKS_DATA             FAR_BSS
 84050H 84057H 00008H FILTR1ST_DATA          FAR_BSS
 84060H 84095H 00036H DGH_UTILS_DATA         FAR_BSS
 840A0H 84111H 00072H RANDOM_DATA            FAR_BSS
 84120H 84121H 00002H DIGIRS_DATA            FAR_BSS
 84130H 84130H 00000H MATH_DATA              FAR_BSS
 84140H 841C3H 00084H GPS_NOV_DATA           FAR_BSS
 841D0H 84241H 00072H GPS_TRIMBLE_DATA       FAR_BSS
 84250H 84267H 00018H DGHINTERFACE_DATA      FAR_BSS
 84270H 84270H 00000H INT_DME_DATA           FAR_BSS
 84280H 842A1H 00022H GEOARITHMETIC_DATA     FAR_BSS
 842B0H 842B0H 00000H KL_FGENERATORS_DATA    FAR_BSS
 842C0H 842DFH 00020H V_SLUPEK_DATA          FAR_BSS
 842F0H 8430FH 00020H D_SLUPEK_DATA          FAR_BSS
 84320H 84320H 00000H VORR_AVERAGE_DATA      FAR_BSS
 84330H 84333H 00004H SIMSCANNER_DATA        FAR_BSS
 84340H 84354H 00015H PRINTCNTROLL_DATA      FAR_BSS
 84360H 84366H 00007H NAVINTERFACE_DATA      FAR_BSS
 84370H 84373H 00004H ARINC_DATA             FAR_BSS
 84380H 84412H 00093H TERMBASE_DATA          FAR_BSS
 84420H 84420H 00000H NUMBERCONVERSION_DATA  FAR_BSS
 84430H 84430H 00000H ASCII_DATA             FAR_BSS
 84440H 84440H 00000H SOUNDS_DATA            FAR_BSS
 84450H 84450H 00000H DEVICES_DATA           FAR_BSS
 84460H 84460H 00000H DOSMEMORY_DATA         FAR_BSS
 84470H 8447EH 0000FH MOUSE_DATA             FAR_BSS
 84480H 84507H 00088H KEYBOARD_DATA          FAR_BSS
 84510H 84511H 00002H TERMINAL_DATA          FAR_BSS
 84520H 84520H 00000H DISPLAY_DATA           FAR_BSS
 84530H 87FC7H 03A98H STACK                  STACK
 87FD0H 87FD0H 00000H FREE                   FREE_BSS

 Origin   Group
 6274:0   DGROUP

  Address         Publics by Name

 8437:0000       $BD__ARINC
 6274:0000       $BD__AV
 83F4:0000       $BD__AltInterface
 6587:0000       $BD__Buttons
 7239:0000       $BD__CocpDsp
 6597:0000       $BD__CommonData
 6303:0000       $BD__CommonTypes
 6308:0000       $BD__Czas
 6846:0000       $BD__DGHIni
 8425:0000       $BD__DGHInterface
 8406:0000       $BD__DGH_utils
 83F9:0000       $BD__DMEPrint
 627A:0000       $BD__DOSEntry
 6304:0000       $BD__D_CommonTypes
 83F0:0000       $BD__D_Count
 83F1:0000       $BD__D_DAcquizition
 8063:0000       $BD__D_DisResults
 631B:0000       $BD__D_Files
 693F:0000       $BD__D_Odb
 6518:0000       $BD__D_Report
 842F:0000       $BD__D_Slupek
 6327:0000       $BD__D_results
 723C:0000       $BD__DataCollect
 6589:0000       $BD__Dialog
 8412:0000       $BD__DigiRS
 8062:0000       $BD__DisResUtilities
 6A34:0000       $BD__DrawEpson
 62A5:0000       $BD__ErrorMess
 6AB0:0000       $BD__EventsMng
 6276:0000       $BD__FCBS
 6770:0000       $BD__FIO
 8405:0000       $BD__FIltr1St
 65AD:0000       $BD__Files
 6307:0000       $BD__FlagAnal
 6588:0000       $BD__GList
 6843:0000       $BD__GPSRead
 841D:0000       $BD__GPS_TRIMBLE
 8414:0000       $BD__GPS_nov
 8428:0000       $BD__GeoArithmetic
 653D:0000       $BD__GrafTypes
 6999:0000       $BD__GrafUtil
 6759:0000       $BD__Graphics
 676F:0000       $BD__HRD_Clock
 653E:0000       $BD__HiLevGraf
 6B66:0000       $BD__Ini
 6586:0000       $BD__InpLine
 8427:0000       $BD__Int_DME
 70F8:0000       $BD__Kalibracja
 842B:0000       $BD__Kl_FGenerators
 6283:0000       $BD__MANAGER
 6326:0000       $BD__MMA_Cout
 6545:0000       $BD__MMMouse
 70BE:0000       $BD__Mapa
 8404:0000       $BD__Marks
 8413:0000       $BD__Math
 6754:0000       $BD__Messages
 6756:0000       $BD__MsgBox
 8436:0000       $BD__NAVInterface
 70D1:0000       $BD__Obloty
 6606:0000       $BD__PI_Analiza
 660A:0000       $BD__PI_ArchDate
 6AAF:0000       $BD__PI_DMEnaglowek
 660B:0000       $BD__PI_Drukuj
 658B:0000       $BD__PI_Glowny
 658A:0000       $BD__PI_PA
 6609:0000       $BD__PI_Pomiar
 660C:0000       $BD__PI_Report
 8059:0000       $BD__PI_ScrUtility
 69A1:0000       $BD__PI_ZoomSpecific
 8064:0000       $BD__PiszEventy
 707C:0000       $BD__Polozenie
 65E9:0000       $BD__Pomiar
 6A22:0000       $BD__Print
 8434:0000       $BD__PrintCntroll
 6517:0000       $BD__PrintScreen
 7075:0000       $BD__PrintUtl
 6207:0000       $BD__RTSCoroutine
 61E8:0000       $BD__RTSMain
 840A:0000       $BD__Random
 6A21:0000       $BD__Rap_Util
 70C5:0000       $BD__RealConversions
 6837:0000       $BD__ScannerI
 65F3:0000       $BD__Screen
 805B:0000       $BD__ScreenCTypes
 7076:0000       $BD__Semafory
 6544:0000       $BD__ShortCuts
 8433:0000       $BD__SimScanner
 805A:0000       $BD__Slupek
 674E:0000       $BD__SoftIntHandlingManager
 6306:0000       $BD__SpecConv
 6755:0000       $BD__StdIO
 674F:0000       $BD__Storage
 70F7:0000       $BD__SwitchCntrl
 683D:0000       $BD__TheodolitRead
 6752:0000       $BD__Timer
 70C6:0000       $BD__Tune
 6302:0000       $BD__VORO_avrage
 83FA:0000       $BD__VORPrint
 8432:0000       $BD__VORR_Average
 65CF:0000       $BD__V_CP_ControlProc
 6305:0000       $BD__V_CommonTypes
 8065:0000       $BD__V_Count
 83F2:0000       $BD__V_DAcquizition
 70A0:0000       $BD__V_Database
 8061:0000       $BD__V_DisResults
 630A:0000       $BD__V_Files
 658C:0000       $BD__V_Oblot
 6832:0000       $BD__V_Odb
 842C:0000       $BD__V_Slupek
 62A6:0000       $BD__V_results
 6758:0000       $BD__WorseBecause
 8057:0000       $BD__Wykres
 676D:0000       $BD__XMS
 676E:0000       $BD__XMSService
 8058:0000       $BD__XMSTable
 6943:0000       $BD__Zoom
 6513:0000       $BD__ZoomInterface
 5D46:0000       $BM__ARINC
 0001:0000       $BM__AV
 510F:0000       $BM__AltInterface
 5FF2:0000       $BM__BitByteOps
 5F7A:0000       $BM__BlockOps
 1088:0000       $BM__Buttons
 43D8:0000       $BM__CocpDsp
 1A7F:0000       $BM__CommonData
 0388:0000       $BM__CommonTypes
 05B4:0000       $BM__Czas
 305C:0000       $BM__DGHIni
 5839:0000       $BM__DGHInterface
 556B:0000       $BM__DGH_utils
 5141:0000       $BM__DMEPrint
 0082:0000       $BM__DOSEntry
 039B:0000       $BM__D_CommonTypes
 4FBD:0000       $BM__D_Count
 5031:0000       $BM__D_DAcquizition
 4BD3:0000       $BM__D_DisResults
 06F9:0000       $BM__D_Files
 3134:0000       $BM__D_Odb
 091C:0000       $BM__D_Report
 5AF4:0000       $BM__D_Slupek
 07FA:0000       $BM__D_results
 44B1:0000       $BM__DataCollect
 12FE:0000       $BM__Dialog
 5638:0000       $BM__DigiRS
 4B9A:0000       $BM__DisResUtilities
 3732:0000       $BM__DrawEpson
 5F1A:0000       $BM__DynMem
 027B:0000       $BM__ErrorMess
 38BD:0000       $BM__EventsMng
 007A:0000       $BM__FCBS
 2D4F:0000       $BM__FIO
 54F2:0000       $BM__FIltr1St
 1A8C:0000       $BM__Files
 0546:0000       $BM__FlagAnal
 1166:0000       $BM__GList
 2FF0:0000       $BM__GPSRead
 57A9:0000       $BM__GPS_TRIMBLE
 5689:0000       $BM__GPS_nov
 5950:0000       $BM__GeoArithmetic
 0C5D:0000       $BM__GrafTypes
 3460:0000       $BM__GrafUtil
 2BB2:0000       $BM__Graphics
 2D28:0000       $BM__HRD_Clock
 0C7C:0000       $BM__HiLevGraf
 3962:0000       $BM__Ini
 0FB6:0000       $BM__InpLine
 5941:0000       $BM__Int_DME
 40F6:0000       $BM__Kalibracja
 5A2E:0000       $BM__Kl_FGenerators
 009A:0000       $BM__MANAGER
 07DA:0000       $BM__MMA_Cout
 0E65:0000       $BM__MMMouse
 3CED:0000       $BM__Mapa
 545E:0000       $BM__Marks
 566A:0000       $BM__Math
 612D:0000       $BM__MathLib0
 299D:0000       $BM__Messages
 2B36:0000       $BM__MsgBox
 5D10:0000       $BM__NAVInterface
 3F1B:0000       $BM__Obloty
 22DB:0000       $BM__PI_Analiza
 23BD:0000       $BM__PI_ArchDate
 3879:0000       $BM__PI_DMEnaglowek
 23D0:0000       $BM__PI_Drukuj
 1497:0000       $BM__PI_Glowny
 1494:0000       $BM__PI_PA
 2357:0000       $BM__PI_Pomiar
 23D6:0000       $BM__PI_Report
 4985:0000       $BM__PI_ScrUtility
 3483:0000       $BM__PI_ZoomSpecific
 4C2D:0000       $BM__PiszEventy
 3B10:0000       $BM__Polozenie
 1E04:0000       $BM__Pomiar
 3589:0000       $BM__Print
 5C81:0000       $BM__PrintCntroll
 08E5:0000       $BM__PrintScreen
 3A80:0000       $BM__PrintUtl
 5EA1:0000       $BM__RTSCoroutine
 5E7F:0000       $BM__RTSDevice
 5DFA:0000       $BM__RTSMain
 55F6:0000       $BM__Random
 353C:0000       $BM__Rap_Util
 3DA3:0000       $BM__RealConversions
 2EBB:0000       $BM__ScannerI
 1F60:0000       $BM__Screen
 4A88:0000       $BM__ScreenCTypes
 3ACA:0000       $BM__Semafory
 0DEB:0000       $BM__ShortCuts
 5C1A:0000       $BM__SimScanner
 4A19:0000       $BM__Slupek
 2815:0000       $BM__SoftIntHandlingManager
 03A6:0000       $BM__SpecConv
 29E8:0000       $BM__StdIO
 2875:0000       $BM__Storage
 40E3:0000       $BM__SwitchCntrl
 2EE6:0000       $BM__TheodolitRead
 28D1:0000       $BM__Timer
 3E56:0000       $BM__Tune
 02EB:0000       $BM__VORO_avrage
 528D:0000       $BM__VORPrint
 5B6D:0000       $BM__VORR_Average
 1D49:0000       $BM__V_CP_ControlProc
 03A3:0000       $BM__V_CommonTypes
 4D51:0000       $BM__V_Count
 509A:0000       $BM__V_DAcquizition
 3C33:0000       $BM__V_Database
 4AA2:0000       $BM__V_DisResults
 05EB:0000       $BM__V_Files
 14A6:0000       $BM__V_Oblot
 2DF4:0000       $BM__V_Odb
 5A7F:0000       $BM__V_Slupek
 0290:0000       $BM__V_results
 2BA4:0000       $BM__WorseBecause
 46D8:0000       $BM__Wykres
 2CC5:0000       $BM__XMS
 2CDC:0000       $BM__XMSService
 494F:0000       $BM__XMSTable
 31E6:0000       $BM__Zoom
 0841:0000       $BM__ZoomInterface
 5D46:093D       $BODY__ARINC
 0001:003D       $BODY__AV
 510F:0214       $BODY__AltInterface
 0E65:0B15       $BODY__BezPrzerwanOdMyszy__MMMo
 1088:0D61       $BODY__Buttons
 43D8:0C4D       $BODY__CocpDsp
 1A7F:0012       $BODY__CommonData
 0388:00F4       $BODY__CommonTypes
 05B4:02E0       $BODY__Czas
 305C:0D08       $BODY__DGHIni
 5839:0F7B       $BODY__DGHInterface
 556B:0734       $BODY__DGH_utils
 5141:1425       $BODY__DMEPrint
 0082:00C2       $BODY__DOSEntry
 039B:004A       $BODY__D_CommonTypes
 4FBD:06CB       $BODY__D_Count
 5031:05C2       $BODY__D_DAcquizition
 4BD3:053A       $BODY__D_DisResults
 06F9:0D80       $BODY__D_Files
 3134:0A98       $BODY__D_Odb
 091C:3316       $BODY__D_Report
 5AF4:071D       $BODY__D_Slupek
 07FA:038B       $BODY__D_results
 44B1:21DF       $BODY__DataCollect
 12FE:18C2       $BODY__Dialog
 5638:02D4       $BODY__DigiRS
 4B9A:0340       $BODY__DisResUtilities
 3732:138C       $BODY__DrawEpson
 40F6:09DC       $BODY__ErrorHand__Kalibracja
 027B:00E1       $BODY__ErrorMess
 38BD:09B8       $BODY__EventsMng
 007A:0037       $BODY__FCBS
 2D4F:09F0       $BODY__FIO
 54F2:0737       $BODY__FIltr1St
 1A8C:2B3D       $BODY__Files
 0546:06A0       $BODY__FlagAnal
 1166:18FD       $BODY__GList
 2FF0:05FA       $BODY__GPSRead
 57A9:084A       $BODY__GPS_TRIMBLE
 5689:10EC       $BODY__GPS_nov
 5950:0D90       $BODY__GeoArithmetic
 0C5D:01C5       $BODY__GrafTypes
 3460:017A       $BODY__GrafUtil
 2BB2:10C2       $BODY__Graphics
 2D28:0242       $BODY__HRD_Clock
 0C7C:1630       $BODY__HiLevGraf
 3962:1139       $BODY__Ini
 0FB6:0C9E       $BODY__InpLine
 5941:00C8       $BODY__Int_DME
 40F6:2C81       $BODY__Kalibracja
 5A2E:04D9       $BODY__Kl_FGenerators
 009A:1B1A       $BODY__MANAGER
 07DA:01BF       $BODY__MMA_Cout
 0E65:134F       $BODY__MMMouse
 1088:041B       $BODY__MONITOR__Buttons
 3CED:0A4F       $BODY__Mapa
 545E:08FD       $BODY__Marks
 566A:01BD       $BODY__Math
 299D:0411       $BODY__Messages
 5031:011B       $BODY__Monitor__D_DAcquizition
 2815:0590       $BODY__Monitor__SoftIntHandling
 28D1:08D4       $BODY__Monitor__Timer
 509A:0133       $BODY__Monitor__V_DAcquizition
 22DB:04A9       $BODY__MouseMonitor__PI_Analiza
 2B36:0680       $BODY__MsgBox
 5D10:02F2       $BODY__NAVInterface
 3F1B:1B9E       $BODY__Obloty
 22DB:072D       $BODY__PI_Analiza
 23BD:00C4       $BODY__PI_ArchDate
 3879:03C5       $BODY__PI_DMEnaglowek
 23D0:0028       $BODY__PI_Drukuj
 1497:00A4       $BODY__PI_Glowny
 1494:0002       $BODY__PI_PA
 2357:05C5       $BODY__PI_Pomiar
 23D6:42DE       $BODY__PI_Report
 4985:08E1       $BODY__PI_ScrUtility
 3483:0B04       $BODY__PI_ZoomSpecific
 4C2D:1199       $BODY__PiszEventy
 3B10:1164       $BODY__Polozenie
 1E04:14E0       $BODY__Pomiar
 3589:19A5       $BODY__Print
 5C81:085B       $BODY__PrintCntroll
 08E5:031D       $BODY__PrintScreen
 3A80:0422       $BODY__PrintUtl
 5DFA:0743       $BODY__RTSMain
 55F6:03DC       $BODY__Random
 353C:045A       $BODY__Rap_Util
 3DA3:0AF9       $BODY__RealConversions
 2EBB:014C       $BODY__ScannerI
 009A:1357       $BODY__Scheduler__MANAGER
 1F60:36D9       $BODY__Screen
 4A88:016B       $BODY__ScreenCTypes
 3ACA:041D       $BODY__Semafory
 0DEB:070A       $BODY__ShortCuts
 5C1A:0602       $BODY__SimScanner
 4A19:06A7       $BODY__Slupek
 2815:05BE       $BODY__SoftIntHandlingManager
 03A6:19B9       $BODY__SpecConv
 29E8:149F       $BODY__StdIO
 2875:0544       $BODY__Storage
 40E3:00D4       $BODY__SwitchCntrl
 2EE6:0EE0       $BODY__TheodolitRead
 28D1:0C72       $BODY__Timer
 3E56:0A08       $BODY__Tune
 02EB:0985       $BODY__VORO_avrage
 528D:1C65       $BODY__VORPrint
 5B6D:0A94       $BODY__VORR_Average
 1D49:0AF3       $BODY__V_CP_ControlProc
 03A3:0002       $BODY__V_CommonTypes
 4D51:2637       $BODY__V_Count
 509A:0671       $BODY__V_DAcquizition
 3C33:0AF8       $BODY__V_Database
 4AA2:0EE2       $BODY__V_DisResults
 05EB:1046       $BODY__V_Files
 14A6:5BF7       $BODY__V_Oblot
 2DF4:0BCA       $BODY__V_Odb
 5A7F:06DF       $BODY__V_Slupek
 0290:04D3       $BODY__V_results
 2BA4:00A5       $BODY__WorseBecause
 46D8:270A       $BODY__Wykres
 2CDC:0450       $BODY__XMSService
 494F:0325       $BODY__XMSTable
 31E6:26F2       $BODY__Zoom
 0841:098F       $BODY__ZoomInterface
 3CED:09BA       $BODY__monitor__Mapa
 0DEB:0532       $BODY__monitor__ShortCuts
 619A:0000       $DD
 8437:0004       $ED__ARINC
 6274:0010       $ED__AV
 83F4:0048       $ED__AltInterface
 6587:0009       $ED__Buttons
 7239:0028       $ED__CocpDsp
 6597:0156       $ED__CommonData
 6303:0000       $ED__CommonTypes
 6308:0014       $ED__Czas
 6846:0F8E       $ED__DGHIni
 8425:0018       $ED__DGHInterface
 8406:0036       $ED__DGH_utils
 83F9:0000       $ED__DMEPrint
 627A:0088       $ED__DOSEntry
 6304:0000       $ED__D_CommonTypes
 83F0:0000       $ED__D_Count
 83F1:000E       $ED__D_DAcquizition
 8063:0000       $ED__D_DisResults
 631B:00A4       $ED__D_Files
 693F:003B       $ED__D_Odb
 6518:0241       $ED__D_Report
 842F:0020       $ED__D_Slupek
 6327:1EB2       $ED__D_results
 723C:E1AE       $ED__DataCollect
 6589:0008       $ED__Dialog
 8412:0002       $ED__DigiRS
 8062:0000       $ED__DisResUtilities
 6A34:07A9       $ED__DrawEpson
 62A5:0000       $ED__ErrorMess
 6AB0:0B50       $ED__EventsMng
 6276:003D       $ED__FCBS
 6770:0C12       $ED__FIO
 8405:0008       $ED__FIltr1St
 65AD:0219       $ED__Files
 6307:0000       $ED__FlagAnal
 6588:0008       $ED__GList
 6843:0022       $ED__GPSRead
 841D:0072       $ED__GPS_TRIMBLE
 8414:0084       $ED__GPS_nov
 8428:0022       $ED__GeoArithmetic
 653D:0000       $ED__GrafTypes
 6999:0070       $ED__GrafUtil
 6759:0130       $ED__Graphics
 676F:0000       $ED__HRD_Clock
 653E:005D       $ED__HiLevGraf
 6B66:50E4       $ED__Ini
 6586:0004       $ED__InpLine
 8427:0000       $ED__Int_DME
 70F8:1401       $ED__Kalibracja
 842B:0000       $ED__Kl_FGenerators
 6283:021E       $ED__MANAGER
 6326:0000       $ED__MMA_Cout
 6545:0401       $ED__MMMouse
 70BE:0064       $ED__Mapa
 8404:0000       $ED__Marks
 8413:0000       $ED__Math
 6754:000E       $ED__Messages
 6756:0016       $ED__MsgBox
 8436:0007       $ED__NAVInterface
 70D1:025F       $ED__Obloty
 6606:0021       $ED__PI_Analiza
 660A:0000       $ED__PI_ArchDate
 6AAF:0000       $ED__PI_DMEnaglowek
 660B:0000       $ED__PI_Drukuj
 658B:0000       $ED__PI_Glowny
 658A:0001       $ED__PI_PA
 6609:0000       $ED__PI_Pomiar
 660C:1413       $ED__PI_Report
 8059:000D       $ED__PI_ScrUtility
 69A1:07FD       $ED__PI_ZoomSpecific
 8064:0006       $ED__PiszEventy
 707C:0235       $ED__Polozenie
 65E9:0095       $ED__Pomiar
 6A22:0112       $ED__Print
 8434:0015       $ED__PrintCntroll
 6517:0000       $ED__PrintScreen
 7075:0004       $ED__PrintUtl
 6207:0003       $ED__RTSCoroutine
 61E8:01DD       $ED__RTSMain
 840A:0072       $ED__Random
 6A21:000B       $ED__Rap_Util
 70C5:0000       $ED__RealConversions
 6837:0057       $ED__ScannerI
 65F3:012D       $ED__Screen
 805B:0054       $ED__ScreenCTypes
 7076:0054       $ED__Semafory
 6544:000E       $ED__ShortCuts
 8433:0004       $ED__SimScanner
 805A:0000       $ED__Slupek
 674E:0005       $ED__SoftIntHandlingManager
 6306:0000       $ED__SpecConv
 6755:0000       $ED__StdIO
 674F:0027       $ED__Storage
 70F7:000E       $ED__SwitchCntrl
 683D:0057       $ED__TheodolitRead
 6752:0014       $ED__Timer
 70C6:00A6       $ED__Tune
 6302:0000       $ED__VORO_avrage
 83FA:0090       $ED__VORPrint
 8432:0000       $ED__VORR_Average
 65CF:0196       $ED__V_CP_ControlProc
 6305:0001       $ED__V_CommonTypes
 8065:38A0       $ED__V_Count
 83F2:0014       $ED__V_DAcquizition
 70A0:01DD       $ED__V_Database
 8061:000C       $ED__V_DisResults
 630A:0104       $ED__V_Files
 658C:00A0       $ED__V_Oblot
 6832:004B       $ED__V_Odb
 842C:0020       $ED__V_Slupek
 62A6:05B1       $ED__V_results
 6758:0000       $ED__WorseBecause
 8057:0000       $ED__Wykres
 676D:0004       $ED__XMS
 676E:0004       $ED__XMSService
 8058:0000       $ED__XMSTable
 6943:0557       $ED__Zoom
 6513:0030       $ED__ZoomInterface
 5D46:096F       $EM__ARINC
 5FEF:0024       $EM__ASCII
 0001:078E       $EM__AV
 510F:030F       $EM__AltInterface
 5FF2:0109       $EM__BitByteOps
 5F7A:0108       $EM__BlockOps
 1088:0DD7       $EM__Buttons
 43D8:0D8C       $EM__CocpDsp
 1A7F:00CC       $EM__CommonData
 0388:011F       $EM__CommonTypes
 05B4:0369       $EM__Czas
 305C:0D73       $EM__DGHIni
 5839:1079       $EM__DGHInterface
 556B:08A4       $EM__DGH_utils
 5141:14BE       $EM__DMEPrint
 0082:017A       $EM__DOSEntry
 6044:02B8       $EM__DOSMemory
 039B:0075       $EM__D_CommonTypes
 4FBD:0732       $EM__D_Count
 5031:0682       $EM__D_DAcquizition
 4BD3:0592       $EM__D_DisResults
 06F9:0E08       $EM__D_Files
 3134:0B18       $EM__D_Odb
 091C:3408       $EM__D_Report
 5AF4:078B       $EM__D_Slupek
 07FA:0460       $EM__D_results
 44B1:226E       $EM__DataCollect
 600A:00BA       $EM__Devices
 12FE:195B       $EM__Dialog
 5638:031C       $EM__DigiRS
 4B9A:0389       $EM__DisResUtilities
 6123:009C       $EM__Display
 3732:1462       $EM__DrawEpson
 5F1A:0204       $EM__DynMem
 027B:0145       $EM__ErrorMess
 38BD:0A4A       $EM__EventsMng
 007A:0071       $EM__FCBS
 2D4F:0A45       $EM__FIO
 54F2:0786       $EM__FIltr1St
 1A8C:2BCB       $EM__Files
 0546:06DA       $EM__FlagAnal
 1166:197C       $EM__GList
 2FF0:06B3       $EM__GPSRead
 57A9:08F8       $EM__GPS_TRIMBLE
 5689:11FD       $EM__GPS_nov
 5950:0DD5       $EM__GeoArithmetic
 0C5D:01E6       $EM__GrafTypes
 3460:0220       $EM__GrafUtil
 2BB2:1121       $EM__Graphics
 2D28:026D       $EM__HRD_Clock
 0C7C:16E3       $EM__HiLevGraf
 3962:11D8       $EM__Ini
 0FB6:0D16       $EM__InpLine
 5941:00EE       $EM__Int_DME
 40F6:2E15       $EM__Kalibracja
 609C:0167       $EM__Keyboard
 5A2E:04FF       $EM__Kl_FGenerators
 009A:1E0C       $EM__MANAGER
 07DA:01F4       $EM__MMA_Cout
 0E65:1502       $EM__MMMouse
 3CED:0B50       $EM__Mapa
 545E:0937       $EM__Marks
 566A:01E8       $EM__Math
 612D:06C4       $EM__MathLib0
 299D:04A8       $EM__Messages
 6070:02B1       $EM__Mouse
 2B36:06DB       $EM__MsgBox
 5D10:0351       $EM__NAVInterface
 5F8B:063B       $EM__NumberConversion
 3F1B:1C75       $EM__Obloty
 22DB:07B0       $EM__PI_Analiza
 23BD:012B       $EM__PI_ArchDate
 3879:043B       $EM__PI_DMEnaglowek
 23D0:0053       $EM__PI_Drukuj
 1497:00E8       $EM__PI_Glowny
 1494:002D       $EM__PI_PA
 2357:0654       $EM__PI_Pomiar
 23D6:43E9       $EM__PI_Report
 4985:092F       $EM__PI_ScrUtility
 3483:0B7F       $EM__PI_ZoomSpecific
 4C2D:1233       $EM__PiszEventy
 3B10:1225       $EM__Polozenie
 1E04:15AF       $EM__Pomiar
 3589:1A80       $EM__Print
 5C81:08E0       $EM__PrintCntroll
 08E5:036E       $EM__PrintScreen
 3A80:049A       $EM__PrintUtl
 5EA1:01A7       $EM__RTSCoroutine
 5E7F:0140       $EM__RTSDevice
 5DFA:076F       $EM__RTSMain
 55F6:0410       $EM__Random
 353C:04CB       $EM__Rap_Util
 3DA3:0B1F       $EM__RealConversions
 2EBB:02A8       $EM__ScannerI
 1F60:37A6       $EM__Screen
 4A88:019E       $EM__ScreenCTypes
 3ACA:0453       $EM__Semafory
 0DEB:079B       $EM__ShortCuts
 5C1A:066E       $EM__SimScanner
 4A19:06E6       $EM__Slupek
 2815:05F6       $EM__SoftIntHandlingManager
 6003:0061       $EM__Sounds
 03A6:19F8       $EM__SpecConv
 29E8:14D9       $EM__StdIO
 2875:05B8       $EM__Storage
 40E3:012E       $EM__SwitchCntrl
 5F3B:03E5       $EM__Termbase
 60B3:01C6       $EM__Terminal
 2EE6:1095       $EM__TheodolitRead
 28D1:0CBD       $EM__Timer
 3E56:0C49       $EM__Tune
 02EB:09BF       $EM__VORO_avrage
 528D:1D0E       $EM__VORPrint
 5B6D:0ACE       $EM__VORR_Average
 1D49:0BA9       $EM__V_CP_ControlProc
 03A3:0028       $EM__V_CommonTypes
 4D51:26B2       $EM__V_Count
 509A:0745       $EM__V_DAcquizition
 3C33:0B98       $EM__V_Database
 4AA2:0F7A       $EM__V_DisResults
 05EB:10D3       $EM__V_Files
 14A6:5D85       $EM__V_Oblot
 2DF4:0C61       $EM__V_Odb
 5A7F:0748       $EM__V_Slupek
 0290:05AA       $EM__V_results
 2BA4:00D0       $EM__WorseBecause
 46D8:2762       $EM__Wykres
 2CC5:012A       $EM__XMS
 2CDC:04BE       $EM__XMSService
 494F:035A       $EM__XMSTable
 31E6:2796       $EM__Zoom
 0841:0A32       $EM__ZoomInterface
 5D46:0954       $INIT__ARINC
 5FEF:0009       $INIT__ASCII
 510F:02DB       $INIT__AltInterface
 5FF2:0108       $INIT__BitByteOps
 5F7A:0107       $INIT__BlockOps
 1088:0D80       $INIT__Buttons
 43D8:0D49       $INIT__CocpDsp
 1A7F:00A7       $INIT__CommonData
 0388:00FA       $INIT__CommonTypes
 05B4:0308       $INIT__Czas
 305C:0D49       $INIT__DGHIni
 5839:102C       $INIT__DGHInterface
 556B:084D       $INIT__DGH_utils
 5141:142B       $INIT__DMEPrint
 0082:0150       $INIT__DOSEntry
 6044:0298       $INIT__DOSMemory
 039B:0050       $INIT__D_CommonTypes
 4FBD:06D1       $INIT__D_Count
 5031:05E5       $INIT__D_DAcquizition
 4BD3:0540       $INIT__D_DisResults
 06F9:0D89       $INIT__D_Files
 3134:0AAD       $INIT__D_Odb
 091C:3339       $INIT__D_Report
 5AF4:0743       $INIT__D_Slupek
 07FA:0413       $INIT__D_results
 44B1:2221       $INIT__DataCollect
 6119:0000       $INIT__DebugPMD
 600A:009A       $INIT__Devices
 12FE:18EB       $INIT__Dialog
 5638:02F2       $INIT__DigiRS
 4B9A:0346       $INIT__DisResUtilities
 6123:007C       $INIT__Display
 3732:1415       $INIT__DrawEpson
 5F1A:0203       $INIT__DynMem
 027B:010C       $INIT__ErrorMess
 38BD:09EE       $INIT__EventsMng
 007A:004C       $INIT__FCBS
 2D4F:0A16       $INIT__FIO
 54F2:0757       $INIT__FIltr1St
 1A8C:2B56       $INIT__Files
 0546:06A6       $INIT__FlagAnal
 1166:1920       $INIT__GList
 2FF0:0670       $INIT__GPSRead
 57A9:08B5       $INIT__GPS_TRIMBLE
 5689:11A6       $INIT__GPS_nov
 5950:0DA1       $INIT__GeoArithmetic
 0C5D:01CB       $INIT__GrafTypes
 3460:01D3       $INIT__GrafUtil
 2BB2:10F2       $INIT__Graphics
 2D28:0248       $INIT__HRD_Clock
 0C7C:1678       $INIT__HiLevGraf
 3962:119F       $INIT__Ini
 0FB6:0CB5       $INIT__InpLine
 5941:00CE       $INIT__Int_DME
 40F6:2DA5       $INIT__Kalibracja
 609C:0142       $INIT__Keyboard
 5A2E:04DF       $INIT__Kl_FGenerators
 6016:02DE       $INIT__Longs
 009A:1DCE       $INIT__MANAGER
 07DA:01C5       $INIT__MMA_Cout
 0E65:14AB       $INIT__MMMouse
 3CED:0AF4       $INIT__Mapa
 545E:0903       $INIT__Marks
 566A:01C3       $INIT__Math
 612D:06AF       $INIT__MathLib0
 299D:046A       $INIT__Messages
 6070:0296       $INIT__Mouse
 2B36:0689       $INIT__MsgBox
 5D10:0322       $INIT__NAVInterface
 5F8B:0620       $INIT__NumberConversion
 3F1B:1C0F       $INIT__Obloty
 22DB:0736       $INIT__PI_Analiza
 23BD:00CA       $INIT__PI_ArchDate
 3879:03CB       $INIT__PI_DMEnaglowek
 23D0:002E       $INIT__PI_Drukuj
 1497:00AA       $INIT__PI_Glowny
 1494:0012       $INIT__PI_PA
 2357:05CB       $INIT__PI_Pomiar
 23D6:4301       $INIT__PI_Report
 4985:08E7       $INIT__PI_ScrUtility
 3483:0B0A       $INIT__PI_ZoomSpecific
 4C2D:11AA       $INIT__PiszEventy
 3B10:11C4       $INIT__Polozenie
 1E04:153F       $INIT__Pomiar
 3589:19F2       $INIT__Print
 5C81:0861       $INIT__PrintCntroll
 08E5:0326       $INIT__PrintScreen
 3A80:0439       $INIT__PrintUtl
 5DE4:0000       $INIT__RTS87
 5EBC:0000       $INIT__RTSCoroutine
 5E94:0000       $INIT__RTSDevice
 5DF7:0000       $INIT__RTSError
 5EE2:0000       $INIT__RTSInterrupt
 5E7E:0000       $INIT__RTSLanguage
 5DFA:0731       $INIT__RTSMain
 5DFA:0770       $INIT__RTSMonExit
 5EA0:0000       $INIT__RTSPriority
 5EE8:0000       $INIT__RTSRealError
 55F6:03E6       $INIT__Random
 353C:0460       $INIT__Rap_Util
 3DA3:0AFF       $INIT__RealConversions
 2EBB:0265       $INIT__ScannerI
 1F60:36F5       $INIT__Screen
 4A88:0174       $INIT__ScreenCTypes
 3ACA:0433       $INIT__Semafory
 0DEB:0762       $INIT__ShortCuts
 5C1A:0608       $INIT__SimScanner
 4A19:06AD       $INIT__Slupek
 2815:05D1       $INIT__SoftIntHandlingManager
 6003:0046       $INIT__Sounds
 03A6:19BF       $INIT__SpecConv
 29E8:14A5       $INIT__StdIO
 2875:058E       $INIT__Storage
 5EE9:0303       $INIT__Strings
 40E3:0109       $INIT__SwitchCntrl
 5F3B:03BB       $INIT__Termbase
 60B3:01A1       $INIT__Terminal
 2EE6:1039       $INIT__TheodolitRead
 28D1:0C8E       $INIT__Timer
 3E56:0C0B       $INIT__Tune
 02EB:098B       $INIT__VORO_avrage
 528D:1C76       $INIT__VORPrint
 5B6D:0A9A       $INIT__VORR_Average
 1D49:0B48       $INIT__V_CP_ControlProc
 03A3:0008       $INIT__V_CommonTypes
 4D51:263D       $INIT__V_Count
 509A:0694       $INIT__V_DAcquizition
 3C33:0B2D       $INIT__V_Database
 4AA2:0F1E       $INIT__V_DisResults
 05EB:104F       $INIT__V_Files
 14A6:5CA2       $INIT__V_Oblot
 2DF4:0BFB       $INIT__V_Odb
 5A7F:0705       $INIT__V_Slupek
 0290:0558       $INIT__V_results
 2BA4:00AB       $INIT__WorseBecause
 46D8:2710       $INIT__Wykres
 2CD8:0000       $INIT__XMS
 2CDC:0485       $INIT__XMSService
 494F:032B       $INIT__XMSTable
 31E6:270D       $INIT__Zoom
 0841:09BD       $INIT__ZoomInterface
 619A:0000       $MN__AV
 619A:0388       $OK__01mar90_1621_OF_ASCII
 619A:03A6       $OK__01mar90_1621_OF_DOSMemory
 619A:03C4       $OK__01mar90_1621_OF_Display
 619A:03B2       $OK__01mar90_1621_OF_Keyboard
 619A:0382       $OK__01mar90_1621_OF_NumberConv
 619A:0376       $OK__01mar90_1621_OF_Termbase
 619A:03B8       $OK__01mar90_1621_OF_Terminal
 619A:039A       $OK__01mar90_1622_OF_Devices
 619A:03AC       $OK__01mar90_1622_OF_Mouse
 619A:0394       $OK__01mar90_1622_OF_Sounds
 619A:03A0       $OK__05feb87_1233_OF_Longs
 619A:033A       $OK__10jul87_1400_OF_RTSError
 619A:0364       $OK__10jul87_1400_OF_RTSRealErr
 619A:0346       $OK__10jul87_1401_OF_RTSLanguag
 619A:035E       $OK__10jul87_1402_OF_RTSInterru
 619A:0334       $OK__10jul87_1403_OF_RTS87
 619A:0352       $OK__10jul87_1404_OF_RTSPriorit
 619A:032E       $OK__10jul99_1214_OF_ARINC
 619A:02B0       $OK__10jul99_1214_OF_AltInterfa
 619A:011E       $OK__10jul99_1214_OF_Buttons
 619A:0256       $OK__10jul99_1214_OF_CocpDsp
 619A:0142       $OK__10jul99_1214_OF_CommonData
 619A:00B2       $OK__10jul99_1214_OF_CommonType
 619A:00D0       $OK__10jul99_1214_OF_Czas
 619A:01D8       $OK__10jul99_1214_OF_DGHIni
 619A:02F2       $OK__10jul99_1214_OF_DGHInterfa
 619A:02CE       $OK__10jul99_1214_OF_DGH_utils
 619A:0094       $OK__10jul99_1214_OF_DOSEntry
 619A:00B8       $OK__10jul99_1214_OF_D_CommonTy
 619A:012A       $OK__10jul99_1214_OF_Dialog
 619A:02DA       $OK__10jul99_1214_OF_DigiRS
 619A:00A0       $OK__10jul99_1214_OF_ErrorMess
 619A:008E       $OK__10jul99_1214_OF_FCBS
 619A:01BA       $OK__10jul99_1214_OF_FIO
 619A:02C8       $OK__10jul99_1214_OF_FIltr1St
 619A:00CA       $OK__10jul99_1214_OF_FlagAnal
 619A:0124       $OK__10jul99_1214_OF_GList
 619A:02EC       $OK__10jul99_1214_OF_GPS_TRIMBL
 619A:02E6       $OK__10jul99_1214_OF_GPS_nov
 619A:0100       $OK__10jul99_1214_OF_GrafTypes
 619A:01EA       $OK__10jul99_1214_OF_GrafUtil
 619A:01A8       $OK__10jul99_1214_OF_Graphics
 619A:01B4       $OK__10jul99_1214_OF_HRD_Clock
 619A:0106       $OK__10jul99_1214_OF_HiLevGraf
 619A:0214       $OK__10jul99_1214_OF_Ini
 619A:0118       $OK__10jul99_1214_OF_InpLine
 619A:02F8       $OK__10jul99_1214_OF_Int_DME
 619A:0250       $OK__10jul99_1214_OF_Kalibracja
 619A:0304       $OK__10jul99_1214_OF_Kl_FGenera
 619A:009A       $OK__10jul99_1214_OF_MANAGER
 619A:00E2       $OK__10jul99_1214_OF_MMA_Cout
 619A:0112       $OK__10jul99_1214_OF_MMMouse
 619A:02E0       $OK__10jul99_1214_OF_Math
 619A:0190       $OK__10jul99_1214_OF_Messages
 619A:019C       $OK__10jul99_1214_OF_MsgBox
 619A:0328       $OK__10jul99_1214_OF_NAVInterfa
 619A:0244       $OK__10jul99_1214_OF_Obloty
 619A:00F4       $OK__10jul99_1214_OF_PrintScree
 619A:0238       $OK__10jul99_1214_OF_RealConver
 619A:0220       $OK__10jul99_1214_OF_Semafory
 619A:010C       $OK__10jul99_1214_OF_ShortCuts
 619A:017E       $OK__10jul99_1214_OF_SoftIntHan
 619A:00C4       $OK__10jul99_1214_OF_SpecConv
 619A:0196       $OK__10jul99_1214_OF_StdIO
 619A:0184       $OK__10jul99_1214_OF_Storage
 619A:024A       $OK__10jul99_1214_OF_SwitchCntr
 619A:01CC       $OK__10jul99_1214_OF_TheodolitR
 619A:018A       $OK__10jul99_1214_OF_Timer
 619A:023E       $OK__10jul99_1214_OF_Tune
 619A:01A2       $OK__10jul99_1214_OF_WorseBecau
 619A:0262       $OK__10jul99_1214_OF_Wykres
 619A:01AE       $OK__10jul99_1214_OF_XMSService
 619A:0268       $OK__10jul99_1214_OF_XMSTable
 619A:02B6       $OK__10jul99_1215_OF_DMEPrint
 619A:029E       $OK__10jul99_1215_OF_D_Count
 619A:02A4       $OK__10jul99_1215_OF_D_DAcquizi
 619A:028C       $OK__10jul99_1215_OF_D_DisResul
 619A:00DC       $OK__10jul99_1215_OF_D_Files
 619A:01DE       $OK__10jul99_1215_OF_D_Odb
 619A:0310       $OK__10jul99_1215_OF_D_Slupek
 619A:00E8       $OK__10jul99_1215_OF_D_results
 619A:025C       $OK__10jul99_1215_OF_DataCollec
 619A:0286       $OK__10jul99_1215_OF_DisResUtil
 619A:0202       $OK__10jul99_1215_OF_DrawEpson
 619A:020E       $OK__10jul99_1215_OF_EventsMng
 619A:0148       $OK__10jul99_1215_OF_Files
 619A:01D2       $OK__10jul99_1215_OF_GPSRead
 619A:02FE       $OK__10jul99_1215_OF_GeoArithme
 619A:0232       $OK__10jul99_1215_OF_Mapa
 619A:02C2       $OK__10jul99_1215_OF_Marks
 619A:0160       $OK__10jul99_1215_OF_PI_Analiza
 619A:016C       $OK__10jul99_1215_OF_PI_ArchDat
 619A:0172       $OK__10jul99_1215_OF_PI_Drukuj
 619A:0136       $OK__10jul99_1215_OF_PI_Glowny
 619A:0130       $OK__10jul99_1215_OF_PI_PA
 619A:0166       $OK__10jul99_1215_OF_PI_Pomiar
 619A:026E       $OK__10jul99_1215_OF_PI_ScrUtil
 619A:01F0       $OK__10jul99_1215_OF_PI_ZoomSpe
 619A:0292       $OK__10jul99_1215_OF_PiszEventy
 619A:0226       $OK__10jul99_1215_OF_Polozenie
 619A:0154       $OK__10jul99_1215_OF_Pomiar
 619A:01FC       $OK__10jul99_1215_OF_Print
 619A:0322       $OK__10jul99_1215_OF_PrintCntro
 619A:02D4       $OK__10jul99_1215_OF_Random
 619A:01C6       $OK__10jul99_1215_OF_ScannerI
 619A:015A       $OK__10jul99_1215_OF_Screen
 619A:027A       $OK__10jul99_1215_OF_ScreenCTyp
 619A:031C       $OK__10jul99_1215_OF_SimScanner
 619A:0274       $OK__10jul99_1215_OF_Slupek
 619A:00AC       $OK__10jul99_1215_OF_VORO_avrag
 619A:02BC       $OK__10jul99_1215_OF_VORPrint
 619A:0316       $OK__10jul99_1215_OF_VORR_Avera
 619A:014E       $OK__10jul99_1215_OF_V_CP_Contr
 619A:00BE       $OK__10jul99_1215_OF_V_CommonTy
 619A:0298       $OK__10jul99_1215_OF_V_Count
 619A:02AA       $OK__10jul99_1215_OF_V_DAcquizi
 619A:022C       $OK__10jul99_1215_OF_V_Database
 619A:0280       $OK__10jul99_1215_OF_V_DisResul
 619A:00D6       $OK__10jul99_1215_OF_V_Files
 619A:013C       $OK__10jul99_1215_OF_V_Oblot
 619A:01C0       $OK__10jul99_1215_OF_V_Odb
 619A:030A       $OK__10jul99_1215_OF_V_Slupek
 619A:00A6       $OK__10jul99_1215_OF_V_results
 619A:01E4       $OK__10jul99_1215_OF_Zoom
 619A:00EE       $OK__10jul99_1215_OF_ZoomInterf
 619A:0000       $OK__10jul99_1216_OF_AV
 619A:00FA       $OK__10jul99_1216_OF_D_Report
 619A:0208       $OK__10jul99_1216_OF_PI_DMEnagl
 619A:0178       $OK__10jul99_1216_OF_PI_Report
 619A:021A       $OK__10jul99_1216_OF_PrintUtl
 619A:01F6       $OK__10jul99_1216_OF_Rap_Util
 619A:0358       $OK__15jun87_0924_OF_RTSCorouti
 619A:034C       $OK__15jun87_0924_OF_RTSDevice
 619A:0370       $OK__16jun87_1952_OF_DynMem
 619A:03BE       $OK__16jun87_2059_OF_DebugPMD
 619A:0340       $OK__19aug87_1403_OF_RTSMain
 619A:036A       $OK__31jul87_1000_OF_Strings
 619A:038E       $OK__31jul87_1100_OF_BitByteOps
 619A:037C       $OK__31jul87_1300_OF_BlockOps
 6837:0024       ABOVESL__ScannerI
 70F8:08C0       AGCwartosciProgowD__Kalibracja
 70F8:0870       AGCwartosciProgowM__Kalibracja
 70F8:0800       AGCwartosciProgow__Kalibracja
 83F4:0020       ALT_Conver_TabC__AltInterface
 83F4:0000       ALT_Conver_Tab__AltInterface
 5DDE:003E       AT87Server
 6586:0000       Active__InpLine
 5DEA:0014       AddrOvf__RTSError
 6A34:078E       Adr1__DrawEpson
 6A34:0792       Adr2__DrawEpson
 693F:0010       Agc__D_Odb
 707C:0018       AktKat__Polozenie
 707C:0010       AktOdleglosc__Polozenie
 6518:0006       AktualnyPromien__D_Report
 6837:0006       AlfaF__ScannerI
 6837:0002       Alfa__ScannerI
 6587:0004       AllEnabled__Buttons
 693F:0014       Audio__D_Odb
 683D:0014       Azymut__TheodolitRead
 6759:000E       BK64Inc__InternalMonitor__Graph
 6759:000A       BKSizeL__InternalMonitor__Graph
 65E9:005A       B_01__Pomiar
 65E9:005E       B_02__Pomiar
 65E9:0062       B_03__Pomiar
 65E9:0066       B_04__Pomiar
 65E9:006A       B_05__Pomiar
 6606:000D       B_Abort__MouseMonitor__PI_Anali
 6606:0009       B_Akceptuj__MouseMonitor__PI_An
 65F3:0056       B_CURSOR__Screen
 6606:0015       B_DOWN__MouseMonitor__PI_Analiz
 65F3:0066       B_DOWN__Screen
 6606:0005       B_Drukuj__MouseMonitor__PI_Anal
 65F3:005A       B_LEFT__Screen
 65F3:005E       B_RIGHT__Screen
 6606:0011       B_UP__MouseMonitor__PI_Analiza
 65F3:0062       B_UP__Screen
 6606:0019       B_XCHG__MouseMonitor__PI_Analiz
 65F3:0080       BarOnScreen__Dialog__Screen
 841D:006E       BladKanaluGPS__GPS_TRIMBLE
 8414:0080       BladKanaluGPS__GPS_nov
 70A0:01D9       Blad_podczas_wczytywania_opisu_
 6B66:0012       BuffP__Ini
 8425:0000       BufferFull__DGHInterface
 6A34:0004       Bufor__DrawEpson
 6B66:0016       Bufor__Ini
 707C:0022       Bufor__Polozenie
 6587:0005       ButtonList__MONITOR__Buttons
 6283:0114       CP__MANAGER
 8433:0000       CalkowitaLiczbaEventow__SimScan
 70D1:0157       CallBackDlaDopasuj__Obloty
 5DEA:001E       CardOvf__RTSError
 5DEA:0000       CaseError__RTSError
 65F3:012C       ChangeKursorMode__Dialog__Scree
 683D:004A       CheckSumIdx__TheodolitRead
 658C:0069       CisnienieOdn__V_Oblot
 6597:014E       CisnienieOdniesienia__CommonDat
 653E:0000       ClipRect__HiLevGraf
 6752:0004       ClockPer__Timer
 6A22:0011       CoKtoraProbka__Print
 8434:000B       CoKtoraProbka__PrintCntroll
 6513:0009       CoRobic__ZoomInterface
 658C:0000       CoRobimy__V_Oblot
 6276:0000       Code__FCBS
 693F:002A       CollectData__D_Odb
 6832:003E       CollectData__V_Odb
 70F7:0000       ControlWords__SwitchCntrl
 6283:021A       Count__MANAGER
 6770:0C08       CriticalErrorRec__FIO
 6588:0000       CurH__GList
 6A34:0798       CurMode__DrawEpson
 70A0:0000       CurVor1__V_Database
 70A0:00E8       CurVor2__V_Database
 6843:001E       CurrGPSAnalizer__GPSRead
 6545:02F5       CursorB__BezWyszeregowania__MMM
 6545:01F4       CursorBuf__BezWyszeregowania__M
 65F3:0076       CursorMode__Dialog__Screen
 65F3:007B       CursorPos__Dialog__Screen
 6545:0008       CursorShapePtr__MMMouse
 707C:0211       CzesciOkregu__Polozenie
 6832:0026       DEVAV__V_Odb
 6832:0022       DEVMAX__V_Odb
 6832:001E       DEVMIN__V_Odb
 6832:001A       DEVVAL__V_Odb
 6597:00FB       DME__CommonData
 627A:0084       DOSEmpty__DOSEntry
 6283:011C       DUMMY__MANAGER
 6518:0008       DWN__D_Report
 6518:0018       Dane__D_Report
 660C:0006       Dane__PI_Report
 70F8:13EC       DataOstatniejKalibracji__Kalibr
 6545:000C       DefaultShape__MMMouse
 8428:0000       Deklinacja__GeoArithmetic
 70D1:019C       DelDir__Obloty
 6837:0016       DeltaDME__ScannerI
 6837:001A       DeltaF__ScannerI
 6837:000E       Delta__ScannerI
 61E8:0058       DescInt0__RTSMain
 6832:002E       DevErrSum__V_Odb
 6832:002A       DevNr__V_Odb
 65AD:0004       DirErr__Files
 707C:020F       Dir__Polozenie
 693F:0004       DisI__D_Odb
 693F:0000       Dis__D_Odb
 723C:C86E       Div2T__tablice__DataCollect
 723C:C86A       Div3T__tablice__DataCollect
 5DEA:0046       DivZero__RTSError
 658C:0075       DodPromienie__V_Oblot
 658C:0051       DodajB__V_Oblot
 8447:0000       DriverInstalled__Mouse
 70D1:021E       DstDir__Obloty
 6752:0012       Dumm__Monitor__Timer
 5E72:0069       DynParCopy__RTSLanguage
 6545:0063       EVC__BezPrzerwanOdMyszy__MMMous
 6545:005F       EVF__BezPrzerwanOdMyszy__MMMous
 6545:0061       EVL__BezPrzerwanOdMyszy__MMMous
 683D:001C       Elewacja__TheodolitRead
 6283:0012       ErrorHandler__MANAGER
 6B66:0000       ErrorProc__Ini
 6283:0000       ErrorQueue__MANAGER
 5DFA:0636       Error__RTSMain
 65E9:0050       EtapPolaryzacji__Pomiar
 8064:0002       EvPtr__PiszEventy
 6545:0065       EventBuff__BezPrzerwanOdMyszy__
 6AB0:0000       Events__EventsMng
 5DEA:000A       FctRetError__RTSError
 631B:00A0       FileDis__D_Files
 631B:0000       FileErr__D_Files
 65AD:0000       FileErr__Files
 630A:0000       FileErr__V_Files
 630A:00F8       FileRes__V_Files
 631B:0090       FileSig__D_Files
 630A:0090       FileSig__V_Files
 6770:0008       Files__FIO
 6513:0004       FirstTime__ZoomInterface
 6A22:000C       Flagi__Print
 6759:0010       FntTable__Graphics
 6589:0004       FocusChanged__Dialog
 6A34:079D       FontAdrA__DrawEpson
 6A34:0799       FontAdrN__DrawEpson
 6A34:07A1       FontHeight__DrawEpson
 6759:0000       FontPtr__Graphics
 6544:0007       FreeKey__monitor__ShortCuts
 6837:003B       GPS_A__ScannerI
 6837:0050       GPS_DIFFMODE__ScannerI
 6837:004E       GPS_GDOP__ScannerI
 6837:004B       GPS_OK__ScannerI
 6837:0051       GPS_PREC__ScannerI
 6837:0043       GPS_R__ScannerI
 6837:004C       GPS_SAT__ScannerI
 70F8:0AC0       GS_DEVPuntyKal__Kalibracja
 70C6:0050       GSfreqCRT__Tune
 676E:0000       GarbageList__XMSService
 658C:002D       GlowOdb__V_Oblot
 6597:0141       GlownyOdbiornik__CommonData
 70F8:0958       GsAgc_delay__Kalibracja
 70F8:0918       GsDev_delay__Kalibracja
 70F8:0928       GsPrcMod_delay__Kalibracja
 6545:02F4       Hidden__BezWyszeregowania__MMMo
 70D1:0116       HomeDirDlaDopasuj__Obloty
 70D1:0058       HomeDirNazwaPlikuIni__Obloty
 70D1:0048       HomeDir__Obloty
 723C:C866       IDX2__tablice__DataCollect
 723C:C862       IDX3__tablice__DataCollect
 5EBD:011E       IOTransfer__RTSInterrupt
 658C:0005       Identyfikacja__V_Oblot
 723C:C840       Idx__DataCollect
 8434:000D       IleStron__PrintCntroll
 658C:0073       IloscDodatkowychPromieni__V_Obl
 8428:0020       IloscOdniesien__GeoArithmetic
 8434:000F       IloscProbek__PrintCntroll
 83F1:0000       ImportantDiv__D_DAcquizition
 83F2:0000       ImportantDiv__V_DAcquizition
 5DEA:0028       IntegerOvf__RTSError
 65F3:0079       JakieWykr__Dialog__Screen
 65F3:0077       JakijedenWykres__Dialog__Screen
 65F3:0078       JedenWykres__Dialog__Screen
 6A34:07A8       JuzNarysowane__DrawEpson
 0000:0000  Abs  KEY__00xxx00_0000_OF_DebugPMD
 0000:0000  Abs  KEY__00xxx00_0000_OF_RTS87
 0000:0000  Abs  KEY__00xxx00_0000_OF_RTSCorouti
 0000:0000  Abs  KEY__00xxx00_0000_OF_RTSError
 0000:0000  Abs  KEY__00xxx00_0000_OF_RTSInterru
 0000:0000  Abs  KEY__00xxx00_0000_OF_RTSLanguag
 0000:0000  Abs  KEY__00xxx00_0000_OF_RTSMain
 0000:0000  Abs  KEY__00xxx00_0000_OF_RTSPriorit
 0000:0000  Abs  KEY__00xxx00_0000_OF_RTSRealErr
 0000:0000  Abs  KEY__05feb87_1233_OF_Longs
 0000:0000  Abs  KEY__10aug87_2030_OF_ASCII
 0000:0000  Abs  KEY__10aug87_2030_OF_BitByteOps
 0000:0000  Abs  KEY__10aug87_2030_OF_BlockOps
 0000:0000  Abs  KEY__10aug87_2031_OF_DOSMemory
 0000:0000  Abs  KEY__10aug87_2031_OF_DebugPMD
 0000:0000  Abs  KEY__10aug87_2031_OF_Devices
 0000:0000  Abs  KEY__10aug87_2031_OF_Display
 0000:0000  Abs  KEY__10aug87_2031_OF_DynMem
 0000:0000  Abs  KEY__10aug87_2031_OF_Keyboard
 0000:0000  Abs  KEY__10aug87_2031_OF_NumberConv
 0000:0000  Abs  KEY__10aug87_2031_OF_RTSDevice
 0000:0000  Abs  KEY__10aug87_2031_OF_Storage
 0000:0000  Abs  KEY__10aug87_2031_OF_Strings
 0000:0000  Abs  KEY__10aug87_2031_OF_Termbase
 0000:0000  Abs  KEY__10aug87_2031_OF_Terminal
 0000:0000  Abs  KEY__10aug87_2032_OF_MathLib0
 0000:0000  Abs  KEY__10aug87_2033_OF_Mouse
 0000:0000  Abs  KEY__10aug87_2033_OF_RTSCorouti
 0000:0000  Abs  KEY__10aug87_2033_OF_Random
 0000:0000  Abs  KEY__10aug87_2033_OF_RealConver
 0000:0000  Abs  KEY__10aug87_2033_OF_Sounds
 0000:0000  Abs  KEY__10jul87_1035_OF_RTSMonExit
 0000:0000  Abs  KEY__10jul99_1214_OF_ARINC
 0000:0000  Abs  KEY__10jul99_1214_OF_AltInterfa
 0000:0000  Abs  KEY__10jul99_1214_OF_Buttons
 0000:0000  Abs  KEY__10jul99_1214_OF_CocpDsp
 0000:0000  Abs  KEY__10jul99_1214_OF_CommonData
 0000:0000  Abs  KEY__10jul99_1214_OF_CommonType
 0000:0000  Abs  KEY__10jul99_1214_OF_Czas
 0000:0000  Abs  KEY__10jul99_1214_OF_DGHIni
 0000:0000  Abs  KEY__10jul99_1214_OF_DGHInterfa
 0000:0000  Abs  KEY__10jul99_1214_OF_DGH_utils
 0000:0000  Abs  KEY__10jul99_1214_OF_DMEPrint
 0000:0000  Abs  KEY__10jul99_1214_OF_DOSEntry
 0000:0000  Abs  KEY__10jul99_1214_OF_D_CommonTy
 0000:0000  Abs  KEY__10jul99_1214_OF_D_Count
 0000:0000  Abs  KEY__10jul99_1214_OF_D_DAcquizi
 0000:0000  Abs  KEY__10jul99_1214_OF_D_DisResul
 0000:0000  Abs  KEY__10jul99_1214_OF_D_Files
 0000:0000  Abs  KEY__10jul99_1214_OF_D_Odb
 0000:0000  Abs  KEY__10jul99_1214_OF_D_Slupek
 0000:0000  Abs  KEY__10jul99_1214_OF_D_results
 0000:0000  Abs  KEY__10jul99_1214_OF_DataCollec
 0000:0000  Abs  KEY__10jul99_1214_OF_Dialog
 0000:0000  Abs  KEY__10jul99_1214_OF_DigiRS
 0000:0000  Abs  KEY__10jul99_1214_OF_DisResUtil
 0000:0000  Abs  KEY__10jul99_1214_OF_DrawEpson
 0000:0000  Abs  KEY__10jul99_1214_OF_ErrorMess
 0000:0000  Abs  KEY__10jul99_1214_OF_EventsMng
 0000:0000  Abs  KEY__10jul99_1214_OF_FCBS
 0000:0000  Abs  KEY__10jul99_1214_OF_FIO
 0000:0000  Abs  KEY__10jul99_1214_OF_FIltr1St
 0000:0000  Abs  KEY__10jul99_1214_OF_Files
 0000:0000  Abs  KEY__10jul99_1214_OF_FlagAnal
 0000:0000  Abs  KEY__10jul99_1214_OF_GList
 0000:0000  Abs  KEY__10jul99_1214_OF_GPSRead
 0000:0000  Abs  KEY__10jul99_1214_OF_GPS_TRIMBL
 0000:0000  Abs  KEY__10jul99_1214_OF_GPS_nov
 0000:0000  Abs  KEY__10jul99_1214_OF_GeoArithme
 0000:0000  Abs  KEY__10jul99_1214_OF_GrafTypes
 0000:0000  Abs  KEY__10jul99_1214_OF_GrafUtil
 0000:0000  Abs  KEY__10jul99_1214_OF_Graphics
 0000:0000  Abs  KEY__10jul99_1214_OF_HRD_Clock
 0000:0000  Abs  KEY__10jul99_1214_OF_HiLevGraf
 0000:0000  Abs  KEY__10jul99_1214_OF_Ini
 0000:0000  Abs  KEY__10jul99_1214_OF_InpLine
 0000:0000  Abs  KEY__10jul99_1214_OF_Int_DME
 0000:0000  Abs  KEY__10jul99_1214_OF_Kalibracja
 0000:0000  Abs  KEY__10jul99_1214_OF_Kl_FGenera
 0000:0000  Abs  KEY__10jul99_1214_OF_MANAGER
 0000:0000  Abs  KEY__10jul99_1214_OF_MMA_Cout
 0000:0000  Abs  KEY__10jul99_1214_OF_MMMouse
 0000:0000  Abs  KEY__10jul99_1214_OF_Mapa
 0000:0000  Abs  KEY__10jul99_1214_OF_Marks
 0000:0000  Abs  KEY__10jul99_1214_OF_Math
 0000:0000  Abs  KEY__10jul99_1214_OF_Messages
 0000:0000  Abs  KEY__10jul99_1214_OF_MsgBox
 0000:0000  Abs  KEY__10jul99_1214_OF_NAVInterfa
 0000:0000  Abs  KEY__10jul99_1214_OF_Obloty
 0000:0000  Abs  KEY__10jul99_1214_OF_PI_Analiza
 0000:0000  Abs  KEY__10jul99_1214_OF_PI_ArchDat
 0000:0000  Abs  KEY__10jul99_1214_OF_PI_Drukuj
 0000:0000  Abs  KEY__10jul99_1214_OF_PI_Glowny
 0000:0000  Abs  KEY__10jul99_1214_OF_PI_PA
 0000:0000  Abs  KEY__10jul99_1214_OF_PI_Pomiar
 0000:0000  Abs  KEY__10jul99_1214_OF_PI_ScrUtil
 0000:0000  Abs  KEY__10jul99_1214_OF_PiszEventy
 0000:0000  Abs  KEY__10jul99_1214_OF_Polozenie
 0000:0000  Abs  KEY__10jul99_1214_OF_Pomiar
 0000:0000  Abs  KEY__10jul99_1214_OF_Print
 0000:0000  Abs  KEY__10jul99_1214_OF_PrintCntro
 0000:0000  Abs  KEY__10jul99_1214_OF_PrintScree
 0000:0000  Abs  KEY__10jul99_1214_OF_ScannerI
 0000:0000  Abs  KEY__10jul99_1214_OF_Screen
 0000:0000  Abs  KEY__10jul99_1214_OF_ScreenCTyp
 0000:0000  Abs  KEY__10jul99_1214_OF_Semafory
 0000:0000  Abs  KEY__10jul99_1214_OF_ShortCuts
 0000:0000  Abs  KEY__10jul99_1214_OF_Slupek
 0000:0000  Abs  KEY__10jul99_1214_OF_SoftIntHan
 0000:0000  Abs  KEY__10jul99_1214_OF_SpecConv
 0000:0000  Abs  KEY__10jul99_1214_OF_StdIO
 0000:0000  Abs  KEY__10jul99_1214_OF_SwitchCntr
 0000:0000  Abs  KEY__10jul99_1214_OF_TheodolitR
 0000:0000  Abs  KEY__10jul99_1214_OF_Timer
 0000:0000  Abs  KEY__10jul99_1214_OF_Tune
 0000:0000  Abs  KEY__10jul99_1214_OF_VORO_avrag
 0000:0000  Abs  KEY__10jul99_1214_OF_VORPrint
 0000:0000  Abs  KEY__10jul99_1214_OF_VORR_Avera
 0000:0000  Abs  KEY__10jul99_1214_OF_V_CP_Contr
 0000:0000  Abs  KEY__10jul99_1214_OF_V_CommonTy
 0000:0000  Abs  KEY__10jul99_1214_OF_V_Count
 0000:0000  Abs  KEY__10jul99_1214_OF_V_DAcquizi
 0000:0000  Abs  KEY__10jul99_1214_OF_V_Database
 0000:0000  Abs  KEY__10jul99_1214_OF_V_DisResul
 0000:0000  Abs  KEY__10jul99_1214_OF_V_Files
 0000:0000  Abs  KEY__10jul99_1214_OF_V_Oblot
 0000:0000  Abs  KEY__10jul99_1214_OF_V_Odb
 0000:0000  Abs  KEY__10jul99_1214_OF_V_Slupek
 0000:0000  Abs  KEY__10jul99_1214_OF_V_results
 0000:0000  Abs  KEY__10jul99_1214_OF_WorseBecau
 0000:0000  Abs  KEY__10jul99_1214_OF_Wykres
 0000:0000  Abs  KEY__10jul99_1214_OF_XMSService
 0000:0000  Abs  KEY__10jul99_1214_OF_XMSTable
 0000:0000  Abs  KEY__10jul99_1215_OF_PI_ZoomSpe
 0000:0000  Abs  KEY__10jul99_1215_OF_SimScanner
 0000:0000  Abs  KEY__10jul99_1215_OF_Zoom
 0000:0000  Abs  KEY__10jul99_1215_OF_ZoomInterf
 0000:0000  Abs  KEY__10jul99_1216_OF_AV
 0000:0000  Abs  KEY__10jul99_1216_OF_D_Report
 0000:0000  Abs  KEY__10jul99_1216_OF_PI_DMEnagl
 0000:0000  Abs  KEY__10jul99_1216_OF_PI_Report
 0000:0000  Abs  KEY__10jul99_1216_OF_PrintUtl
 0000:0000  Abs  KEY__10jul99_1216_OF_Rap_Util
 0000:0000  Abs  KEY__12aug87_1620_OF_RTSMain
 0000:0000  Abs  KEY__21aug96_1223_OF_XMS
 6587:0000       KbdButton__Buttons
 658C:006D       KierunekA__V_Oblot
 658C:006F       KierunekB__V_Oblot
 6943:0553       KierunekZmian__Zoom
 6544:0000       Kill__ShortCuts
 6943:029D       Koniec__Zoom
 6513:0000       Koniec__ZoomInterface
 683D:0010       Kopiowanie__TheodolitRead
 65F3:0030       KrokOpisuOsi__Screen
 6016:01F7       LDiv__Longs
 6016:018D       LMultU__Longs
 6016:00E6       LMult__Longs
 70F8:0A88       LOC_DEVPuntyKal__Kalibracja
 841D:005F       L_FixNotAvailable__GPS_TRIMBLE
 841D:0057       L_Kierunek__GPS_TRIMBLE
 841D:006C       L_NumberOfSattelites__GPS_TRIMB
 841D:0051       L_WspDlugosc__GPS_TRIMBLE
 841D:004B       L_WspSzerokosc__GPS_TRIMBLE
 566A:002A       L__ACos__Math
 2875:0002       L__ALLOCATE__Storage
 510F:0032       L__ALTConvert__AltInterface
 02EB:0956       L__AVR10_AddSample__VORO_avrage
 009A:0FEF       L__AWAITEDC__MANAGER
 009A:0FEF       L__AWAITEDC__Scheduler__MANAGER
 009A:0FB4       L__AWAITEDS__MANAGER
 009A:0FB4       L__AWAITEDS__Scheduler__MANAGER
 1E04:0114       L__AbortBP__Pomiar
 5031:0592       L__Abort__D_DAcquizition
 509A:0641       L__Abort__V_DAcquizition
 299D:0312       L__AcknowledgeFirst__Messages
 299D:0337       L__Acknowledge__Messages
 5031:0142       L__Acquire__D_DAcquizition
 509A:015A       L__Acquire__V_DAcquizition
 03A6:0E7B       L__AddAngle100__SpecConv
 03A6:1858       L__AddDis__SpecConv
 03A6:10CE       L__AddNormal__SpecConv
 03A6:17AE       L__Add__SpecConv
 2B36:00F2       L__AdvInfo__MsgBox
 03A6:101A       L__AfterAngle100__SpecConv
 1E04:014F       L__AkceptacjaBP__Pomiar
 2CC5:00D8       L__AllocUpperMemBlock__XMS
 5F1A:0059       L__Alloc__DynMem
 2CC5:003C       L__AllocateExtMem__XMS
 2CDC:004E       L__Allocate__XMSService
 494F:005D       L__Allocate__XMSTable
 12FE:1666       L__AltF4__Dialog
 22DB:0518       L__AnalizaEP__PI_Analiza
 4FBD:05EE       L__Analiza__D_Count
 4D51:250B       L__Analiza__V_Count
 03A6:0711       L__Ang100Str36Calk__SpecConv
 03A6:06A4       L__Ang100Str36__SpecConv
 545E:015E       L__AngAddSample__Marks
 545E:0032       L__AngResetContiner__Marks
 03A6:0BF8       L__Angle100__SpecConv
 03A6:0D36       L__AngleDeg__SpecConv
 2EBB:0037       L__AssSim_Alfa__ScannerI
 2EBB:0022       L__AssSim_Dis__ScannerI
 009A:12EF       L__Assert__MANAGER
 009A:12EF       L__Assert__Scheduler__MANAGER
 494F:0002       L__AssignNil__XMSTable
 5950:0D1C       L__AssignOdniesienie__GeoArithm
 28D1:0559       L__AssignPeriodicProc__Monitor_
 28D1:0559       L__AssignPeriodicProc__Timer
 0C5D:01AD       L__AssignPoint__GrafTypes
 5F3B:0002       L__AssignRead__Termbase
 0C5D:0187       L__AssignRect__GrafTypes
 5F3B:0184       L__AssignWrite__Termbase
 5EE9:005F       L__Assign__Strings
 31E6:0D92       L__Assign__Zoom
 5F1A:01BF       L__Avail__DynMem
 2875:02D0       L__Available__Storage
 5B6D:0265       L__Bend_AddSample__VORR_Average
 5B6D:002A       L__Bend_ClearContainer__VORR_Av
 54F2:05B7       L__BinaryCounter__FIltr1St
 556B:06BA       L__BinaryValSet__DGH_utils
 5F7A:007D       L__BlockClear__BlockOps
 5F7A:00B8       L__BlockEqual__BlockOps
 5F7A:001A       L__BlockMoveBackward__BlockOps
 5F7A:0000       L__BlockMoveForward__BlockOps
 5F7A:003B       L__BlockMove__BlockOps
 5F7A:00D9       L__BlockPosition__BlockOps
 5F7A:0096       L__BlockSet__BlockOps
 2815:008A       L__BreakChain__SoftIntHandlingM
 009A:0AAF       L__Broadcast__MANAGER
 009A:0AAF       L__Broadcast__Scheduler__MANAGE
 5FF2:0046       L__ByteAnd__BitByteOps
 5FF2:0073       L__ByteNot__BitByteOps
 5FF2:0055       L__ByteOr__BitByteOps
 5FF2:00C5       L__ByteRol__BitByteOps
 5FF2:00B4       L__ByteRor__BitByteOps
 5FF2:0092       L__ByteSar__BitByteOps
 5FF2:00A3       L__ByteShl__BitByteOps
 5FF2:0081       L__ByteShr__BitByteOps
 5FF2:0064       L__ByteXor__BitByteOps
 2D4F:04B4       L__CD__FIO
 5DFA:00EF       L__CallInitProc__RTSMain
 1088:0D35       L__CallProc__Buttons
 1E04:0124       L__CallStopButton__Pomiar
 5DFA:00FD       L__CallTermProc__RTSMain
 1166:1454       L__CanEnable__GList
 3CED:098B       L__CancelProcess__Mapa
 3CED:098B       L__CancelProcess__monitor__Mapa
 03A6:057F       L__Card100Str__SpecConv
 03A6:033A       L__Card10Str__SpecConv
 46D8:1F1D       L__Card2Real__Wykres
 03A6:0225       L__Card2Str__SpecConv
 03A6:0959       L__Card500Str__SpecConv
 5F8B:0259       L__CardToString__NumberConversi
 14A6:42F5       L__CardValid__V_Oblot
 1088:09D0       L__ChangeButtonText__Buttons
 1088:0959       L__ChangeButton__Buttons
 1A8C:1E04       L__ChangeDir__Files
 0C7C:0C85       L__Circle__HiLevGraf
 0DEB:006D       L__ClearBuffer__ShortCuts
 0DEB:006D       L__ClearBuffer__monitor__ShortC
 02EB:00FA       L__ClearContainer__VORO_avrage
 0C7C:1026       L__Clip__HiLevGraf
 3589:0E2F       L__CloseAll__Print
 3962:0E08       L__CloseBuffer__Ini
 1A8C:2819       L__CloseCommSigFName__Files
 0C7C:0A9F       L__CloseDIB__HiLevGraf
 06F9:075E       L__CloseFiles__D_Files
 1A8C:0F3B       L__CloseFiles__Files
 05EB:072B       L__CloseFiles__V_Files
 06F9:0A2E       L__CloseSignalFiles__D_Files
 1A8C:17EB       L__CloseSignalFiles__Files
 05EB:097C       L__CloseSignalFiles__V_Files
 3732:06E2       L__Close__DrawEpson
 2D4F:01F2       L__Close__FIO
 5C81:013A       L__CoKtoraPDn__PrintCntroll
 5C81:00D5       L__CoKtoraPUp__PrintCntroll
 5EE9:02B2       L__CompareStr__Strings
 1F60:18F9       L__ConEventButton__Screen
 5EE9:025B       L__Concat__Strings
 6070:01B4       L__ConditionalOff__Mouse
 5031:0063       L__ConsoleEv__D_DAcquizition
 5031:0063       L__ConsoleEv__Monitor__D_DAcqui
 509A:007B       L__ConsoleEv__Monitor__V_DAcqui
 509A:007B       L__ConsoleEv__V_DAcquizition
 5EE9:001D       L__ConstAssign__Strings
 43D8:0A5E       L__ControlLoop__CocpDsp
 05B4:024E       L__ConvertToStr__Czas
 5EE9:01E9       L__Copy__Strings
 2CDC:0110       L__Copy__XMSService
 07DA:003F       L__Count_MMA_SignalDsc__MMA_Cou
 1088:0B2D       L__CreateButton__Buttons
 06F9:0231       L__CreateFiles__D_Files
 1A8C:0273       L__CreateFiles__Files
 05EB:01F6       L__CreateFiles__V_Files
 0FB6:0002       L__CreateInpLine__InpLine
 1088:0C3C       L__CreateRadioButton__Buttons
 2D4F:00FA       L__Create__FIO
 2D4F:08B1       L__CriticalErrorHandlerProc__FI
 2EBB:0086       L__CurrGPSAlfaOffset__ScannerI
 28D1:051F       L__CurrentPeriod__Monitor__Time
 28D1:051F       L__CurrentPeriod__Timer
 009A:17F9       L__CurrentProcess__MANAGER
 2875:01B9       L__DEALLOCATE__Storage
 0C7C:06E9       L__DIBHeight__HiLevGraf
 0C7C:06B5       L__DIBWidth__HiLevGraf
 5941:0002       L__DMEConvert__Int_DME
 009A:0CE1       L__DOIO__MANAGER
 009A:0CE1       L__DOIO__Scheduler__MANAGER
 6044:0002       L__DOSAlloc__DOSMemory
 6044:01B0       L__DOSAvail__DOSMemory
 6044:00E3       L__DOSDeAlloc__DOSMemory
 6044:0241       L__DOSGetMaxSize__DOSMemory
 6044:01F0       L__DOSSetSize__DOSMemory
 2BB2:01B2       L__DP__Graphics
 2BB2:01B2       L__DP__InternalMonitor__Graphic
 009A:1A90       L__DUMMYPRO__MANAGER
 2357:0076       L__D_Analiza__PI_Pomiar
 3589:0186       L__DalszeOdZera__Print
 14A6:210C       L__DaneArch_Play__V_Oblot
 14A6:2152       L__DaneArch_Raport__V_Oblot
 14A6:212F       L__DaneArch_Stat__V_Oblot
 091C:3074       L__DaneDlaDME__D_Report
 3879:0052       L__DaneZBazyDanych__PI_DMEnaglo
 2D28:011E       L__Data__HRD_Clock
 5F1A:0102       L__DeAlloc__DynMem
 2CDC:00EE       L__Deallocate__XMSService
 494F:00F2       L__Deallocate__XMSTable
 3E56:0966       L__DecADFFch__Tune
 3962:0006       L__DefaultError__Ini
 28D1:04B5       L__DefinePeriod__Monitor__Timer
 28D1:04B5       L__DefinePeriod__Timer
 0DEB:0612       L__DefineShortCut__ShortCuts
 0FB6:01CA       L__DeleteInpLine__InpLine
 3962:050E       L__DeleteSection__Ini
 0DEB:06DD       L__DeleteShortCut__ShortCuts
 2D4F:046B       L__Delete__FIO
 5EE9:014C       L__Delete__Strings
 12FE:1488       L__DialogMouseHandle__Dialog
 2D4F:0700       L__DirQuery__FIO
 545E:0453       L__DisAddSample__Marks
 545E:0041       L__DisResetContiner__Marks
 299D:0004       L__DisableDisplay__Messages
 1166:1470       L__Disable__GList
 4BD3:04A7       L__DispResults__D_DisResults
 4AA2:0E20       L__DispResults__V_DisResults
 299D:0181       L__Display__Messages
 1088:0AAB       L__DisposeButton__Buttons
 299D:0164       L__DisposeMessage__Messages
 28D1:0A36       L__DisposeMetronome__Timer
 4985:0708       L__DisposeSlupki__PI_ScrUtility
 28D1:0B9B       L__DisposeWatchdog__Timer
 4A19:0647       L__Dispose__Slupek
 03A6:1755       L__Div__SpecConv
 3460:0112       L__DoBeep__GrafUtil
 0FB6:07B4       L__DoNothing__InpLine
 1166:06B6       L__DodajDoListy__GList
 14A6:473F       L__DodajOblot__V_Oblot
 14A6:4691       L__DodajP__V_Oblot
 14A6:4452       L__DodajPr__V_Oblot
 091C:0943       L__DodatkoweButtony__D_Report
 091C:07FF       L__DokladnoscWNormie_A__D_Repor
 091C:081D       L__DokladnoscWNormie_B__D_Repor
 5AF4:06F1       L__DoneSlupek__D_Slupek
 5A7F:06B3       L__DoneSlupek__V_Slupek
 1F60:36CD       L__Done__Screen
 31E6:0A0A       L__Done__Zoom
 3F1B:037F       L__Dopasuj__Obloty
 3732:1124       L__DrawText__DrawEpson
 46D8:03D7       L__Draw__Wykres
 23D0:0002       L__Druk__PI_Drukuj
 22DB:0062       L__DrukujBP__MouseMonitor__PI_A
 3F1B:1B8B       L__Dum_Stat_File_Monitor__Oblot
 3F1B:1B83       L__Dum_Stat_Size_Monitor__Oblot
 1166:0020       L__DummyNotification__GList
 353C:0452       L__Dummy__Rap_Util
 28D1:0BFF       L__Dummy__Timer
 2D4F:040B       L__EOF__FIO
 1088:0CC0       L__EnableButton__Buttons
 1088:0D4E       L__EnableDisableAllButtons__But
 299D:002E       L__EnableDisplay__Messages
 12FE:167B       L__EnableDlg__Dialog
 1166:1513       L__Enable__GList
 0FB6:0183       L__Enable__InpLine
 12FE:15E7       L__EndDialog__Dialog
 009A:18E5       L__EnterProtectedOp__MANAGER
 4C2D:0F04       L__EnumEv__PiszEventy
 14A6:4715       L__EnumObl__V_Oblot
 3589:0FE0       L__EvProc__Print
 0E65:07F2       L__EventDispatcher__BezPrzerwan
 38BD:055C       L__EventsMngInit__EventsMng
 5DFA:0526       L__Execute__RTSMain
 1A8C:1DB9       L__ExistDIR__Files
 009A:18ED       L__ExitProtectedOp__MANAGER
 1A8C:20C9       L__FInterpolacja__Files
 03A6:08C0       L__Feed500Str__SpecConv
 2BB2:025A       L__FillRect__Graphics
 0C7C:0F6C       L__FillRect__HiLevGraf
 2BB2:025A       L__FillRect__InternalMonitor__G
 54F2:03DA       L__Filtr2Filters__FIltr1St
 54F2:053F       L__FiltrB__FIltr1St
 54F2:0199       L__Filtr__FIltr1St
 38BD:02D5       L__FindNextEvent__EventsMng
 0546:01D6       L__FlagErr_Anal__FlagAnal
 6070:0002       L__FlagReset__Mouse
 0C7C:1268       L__FrameRect__HiLevGraf
 2CC5:0068       L__FreeExtMem__XMS
 3F1B:0E1A       L__FreeSlot__Obloty
 2CC5:0107       L__FreeUpperMemBlock__XMS
 3ACA:00AA       L__Free__Semafory
 2FF0:0225       L__GPSReceive__GPSRead
 3CED:07B3       L__GdzieJest__Mapa
 5950:0719       L__Geo2Kat__GeoArithmetic
 1A8C:264E       L__GetALfaRefFName__Files
 07FA:0054       L__GetAnRes__D_results
 0290:005A       L__GetAnRes__V_results
 5839:0187       L__GetAnalogVal__DGHInterface
 2BB2:0191       L__GetBank__Graphics
 2BB2:0191       L__GetBank__InternalMonitor__Gr
 5839:0226       L__GetBinaryVal__DGHInterface
 5FF2:0000       L__GetBits__BitByteOps
 6070:006E       L__GetButPres__Mouse
 6070:00A0       L__GetButRel__Mouse
 0C7C:115F       L__GetClip__HiLevGraf
 1A8C:2735       L__GetCommSigFName__Files
 1166:1839       L__GetContents__GList
 5839:002B       L__GetCurrDataSign__DGHInterfac
 2FF0:02DA       L__GetCurrDataSign__GPSRead
 2EE6:05AE       L__GetCurrDataSign__TheodolitRe
 600A:0002       L__GetDeviceStatus__Devices
 5E7F:009B       L__GetDeviceStatus__RTSDevice
 12FE:0006       L__GetDialogDIBHandle__Dialog
 2D4F:05B5       L__GetDir__FIO
 2FF0:029B       L__GetDirection__GPSRead
 1A8C:26C2       L__GetDisRefFName__Files
 494F:01B7       L__GetElem__XMSTable
 40F6:097E       L__GetErrReset__ErrorHand__Kali
 40F6:097E       L__GetErrReset__Kalibracja
 38BD:041A       L__GetEventInfo__EventsMng
 06F9:0B34       L__GetFileName__D_Files
 2D4F:0685       L__GetFileStamp__FIO
 57A9:05C7       L__GetFrame__GPS_TRIMBLE
 5689:0CFB       L__GetFrame__GPS_nov
 5D10:0241       L__GetGSDev__NAVInterface
 353C:0093       L__GetInteractiveData__Rap_Util
 5D10:0190       L__GetLocDev__NAVInterface
 5DFA:0147       L__GetMessage__RTSMain
 44B1:1B29       L__GetNextAMark__DataCollect
 44B1:1AA3       L__GetNextDMark__DataCollect
 0546:0352       L__GetNextFrac__FlagAnal
 5D10:0022       L__GetOmnibearing__NAVInterface
 2EBB:010C       L__GetPilotEvent__ScannerI
 6070:0037       L__GetPosBut__Mouse
 5E7F:0100       L__GetPrioMask__RTSDevice
 3962:035E       L__GetPrivateProfileString__Ini
 0388:0010       L__GetRecName__CommonTypes
 1166:1819       L__GetRect__GList
 0E65:0713       L__GetRegionRect__MMMouse
 4985:084D       L__GetRegionWyk1__PI_ScrUtility
 4985:0870       L__GetRegionWyk2__PI_ScrUtility
 4985:08BE       L__GetRegionWyk3__PI_ScrUtility
 4985:0812       L__GetRegionWykG__PI_ScrUtility
 1088:0D0E       L__GetRegion__Buttons
 1166:1608       L__GetRegion__GList
 0FB6:0C4D       L__GetRegion__InpLine
 0E65:06C2       L__GetRegion__MMMouse
 05EB:0D8E       L__GetResFileName__V_Files
 1166:14F4       L__GetSelection__GList
 05EB:0D1B       L__GetSigFileName__V_Files
 4A19:0666       L__GetSlupRect__Slupek
 2EE6:0600       L__GetTeoEvent__TheodolitRead
 0FB6:0388       L__GetText__InpLine
 2EE6:0700       L__GetTheoI__TheodolitRead
 2EE6:0654       L__GetTheoR__TheodolitRead
 05B4:00C0       L__GetTimeAndDate__BezPrzerwan_
 05B4:00C0       L__GetTimeAndDate__Czas
 0388:0055       L__GetTranName__CommonTypes
 38BD:0366       L__GetUpdNextEvent__EventsMng
 2BB2:03B5       L__GetWindow__Graphics
 2BB2:03B5       L__GetWindow__InternalMonitor__
 5638:0002       L__GetWrBufLength__DigiRS
 14A6:2654       L__GlowOdbP__V_Oblot
 1497:0002       L__GlownyEP__PI_Glowny
 1A8C:1E3D       L__GoHomeDir__Files
 12FE:123F       L__Go__Dialog
 2D28:00A1       L__Godzina__HRD_Clock
 03A6:1178       L__GorszeBoBlisze__SpecConv
 03A6:14AD       L__GorszeBoDalszeOdZera__SpecCo
 03A6:10E9       L__GorszeBoDalszeR__SpecConv
 03A6:1127       L__GorszeBoDalsze__SpecConv
 03A6:142B       L__GorszeBoMniejsze1500__SpecCo
 03A6:1368       L__GorszeBoMniejsze160__SpecCon
 03A6:146C       L__GorszeBoMniejsze2000__SpecCo
 03A6:1327       L__GorszeBoMniejsze300__SpecCon
 03A6:12A5       L__GorszeBoMniejsze400__SpecCon
 03A6:13A9       L__GorszeBoMniejsze5000__SpecCo
 03A6:13EA       L__GorszeBoMniejsze500__SpecCon
 03A6:12E6       L__GorszeBoMniejsze800__SpecCon
 03A6:1264       L__GorszeBoMniejszeM60__SpecCon
 03A6:11C9       L__GorszeBoMniejszePol__SpecCon
 3589:0159       L__GorszeBoMniejsze__Print
 03A6:120A       L__GorszeBoMniejsze__SpecConv
 03A6:1237       L__GorszeBoWieksze__SpecConv
 1166:128C       L__HandleEvent__GList
 0E65:00DF       L__HideConditionally__MMMouse
 0E65:0BDE       L__HideCursor__BezWyszeregowani
 0E65:0BDE       L__HideCursor__MMMouse
 6070:002B       L__HideCursor__Mouse
 5FF2:00D6       L__HighNibble__BitByteOps
 28D1:06FC       L__IBMIntHandler__Monitor__Time
 3E56:0881       L__ILSDecFch__Tune
 3E56:0849       L__ILSIncFch__Tune
 3E56:07EE       L__ILSfrqString__Tune
 4B9A:014A       L__INCLine__DisResUtilities
 1166:0A11       L__Idx2Str__GList
 4C2D:0A31       L__IleEventow__PiszEventy
 3F1B:0242       L__Ile__Obloty
 3E56:093F       L__IncADFFch__Tune
 03A6:189B       L__IncRound__SpecConv
 3460:00BB       L__InfoBeep__GrafUtil
 3460:0003       L__Info__GrafUtil
 2B36:0072       L__Info__MsgBox
 5031:0507       L__IniDataOrbit__D_DAcquizition
 509A:05B6       L__IniDataOrbit__V_DAcquizition
 5031:051F       L__IniDataRadial__D_DAcquizitio
 509A:05CE       L__IniDataRadial__V_DAcquizitio
 3134:08E5       L__IniData__D_Odb
 2DF4:0A92       L__IniData__V_Odb
 5AF4:04D4       L__IniSkale__D_Slupek
 4985:07E5       L__IniSkale__PI_ScrUtility
 5A7F:047E       L__IniSkale__V_Slupek
 57A9:082D       L__Inicjacja__GPS_TRIMBLE
 5689:0DCE       L__Inicjacja__GPS_nov
 545E:0636       L__InicjujOpisStanuLuku__Marks
 02EB:0116       L__InicjujOpisStanuLuku__VORO_a
 3589:03D2       L__InitA__Print
 3589:0EC8       L__InitAll__Print
 3589:0821       L__InitB__Print
 009A:176C       L__InitC__MANAGER
 54F2:024F       L__InitCont2Filters__FIltr1St
 54F2:0598       L__InitContBCoun__FIltr1St
 54F2:050E       L__InitContB__FIltr1St
 54F2:00A2       L__InitCont__FIltr1St
 0546:02B3       L__InitFlagErr__FlagAnal
 3F1B:1A87       L__InitListaUrzadzen__Obloty
 14A6:147E       L__InitLot__V_Oblot
 54F2:0712       L__InitMemFIntContiner__FIltr1S
 54F2:0689       L__InitMemFiltr__FIltr1St
 3483:029F       L__InitNames__PI_ZoomSpecific
 14A6:0BE4       L__InitOblot__V_Oblot
 2EBB:00F7       L__InitPilotEventId__ScannerI
 2357:00C8       L__InitPomiar__PI_Pomiar
 1E04:03EF       L__InitPomiar__Pomiar
 3732:11C0       L__InitPort__DrawEpson
 009A:1782       L__InitS__MANAGER
 0388:0098       L__InitSignalDsc__CommonTypes
 5AF4:06B1       L__InitSlupek__D_Slupek
 5A7F:065B       L__InitSlupek__V_Slupek
 2EE6:05DD       L__InitTeoEventId__TheodolitRea
 07DA:00D6       L__Init_AvrDscr__MMA_Cout
 07DA:000A       L__Init_MMA_SignalDsc__MMA_Cout
 4985:078A       L__Init_ScrUtility__PI_ScrUtili
 07FA:0150       L__Init__D_results
 1F60:1D6D       L__Init__Screen
 3ACA:01B0       L__Init__Semafory
 0290:03B4       L__Init__V_results
 31E6:0161       L__Init__Zoom
 0388:00B7       L__Init_flgTab__CommonTypes
 0E65:0AC3       L__InsertEvent__BezPrzerwanOdMy
 0E65:0AC3       L__InsertEvent__MMMouse
 5EE9:0096       L__Insert__Strings
 3F1B:1042       L__InspekcjeNowyWpis__Obloty
 2815:0256       L__InstEpilogueHnd__Monitor__So
 2815:0256       L__InstEpilogueHnd__SoftIntHand
 2815:009A       L__InstPrologueHnd__Monitor__So
 2815:009A       L__InstPrologueHnd__SoftIntHand
 5F1A:0000       L__InstallDynMem__DynMem
 600A:006A       L__InstallHandler__Devices
 5E7F:0000       L__InstallHandler__RTSDevice
 2875:03A3       L__InstallHeap__Storage
 5DFA:007B       L__InstallInitProc__RTSMain
 009A:1815       L__InstallTermProc__MANAGER
 5DFA:0001       L__InstallTermProc__RTSMain
 03A6:0A8D       L__Int1000Str__SpecConv
 03A6:0535       L__Int100StrCalk__SpecConv
 03A6:0411       L__Int100Str__SpecConv
 03A6:025D       L__Int10Str__SpecConv
 03A6:1948       L__Int2Card__SpecConv
 46D8:1F64       L__Int2Real__Wykres
 03A6:165C       L__Int2StrCntr__SpecConv
 03A6:01ED       L__Int2Str__SpecConv
 03A6:078F       L__Int500Str__SpecConv
 5F8B:01B9       L__IntToString__NumberConversio
 0C5D:0058       L__Intersection__GrafTypes
 2BB2:0593       L__InvertW__Graphics
 2BB2:0593       L__InvertW__InternalMonitor__Gr
 3732:120D       L__IsAborted__DrawEpson
 12FE:17AC       L__IsBusy__Dialog
 3732:0322       L__IsDrawn__DrawEpson
 0C5D:014B       L__IsEqual__GrafTypes
 0E65:018A       L__IsHidden__MMMouse
 0C5D:0002       L__IsIntersect__GrafTypes
 494F:0039       L__IsValid__XMSTable
 3F1B:0A4B       L__KasujPodkartoteke__Obloty
 3F1B:068A       L__Kasuj__Obloty
 5950:0AEF       L__Kat2Geo__GeoArithmetic
 299D:03F9       L__KbdAck__Messages
 299D:0405       L__KbdDsp__Messages
 0DEB:05B8       L__KbdScan__ShortCuts
 609C:0002       L__KeyPressed__Keyboard
 0DEB:0002       L__KeyPressed__ShortCuts
 5F3B:00D7       L__KeyPressed__Termbase
 60B3:0002       L__KeyPressed__Terminal
 0DEB:0002       L__KeyPressed__monitor__ShortCu
 0FB6:03DC       L__Key__InpLine
 1166:18E1       L__KillContents__GList
 0FB6:07C4       L__KillFocus__InpLine
 12FE:0E94       L__KlawiszShiftTab__Dialog
 12FE:0D8A       L__KlawiszSpacji__Dialog
 12FE:0E12       L__KlawiszTab__Dialog
 5689:014D       L__KopijZnakZTeo__GPS_nov
 3F1B:15DB       L__KopiujInspekcje__Obloty
 3F1B:13F8       L__KopiujPodkartoteke__Obloty
 06F9:0A48       L__KopiujWszystkiePliki__D_File
 1A8C:19D4       L__KopiujWszystkiePliki__Files
 05EB:0BEB       L__KopiujWszystkiePliki__V_File
 1A8C:016F       L__Kopiuj__Files
 1F60:0F7E       L__KursorLewoBP__Dialog__Screen
 1F60:0BC1       L__KursorLewoButton__Dialog__Sc
 1F60:0D49       L__KursorOnOffBP__Dialog__Scree
 1F60:0F54       L__KursorPrawoBP__Dialog__Scree
 1F60:0BDA       L__KursorPrawoPar__Dialog__Scre
 2D4F:0389       L__Length__FIO
 5EE9:0000       L__Length__Strings
 46D8:1F01       L__LessCard__Wykres
 46D8:1EE5       L__LessInt__Wykres
 1166:0B6F       L__LiczbaElementow__GList
 6070:0194       L__LightPenOff__Mouse
 6070:0188       L__LightPenOn__Mouse
 0C7C:0B20       L__LineS__HiLevGraf
 0C7C:1234       L__LineTo__HiLevGraf
 3732:06FE       L__Line__DrawEpson
 0C7C:0AF4       L__Line__HiLevGraf
 1A8C:1BE4       L__LoadAResult__Files
 0C7C:03A5       L__LoadDIB__HiLevGraf
 06F9:0557       L__LoadData__D_Files
 1A8C:0CB2       L__LoadData__Files
 23BD:0002       L__LoadData__PI_ArchDate
 05EB:0524       L__LoadData__V_Files
 38BD:0519       L__LoadDistEvents__EventsMng
 5C1A:03B7       L__LoadEvents__SimScanner
 3C33:095E       L__LoadVorData1__V_Database
 3C33:09D2       L__LoadVorData2__V_Database
 2EBB:00B5       L__LocationsTogether__ScannerI
 5F8B:01FE       L__LongIntToString__NumberConve
 5A2E:0002       L__LookupM__Kl_FGenerators
 40F6:0F88       L__Lookup__Kalibracja
 14A6:2C09       L__LotyA__V_Oblot
 14A6:2CA3       L__LotyB__V_Oblot
 5FF2:00E6       L__LowNibble__BitByteOps
 2BB2:000B       L__MaxHor__Graphics
 2BB2:0014       L__MaxVer__Graphics
 3732:00E9       L__MaxX__DrawEpson
 3732:00F8       L__MaxY__DrawEpson
 3589:01C3       L__MaxY__Print
 54F2:06B5       L__MemFiltrInt__FIltr1St
 54F2:0607       L__MemFiltr__FIltr1St
 07DA:0124       L__MinMaxAvr__MMA_Cout
 0546:0513       L__MinPoczKonDis__FlagAnal
 0546:044F       L__MinPoczKonSig__FlagAnal
 2D4F:0510       L__MkDir__FIO
 3732:11A6       L__Mnoznik__DrawEpson
 1088:07E1       L__MouseHandler__Buttons
 0E65:1031       L__MouseLoop__MMMouse
 2CC5:008B       L__MoveExtMemBlock__XMS
 0C5D:0100       L__MoveRect__GrafTypes
 0C7C:121A       L__MoveTo__HiLevGraf
 03A6:1782       L__Mul__SpecConv
 027B:0029       L__MyErrorHand__ErrorMess
 5AF4:0264       L__NapiszSygnaly__D_Slupek
 4985:076F       L__NapiszSygnaly__PI_ScrUtility
 5A7F:0234       L__NapiszSygnaly__V_Slupek
 3879:019F       L__NastepneDane__PI_DMEnaglowek
 3483:0AC1       L__NazwaOdniesienia__PI_ZoomSpe
 38BD:0252       L__NewConsoleEvent__EventsMng
 2EBB:004C       L__NewDataAvailable__ScannerI
 38BD:0037       L__NewEvent__EventsMng
 299D:010B       L__NewMessage__Messages
 28D1:0940       L__NewMetronome__Timer
 38BD:01CF       L__NewPilotEvent__EventsMng
 38BD:014C       L__NewTeoEvent__EventsMng
 28D1:0A94       L__NewWatchdog__Timer
 2EE6:0ECB       L__NicNieRob__TheodolitRead
 1088:0B27       L__Nic__Buttons
 14A6:0BDE       L__Nic__V_Oblot
 353C:0432       L__NieSpelniaP__Rap_Util
 039B:0002       L__NilDlaPOdleglosci__D_CommonT
 44B1:21D7       L__NilProc__DataCollect
 4A19:0695       L__Nil__Slupek
 0C7C:10F4       L__NoClip__HiLevGraf
 6003:0032       L__NoSound__Sounds
 4A19:065C       L__Nothing__Slupek
 009A:0A58       L__Notify__MANAGER
 009A:0A58       L__Notify__Scheduler__MANAGER
 3B10:0E6A       L__NoweCzesciOkregu__Polozenie
 14A6:4DAD       L__NowyOblot__V_Oblot
 2357:00C0       L__NullPolV__PI_Pomiar
 5F8B:028D       L__NumToString__NumberConversio
 3134:04CF       L__Oblicz__D_Odb
 2DF4:0434       L__Oblicz__V_Odb
 14A6:10D9       L__OblotOK__V_Oblot
 31E6:055B       L__ObslugaMyszy__Zoom
 14A6:2706       L__OdnBladP__V_Oblot
 14A6:2913       L__OdnOdlP__V_Oblot
 5C81:037E       L__Odn__PrintCntroll
 5C1A:05A8       L__OdtworzEventy__SimScanner
 5C81:0232       L__OkP__PrintCntroll
 40F6:0E16       L__OmnibearingV__Kalibracja
 1A8C:27A8       L__OpenCommSigFName__Files
 06F9:024D       L__OpenFiles__D_Files
 1A8C:0638       L__OpenFiles__Files
 05EB:0212       L__OpenFiles__V_Files
 06F9:081C       L__OpenSignalFiles__D_Files
 1A8C:1096       L__OpenSignalFiles__Files
 05EB:07BC       L__OpenSignalFiles__V_Files
 3732:0670       L__Open__DrawEpson
 2D4F:0002       L__Open__FIO
 46D8:1330       L__OpisLog__Wykres
 3589:0CF3       L__Opis__Print
 46D8:0B0C       L__Opis__Wykres
 14A6:227B       L__OrbBladA__V_Oblot
 14A6:22BA       L__OrbBladB__V_Oblot
 14A6:23BF       L__OrbZasA__V_Oblot
 14A6:2474       L__OrbZasB__V_Oblot
 02EB:0082       L__OrbitDscClear__VORO_avrage
 1D49:07B7       L__Orbit__V_CP_ControlProc
 3732:03D3       L__Out__DrawEpson
 2B36:05C9       L__P0__MsgBox
 2B36:05EA       L__P1__MsgBox
 5C81:03D5       L__P1__PrintCntroll
 2B36:060B       L__P2__MsgBox
 5C81:03F6       L__P2__PrintCntroll
 2B36:062C       L__P3__MsgBox
 22DB:00C0       L__PWyjscieZProgramuBP__MouseMo
 22DB:014D       L__PageDownBP__MouseMonitor__PI
 22DB:00EF       L__PageUpBP__MouseMonitor__PI_A
 4C2D:0D6B       L__PiszNaDrukarce__PiszEventy
 4C2D:0B99       L__PiszNaEkranie__PiszEventy
 3A80:027A       L__PiszSignalDsc__PrintUtl
 43D8:02E6       L__PodajFormat__CocpDsp
 3732:01C6       L__Point__DrawEpson
 0C7C:117A       L__Point__HiLevGraf
 3589:0CBF       L__Point__Print
 3CED:0545       L__PokazKatyLotu__Mapa
 46D8:09B4       L__PokazWykres1__Wykres
 46D8:1B1F       L__PokazWykresNSLog__Wykres
 46D8:14E2       L__PokazWykresNS__Wykres
 46D8:256B       L__PokazWykresZXms__Wykres
 46D8:0758       L__PokazWykres__Wykres
 0841:0969       L__Pokaz__ZoomInterface
 509A:0002       L__PolV__V_DAcquizition
 1E04:01F6       L__PolaryzacjaBP__Pomiar
 1E04:0EC2       L__PomiarEP__Pomiar
 14A6:25EF       L__PomiarP__V_Oblot
 3134:071E       L__PoprawDane__D_Odb
 2DF4:063C       L__PoprawDane__V_Odb
 5EE9:0188       L__Pos__Strings
 14A6:28B4       L__PredkoscValid__V_Oblot
 1088:0AE2       L__PressRadio__Buttons
 3589:1998       L__PrintScreenProc__Print
 009A:1629       L__PriorityDecrease__MANAGER
 14A6:4D97       L__ProbujWstawicOblot__V_Oblot
 14A6:438B       L__ProbujWstawic__V_Oblot
 14A6:22F9       L__PromBladA__V_Oblot
 14A6:235C       L__PromBladB__V_Oblot
 14A6:2529       L__PromZasA__V_Oblot
 14A6:258C       L__PromZasB__V_Oblot
 3CED:06B6       L__Promienie__Mapa
 3B10:1084       L__Promienie__Polozenie
 22DB:011E       L__PrzelaczPomiaryBP__MouseMoni
 1E04:013E       L__PrzelaczPomiaryBP__Pomiar
 494F:0142       L__PutElem__XMSTable
 0DEB:003B       L__PutKeyStrokeIntoBuffer__Shor
 0DEB:003B       L__PutKeyStrokeIntoBuffer__moni
 2CC5:0011       L__QueryFreeExtMem__XMS
 03A6:0C58       L__RAngle100__SpecConv
 1166:0E9F       L__RChoose__GList
 1166:0D8F       L__RScrollDn__GList
 1166:0C76       L__RScrollUp__GList
 1D49:0329       L__Radial__V_CP_ControlProc
 12FE:02EB       L__RadioBProc__Dialog
 55F6:01A8       L__RandomCard__Random
 55F6:00DE       L__RandomInit__Random
 55F6:0245       L__RandomInt__Random
 55F6:026A       L__RandomReal__Random
 55F6:0385       L__Randomize__Random
 14A6:2198       L__RaportKoncowy_DME__V_Oblot
 091C:11DA       L__RaportKoncowy__D_Report
 23D6:13D1       L__RaportKoncowy__PI_Report
 14A6:2175       L__RaportKoncowy__V_Oblot
 5141:135C       L__Raport__DMEPrint
 528D:1BB8       L__Raport__VORPrint
 0DEB:0104       L__Rd__ShortCuts
 0DEB:0104       L__Rd__monitor__ShortCuts
 5D46:00BF       L__ReInitialize__ARINC
 60B3:010A       L__ReadAgain__Terminal
 06F9:08AC       L__ReadAllSignals__D_Files
 1A8C:1729       L__ReadAllSignals__Files
 05EB:0857       L__ReadAllSignals__V_Files
 1A8C:2833       L__ReadCommSigFName__Files
 5D46:051B       L__ReadConfiguration__ARINC
 1A8C:0240       L__ReadDef__Files
 2D4F:0346       L__ReadExt__FIO
 1A8C:16EA       L__ReadFlgs__Files
 6070:013E       L__ReadMotionCounters__Mouse
 556B:063C       L__ReadOmniber__DGH_utils
 5D46:079E       L__ReadRXSlot__ARINC
 5638:007D       L__ReadString__DigiRS
 60B3:0089       L__ReadString__Terminal
 5D46:0637       L__ReadTXSlot__ARINC
 556B:04A8       L__ReadValue__DGH_utils
 1A8C:1685       L__ReadXref__Files
 2FF0:001A       L__Read_Nic__GPSRead
 2FF0:002D       L__Read_Nov__GPSRead
 2FF0:0177       L__Read_Trimble__GPSRead
 2D4F:0301       L__Read__FIO
 609C:0033       L__Read__Keyboard
 0DEB:008B       L__Read__ShortCuts
 5F3B:0088       L__Read__Termbase
 60B3:000E       L__Read__Terminal
 0DEB:008B       L__Read__monitor__ShortCuts
 14A6:2B40       L__RealCisnValid__V_Oblot
 3DA3:06AC       L__RealToString__RealConversion
 14A6:2A71       L__RealValidOrb__V_Oblot
 009A:17E6       L__RecoveryTime__MANAGER
 5031:03A1       L__RedrawMarksReq__D_DAcquiziti
 509A:0436       L__RedrawMarksReq__V_DAcquiziti
 5031:0352       L__RedrawReq__D_DAcquizition
 44B1:004E       L__RedrawReq__DataCollect
 509A:03E7       L__RedrawReq__V_DAcquizition
 44B1:004E       L__RedrawReq__tablice__DataColl
 12FE:17EF       L__Redraw__Dialog
 1F60:03CA       L__RegionWyk1Button__Dialog__Sc
 1F60:037F       L__RegionWyk1Event__Dialog__Scr
 1F60:0464       L__RegionWyk2Button__Dialog__Sc
 1F60:0419       L__RegionWyk2Event__Dialog__Scr
 1F60:04FE       L__RegionWyk3Button__Dialog__Sc
 1F60:04B3       L__RegionWyk3Event__Dialog__Scr
 1F60:0323       L__RegionWykGButton__Dialog__Sc
 1F60:02D8       L__RegionWykGEvent__Dialog__Scr
 0E65:019E       L__RegisterRegion__MMMouse
 3ACA:0120       L__Register__Semafory
 009A:1798       L__Release__MANAGER
 2875:0422       L__RemoveHeap__Storage
 009A:188B       L__RemoveTermProc__MANAGER
 2D4F:0614       L__Rename__FIO
 44B1:2002       L__ResetDataCollect__DataCollec
 44B1:1A69       L__ResetMarks_A__DataCollect
 44B1:1A86       L__ResetMarks_D__DataCollect
 28D1:09B7       L__ResetMetronome__Timer
 2CC5:00B2       L__ResizeExtMemBlock__XMS
 0841:0413       L__RespProc__ZoomInterface
 1E04:0104       L__RestartBP__Pomiar
 5031:0092       L__Restart__D_DAcquizition
 5031:0092       L__Restart__Monitor__D_DAcquizi
 509A:00AA       L__Restart__Monitor__V_DAcquizi
 509A:00AA       L__Restart__V_DAcquizition
 2815:0041       L__RestoreEventHandler__SoftInt
 600A:004D       L__RestoreInterruptVector__Devi
 5E7F:00FB       L__RestoreInterruptVector__RTSD
 28D1:08B3       L__RestoreTimer__Monitor__Timer
 0841:097F       L__Rezygnuj__ZoomInterface
 2D4F:056C       L__RmDir__FIO
 5B6D:070A       L__Roughness_AddSample__VORR_Av
 5B6D:0461       L__Roughness_ClearContainer__VO
 3B10:0E09       L__RresetCzesciOkregu__Polozeni
 31E6:08D9       L__Run__Zoom
 009A:0892       L__SEND__MANAGER
 009A:0892       L__SEND__Scheduler__MANAGER
 009A:137C       L__STARTPROCESS__MANAGER
 353C:03C7       L__Samolot__Rap_Util
 44B1:1867       L__Samp2Dis__DataCollect
 44B1:1867       L__Samp2Dis__tablice__DataColle
 44B1:1968       L__Samp2Kat__DataCollect
 44B1:1968       L__Samp2Kat__tablice__DataColle
 44B1:0002       L__SampleNr__DataCollect
 44B1:0002       L__SampleNr__tablice__DataColle
 1A8C:1D15       L__SaveAResult__Files
 07FA:0022       L__SaveAnRes__D_results
 0290:0028       L__SaveAnRes__V_results
 06F9:02EF       L__SaveData__D_Files
 1A8C:09FD       L__SaveData__Files
 05EB:02B4       L__SaveData__V_Files
 38BD:04AA       L__SaveDistEvents__EventsMng
 600A:002C       L__SaveInterruptVector__Devices
 5E7F:00F6       L__SaveInterruptVector__RTSDevi
 40F6:2A2F       L__SaveSegmentTables__Kalibracj
 08E5:00A7       L__SaveToDib__PrintScreen
 14A6:5159       L__SciezkaDoKataloguOpisuUst__V
 1F60:35A5       L__ScreenStart__Screen
 2D4F:026A       L__Seek__FIO
 545E:0806       L__SegZakonczony__Marks
 02EB:0294       L__SegmentZakonczony__VORO_avra
 0FB6:0B2F       L__SetActive__InpLine
 5839:02BB       L__SetAnalogVal__DGHInterface
 2BB2:0136       L__SetBank__Graphics
 2BB2:0136       L__SetBank__InternalMonitor__Gr
 5638:018F       L__SetBaudRate__DigiRS
 5839:0392       L__SetBinaryVal__DGHInterface
 5FF2:0018       L__SetBits__BitByteOps
 1F60:190A       L__SetButtons__Screen
 3E56:0998       L__SetCPFlags__Tune
 1166:1860       L__SetContents__GList
 6070:005A       L__SetCursorPos__Mouse
 0FB6:09E5       L__SetCursor__InpLine
 05B4:021B       L__SetDate__Czas
 600A:0018       L__SetDeviceStatus__Devices
 5E7F:00BE       L__SetDeviceStatus__RTSDevice
 3732:1193       L__SetDir__DrawEpson
 2EBB:0137       L__SetEvalPROC__ScannerI
 6070:0157       L__SetEventHandler__Mouse
 2815:0002       L__SetEventHandler__SoftIntHand
 3732:085C       L__SetFont__DrawEpson
 6070:00FA       L__SetGraphicCursor__Mouse
 6070:00D2       L__SetHorizontalLimits__Mouse
 43D8:058F       L__SetIdleMsg__CocpDsp
 0C7C:0AE1       L__SetLineStyle__HiLevGraf
 5839:04A0       L__SetMessage__DGHInterface
 6070:01A0       L__SetMickeysPerPixel__Mouse
 1166:0002       L__SetNotificationProc__GList
 0E65:02C7       L__SetOnTop__MMMouse
 0C7C:0182       L__SetPaletteEntry__HiLevGraf
 0E65:0780       L__SetParent__MMMouse
 510F:0012       L__SetPressure__AltInterface
 5E7F:011F       L__SetPrioMask__RTSDevice
 1166:1754       L__SetSelectionNotf__GList
 1166:1772       L__SetSelection__GList
 6070:01CE       L__SetSpeedThreshold__Mouse
 6070:0127       L__SetTextCursor__Mouse
 3732:0849       L__SetTextMode__DrawEpson
 0FB6:02C9       L__SetText__InpLine
 05B4:01DA       L__SetTime__Czas
 6070:00E6       L__SetVerticalLimits__Mouse
 2BB2:0703       L__SetWindow__Graphics
 2BB2:0703       L__SetWindow__InternalMonitor__
 007A:0002       L__Set__FCBS
 3ACA:0002       L__Set__Semafory
 5AF4:00DE       L__ShowCursorDIB__D_Slupek
 4985:0053       L__ShowCursorDIB__PI_ScrUtility
 5A7F:00CB       L__ShowCursorDIB__V_Slupek
 0E65:0BB2       L__ShowCursor__BezWyszeregowani
 0E65:0BB2       L__ShowCursor__MMMouse
 6070:001F       L__ShowCursor__Mouse
 0C7C:0785       L__ShowDIB__HiLevGraf
 299D:0265       L__ShowFirst__Messages
 5AF4:0092       L__ShowScreenDIB__D_Slupek
 4985:0002       L__ShowScreenDIB__PI_ScrUtility
 5A7F:007F       L__ShowScreenDIB__V_Slupek
 0841:0062       L__Show__ZoomInterface
 1A8C:246E       L__SigInterpolacja__Files
 5C1A:0032       L__Simulate__SimScanner
 494F:0018       L__Size__XMSTable
 1F60:0E5D       L__SkalaMinusBP__Dialog__Screen
 1F60:0D66       L__SkalaPlusBP__Dialog__Screen
 3F1B:0B98       L__SkasujInspekcje__Obloty
 3F1B:078A       L__SkasujOblot__Obloty
 1166:033D       L__SkasujWszystko__GList
 1166:0387       L__Skasuj__GList
 1166:1698       L__Sortowana__GList
 6003:0002       L__Sound__Sounds
 353C:0412       L__SpelniaP__Rap_Util
 566A:018D       L__Sqr__Math
 1E04:00F4       L__StartBP__Pomiar
 1D49:09BD       L__StartCPLoop__V_CP_ControlPro
 05EB:0996       L__StartFileRes__V_Files
 3F1B:171F       L__StartInspection__Obloty
 3CED:0951       L__StartProcess__Mapa
 3CED:0951       L__StartProcess__monitor__Mapa
 28D1:0AE2       L__StartProtectedOperation__Tim
 009A:17CC       L__StartTimeSlicing__MANAGER
 3B10:08FE       L__Start_Polozenie__Polozenie
 5031:0537       L__Start__D_DAcquizition
 3134:08B2       L__Start__D_Odb
 2EBB:005F       L__Start__ScannerI
 509A:05E6       L__Start__V_DAcquizition
 2DF4:0A38       L__Start__V_Odb
 1E04:012E       L__StopBP__Pomiar
 1D49:0A8A       L__StopCPLoop__V_CP_ControlProc
 05EB:0B62       L__StopFileRes__V_Files
 28D1:0B56       L__StopProtectedOperation__Time
 3B10:0DD7       L__Stop_Polozenie__Polozenie
 5031:0034       L__Stop__D_DAcquizition
 5031:0034       L__Stop__Monitor__D_DAcquizitio
 509A:004C       L__Stop__Monitor__V_DAcquizitio
 2EBB:00E4       L__Stop__ScannerI
 509A:004C       L__Stop__V_DAcquizition
 5F8B:0522       L__StringToCard__NumberConversi
 5F8B:04BA       L__StringToInt__NumberConversio
 5F8B:0587       L__StringToLongInt__NumberConve
 5F8B:05B5       L__StringToNum__NumberConversio
 3DA3:0052       L__StringToReal__RealConversion
 03A6:0F4F       L__SubAng360__SpecConv
 03A6:0DA7       L__SubAngle100__SpecConv
 03A6:180D       L__SubDis__SpecConv
 03A6:10B3       L__SubNormal__SpecConv
 03A6:18A9       L__SubWCheck__SpecConv
 03A6:17DA       L__Sub__SpecConv
 1A8C:1F1C       L__SubstituteAngle100__Files
 0546:05D7       L__SumaDlugosciSig__FlagAnal
 5FF2:00F4       L__Swap__BitByteOps
 40E3:0002       L__SwitchTo__SwitchCntrl
 091C:0907       L__SygnalRozpoznawczy_A__D_Repo
 091C:0925       L__SygnalRozpoznawczy_B__D_Repo
 3F1B:051E       L__SzczegolowyPlikOpisu__Obloty
 28D1:092C       L__TInOneSecond__Timer
 0082:009C       L__TerminalProcedure__DOSEntry
 5DFA:068A       L__Terminate__RTSMain
 05B4:02AF       L__Terminator__Czas
 38BD:087E       L__Terminator__EventsMng
 2D4F:08BA       L__Terminator__FIO
 2BB2:1059       L__Terminator__Graphics
 009A:1973       L__Terminator__MANAGER
 0E65:133C       L__Terminator__MMMouse
 2875:051E       L__Terminator__Storage
 2CDC:02F4       L__Terminator__XMSService
 14A6:20E9       L__TestUP_PROC__V_Oblot
 2EE6:01B7       L__TheodolitView__TheodolitRead
 2BB2:001D       L__Tryb__Graphics
 3E56:014C       L__TuneADF__Tune
 3E56:061B       L__TuneDMEforILS__Tune
 3E56:05D9       L__TuneDMEforVOR__Tune
 3E56:0409       L__TuneILS__Tune
 3E56:065D       L__TuneVOR__Tune
 556B:0432       L__TurnOffADFSig__DGH_utils
 3E56:009C       L__TurnOffADF__Tune
 556B:0366       L__TurnOffDMESig__DGH_utils
 556B:0002       L__TurnOffILSSig__DGH_utils
 556B:027A       L__TurnOffVORSig__DGH_utils
 3E56:00F4       L__TurnOffVOR_ILS__Tune
 5839:00A0       L__TurnOff__DGHInterface
 556B:03E4       L__TurnOnADFSig__DGH_utils
 556B:02E8       L__TurnOnDMESig__DGH_utils
 556B:016E       L__TurnOnGSSig__DGH_utils
 556B:00D0       L__TurnOnLOCSig__DGH_utils
 556B:020C       L__TurnOnVORSig__DGH_utils
 5839:00F2       L__TurnOn__DGHInterface
 12FE:0663       L__TworzDialog__Dialog
 4C2D:0A53       L__TworzEventy__PiszEventy
 1166:0028       L__TworzListe__GList
 5F3B:0127       L__UnAssignRead__Termbase
 5F3B:023E       L__UnAssignWrite__Termbase
 2815:0517       L__UnInstallAllHandlers__Monito
 2815:03FA       L__UnInstallHandler__Monitor__S
 2815:03FA       L__UnInstallHandler__SoftIntHan
 600A:0080       L__UninstallHandler__Devices
 5E7F:0058       L__UninstallHandler__RTSDevice
 1088:0790       L__UniversalKBD__Buttons
 4985:024B       L__UniversalLAB__PI_ScrUtility
 4985:015B       L__UniversalLAF__PI_ScrUtility
 4985:02C3       L__UniversalLBB__PI_ScrUtility
 4985:01D3       L__UniversalLBF__PI_ScrUtility
 4985:029B       L__UniversalPAB__PI_ScrUtility
 4985:01AB       L__UniversalPAF__PI_ScrUtility
 4985:0313       L__UniversalPBB__PI_ScrUtility
 4985:0223       L__UniversalPBF__PI_ScrUtility
 4985:0273       L__UniversalSAB__PI_ScrUtility
 4985:0183       L__UniversalSAF__PI_ScrUtility
 4985:02EB       L__UniversalSBB__PI_ScrUtility
 4985:01FB       L__UniversalSBF__PI_ScrUtility
 0E65:03E9       L__UnregisterRegion__MMMouse
 3ACA:01FC       L__Unregister__Semafory
 5AF4:011C       L__UnverslVal__D_Slupek
 5A7F:0109       L__UnverslVal__V_Slupek
 44B1:2171       L__UpdTab800__DataCollect
 3B10:0C2C       L__UpdateM__Polozenie
 5031:03CE       L__UpdateMarksOrbit__D_DAcquizi
 509A:0463       L__UpdateMarksOrbit__V_DAcquizi
 5031:0431       L__UpdateMarksRadial__D_DAcquiz
 509A:04C6       L__UpdateMarksRadial__V_DAcquiz
 4985:06A1       L__UpdateSlupki__PI_ScrUtility
 38BD:060A       L__UpdateStrefa__EventsMng
 1F60:34A4       L__Update__Screen
 4A19:058F       L__Update__Slupek
 5C81:0417       L__UstalSkalowanie__PrintCntrol
 43D8:0002       L__UstawFormat__CocpDsp
 3F1B:01EB       L__UstawHomeDir__Obloty
 54F2:0082       L__UstawOkresImpulsowania__FIlt
 3879:0047       L__UstawSciezke__PI_DMEnaglowek
 43D8:0315       L__UstawZmienne__CocpDsp
 12FE:0B28       L__UsunDialog__Dialog
 1166:04C1       L__UsunListe__GList
 14A6:504F       L__UsunOblotP__V_Oblot
 14A6:5082       L__UsunOblot__V_Oblot
 14A6:4E0E       L__UsunP__V_Oblot
 3E56:08FF       L__VORDecFch__Tune
 3E56:08B9       L__VORIncFch__Tune
 2357:0022       L__V_Analiza__PI_Pomiar
 5C81:0248       L__ValidPodz__PrintCntroll
 009A:0BEF       L__WAITC__MANAGER
 009A:0BEF       L__WAITC__Scheduler__MANAGER
 009A:0AFD       L__WAITS__MANAGER
 009A:0AFD       L__WAITS__Scheduler__MANAGER
 28D1:0309       L__WaitBefProtOper__Monitor__Ti
 28D1:0309       L__WaitBefProtOper__Timer
 5839:005A       L__WaitForNewData__DGHInterface
 28D1:03B8       L__WaitMetronomeBefProtOper__Mo
 28D1:03B8       L__WaitMetronomeBefProtOper__Ti
 28D1:043F       L__WaitMetronome__Monitor__Time
 28D1:043F       L__WaitMetronome__Timer
 28D1:0277       L__Wait__Monitor__Timer
 28D1:0277       L__Wait__Timer
 2B36:0017       L__Warn__MsgBox
 43D8:0C01       L__WatchDogProcess__CocpDsp
 2FF0:0309       L__WatchDog__GPSRead
 2EE6:0DF1       L__WatchDog__TheodolitRead
 2BA4:0069       L__WorseBGreater__WorseBecause
 2BA4:003E       L__WorseBLessDis__WorseBecause
 2BA4:0002       L__WorseBLess__WorseBecause
 0C7C:144C       L__Wr2StrXY__HiLevGraf
 0C7C:1504       L__Wr2fStrXY__HiLevGraf
 4B9A:02AF       L__WrF_TablicaOdci__DisResUtili
 3589:1799       L__WrF_TablicaOdci__Print
 4B9A:0170       L__WrFlagsTableWHeading__DisRes
 3589:15A6       L__WrFlagsTableWHeading__Print
 4B9A:023C       L__WrFlagsTable__DisResUtilitie
 3589:16BA       L__WrFlagsTable__Print
 3589:0360       L__WrLn__Print
 3589:0390       L__WrPrnLn__Print
 3589:02A2       L__WrPrn__Print
 3732:1253       L__WrProc__DrawEpson
 4B9A:00F4       L__WrSPlus__DisResUtilities
 4B9A:00BE       L__WrS__DisResUtilities
 0C7C:138A       L__WrStrXY__HiLevGraf
 0C7C:12D2       L__WrStr__HiLevGraf
 3A80:0048       L__Wr_NagTab10__PrintUtl
 3589:0232       L__Wr__Print
 5D46:04B2       L__WriteCardMode__ARINC
 05EB:0AF8       L__WriteFileRes__V_Files
 5D46:03F4       L__WriteKillTime__ARINC
 60B3:012C       L__WriteLn__Terminal
 3962:06C6       L__WritePrivateProfileString__I
 5638:00F3       L__WriteString__DigiRS
 60B3:013B       L__WriteString__Terminal
 5D46:0173       L__WriteTXChannel__ARINC
 5D46:026F       L__WriteTXData__ARINC
 5D46:01F1       L__WriteTXLabel__ARINC
 5D46:00FF       L__WriteTXParity__ARINC
 5D46:032A       L__WriteTXRate__ARINC
 4BD3:00B4       L__WriteTab__D_DisResults
 4B9A:000A       L__WriteTab__DisResUtilities
 4AA2:0220       L__WriteTab__V_DisResults
 05B4:0128       L__WriteTime__Czas
 6123:0002       L__Write__Display
 2D4F:02BC       L__Write__FIO
 5F3B:01F1       L__Write__Termbase
 60B3:011B       L__Write__Terminal
 5839:0CCB       L__Writer__DGHInterface
 12FE:002D       L__WstawButton__Dialog
 1166:08C9       L__WstawDoListy__GList
 12FE:03EC       L__WstawInpLine__Dialog
 12FE:0518       L__WstawListe__Dialog
 12FE:0156       L__WstawRadioButton__Dialog
 1166:100F       L__Wybor__GList
 4985:0545       L__WykSlup__PI_ScrUtility
 1F60:0B48       L__WykrEvent__Dialog__Screen
 4A19:0002       L__WykresSlupkowy__Slupek
 3F1B:041D       L__WymInspekcjeDlaUrz__Obloty
 14A6:1185       L__WymienPasujaceObloty1__V_Obl
 14A6:46C4       L__WymienPasujaceObloty__V_Oblo
 3F1B:04E4       L__WymienWszystkiePasujace__Obl
 3589:183C       L__WypiszStrefy__Print
 3134:08D5       L__Wznow__D_Odb
 2DF4:0A75       L__Wznow__V_Odb
 2CC5:0000       L__XmsInstalled__XMS
 03A6:197A       L__ZaokraglicDo500__SpecConv
 22DB:0091       L__ZapamietajBP__MouseMonitor__
 14A6:55BE       L__Zapisz__V_Oblot
 3134:08C5       L__Zatrzymaj__D_Odb
 2DF4:0A58       L__Zatrzymaj__V_Odb
 3F1B:06B2       L__ZmienISkasuj__Obloty
 1166:0AC4       L__ZmienListe__GList
 14A6:3D7B       L__ZmienOblot__V_Oblot
 0841:0892       L__ZmienOdniesienie__ZoomInterf
 31E6:0A04       L__ZmienPDefault__Zoom
 3483:01C8       L__ZmiennaNiezalezna__PI_ZoomSp
 31E6:1B58       L__ZmiennaNiezalezna__Zoom
 3589:12D3       L__ZnacznikiOdleglosci__Print
 3F1B:0FF8       L__ZnajdzInspekcje__Obloty
 31E6:0889       L__ZoomOutPionP1__Zoom
 31E6:089D       L__ZoomOutPionP2__Zoom
 31E6:08B1       L__ZoomOutPionP3__Zoom
 31E6:08C5       L__ZoomOutPionP4__Zoom
 31E6:0880       L__ZoomOutPoziomP__Zoom
 2BB2:0CF3       L___Wr16StrXY__Graphics
 2BB2:0CF3       L___Wr16StrXY__InternalMonitor_
 2BB2:0DC9       L___Wr2StrXY__Graphics
 2BB2:0DC9       L___Wr2StrXY__InternalMonitor__
 2BB2:0F13       L___Wr2fStrXY__Graphics
 2BB2:0F13       L___Wr2fStrXY__InternalMonitor_
 2BB2:08E1       L___WrStrXY__Graphics
 2BB2:08E1       L___WrStrXY__InternalMonitor__G
 1A8C:1F61       L__addAngle100__Files
 1A8C:203F       L__addNormal__Files
 612D:04CA       L__arctan__MathLib0
 2815:0067       L__checkBreak__SoftIntHandlingM
 612D:03A5       L__cos__MathLib0
 03A6:14EA       L__entierCheck__SpecConv
 612D:05BE       L__entier__MathLib0
 03A6:15A6       L__entier__SpecConv
 612D:0098       L__exp__MathLib0
 5689:109C       L__gpzdaOff__GPS_nov
 1166:0B8E       L__kbHandler__GList
 612D:0209       L__ln__MathLib0
 3589:01DE       L__log__Print
 0082:0002       L__onEntryHandler__DOSEntry
 0082:004F       L__onExitHandler__DOSEntry
 612D:05AC       L__real__MathLib0
 612D:0251       L__sin__MathLib0
 29E8:1383       L__sprintf2__StdIO
 29E8:11F3       L__sprintf3__StdIO
 29E8:0D80       L__sprintf4__StdIO
 29E8:0F81       L__sprintf5__StdIO
 29E8:037B       L__sprintf__StdIO
 612D:002A       L__sqrt__MathLib0
 1A8C:1FCB       L__subNormal__Files
 841D:0062       L_day__GPS_TRIMBLE
 841D:0049       L_epe__GPS_TRIMBLE
 841D:0066       L_hour__GPS_TRIMBLE
 841D:0068       L_min__GPS_TRIMBLE
 841D:0060       L_month__GPS_TRIMBLE
 841D:006A       L_sec__GPS_TRIMBLE
 841D:0064       L_year__GPS_TRIMBLE
 6283:0016       LastCreated__MANAGER
 65F3:0027       LastDTidx__Screen
 6B66:507D       LastDir__Ini
 65F3:002E       LastEventIDX__Screen
 6283:021C       LastMask__MANAGER
 6A34:0784       LastPosition__DrawEpson
 653E:000A       LastPosition__HiLevGraf
 6545:0004       LastX__MMMouse
 6545:0006       LastY__MMMouse
 6843:0013       Last_Diffmode__GPSRead
 6843:001C       Last_EPE__GPSRead
 6843:0003       Last_Gdop__GPSRead
 6843:0005       Last_NumberOfSattelites__GPSRea
 6843:0007       Last_polGeo__GPSRead
 6843:0014       Last_tog__GPSRead
 660C:1411       Line__PI_Report
 658C:0090       LiniaNowegoKierunku__V_Oblot
 658C:003D       LiniaOrbBledu__V_Oblot
 658C:0039       LiniaOrbZasi__V_Oblot
 658C:0059       LiniaPredkosc__V_Oblot
 6589:0000       ListaDlg__Dialog
 658C:0049       ListaOblotow__V_Oblot
 658C:0098       ListaPomocnicza__V_Oblot
 658C:004D       ListaVOR_Ob__V_Oblot
 658C:0094       ListaVORow__V_Oblot
 6588:0004       Lista__GList
 6513:0019       Lista__ZoomInterface
 5E95:006F       Listen__RTSPriority
 70F8:0910       LocDev_delay__Kalibracja
 70F8:0920       LocPrcMod_delay__Kalibracja
 5DEA:0032       LongIntegerOvf__RTSError
 6283:000E       LongestProcess__MANAGER
 5DFA:0683       M2Halt__RTSMain
 6754:0004       MDispl__Messages
 6754:0000       MList__Messages
 6545:03F5       MSemafor__MMMouse
 707C:011F       MarkerShapes__Polozenie
 6A34:0786       Masks__DrawEpson
 6283:000A       MaxNumOfReady__MANAGER
 6283:0126       MaxRecTime__MANAGER
 6283:000C       MaxRunTime__MANAGER
 707C:0008       MaxVal__Polozenie
 693F:0016       Mem__D_Odb
 6754:0008       MessageSound__Messages
 70F8:0960       MkrAgc_delay__Kalibracja
 6A34:07A4       MnX__DrawEpson
 6A34:07A6       MnY__DrawEpson
 6B66:50E1       Modified__Ini
 5E95:0000       MonEntry__RTSPriority
 5E95:0043       MonExit__RTSPriority
 6545:0058       MonitoCheck__BezPrzerwanOdMyszy
 61E8:0036       MonitorExitProc__RTSMonExit
 6545:005A       MouseEvent__BezPrzerwanOdMyszy_
 6513:002F       MozeBycDme__ZoomInterface
 6513:002E       MozeBycGlowny__ZoomInterface
 83FA:008C       NAVG_AFlg__VORPrint
 83FA:0088       NAVG_flg__VORPrint
 83FA:008E       NAVZ_AFlg__VORPrint
 83FA:008A       NAVZ_flg__VORPrint
 707C:011B       NCO__Polozenie
 5DDE:0000       NMIServer
 70D1:00D5       NUrzadzDlaDopasuj__Obloty
 4D51:1D2C       N__AddAvrArr__AnalizujWynikiNaL
 4D51:1CB4       N__AddAvrDscr__AnalizujWynikiNa
 4D51:1E13       N__AddDevAvrArr__AnalizujWyniki
 02EB:0528       N__AddSample__AVR10_AddSample__
 1E04:0B92       N__AlfaRefInfo__PomiarEP__Pomia
 5689:05E2       N__An_Frame_DOPA__GetFrame__GPS
 5689:0A2D       N__An_Frame_GPGGA__GetFrame__GP
 5689:0B25       N__An_Frame_GPVTG__GetFrame__GP
 5689:0C2E       N__An_Frame_GPZDA__GetFrame__GP
 4D51:1EF7       N__AnalizujWynikiNaLuku__O_Anal
 2EE6:0107       N__Angle360__TheodolitView__The
 091C:0EEA       N__AssignButtString__RaportKonc
 06F9:0BA7       N__AssignName__InitLocals__D_Fi
 05EB:0E01       N__AssignName__InitLocals__V_Fi
 4D51:09B3       N__AssignPolRes__R_Analiza__Ana
 2EE6:086F       N__AssignRes__Analizer__Theodol
 23D6:2621       N__AtPromien__Wykres__Wykresy__
 23D6:257D       N__AtX__Wykres__Wykresy__PI_Rep
 46D8:0B8B       N__AutoFormat__OpisLog__Wykres
 29E8:031F       N__BuildNumber__sprintf__StdIO
 0E65:08F0       N__Button2Ev__GetEvent__BezPrze
 5839:06B0       N__CHKSRight__Reader__Writer__D
 091C:1C94       N__Circle__WykresPokryciaWPozio
 4FBD:011E       N__ClearAllCont__DoAnaliza__Ana
 4D51:1B1B       N__ClearAllCont__O_Analiza__Ana
 4D51:0D43       N__ClearAllCont__R_Analiza__Ana
 0290:0102       N__ClearAnRes__Init__V_results
 4D51:07FD       N__ClearAvrArr__Analiza__V_Coun
 4D51:0888       N__ClearDevAvrArr__Analiza__V_C
 4D51:1A68       N__ClearDevOAvr__O_Analiza__Ana
 3E56:052E       N__ConvertFrqTOControlWord__Tun
 5689:0193       N__ConvertHexChar__ReadGPS__Get
 5689:0929       N__ConvertStrToWspGeo__GetWspGe
 091C:19F9       N__CoordAt__WykresPokryciaWPozi
 4D51:01F8       N__CountAv__Analiza__V_Count
 4D51:0F9F       N__CountBends__R_Analiza__Anali
 2EE6:097D       N__CountCrc__Analizer__Theodoli
 4D51:00EA       N__CountDev__Analiza__V_Count
 3CED:0260       N__CountMaxDist__resolveSituati
 4FBD:01A8       N__CountResult__DoAnaliza__Anal
 5B6D:007A       N__Count__Bend_AddSample__VORR_
 28D1:057E       N__Count__IBMIntHandler__Monito
 5B6D:0511       N__Count__Roughness_AddSample__
 1F60:0FD7       N__CurrCursorMode__RuszKursor__
 1F60:1236       N__CurrDistance__OpisDla__InitW
 23D6:3232       N__DaneOrbity__PrzygotujDane__P
 23D6:2D9E       N__DanePromieni__PrzygotujDane_
 1E04:0C3F       N__DataLosInfo__PomiarEP__Pomia
 091C:18C0       N__DatyNagl__DaneDlaDME__D_Repo
 1088:043F       N__Dec__DrawInter__Buttons
 1F60:1B5E       N__Define__InitSlupki__Screen
 5689:0426       N__DekomozycjaRamki__GetFrame__
 1E04:0BD2       N__DeltaRefInfo__PomiarEP__Pomi
 1E04:0B16       N__DisposeButtons__Done__Pomiar
 1F60:3664       N__DisposeButtons__Done__Screen
 4FBD:0235       N__DoAnaliza__Analiza__D_Count
 1E04:0B84       N__Done__PomiarEP__Pomiar
 1F60:20D1       N__DrawEvent__ShowMarks__Update
 091C:22F8       N__DrukujOrbite__DaneDlaDME__D_
 091C:2EB7       N__DrukujPromien__DaneDlaDME__D
 3F1B:0DD3       N__ExistDIR__FreeSlot__Obloty
 12FE:0F3F       N__Expand__Aktywizuj__Dialog
 4A19:0317       N__FillR__Odswiez__Update__Slup
 3B10:0120       N__FlipX__InitMarkers__Polozeni
 3B10:005A       N__FlipY__InitMarkers__Polozeni
 5689:0538       N__GetCardinal__GetFrame__GPS_n
 3C33:0A1B       N__GetCardinal__LoadProgramPar_
 0DEB:056C       N__GetChar__KbdScan__ShortCuts
 4FBD:008A       N__GetEvent__DoAnaliza__Analiza
 1E04:0767       N__GetEvent__PomiarEP__Pomiar
 4D51:0912       N__GetEvent__R_Analiza__Analiza
 3CED:0151       N__GetGPS__resolveSituation__Ma
 5689:058D       N__GetInteger__GetFrame__GPS_no
 2EE6:09A8       N__GetNum__Analizer__TheodolitR
 29E8:0022       N__GetNum__sprintf__StdIO
 5689:04F0       N__GetReal__GetFrame__GPS_nov
 3C33:01BC       N__GetStr__LoadVorData__V_Datab
 5689:09E3       N__GetWspGeo__An_Frame_GPGGA__G
 46D8:1FA0       N__GetX__PokazWykresZXms__Wykre
 46D8:1FC9       N__GetY__PokazWykresZXms__Wykre
 5839:065C       N__HexDigit__CHKSRight__Reader_
 091C:259C       N__IndexWys__WykresPokryciaWPio
 4D51:19FF       N__Ini_T_WynikAnalizyOrbita__O_
 1E04:08A5       N__InitButtony__PomiarEP__Pomia
 14A6:11CD       N__InitDefault__InitLot__V_Oblo
 23D6:3EFB       N__InitJakiGdzie__InitDane__PI_
 091C:31A1       N__InitLocalData__InitDane__D_R
 07FA:00FF       N__Init_MMA_SignalDscArr__Init_
 29E8:00C8       N__IntConv__sprintf__StdIO
 5141:089A       N__IntFrac__WrSignalDesc__OpisP
 4FBD:05BB       N__Interpolacja__Analiza__D_Cou
 4D51:249B       N__Interpolacja__Analiza__V_Cou
 5689:06A2       N__Isolate__ConvertStrToWspGeo_
 57A9:01D7       N__Isolate__ReadG__GetFrame__GP
 3F1B:09B5       N__KasujPlik__KasujPodkartoteke
 1F60:35AE       N__KasujSlupki__Done__Screen
 1088:0A36       N__KillButton__DisposeButton__B
 0DEB:0691       N__Kill__DeleteShortCut__ShortC
 4A19:02EE       N__Kolor__Update__Slupek
 091C:0F4C       N__KoniecWypisywania__RaportKon
 3F1B:11EB       N__KopiujPlik__KopiujPodkartote
 3B10:0A88       N__LL__DrawNCO__Polozenie
 46D8:1024       N__LineH__OpisLog__Wykres
 46D8:0C63       N__LineV__OpisLog__Wykres
 40F6:17D7       N__LoadChannel__LoadSegmentTabl
 40F6:15EC       N__LoadReal__LoadSegmentTables_
 40F6:1719       N__LoadSegment__LoadChannel__Lo
 40F6:1673       N__LoadTable__LoadSegmentTables
 40F6:14D4       N__LoadValue__LoadSegmentTables
 40F6:09FA       N__Lookup__OmnibearingV__Kalibr
 5141:03E8       N__MakeHeader__Raport__DMEPrint
 1F60:2CA3       N__MarkDraw__WskazWykresy__Upda
 3CED:0696       N__Min__Promienie__Mapa
 1F60:2D80       N__NapiszGPSFlg__NapiszGPS__Upd
 1F60:2DE6       N__NapiszGPS__UpdateNapisy__Upd
 1F60:30F6       N__NapiszTEO__UpdateNapisy__Upd
 1E04:06EF       N__NastepnyStan__GetEvent__Pomi
 0841:0184       N__Niepusty__Load__ZoomInterfac
 4D51:2036       N__O_Analiza__Analiza__V_Count
 02EB:08B9       N__O_AvrCountErr__AVR10_AddSamp
 4A19:036C       N__Odswiez__Update__Slupek
 0C7C:030F       N__OpenF__LoadDIB__HiLevGraf
 5141:0638       N__OpisBleduDME__OpisPomiaru__R
 1F60:13D2       N__OpisDla__InitWykr__Dialog__S
 5141:0B08       N__OpisPomiaru__Raport__DMEPrin
 1D49:05DE       N__OrbitDirection__Orbit__V_CP_
 091C:0C98       N__PoczatekWypisywania__RaportK
 23D6:2C61       N__PodstawInteger__PrzygotujDan
 23D6:2BF7       N__PodstawJakiGdzie__PrzygotujD
 4D51:1C26       N__PodstawWynikNaLuku__O_Analiz
 57A9:0509       N__PodstawWyniki__GetFrame__GPS
 4D51:0CD7       N__Pol_AddSample__R_Analiza__An
 091C:2606       N__PolozenieNaWspolrzednejY__Wy
 528D:07B7       N__Pomiar2Str__OpisPomiaru__VOR
 1E04:05EF       N__PoprawnieUstawButtony__Pomia
 43D8:077A       N__PozWskazowki__SetLOC_G_SCP__
 5141:0C40       N__Print__Raport__DMEPrint
 23D6:2CB9       N__ProbujWstawic__ZasiegiNaProm
 1E04:0C88       N__PrologAnalyse__PomiarEP__Pom
 3879:00BD       N__Prom__NastepneDane__PI_DMEna
 5141:03C9       N__PromienANieOrbita__Raport__D
 4D51:1159       N__R_Analiza__Analiza__V_Count
 1D49:0149       N__RadialDirection__Radial__V_C
 2EE6:0915       N__Rd__Analizer__TheodolitRead
 06F9:0516       N__Rd__LoadData__D_Files
 05EB:04DB       N__Rd__LoadData__V_Files
 556B:0480       N__ReadAnalog__ReadValue__DGH_u
 3134:01EF       N__ReadDME__Oblicz__D_Odb
 4D51:1B68       N__ReadData__O_Analiza__Analiza
 57A9:006A       N__ReadEOL__GetFrame__GPS_TRIMB
 57A9:00C9       N__ReadGPS__GetFrame__GPS_TRIMB
 5689:0200       N__ReadGPS__GetFrame__GPS_nov
 57A9:0306       N__ReadG__GetFrame__GPS_TRIMBLE
 2DF4:002A       N__ReadNAV__Oblicz__V_Odb
 57A9:0021       N__ReadPacketHead__GetFrame__GP
 3134:001A       N__ReadSimul__ReadDME__Oblicz__
 5839:07A4       N__Reader__Writer__DGHInterface
 1F60:0BF3       N__RedrawRqs__Xchg__Dialog__Scr
 1088:0052       N__Remove__RemoveToKill__MONITO
 0DEB:01A0       N__Remove__RemoveToKill__monito
 3B10:0226       N__Rot90__InitMarkers__Polozeni
 3B10:0EEE       N__Rysuj__Promienie__Polozenie
 40F6:243E       N__SaveChannel__SaveSegmentTabl
 40F6:2293       N__SaveReal__SaveSegmentTables_
 40F6:23A0       N__SaveSegment__SaveChannel__Sa
 40F6:230E       N__SaveTable__SaveSegmentTables
 40F6:219B       N__SaveValue__SaveSegmentTables
 1E04:015F       N__Sek2__PolaryzacjaBP__Pomiar
 43D8:05AF       N__SendMsg__ControlLoop__CocpDs
 43D8:0823       N__SetLOC_G_SCP__ControlLoop__C
 1F60:1AFD       N__ShowCurrDIB__InitSlupki__Scr
 1F60:22B6       N__ShowMarks__UpdateWykr__Updat
 44B1:034B       N__ShrinkX__Tablice800__tablice
 44B1:0219       N__Shrink__Tablice800__tablice_
 02EB:0495       N__Side__AddSample__AVR10_AddSa
 545E:010A       N__Side__AngAddSample__Marks
 545E:0423       N__Side__DisAddSample__Marks
 4D51:010B       N__SigMaxAvr__Analiza__V_Count
 46D8:17B3       N__SkalX__PokazWykresNSLog__Wyk
 46D8:222D       N__SkalX__PokazWykresZXms__Wykr
 46D8:062B       N__SkalX__PokazWykres__Wykres
 46D8:0101       N__SkalY__Draw__Wykres
 46D8:0853       N__SkalY__PokazWykres1__Wykres
 46D8:1546       N__SkalY__PokazWykresNSLog__Wyk
 46D8:1FF2       N__SkalY__PokazWykresZXms__Wykr
 46D8:052F       N__SkalY__PokazWykres__Wykres
 4A19:0229       N__Skala__Update__Slupek
 40F6:143A       N__Status__Error__Kalibracja
 29E8:023F       N__StripSpaces__sprintf__StdIO
 3962:018F       N__ToEOL__LookForEntry__Ini
 3E56:0303       N__TuneGS__TuneILS__Tune
 1A8C:1965       N__TworzK__KopiujWszystkiePliki
 57A9:03CB       N__TypGPS__GetFrame__GPS_TRIMBL
 44B1:20FA       N__UpdateAlfaMarks__UpdTab800__
 44B1:2092       N__UpdateDistMarks__UpdTab800__
 44B1:0152       N__UpdateNR__Tablice800__tablic
 1F60:3357       N__UpdateNapisy__Update__Screen
 1F60:2485       N__UpdateWykr__Update__Screen
 091C:1391       N__UstawPokrycieWPoziomie__Dane
 0546:0010       N__UsunNajmniejszy__FlagErr_Ana
 12FE:0A79       N__UsunPola__UsunDialog__Dialog
 14A6:329B       N__UsunSpacje__FillData__V_Oblo
 1166:02FB       N__UsunStr__SkasujWszystko__GLi
 528D:05C6       N__Wr4Signals__OpisPomiaru__VOR
 091C:191F       N__WrFmtNad__DaneDlaDME__D_Repo
 091C:12BF       N__WrOdcinek__DaneDlaDME__D_Rep
 5141:0533       N__WrSignalDesc__OpisBleduDME__
 5141:098B       N__WrSignalDesc__OpisPomiaru__R
 528D:0718       N__WrSignalDesc__OpisPomiaru__V
 5141:05D9       N__WrSignalInt__OpisBleduDME__O
 1166:107D       N__WrStr__Draw__GList
 4C2D:0AA6       N__WrStr__PiszNaEkranie__PiszEv
 23D6:0ADB       N__Wr__WrJakiGdzieC__PI_Report
 23D6:08FF       N__Wr__WrJakiGdzie__PI_Report
 4AA2:03F7       N__WriteBends__DispResults__V_D
 4AA2:0B25       N__WriteDevOrbit__DispResults__
 4AA2:05DF       N__WriteDev__DispResults__V_Dis
 4AA2:0DA2       N__WriteFlgAndLowSignal__DispRe
 528D:0936       N__WriteFlgAndLowSignal__OpisPo
 4BD3:027A       N__WriteMod__DispResults__D_Dis
 4AA2:0861       N__WriteMod__DispResults__V_Dis
 1F60:1F5F       N__WriteText__ShowMarks__Update
 1F60:2D08       N__WskazWykresy__Update__Screen
 57A9:016D       N__WspGeoPoprawne__ReadG__GetFr
 5689:0B90       N__Wydziel__An_Frame_GPZDA__Get
 57A9:043F       N__Wydziel__GetFrame__GPS_TRIMB
 4985:039B       N__WykSlupB__WykSlup__PI_ScrUti
 4985:0470       N__WykSlupF__WykSlup__PI_ScrUti
 091C:2746       N__WykresPokryciaWPionie__Druku
 091C:1D36       N__WykresPokryciaWPoziomie__Dru
 23D6:2697       N__Wykres__Wykresy__PI_Report
 3B10:0959       N__XY__LL__DrawNCO__Polozenie
 091C:15C2       N__ZasiegiNaOdcinkach__DaneDlaD
 23D6:2D14       N__ZasiegiNaPromieniu__DaneProm
 4D51:1AEF       N__ZerujFlagi__O_Analiza__Anali
 4C2D:038B       N__Znacznik__Decode__PiszEventy
 1F60:2201       N__ZwKrokOpisuOsi__ShowMarks__U
 1D49:0586       N__checkDir__OrbitDirection__Or
 1D49:009B       N__checkDir__RadialDirection__R
 3DA3:04DF       N__convDigit__RealToString__Rea
 3DA3:0572       N__convertnumber__RealToString_
 3DA3:05EA       N__exp10__RealToString__RealCon
 02EB:0349       N__findidx__AddSample__AVR10_Ad
 545E:0050       N__findidx__AngAddSample__Marks
 545E:037F       N__findidx__DisAddSample__Marks
 545E:0670       N__findidx__SegZakonczony__Mark
 02EB:013A       N__findidx__SegmentZakonczony__
 43D8:090E       N__pozycjaStrzalki__ControlLoop
 5B6D:04E1       N__sqr__Count__Roughness_AddSam
 1D49:0559       N__succ__OrbitDirection__Orbit_
 1D49:006E       N__succ__RadialDirection__Radia
 5689:03B1       N__szukaniePola__GetFrame__GPS_
 6597:013F       Nadajnik1__CommonData
 6597:0140       Nadajnik2__CommonData
 630A:00A4       NameRes__V_Files
 65AD:00B0       NamesAlfa__Files
 65AD:0008       NamesAn__Files
 65AD:00E8       NamesComm__Files
 631B:0074       NamesDis__D_Files
 65AD:0040       NamesDist__Files
 631B:0004       NamesSig__D_Files
 630A:0004       NamesSig__V_Files
 65E9:006E       NapisB_01__Pomiar
 707C:0020       Narysowany__Polozenie
 6597:0052       NazwaOblotu__CommonData
 70D1:0000       NazwaPlikuIni__Obloty
 6597:007B       NazwaPlikuOpisu__CommonData
 70D1:015B       NazwaPlikuZOpisem__Obloty
 83FA:0067       NazwaPliku__VORPrint
 6597:0000       NazwaUrzadz1__CommonData
 6597:0029       NazwaUrzadz2__CommonData
 5EA1:0000       NewProcess__RTSCoroutine
 65F3:002D       NextRedraw__Screen
 683D:0053       Nie_mozna_uruchomic_kanalu_Teod
 6943:0274       NrX__Zoom
 6283:0008       NuOfErrorProc__MANAGER
 6283:0120       NuOfReady__MANAGER
 6544:000B       NumEl__monitor__ShortCuts
 6283:001A       NumberOfProc__MANAGER
 674F:0000       OCCUPED__Storage
 6843:0000       ObecnyStan__GPSRead
 6943:0288       ObslugaWylaczona__Zoom
 8434:0007       OdnB__PrintCntroll
 6513:002A       OdnB__ZoomInterface
 658C:0031       OdnBlad__V_Oblot
 6597:013D       OdnDlaPomBledu__CommonData
 6832:003F       OdnDlaPomBledu__V_Odb
 6597:013E       OdnDlaPomOdl__CommonData
 658C:0035       OdnOdl__V_Oblot
 8428:0008       OdniesienieMtx__GeoArithmetic
 8434:0006       Odniesienie__PrintCntroll
 83FA:0002       Odniesienie__VORPrint
 65F3:007D       OileKursor__Dialog__Screen
 6545:005E       OldButtons__BezPrzerwanOdMyszy_
 70F8:0968       OmnibearingProgi__Kalibracja
 70F8:0948       Omnibearing_delay__Kalibracja
 6943:0004       OpisWykresu__Zoom
 69A1:0000       Opisy__PI_ZoomSpecific
 658C:000D       OrbBlad__V_Oblot
 658C:001D       OrbZasieg__V_Oblot
 6597:0144       Orbita__CommonData
 658C:0071       OstatniOblot__V_Oblot
 6513:0029       OstatniStan__ZoomInterface
 8425:0014       Ostrzezenie_ze_za_dlugo__DGHInt
 6943:0555       PMDLicznik__Zoom
 61E8:0002       PSPAddress__RTSMain
 6756:0006       P_A__MsgBox
 5E72:004D       ParCopy__RTSLanguage
 70F8:0AF8       Par__Kalibracja
 653E:0018       Path__HiLevGraf
 6752:000C       PeriodCount__Monitor__Timer
 6752:000A       Period__Monitor__Timer
 6752:000E       PeriodicProcedure__Monitor__Tim
 8064:0000       PoczatekStrony__PiszEventy
 70BE:0052       PokazywacPolozenie__Mapa
 6A22:0004       PolozenieNapisu__Print
 683D:0000       PolozenieTeodolitu__TheodolitRe
 658A:0000       PomiarANieArchiwum__PI_PA
 658C:0065       Pomiar__V_Oblot
 6943:0224       PosMarkerX__Zoom
 6597:0146       Predkosc__CommonData
 65F3:0032       Predrawmarksreq__Screen
 65F3:0036       Predrawreq__Screen
 6A22:000A       PrevIdx__Print
 6A34:0796       PrevPage__DrawEpson
 6545:0054       PrevReg__MMMouse
 6A34:0000       PrnPort__DrawEpson
 6A22:0000       PrnX__Print
 6A22:0002       PrnY__Print
 65E9:0000       ProcPom__Pomiar
 6305:0000       Procedura__V_CommonTypes
 707C:011A       ProcesAktywny__Polozenie
 658C:0015       PromBlad__V_Oblot
 658C:0025       PromZasieg__V_Oblot
 6597:0142       Promien__CommonData
 707C:0006       Promien__Polozenie
 6943:0278       PrzeskokWDol__Zoom
 6943:0276       PrzeskokWGore__Zoom
 5DEA:003C       RangeError__RTSError
 658C:0061       Raport__V_Oblot
 6283:0004       ReadyFirst__MANAGER
 6283:0118       ReadyLast__MANAGER
 5EE7:0000       RealError__RTSRealError
 707C:0112       Rect__Polozenie
 658C:008B       Redraw__V_Oblot
 6837:000A       RefAlfa__ScannerI
 6837:0022       RefDis__ScannerI
 65F3:0047       RegionWyk1Created__Screen
 65F3:0043       RegionWyk1__Screen
 65F3:004C       RegionWyk2Created__Screen
 65F3:0048       RegionWyk2__Screen
 65F3:0051       RegionWyk3Created__Screen
 65F3:004D       RegionWyk3__Screen
 65F3:0042       RegionWykGCreated__Screen
 65F3:003E       RegionWykG__Screen
 65F3:0052       RegionWykresow__Screen
 6545:0000       Regiony__MMMouse
 693F:0008       Reply__D_Odb
 6A34:07A3       Rotation__DrawEpson
 65CF:0195       Running__V_CP_ControlProc
 65F3:006E       RysSytMaxDis__Dialog__Screen
 70BE:0053       RysSytMaxDis__Mapa
 6518:0010       SR__D_Report
 693F:0024       SSmin__D_Odb
 299D:0058       S__ACKMess__Messages
 009A:0002       S__ASSERT__MANAGER
 009A:11B5       S__ActivateProcess__Scheduler__
 12FE:0FCA       S__Aktywizuj__Dialog
 3962:0F29       S__AllocateBuffer__Ini
 2EE6:0A73       S__Analizer__TheodolitRead
 1A8C:1E70       S__AssignName__Files
 2D28:0002       S__BCD__HRD_Clock
 299D:0382       S__Beep__Messages
 2CDC:03C4       S__Blad__XMSService
 23D6:0C51       S__BledyNaOrbicie__PI_Report
 28D1:0C05       S__BreakKey__Timer
 1166:0FE8       S__CP__GList
 009A:18F5       S__CallTerminatingProcedures__M
 14A6:2218       S__CardVal__V_Oblot
 03A6:0163       S__CheckCNil__SpecConv
 03A6:009C       S__CheckINil__SpecConv
 2D28:003A       S__CheckUpdateCycle__HRD_Clock
 12FE:15B1       S__ChwilowoZablokujDialog__Dial
 1D49:04FD       S__ClearAngVelContiner__V_CP_Co
 3134:077B       S__ClearContiners__D_Odb
 2DF4:08AB       S__ClearContiners__V_Odb
 1D49:0012       S__ClearLinVelContiner__V_CP_Co
 009A:04D7       S__ClearQueue__MANAGER
 5031:0002       S__CommReq__Monitor__D_DAcquizi
 509A:001A       S__CommReq__Monitor__V_DAcquizi
 3732:0942       S__Conv2PL__DrawEpson
 007A:001A       S__CtrlBreakProc__FCBS
 12FE:1185       S__CzyMoznaSkonczyc__Dialog
 4C2D:0786       S__Decode__PiszEventy
 0E65:0002       S__DefineStdCursor__MMMouse
 22DB:042C       S__DisposeButtons__MouseMonitor
 1F60:1876       S__DisposeKursor__Dialog__Scree
 31E6:12E0       S__DobierzDzialki__Zoom
 5950:006A       S__DodajPolozenieGeo__GeoArithm
 091C:0733       S__DokladnoscWNormie_P__D_Repor
 3732:0ABD       S__DrawChar0__DrawEpson
 3732:0E1D       S__DrawChar90__DrawEpson
 0E65:0C8E       S__DrawCursor__BezWyszeregowani
 1088:047D       S__DrawInter__Buttons
 3B10:044A       S__DrawMarker__Polozenie
 3B10:0BA8       S__DrawNCO__Polozenie
 3732:0DA0       S__DrawText0__DrawEpson
 3732:10A7       S__DrawText90__DrawEpson
 1166:1181       S__Draw__GList
 0FB6:0827       S__Draw__InpLine
 31E6:0978       S__EnableAll__Zoom
 3B10:0855       S__EraseMarker__Polozenie
 40F6:1489       S__Error__Kalibracja
 3ACA:02B0       S__ExceptionHandler__Semafory
 14A6:52E8       S__ExistDIR__V_Oblot
 3962:0BE2       S__Expand__Ini
 14A6:32F0       S__FillData__V_Oblot
 31E6:0B17       S__FillData__Zoom
 3CED:09DC       S__FillPromieie__Mapa
 305C:08D1       S__FillSignalTable__DGHIni
 1088:0205       S__FindAMark__MONITOR__Buttons
 0DEB:0424       S__FindAMark__monitor__ShortCut
 2BB2:1064       S__FindROMFontAddr__Graphics
 0DEB:0382       S__Find__monitor__ShortCuts
 3962:001E       S__FormSectionString__Ini
 2CDC:01F3       S__Free__XMSService
 2875:04FF       S__GetChain__Storage
 0C7C:15BC       S__GetDir__HiLevGraf
 0E65:096B       S__GetEvent__BezPrzerwanOdMyszy
 5031:00C1       S__GetEvent__Monitor__D_DAcquiz
 509A:00D9       S__GetEvent__Monitor__V_DAcquiz
 22DB:036D       S__GetEvent__MouseMonitor__PI_A
 2BB2:09BB       S__GetFontPtr__InternalMonitor_
 2D28:006D       S__GetGodzina__HRD_Clock
 2875:04CB       S__GetStrategia__Storage
 2BB2:008B       S__HugeMemCpy__Graphics
 5D46:0002       S__INByte__ARINC
 009A:05E2       S__INSERT__MANAGER
 3F1B:0266       S__IleInspekcji__Obloty
 5031:0494       S__IniData__D_DAcquizition
 509A:0529       S__IniData__V_DAcquizition
 22DB:017C       S__InitButtony__MouseMonitor__P
 1F60:1983       S__InitButtony__Screen
 091C:3248       S__InitDane__D_Report
 23D6:3F11       S__InitDane__PI_Report
 1F60:17F1       S__InitDialog__Dialog__Screen
 38BD:04F4       S__InitEvents__EventsMng
 2D4F:097A       S__InitFiles__FIO
 1F60:1D4C       S__InitKrokOpisuOsi__Screen
 06F9:0C53       S__InitLocals__D_Files
 05EB:0EAD       S__InitLocals__V_Files
 3B10:032E       S__InitMarkers__Polozenie
 1F60:1B9A       S__InitSlupki__Screen
 44B1:15DF       S__InitTab__tablice__DataCollec
 305C:03D8       S__InitTableOfNames__DGHIni
 3ACA:03BE       S__InitTbl__Semafory
 1F60:1749       S__InitWykr__Dialog__Screen
 5AF4:0211       S__Init__D_Slupek
 1A8C:2852       S__Init__Files
 0E65:00D9       S__Init__MMMouse
 2B36:064D       S__Init__MsgBox
 08E5:02FC       S__Init__PrintScreen
 4A88:0002       S__Init__ScreenCTypes
 5A7F:01E1       S__Init__V_Slupek
 009A:002D       S__InsertReady__MANAGER
 1088:0002       S__Insert__MONITOR__Buttons
 28D1:0002       S__Insert__Monitor__Timer
 0DEB:013F       S__Insert__monitor__ShortCuts
 0001:0002       S__InspekcjaEP__AV
 009A:1A6A       S__InstallTerminator__MANAGER
 23D6:2B4E       S__JakaWysokosc__PI_Report
 3F1B:0B21       S__Kasuj_DelDir__Obloty
 5689:0170       S__KopZnakDoKanaluMonitora__GPS
 3F1B:1564       S__KopiujKartoteke__Obloty
 31E6:04E7       S__KtoryWykres__Zoom
 1F60:18A7       S__KursoffOff__Dialog__Screen
 1F60:18CD       S__KursoffOn__Dialog__Screen
 31E6:0BAE       S__LoadData__Zoom
 2BB2:108B       S__LoadPLFonts__Graphics
 3C33:0A8A       S__LoadProgramPar__V_Database
 40F6:1E6D       S__LoadSegmentTables__Kalibracj
 3C33:0303       S__LoadVorData__V_Database
 0841:01E1       S__Load__ZoomInterface
 46D8:009B       S__Log10__Wykres
 46D8:1DFD       S__LogPos__Wykres
 3962:020F       S__LookForEntry__Ini
 3962:010A       S__LookForSection__Ini
 528D:03E2       S__MakeHeader__VORPrint
 3CED:0419       S__MakeMAP__Mapa
 3732:0107       S__Map__DrawEpson
 494F:0245       S__Map__XMSTable
 1088:0318       S__MarkBut__MONITOR__Buttons
 5638:004E       S__MarkError__DigiRS
 31E6:1E59       S__MaxV__Zoom
 0C7C:0007       S__Max__HiLevGraf
 5950:0601       S__Mile__GeoArithmetic
 31E6:1EA8       S__MinMax__Zoom
 31E6:1E0A       S__MinV__Zoom
 0C7C:0027       S__Min__HiLevGraf
 55F6:002A       S__Next__Random
 0C7C:0741       S__Norm__HiLevGraf
 14A6:2D3D       S__NowaLista__V_Oblot
 4985:033B       S__NowySlup__PI_ScrUtility
 5D46:0062       S__OUTByte__ARINC
 299D:0358       S__OUTMessage__Messages
 5950:01D4       S__OdejmijPolozenieGeo__GeoArit
 5950:04C0       S__Odl2Geo__GeoArithmetic
 5950:012E       S__Odwr__GeoArithmetic
 08E5:0013       S__OpenF__PrintScreen
 528D:09C0       S__OpisPomiaru__VORPrint
 14A6:2874       S__PodajPredkosc__V_Oblot
 091C:0B3A       S__PodstawCardinal__D_Report
 3589:0886       S__PointA__Print
 3589:0ADD       S__PointB__Print
 1F60:054D       S__PokazWgKursora__Dialog__Scre
 14A6:4DE0       S__Pokaz__V_Oblot
 31E6:182C       S__PopX__Zoom
 31E6:1A0A       S__PopY__Zoom
 528D:0F86       S__Print__VORPrint
 528D:03C3       S__PromienANieOrbita__VORPrint
 23D6:3751       S__PrzygotujDane__PI_Report
 31E6:179A       S__PushX__Zoom
 31E6:18B7       S__PushY__Zoom
 009A:07D2       S__REMOVE__MANAGER
 5950:03A9       S__Rad__GeoArithmetic
 305C:0CDC       S__ReadDGHIniFile__DGHIni
 14A6:21BB       S__RealVal__V_Oblot
 1F60:01D5       S__RectWykresy__Screen
 3CED:008A       S__RedefineMaxDist__Mapa
 31E6:082E       S__RedrawAll__Zoom
 0E65:0B5F       S__RedrawAt__BezWyszeregowania_
 1166:1046       S__Redraw__GList
 31E6:2059       S__Redraw__Zoom
 1A8C:1902       S__RemoveBSl__Files
 0E65:0C0A       S__RemoveCursor__BezWyszeregowa
 009A:0236       S__RemoveReady__MANAGER
 1088:01B5       S__RemoveToKill__MONITOR__Butto
 0DEB:032C       S__RemoveToKill__monitor__Short
 28D1:0159       S__Remove__Monitor__Timer
 02EB:00C8       S__ResetContiner__VORO_avrage
 1F60:10CD       S__RuszKursor__Dialog__Screen
 009A:102A       S__STOPPROCESS__Scheduler__MANA
 14A6:5127       S__SciezkaDoKataloguOpisu__V_Ob
 3E56:049F       S__SendDMECntrlWrd__Tune
 3E56:0007       S__Send__Tune
 2875:04E7       S__SetChain__Storage
 28D1:07F7       S__SetCount__Monitor__Timer
 40F6:09B6       S__SetError__ErrorHand__Kalibra
 0C7C:0230       S__SetPalette__HiLevGraf
 1166:1790       S__SetPositions__GList
 1166:16B4       S__SetSelectionInt__GList
 0E65:0639       S__SetShape__MMMouse
 2875:04B3       S__SetStrategia__Storage
 05B4:00E8       S__SetTimeAndDate__BezPrzerwan_
 1F60:0CC9       S__ShowBarCursor__Dialog__Scree
 3F1B:0738       S__SkasujKartoteke__Obloty
 5950:02F0       S__SredniPolozenieGeo__GeoArith
 06F9:0065       S__StartFiles__D_Files
 05EB:007F       S__StartFiles__V_Files
 44B1:1BBB       S__Start__DataCollect
 0C7C:0047       S__StdPalette__HiLevGraf
 009A:1144       S__StopAError__Scheduler__MANAG
 3CED:0922       S__Stop__monitor__Mapa
 14A6:40E1       S__StripSPC__V_Oblot
 0C7C:071E       S__Swap__HiLevGraf
 0E65:0623       S__Swap__MMMouse
 0001:0020       S__SwitchContext__AV
 091C:083B       S__SygnalRozpoznawczy__D_Report
 44B1:0422       S__Tablice800__tablice__DataCol
 14A6:2273       S__ToOrbita__V_Oblot
 3E56:0697       S__TuneVOR_ILS__Tune
 4985:009A       S__UniversalAB__PI_ScrUtility
 1F60:0259       S__UniversalEvent__Dialog__Scre
 1088:03BB       S__Unmark__MONITOR__Buttons
 0DEB:04D2       S__Unmark__monitor__ShortCuts
 1F60:0FA8       S__UpdateMap__Dialog__Screen
 5C81:01FC       S__UstawLiczbe__PrintCntroll
 14A6:27CB       S__UstawPredkosc__V_Oblot
 14A6:415A       S__UstawPromienie__V_Oblot
 5C81:01BC       S__UstawStrony__PrintCntroll
 3732:00A5       S__UstawTrybTekstowy__DrawEpson
 23D6:1019       S__VarRefSub__PI_Report
 14A6:2009       S__Wlacz_Wylacz__V_Oblot
 0E65:066E       S__WrBit__MMMouse
 23D6:07D0       S__WrFmtNad__PI_Report
 0E65:0651       S__WrIdx__MMMouse
 23D6:0BA7       S__WrJakiGdzieC__PI_Report
 23D6:0A26       S__WrJakiGdzie__PI_Report
 4C2D:1163       S__WrLn__PiszEventy
 4C2D:117D       S__WrP__PiszEventy
 091C:0C43       S__WrPrnFmtLn__D_Report
 23D6:08AA       S__WrPrnFmtLn__PI_Report
 091C:0B99       S__WrPrnFmt__D_Report
 23D6:075D       S__WrPrnFmt__PI_Report
 4C2D:10B0       S__WrStrLn__PiszEventy
 4C2D:10DC       S__WrStr__PiszEventy
 2CDC:0412       S__WrWarning__XMSService
 05B4:003B       S__Write__BezPrzerwan__Czas
 14A6:20BF       S__WstawDoListyOblotow__V_Oblot
 14A6:5333       S__WykonanoWszystkiePromienie__
 23D6:2A66       S__Wykresy__PI_Report
 3F1B:02DC       S__WymienWszystkie__Obloty
 1F60:0C7D       S__Xchg__Dialog__Screen
 14A6:3A2E       S__ZapisanieDodatkowychPromieni
 3F1B:0EB9       S__ZnajdzNumInspekcji__Obloty
 091C:0B1A       S__max__D_Report
 091C:0AFA       S__min__D_Report
 4C2D:0D48       S__min__PiszEventy
 3CED:037D       S__resolveSituation__Mapa
 2EE6:0852       S__signalError__TheodolitRead
 6A21:0001       SamName__Rap_Util
 6A21:0007       Sam__Rap_Util
 6544:0005       SavedChar__monitor__ShortCuts
 6B66:5019       SavedFileName__Ini
 6597:00FC       SciezkaOpisuPomiaru__CommonData
 69A1:07BC       Sciezka__PI_ZoomSpecific
 6544:0001       ShortCutList__monitor__ShortCut
 6846:0F70       SignalDescr__DGHIni
 6837:0053       Simul__ScannerI
 7239:000C       SkalaCPMax__CocpDsp
 7239:0008       SkalaCP__CocpDsp
 7239:000E       SkalaWPMax__CocpDsp
 7239:000A       Skala__CocpDsp
 5E72:0000       SpecialCASE__RTSLanguage
 6A21:0000       SpelniaWymagania__Rap_Util
 693F:000C       Squitter__D_Odb
 70D1:01DD       SrcDir__Obloty
 707C:0002       Srodek__Polozenie
 5DFA:0673       StackCheck__RTSMain
 5DFA:067C       StackOvf__RTSMain
 707C:0000       StalyKat__Polozenie
 65E9:0054       StanButtonow__Pomiar
 65E9:0075       StanZestawu__Pomiar
 674F:0023       StaraStrategia__Storage
 0001:06A2       StartModula
 6518:0000       StartN__D_Report
 660C:0000       StartN__PI_Report
 7075:0000       StartN__PrintUtl
 6518:0004       StartTol__D_Report
 660C:0004       StartTol__PI_Report
 674F:0025       StaryCh__Storage
 70D1:0044       Stat_File_Monitor__Obloty
 70D1:0040       Stat_Size_Monitor__Obloty
 683D:003D       State__TheodolitRead
 6283:001C       Statistic__MANAGER
 6999:0000       StatusR__GrafUtil
 6545:01E5       Stored__BezPrzerwanOdMyszy__MMM
 6308:0000       StringRect__BezPrzerwan__Czas
 653E:0008       Style__HiLevGraf
 70F8:0940       SubcarPrcMod_delay__Kalibracja
 6308:0008       SystemTime__BezPrzerwan__Czas
 6837:0028       TEO_A__ScannerI
 6837:003A       TEO_DGPSpoprawki__ScannerI
 6837:0030       TEO_E__ScannerI
 6837:0038       TEO_OK__ScannerI
 6752:0002       TIOS__Timer
 6752:0006       TOQueue__Monitor__Timer
 6283:0124       TSSInterval__MANAGER
 70F8:0000       TabKalib2P__Kalibracja
 6846:08E8       TableOfNames__DGHIni
 7076:0000       TablicaSemaforow__Semafory
 6837:000C       TeoAlfaF__ScannerI
 683D:0036       TeoEvNr__TheodolitRead
 658C:005D       TestUP__V_Oblot
 6A22:0006       TextModeOutProc__Print
 65F3:0029       ThisDTidx__Screen
 6752:0000       TimeCounter__Timer
 6283:0128       TimeIntNum__MANAGER
 6A22:00D5       Tmpl__Print
 6999:006E       Tone__GrafUtil
 693F:0018       Trace__D_Odb
 5EA1:0143       Transfer__RTSCoroutine
 83F2:0009       TrwaPomiarPolaryzacji__V_DAcqui
 6754:000A       TurnBeepOn__Messages
 658C:008C       Uaktualnij__V_Oblot
 658C:0055       UsunB__V_Oblot
 723C:0000       VAL1__DataCollect
 65F3:0000       VAL1__Screen
 723C:3210       VAL2__DataCollect
 65F3:0004       VAL2__Screen
 723C:6420       VAL3__DataCollect
 65F3:0008       VAL3__Screen
 723C:9630       VAL4__DataCollect
 65F3:000C       VAL4__Screen
 723C:C8A6       VALX__tablice__DataCollect
 70A0:01D3       VOR_O_czuloscCP__V_Database
 70A0:01D1       VOR_O_czuloscWP__V_Database
 70A0:01D7       VOR_R_czuloscCP__V_Database
 70A0:01D5       VOR_R_czuloscWP__V_Database
 70C6:0000       VORfreqCRT__Tune
 6283:0208       VarDR__MANAGER
 70F8:0950       VorAgc_delay__Kalibracja
 70F8:0930       VorRefPrcMod_delay__Kalibracja
 70F8:0938       VorVarPrcMod_delay__Kalibracja
 6283:0122       WaitForInt__MANAGER
 6999:006C       WaitTime__GrafUtil
 658C:009C       WybranyA__V_Oblot
 658C:009E       WybranyB__V_Oblot
 658C:0041       WykLoty__V_Oblot
 70F8:13F8       WystapilBlad__Kalibracja
 653E:0059       XS__HiLevGraf
 6943:02C9       XStackDepth__Zoom
 6943:02A1       XStack__Zoom
 653E:005B       YS__HiLevGraf
 6943:054B       YStackDepth__Zoom
 6943:02CB       YStack__Zoom
 6513:0005       Zawartosc__ZoomInterface
 6A22:0013       ZestawProbekBinDoWyboru__Print
 6274:0003       Zestaw__AV
 8434:0004       Zestaw__PrintCntroll
 65F3:0010       Zestaw__Screen
 83FA:0000       Zestaw__VORPrint
 65F3:007F       ZmianaSkaliWpionie__Dialog__Scr
 6943:0000       ZmienP__Zoom
 6943:0286       ZnacznikPrzerwy__Zoom
 6943:028D       ZoomOutPion__Zoom
 6943:0289       ZoomOutPoziom__Zoom
 840A:0000       a__Random
 841D:0006       actPart__GPS_TRIMBLE
 8414:0006       actPart__GPS_nov
 61E8:001A       activProcess__RTSMain
 8425:0010       activated__DGHInterface
 6207:0000       addProcess__RTSCoroutine
 8406:0000       address__DGH_utils
 6832:0014       agc__V_Odb
 65F3:001C       aktFormat360__Screen
 65CF:0192       aktOrbita__V_CP_ControlProc
 65F3:0013       aktPromienOdAnt__Screen
 65F3:0011       aktPromien__Screen
 70BE:0040       aktualny__Mapa
 65E9:0082       alfaOff__Pomiar
 6327:0000       anRes__D_results
 62A6:0000       anRes__V_results
 65CF:00CD       angCont__V_CP_ControlProc
 723C:C844       angContiner__DataCollect
 707C:011C       angContiner__Polozenie
 6016:001E       areSetsEQ__Longs
 6832:0002       audio__V_Odb
 6759:0004       bank__InternalMonitor__Graphics
 6759:0006       bankstart__InternalMonitor__Gra
 70D1:0099       bd_NazwaPliku__Obloty
 70D1:00AA       bd_Sekcja__Obloty
 70D1:00B5       bd_WpisNazwa__Obloty
 8065:00FC       bendsCon__V_Count
 8406:0020       binAddress__DGH_utils
 8425:0006       binaryDtaSign__DGHInterface
 61E8:0006       blockList__RTSMain
 674E:0000       break__SoftIntHandlingManager
 841D:0009       bufor__GPS_TRIMBLE
 8414:000C       bufor__GPS_nov
 65F3:0025       by23__Screen
 6B66:5017       charsInBuffer__Ini
 6B66:50E2       check__Ini
 841D:0002       chrCount__GPS_TRIMBLE
 8414:0002       chrCount__GPS_nov
 8061:0000       colPos__V_DisResults
 6016:00B4       complement__Longs
 6AB0:0B48       conEnr__EventsMng
 8425:0008       csErrorCnt__DGHInterface
 61E8:0016       curProcess__RTSMain
 723C:C85E       curr23__tablice__DataCollect
 6837:0054       currAlfaOff__ScannerI
 6606:0004       currButtonSet__MouseMonitor__PI
 65E9:0058       currButtonSet__Pomiar
 65F3:003A       currConsoleEv__Screen
 6327:1EA4       currDT__D_results
 62A6:05A3       currDT__V_results
 7239:0019       currErrorCP__CocpDsp
 7239:001D       currErrorGS__CocpDsp
 7239:001B       currErrorWP__CocpDsp
 7239:0002       currFROMflg__CocpDsp
 7239:0000       currGSflg__CocpDsp
 83F2:0008       currGlownyOdbiornik__V_DAcquizi
 7239:0015       currLNumber__CocpDsp
 7239:0026       currMsg__CocpDsp
 7239:0001       currNAVflg__CocpDsp
 7239:0017       currRNumber__CocpDsp
 7239:0014       currState__CocpDsp
 683D:003F       currState__TheodolitRead
 7239:0003       currTOflg__CocpDsp
 83F1:0004       currUpdMarks__D_DAcquizition
 83F2:0004       currUpdMarks__V_DAcquizition
 65E9:0092       currZestaw__Pomiar
 8425:0004       currentSign__DGHInterface
 6843:0001       currentSign__GPSRead
 683D:0034       currentSign__TheodolitRead
 6B66:0010       currfile__Ini
 842F:001C       cursorDIB__D_Slupek
 842C:001C       cursorDIB__V_Slupek
 65E9:0093       dataInBuff__Pomiar
 6274:000E       dataOk__AV
 61E8:001E       debuggerRecord__RTSMain
 65F3:001D       devDistR__Screen
 61E8:0030       deviceMask__RTSMain
 7239:0004       dirCP__CocpDsp
 7239:0006       dirWP__CocpDsp
 65CF:0000       disCont__V_CP_ControlProc
 723C:C84C       disContiner__DataCollect
 8436:0000       disableMask__NAVInterface
 6606:0000       dispResults__PI_Analiza
 693F:002B       distErrF_MemFIntContiner__D_Odb
 693F:0020       distErrF__D_Odb
 693F:001C       distErr__D_Odb
 65E9:007E       distOff__Pomiar
 70BE:004A       distRect__Mapa
 723C:C872       div2n__tablice__DataCollect
 723C:C876       div3n__tablice__DataCollect
 70BE:0000       doZrobienia__Mapa
 6544:000D       done__ShortCuts
 7239:0023       dtaSign__CocpDsp
 8065:0000       dvAVcont__V_Count
 61E8:0032       dyingOverlay__RTSMain
 627A:007A       entryTmpPtr__DOSEntry
 627A:0000       entryTmp__DOSEntry
 8414:007B       eos__GPS_nov
 70F8:13B8       errDetected__Kalibracja
 8414:007E       err_unrec_cnt__GPS_nov
 61E8:0000       errorCode__RTSMain
 627A:007E       exitTmpPtr__DOSEntry
 627A:003D       exitTmp__DOSEntry
 6283:01F6       expInter__Scheduler__MANAGER
 70F8:13FF       f__Kalibracja
 65AD:01A0       filesAlfa__Files
 65AD:01A8       filesComm__Files
 65AD:0190       filesDist__Files
 83F1:0008       filesNotEmpty__D_DAcquizition
 83F2:0013       filesNotEmpty__V_DAcquizition
 8436:0004       fineMode__NAVInterface
 674E:0001       firstISRDescriptorPtr__Monitor_
 6A22:000E       flgEOF__Print
 693F:001A       flg__D_Odb
 6837:0000       flg__ScannerI
 6832:0018       flg__V_Odb
 70F8:13FB       for_counter__Kalibracja
 7239:0025       force__CocpDsp
 65E9:007C       format360__Pomiar
 841D:0000       framesWError__GPS_TRIMBLE
 8414:0000       framesWError__GPS_nov
 61E8:0128       freeList__RTSMain
 841D:0004       frmCount__GPS_TRIMBLE
 8414:0004       frmCount__GPS_nov
 65E9:0077       frstBut__Pomiar
 83FA:0086       gOdb__VORPrint
 6756:0000       hDlg__MsgBox
 8434:0000       hDlg__PrintCntroll
 658C:0001       hDlg__V_Oblot
 83FA:0003       header__VORPrint
 674F:0001       heapList__Storage
 65AD:01C8       homeDir__Files
 7239:0012       iloscStrzal__CocpDsp
 6B66:0004       ini__Ini
 70F8:13BC       inputCoeff__Kalibracja
 627A:0082       insideFlag__DOSEntry
 70D1:00C0       insp_DirTmp__Obloty
 6016:009D       intersection__Longs
 723C:C87A       ix2__tablice__DataCollect
 723C:C87E       ix3__tablice__DataCollect
 840A:006E       j__Random
 840A:0070       k__Random
 65E9:0079       katPromien__Pomiar
 8436:0005       killTime__NAVInterface
 8434:0011       lPodz__PrintCntroll
 70C6:00A0       lastCPFlags__Tune
 83F1:000D       lastComm__Monitor__D_DAcquiziti
 83F2:0012       lastComm__Monitor__V_DAcquiziti
 683D:0046       lastCrc__TheodolitRead
 70C6:00A2       lastDMEfrqBits__Tune
 6770:0000       lastErr__FIO
 70F8:13F9       lastError__ErrorHand__Kalibracj
 683D:0040       lastNum__TheodolitRead
 6832:0049       licznik__V_Odb
 6518:023F       line__D_Report
 6837:0056       loc_tog__ScannerI
 6832:0048       locationsTogether__V_Odb
 683D:0024       lstAzymuth__TheodolitRead
 683D:002C       lstElevation__TheodolitRead
 683D:003A       lstEvent__TheodolitRead
 683D:003B       lstTracking__TheodolitRead
 6545:01EC       lx__BezWyszeregowania__MMMouse
 6545:01EE       ly__BezWyszeregowania__MMMouse
 6274:0000       mainState__AV
 70BE:0042       mapRct__Mapa
 723C:C857       marks_Con_A__DataCollect
 723C:C854       marks_Con_D__DataCollect
 8425:000E       maxClicks__DGHInterface
 8437:0002       maxCountR__ARINC
 8437:0000       maxCountW__ARINC
 6770:0006       maxOpened__FIO
 6545:0050       maxX__MMMouse
 6545:0052       maxY__MMMouse
 8412:0000       minWrBufLength__DigiRS
 70BE:005B       myPoint__Mapa
 65CF:0190       myRadial__V_CP_ControlProc
 6832:0040       navFlgCon__V_Odb
 6832:0000       navFlg__V_Odb
 7239:001F       newState__CocpDsp
 70BE:0060       noActive__monitor__Mapa
 83F1:0009       notify__Monitor__D_DAcquizition
 83F2:000E       notify__Monitor__V_DAcquizition
 6770:0002       numErr__FIO
 683D:0048       numPos__TheodolitRead
 8425:000A       nvErrorCndF__DGHInterface
 8425:000C       nvErrorCndS__DGHInterface
 6832:0004       obr__V_Odb
 8405:0000       okresImp__FIltr1St
 61E8:01CE       oldNMIvector
 6770:0004       opened__FIO
 61E8:000E       overlayInitProc__RTSMain
 61E8:000A       overlayList__RTSMain
 61E8:0012       overlayTermProc__RTSMain
 842F:0000       parSlupkow__D_Slupek
 842C:0000       parSlupkow__V_Slupek
 6AB0:0B44       pilEnr__EventsMng
 6837:0026       pilErr__ScannerI
 6943:027A       podz__Zoom
 6274:0006       podzielnik__AV
 6274:0004       polaryzacjaOK__AV
 83F2:000A       polvfaza__V_DAcquizition
 83F2:000C       pom2sek__V_DAcquizition
 65F3:001B       pomPromieniowy__Screen
 65F3:007A       popJakieWykr__Dialog__Screen
 841D:0007       posInRecBuf__GPS_TRIMBLE
 8414:000A       posInRecBuf__GPS_nov
 674F:0021       prevHeap__Storage
 61E8:0046       priorityMasks__RTSMain
 723C:C882       procVAL1__tablice__DataCollect
 723C:C88A       procVAL2__tablice__DataCollect
 723C:C892       procVAL3__tablice__DataCollect
 723C:C89A       procVAL4__tablice__DataCollect
 61E8:003E       programSize
 65E9:007B       promien__Pomiar
 6016:0000       pushLSet__Longs
 65CF:0194       radial__V_CP_ControlProc
 83F1:0003       redrawM__D_DAcquizition
 83F2:0003       redrawM__V_DAcquizition
 83F1:0002       redraw__D_DAcquizition
 70BE:005F       redraw__Mapa
 83F2:0002       redraw__V_DAcquizition
 83F4:0040       refPress__AltInterface
 6832:000C       ref__V_Odb
 6756:0004       ret__MsgBox
 8065:34F8       roughnessCon__V_Count
 6545:01F0       rx__BezWyszeregowania__MMMouse
 6545:01F2       ry__BezWyszeregowania__MMMouse
 65F3:002B       samplediv__Screen
 723C:C85A       samplediv__tablice__DataCollect
 693F:0028       samples__D_Odb
 723C:C8A2       samples__tablice__DataCollect
 6A22:000F       scaleDiv__Print
 842F:0018       screeenDIB__D_Slupek
 842C:0018       screeenDIB__V_Slupek
 65F3:006A       screenDIB__Screen
 6327:1EB0       sec__D_results
 62A6:05AF       sec__V_results
 653E:000C       semafor__HiLevGraf
 8065:006C       signalsAVcont__V_Count
 6846:0000       signals__DGHIni
 65F3:0082       skalaWpionie__Dialog__Screen
 805B:0014       slLDib_rec__ScreenCTypes
 805B:000C       slLReg_rec__ScreenCTypes
 805B:0008       slL_pnt__ScreenCTypes
 805B:0000       slL_rec__ScreenCTypes
 805B:004C       slPDib_rec__ScreenCTypes
 805B:0044       slPReg_rec__ScreenCTypes
 805B:0040       slP_pnt__ScreenCTypes
 805B:0038       slP_rec__ScreenCTypes
 805B:0030       slSDib_rec__ScreenCTypes
 805B:0028       slSReg_rec__ScreenCTypes
 805B:0024       slS_pnt__ScreenCTypes
 805B:001C       slS_rec__ScreenCTypes
 8059:000C       slupkiAktywne__PI_ScrUtility
 8059:0000       slupki__PI_ScrUtility
 6283:012A       spTab__MANAGER
 8436:0002       speedMask__NAVInterface
 7239:0010       srodekSkali__CocpDsp
 70D1:00D3       stat_Files__Obloty
 70D1:00CB       stat_Size__Obloty
 6606:001D       sthPressed__MouseMonitor__PI_An
 6999:0008       str__GrafUtil
 6016:005E       subSet__Longs
 6832:0010       sub__V_Odb
 8414:0007       sumaModC__GPS_nov
 8414:0008       sumaModF__GPS_nov
 6016:0036       superSet__Longs
 6274:0002       switchAble__AV
 6274:000A       synResult__AV
 6AB0:0B4C       teoEnr__EventsMng
 683D:003C       teoEvBit__TheodolitRead
 683D:004C       teoEvCon__TheodolitRead
 683D:0050       teoEvNrCOn__TheodolitRead
 70A0:01D0       twoLocations__V_Database
 6016:00CF       unionCompl__Longs
 6016:0086       union__Longs
 6832:0008       var__V_Odb
 70F8:13FD       void__Kalibracja
 683D:0038       wd_dgps_currSign__TheodolitRead
 6943:0282       xFirst__Zoom
 6943:0284       xLast__Zoom
 65AD:01C4       xRefDefV__Files
 65AD:01C0       xRefFile__Files
 6943:021C       x_odn__Zoom
 6943:0220       x_time__Zoom
 6A34:0002       xh__DrawEpson
 83FA:0087       zOdb__VORPrint
 70BE:0020       zrobione__Mapa

  Address         Publics by Value

 0000:0000  Abs  KEY__10jul99_1214_OF_D_DisResul
 0000:0000  Abs  KEY__10jul99_1214_OF_D_Files
 0000:0000  Abs  KEY__10jul99_1214_OF_D_Count
 0000:0000  Abs  KEY__10jul99_1214_OF_D_DAcquizi
 0000:0000  Abs  KEY__10jul99_1214_OF_D_Odb
 0000:0000  Abs  KEY__10jul99_1214_OF_DataCollec
 0000:0000  Abs  KEY__10jul99_1214_OF_Dialog
 0000:0000  Abs  KEY__10jul99_1214_OF_D_Slupek
 0000:0000  Abs  KEY__10jul99_1214_OF_D_results
 0000:0000  Abs  KEY__10jul99_1214_OF_Czas
 0000:0000  Abs  KEY__10jul99_1214_OF_DGHIni
 0000:0000  Abs  KEY__10jul99_1214_OF_CommonData
 0000:0000  Abs  KEY__10jul99_1214_OF_CommonType
 0000:0000  Abs  KEY__10jul99_1214_OF_DGHInterfa
 0000:0000  Abs  KEY__10jul99_1214_OF_DOSEntry
 0000:0000  Abs  KEY__10jul99_1214_OF_D_CommonTy
 0000:0000  Abs  KEY__10jul99_1214_OF_DGH_utils
 0000:0000  Abs  KEY__10jul99_1214_OF_DMEPrint
 0000:0000  Abs  KEY__10jul99_1214_OF_GPSRead
 0000:0000  Abs  KEY__10jul99_1214_OF_GPS_TRIMBL
 0000:0000  Abs  KEY__10jul99_1214_OF_FlagAnal
 0000:0000  Abs  KEY__10jul99_1214_OF_GList
 0000:0000  Abs  KEY__10jul99_1214_OF_GPS_nov
 0000:0000  Abs  KEY__10jul99_1214_OF_GrafUtil
 0000:0000  Abs  KEY__10jul99_1214_OF_Graphics
 0000:0000  Abs  KEY__10jul99_1214_OF_GeoArithme
 0000:0000  Abs  KEY__10jul99_1214_OF_GrafTypes
 0000:0000  Abs  KEY__10jul99_1214_OF_DrawEpson
 0000:0000  Abs  KEY__10jul99_1214_OF_ErrorMess
 0000:0000  Abs  KEY__10jul99_1214_OF_DigiRS
 0000:0000  Abs  KEY__10jul99_1214_OF_DisResUtil
 0000:0000  Abs  KEY__10jul99_1214_OF_EventsMng
 0000:0000  Abs  KEY__10jul99_1214_OF_FIltr1St
 0000:0000  Abs  KEY__10jul99_1214_OF_Files
 0000:0000  Abs  KEY__10jul99_1214_OF_FCBS
 0000:0000  Abs  KEY__10jul99_1214_OF_FIO
 0000:0000  Abs  KEY__10aug87_2030_OF_BitByteOps
 0000:0000  Abs  KEY__10aug87_2030_OF_BlockOps
 0000:0000  Abs  KEY__05feb87_1233_OF_Longs
 0000:0000  Abs  KEY__10aug87_2030_OF_ASCII
 0000:0000  Abs  KEY__10aug87_2031_OF_DOSMemory
 0000:0000  Abs  KEY__10aug87_2031_OF_Display
 0000:0000  Abs  KEY__10aug87_2031_OF_DynMem
 0000:0000  Abs  KEY__10aug87_2031_OF_DebugPMD
 0000:0000  Abs  KEY__10aug87_2031_OF_Devices
 0000:0000  Abs  KEY__00xxx00_0000_OF_RTSCorouti
 0000:0000  Abs  KEY__00xxx00_0000_OF_RTSError
 0000:0000  Abs  KEY__00xxx00_0000_OF_DebugPMD
 0000:0000  Abs  KEY__00xxx00_0000_OF_RTS87
 0000:0000  Abs  KEY__00xxx00_0000_OF_RTSInterru
 0000:0000  Abs  KEY__00xxx00_0000_OF_RTSPriorit
 0000:0000  Abs  KEY__00xxx00_0000_OF_RTSRealErr
 0000:0000  Abs  KEY__00xxx00_0000_OF_RTSLanguag
 0000:0000  Abs  KEY__00xxx00_0000_OF_RTSMain
 0000:0000  Abs  KEY__10aug87_2033_OF_RealConver
 0000:0000  Abs  KEY__10aug87_2033_OF_Sounds
 0000:0000  Abs  KEY__10aug87_2033_OF_RTSCorouti
 0000:0000  Abs  KEY__10aug87_2033_OF_Random
 0000:0000  Abs  KEY__10jul87_1035_OF_RTSMonExit
 0000:0000  Abs  KEY__10jul99_1214_OF_Buttons
 0000:0000  Abs  KEY__10jul99_1214_OF_CocpDsp
 0000:0000  Abs  KEY__10jul99_1214_OF_ARINC
 0000:0000  Abs  KEY__10jul99_1214_OF_AltInterfa
 0000:0000  Abs  KEY__10aug87_2031_OF_RTSDevice
 0000:0000  Abs  KEY__10aug87_2031_OF_Storage
 0000:0000  Abs  KEY__10aug87_2031_OF_Keyboard
 0000:0000  Abs  KEY__10aug87_2031_OF_NumberConv
 0000:0000  Abs  KEY__10aug87_2031_OF_Strings
 0000:0000  Abs  KEY__10aug87_2032_OF_MathLib0
 0000:0000  Abs  KEY__10aug87_2033_OF_Mouse
 0000:0000  Abs  KEY__10aug87_2031_OF_Termbase
 0000:0000  Abs  KEY__10aug87_2031_OF_Terminal
 0000:0000  Abs  KEY__10jul99_1214_OF_HRD_Clock
 0000:0000  Abs  KEY__10jul99_1214_OF_V_Count
 0000:0000  Abs  KEY__10jul99_1214_OF_V_DAcquizi
 0000:0000  Abs  KEY__10jul99_1214_OF_V_CP_Contr
 0000:0000  Abs  KEY__10jul99_1214_OF_V_CommonTy
 0000:0000  Abs  KEY__10jul99_1214_OF_V_Database
 0000:0000  Abs  KEY__10jul99_1214_OF_V_Oblot
 0000:0000  Abs  KEY__10jul99_1214_OF_V_Odb
 0000:0000  Abs  KEY__10jul99_1214_OF_V_DisResul
 0000:0000  Abs  KEY__10jul99_1214_OF_V_Files
 0000:0000  Abs  KEY__10jul99_1214_OF_SwitchCntr
 0000:0000  Abs  KEY__10jul99_1214_OF_TheodolitR
 0000:0000  Abs  KEY__10jul99_1214_OF_SpecConv
 0000:0000  Abs  KEY__10jul99_1214_OF_StdIO
 0000:0000  Abs  KEY__10jul99_1214_OF_Timer
 0000:0000  Abs  KEY__10jul99_1214_OF_VORPrint
 0000:0000  Abs  KEY__10jul99_1214_OF_VORR_Avera
 0000:0000  Abs  KEY__10jul99_1214_OF_Tune
 0000:0000  Abs  KEY__10jul99_1214_OF_VORO_avrag
 0000:0000  Abs  KEY__10jul99_1216_OF_D_Report
 0000:0000  Abs  KEY__10jul99_1216_OF_PI_DMEnagl
 0000:0000  Abs  KEY__10jul99_1215_OF_ZoomInterf
 0000:0000  Abs  KEY__10jul99_1216_OF_AV
 0000:0000  Abs  KEY__10jul99_1216_OF_PI_Report
 0000:0000  Abs  KEY__12aug87_1620_OF_RTSMain
 0000:0000  Abs  KEY__21aug96_1223_OF_XMS
 0000:0000  Abs  KEY__10jul99_1216_OF_PrintUtl
 0000:0000  Abs  KEY__10jul99_1216_OF_Rap_Util
 0000:0000  Abs  KEY__10jul99_1214_OF_WorseBecau
 0000:0000  Abs  KEY__10jul99_1214_OF_Wykres
 0000:0000  Abs  KEY__10jul99_1214_OF_V_Slupek
 0000:0000  Abs  KEY__10jul99_1214_OF_V_results
 0000:0000  Abs  KEY__10jul99_1214_OF_XMSService
 0000:0000  Abs  KEY__10jul99_1215_OF_SimScanner
 0000:0000  Abs  KEY__10jul99_1215_OF_Zoom
 0000:0000  Abs  KEY__10jul99_1214_OF_XMSTable
 0000:0000  Abs  KEY__10jul99_1215_OF_PI_ZoomSpe
 0000:0000  Abs  KEY__10jul99_1214_OF_Math
 0000:0000  Abs  KEY__10jul99_1214_OF_Messages
 0000:0000  Abs  KEY__10jul99_1214_OF_Mapa
 0000:0000  Abs  KEY__10jul99_1214_OF_Marks
 0000:0000  Abs  KEY__10jul99_1214_OF_MsgBox
 0000:0000  Abs  KEY__10jul99_1214_OF_PI_Analiza
 0000:0000  Abs  KEY__10jul99_1214_OF_PI_ArchDat
 0000:0000  Abs  KEY__10jul99_1214_OF_NAVInterfa
 0000:0000  Abs  KEY__10jul99_1214_OF_Obloty
 0000:0000  Abs  KEY__10jul99_1214_OF_InpLine
 0000:0000  Abs  KEY__10jul99_1214_OF_Int_DME
 0000:0000  Abs  KEY__10jul99_1214_OF_HiLevGraf
 0000:0000  Abs  KEY__10jul99_1214_OF_Ini
 0000:0000  Abs  KEY__10jul99_1214_OF_Kalibracja
 0000:0000  Abs  KEY__10jul99_1214_OF_MMA_Cout
 0000:0000  Abs  KEY__10jul99_1214_OF_MMMouse
 0000:0000  Abs  KEY__10jul99_1214_OF_Kl_FGenera
 0000:0000  Abs  KEY__10jul99_1214_OF_MANAGER
 0000:0000  Abs  KEY__10jul99_1214_OF_ScannerI
 0000:0000  Abs  KEY__10jul99_1214_OF_Screen
 0000:0000  Abs  KEY__10jul99_1214_OF_PrintCntro
 0000:0000  Abs  KEY__10jul99_1214_OF_PrintScree
 0000:0000  Abs  KEY__10jul99_1214_OF_ScreenCTyp
 0000:0000  Abs  KEY__10jul99_1214_OF_Slupek
 0000:0000  Abs  KEY__10jul99_1214_OF_SoftIntHan
 0000:0000  Abs  KEY__10jul99_1214_OF_Semafory
 0000:0000  Abs  KEY__10jul99_1214_OF_ShortCuts
 0000:0000  Abs  KEY__10jul99_1214_OF_PI_PA
 0000:0000  Abs  KEY__10jul99_1214_OF_PI_Pomiar
 0000:0000  Abs  KEY__10jul99_1214_OF_PI_Drukuj
 0000:0000  Abs  KEY__10jul99_1214_OF_PI_Glowny
 0000:0000  Abs  KEY__10jul99_1214_OF_PI_ScrUtil
 0000:0000  Abs  KEY__10jul99_1214_OF_Pomiar
 0000:0000  Abs  KEY__10jul99_1214_OF_Print
 0000:0000  Abs  KEY__10jul99_1214_OF_PiszEventy
 0000:0000  Abs  KEY__10jul99_1214_OF_Polozenie
 0001:0000       $BM__AV
 0001:0002       S__InspekcjaEP__AV
 0001:0020       S__SwitchContext__AV
 0001:003D       $BODY__AV
 0001:06A2       StartModula
 0001:078E       $EM__AV
 007A:0000       $BM__FCBS
 007A:0002       L__Set__FCBS
 007A:001A       S__CtrlBreakProc__FCBS
 007A:0037       $BODY__FCBS
 007A:004C       $INIT__FCBS
 007A:0071       $EM__FCBS
 0082:0000       $BM__DOSEntry
 0082:0002       L__onEntryHandler__DOSEntry
 0082:004F       L__onExitHandler__DOSEntry
 0082:009C       L__TerminalProcedure__DOSEntry
 0082:00C2       $BODY__DOSEntry
 0082:0150       $INIT__DOSEntry
 0082:017A       $EM__DOSEntry
 009A:0000       $BM__MANAGER
 009A:0002       S__ASSERT__MANAGER
 009A:002D       S__InsertReady__MANAGER
 009A:0236       S__RemoveReady__MANAGER
 009A:04D7       S__ClearQueue__MANAGER
 009A:05E2       S__INSERT__MANAGER
 009A:07D2       S__REMOVE__MANAGER
 009A:0892       L__SEND__MANAGER
 009A:0892       L__SEND__Scheduler__MANAGER
 009A:0A58       L__Notify__Scheduler__MANAGER
 009A:0A58       L__Notify__MANAGER
 009A:0AAF       L__Broadcast__MANAGER
 009A:0AAF       L__Broadcast__Scheduler__MANAGE
 009A:0AFD       L__WAITS__MANAGER
 009A:0AFD       L__WAITS__Scheduler__MANAGER
 009A:0BEF       L__WAITC__Scheduler__MANAGER
 009A:0BEF       L__WAITC__MANAGER
 009A:0CE1       L__DOIO__MANAGER
 009A:0CE1       L__DOIO__Scheduler__MANAGER
 009A:0FB4       L__AWAITEDS__MANAGER
 009A:0FB4       L__AWAITEDS__Scheduler__MANAGER
 009A:0FEF       L__AWAITEDC__Scheduler__MANAGER
 009A:0FEF       L__AWAITEDC__MANAGER
 009A:102A       S__STOPPROCESS__Scheduler__MANA
 009A:1144       S__StopAError__Scheduler__MANAG
 009A:11B5       S__ActivateProcess__Scheduler__
 009A:12EF       L__Assert__Scheduler__MANAGER
 009A:12EF       L__Assert__MANAGER
 009A:1357       $BODY__Scheduler__MANAGER
 009A:137C       L__STARTPROCESS__MANAGER
 009A:1629       L__PriorityDecrease__MANAGER
 009A:176C       L__InitC__MANAGER
 009A:1782       L__InitS__MANAGER
 009A:1798       L__Release__MANAGER
 009A:17CC       L__StartTimeSlicing__MANAGER
 009A:17E6       L__RecoveryTime__MANAGER
 009A:17F9       L__CurrentProcess__MANAGER
 009A:1815       L__InstallTermProc__MANAGER
 009A:188B       L__RemoveTermProc__MANAGER
 009A:18E5       L__EnterProtectedOp__MANAGER
 009A:18ED       L__ExitProtectedOp__MANAGER
 009A:18F5       S__CallTerminatingProcedures__M
 009A:1973       L__Terminator__MANAGER
 009A:1A6A       S__InstallTerminator__MANAGER
 009A:1A90       L__DUMMYPRO__MANAGER
 009A:1B1A       $BODY__MANAGER
 009A:1DCE       $INIT__MANAGER
 009A:1E0C       $EM__MANAGER
 027B:0000       $BM__ErrorMess
 027B:0029       L__MyErrorHand__ErrorMess
 027B:00E1       $BODY__ErrorMess
 027B:010C       $INIT__ErrorMess
 027B:0145       $EM__ErrorMess
 0290:0000       $BM__V_results
 0290:0028       L__SaveAnRes__V_results
 0290:005A       L__GetAnRes__V_results
 0290:0102       N__ClearAnRes__Init__V_results
 0290:03B4       L__Init__V_results
 0290:04D3       $BODY__V_results
 0290:0558       $INIT__V_results
 0290:05AA       $EM__V_results
 02EB:0000       $BM__VORO_avrage
 02EB:0082       L__OrbitDscClear__VORO_avrage
 02EB:00C8       S__ResetContiner__VORO_avrage
 02EB:00FA       L__ClearContainer__VORO_avrage
 02EB:0116       L__InicjujOpisStanuLuku__VORO_a
 02EB:013A       N__findidx__SegmentZakonczony__
 02EB:0294       L__SegmentZakonczony__VORO_avra
 02EB:0349       N__findidx__AddSample__AVR10_Ad
 02EB:0495       N__Side__AddSample__AVR10_AddSa
 02EB:0528       N__AddSample__AVR10_AddSample__
 02EB:08B9       N__O_AvrCountErr__AVR10_AddSamp
 02EB:0956       L__AVR10_AddSample__VORO_avrage
 02EB:0985       $BODY__VORO_avrage
 02EB:098B       $INIT__VORO_avrage
 02EB:09BF       $EM__VORO_avrage
 0388:0000       $BM__CommonTypes
 0388:0010       L__GetRecName__CommonTypes
 0388:0055       L__GetTranName__CommonTypes
 0388:0098       L__InitSignalDsc__CommonTypes
 0388:00B7       L__Init_flgTab__CommonTypes
 0388:00F4       $BODY__CommonTypes
 0388:00FA       $INIT__CommonTypes
 0388:011F       $EM__CommonTypes
 039B:0000       $BM__D_CommonTypes
 039B:0002       L__NilDlaPOdleglosci__D_CommonT
 039B:004A       $BODY__D_CommonTypes
 039B:0050       $INIT__D_CommonTypes
 039B:0075       $EM__D_CommonTypes
 03A3:0000       $BM__V_CommonTypes
 03A3:0002       $BODY__V_CommonTypes
 03A3:0008       $INIT__V_CommonTypes
 03A3:0028       $EM__V_CommonTypes
 03A6:0000       $BM__SpecConv
 03A6:009C       S__CheckINil__SpecConv
 03A6:0163       S__CheckCNil__SpecConv
 03A6:01ED       L__Int2Str__SpecConv
 03A6:0225       L__Card2Str__SpecConv
 03A6:025D       L__Int10Str__SpecConv
 03A6:033A       L__Card10Str__SpecConv
 03A6:0411       L__Int100Str__SpecConv
 03A6:0535       L__Int100StrCalk__SpecConv
 03A6:057F       L__Card100Str__SpecConv
 03A6:06A4       L__Ang100Str36__SpecConv
 03A6:0711       L__Ang100Str36Calk__SpecConv
 03A6:078F       L__Int500Str__SpecConv
 03A6:08C0       L__Feed500Str__SpecConv
 03A6:0959       L__Card500Str__SpecConv
 03A6:0A8D       L__Int1000Str__SpecConv
 03A6:0BF8       L__Angle100__SpecConv
 03A6:0C58       L__RAngle100__SpecConv
 03A6:0D36       L__AngleDeg__SpecConv
 03A6:0DA7       L__SubAngle100__SpecConv
 03A6:0E7B       L__AddAngle100__SpecConv
 03A6:0F4F       L__SubAng360__SpecConv
 03A6:101A       L__AfterAngle100__SpecConv
 03A6:10B3       L__SubNormal__SpecConv
 03A6:10CE       L__AddNormal__SpecConv
 03A6:10E9       L__GorszeBoDalszeR__SpecConv
 03A6:1127       L__GorszeBoDalsze__SpecConv
 03A6:1178       L__GorszeBoBlisze__SpecConv
 03A6:11C9       L__GorszeBoMniejszePol__SpecCon
 03A6:120A       L__GorszeBoMniejsze__SpecConv
 03A6:1237       L__GorszeBoWieksze__SpecConv
 03A6:1264       L__GorszeBoMniejszeM60__SpecCon
 03A6:12A5       L__GorszeBoMniejsze400__SpecCon
 03A6:12E6       L__GorszeBoMniejsze800__SpecCon
 03A6:1327       L__GorszeBoMniejsze300__SpecCon
 03A6:1368       L__GorszeBoMniejsze160__SpecCon
 03A6:13A9       L__GorszeBoMniejsze5000__SpecCo
 03A6:13EA       L__GorszeBoMniejsze500__SpecCon
 03A6:142B       L__GorszeBoMniejsze1500__SpecCo
 03A6:146C       L__GorszeBoMniejsze2000__SpecCo
 03A6:14AD       L__GorszeBoDalszeOdZera__SpecCo
 03A6:14EA       L__entierCheck__SpecConv
 03A6:15A6       L__entier__SpecConv
 03A6:165C       L__Int2StrCntr__SpecConv
 03A6:1755       L__Div__SpecConv
 03A6:1782       L__Mul__SpecConv
 03A6:17AE       L__Add__SpecConv
 03A6:17DA       L__Sub__SpecConv
 03A6:180D       L__SubDis__SpecConv
 03A6:1858       L__AddDis__SpecConv
 03A6:189B       L__IncRound__SpecConv
 03A6:18A9       L__SubWCheck__SpecConv
 03A6:1948       L__Int2Card__SpecConv
 03A6:197A       L__ZaokraglicDo500__SpecConv
 03A6:19B9       $BODY__SpecConv
 03A6:19BF       $INIT__SpecConv
 03A6:19F8       $EM__SpecConv
 0546:0000       $BM__FlagAnal
 0546:0010       N__UsunNajmniejszy__FlagErr_Ana
 0546:01D6       L__FlagErr_Anal__FlagAnal
 0546:02B3       L__InitFlagErr__FlagAnal
 0546:0352       L__GetNextFrac__FlagAnal
 0546:044F       L__MinPoczKonSig__FlagAnal
 0546:0513       L__MinPoczKonDis__FlagAnal
 0546:05D7       L__SumaDlugosciSig__FlagAnal
 0546:06A0       $BODY__FlagAnal
 0546:06A6       $INIT__FlagAnal
 0546:06DA       $EM__FlagAnal
 05B4:0000       $BM__Czas
 05B4:003B       S__Write__BezPrzerwan__Czas
 05B4:00C0       L__GetTimeAndDate__Czas
 05B4:00C0       L__GetTimeAndDate__BezPrzerwan_
 05B4:00E8       S__SetTimeAndDate__BezPrzerwan_
 05B4:0128       L__WriteTime__Czas
 05B4:01DA       L__SetTime__Czas
 05B4:021B       L__SetDate__Czas
 05B4:024E       L__ConvertToStr__Czas
 05B4:02AF       L__Terminator__Czas
 05B4:02E0       $BODY__Czas
 05B4:0308       $INIT__Czas
 05B4:0369       $EM__Czas
 05EB:0000       $BM__V_Files
 05EB:007F       S__StartFiles__V_Files
 05EB:01F6       L__CreateFiles__V_Files
 05EB:0212       L__OpenFiles__V_Files
 05EB:02B4       L__SaveData__V_Files
 05EB:04DB       N__Rd__LoadData__V_Files
 05EB:0524       L__LoadData__V_Files
 05EB:072B       L__CloseFiles__V_Files
 05EB:07BC       L__OpenSignalFiles__V_Files
 05EB:0857       L__ReadAllSignals__V_Files
 05EB:097C       L__CloseSignalFiles__V_Files
 05EB:0996       L__StartFileRes__V_Files
 05EB:0AF8       L__WriteFileRes__V_Files
 05EB:0B62       L__StopFileRes__V_Files
 05EB:0BEB       L__KopiujWszystkiePliki__V_File
 05EB:0D1B       L__GetSigFileName__V_Files
 05EB:0D8E       L__GetResFileName__V_Files
 05EB:0E01       N__AssignName__InitLocals__V_Fi
 05EB:0EAD       S__InitLocals__V_Files
 05EB:1046       $BODY__V_Files
 05EB:104F       $INIT__V_Files
 05EB:10D3       $EM__V_Files
 06F9:0000       $BM__D_Files
 06F9:0065       S__StartFiles__D_Files
 06F9:0231       L__CreateFiles__D_Files
 06F9:024D       L__OpenFiles__D_Files
 06F9:02EF       L__SaveData__D_Files
 06F9:0516       N__Rd__LoadData__D_Files
 06F9:0557       L__LoadData__D_Files
 06F9:075E       L__CloseFiles__D_Files
 06F9:081C       L__OpenSignalFiles__D_Files
 06F9:08AC       L__ReadAllSignals__D_Files
 06F9:0A2E       L__CloseSignalFiles__D_Files
 06F9:0A48       L__KopiujWszystkiePliki__D_File
 06F9:0B34       L__GetFileName__D_Files
 06F9:0BA7       N__AssignName__InitLocals__D_Fi
 06F9:0C53       S__InitLocals__D_Files
 06F9:0D80       $BODY__D_Files
 06F9:0D89       $INIT__D_Files
 06F9:0E08       $EM__D_Files
 07DA:0000       $BM__MMA_Cout
 07DA:000A       L__Init_MMA_SignalDsc__MMA_Cout
 07DA:003F       L__Count_MMA_SignalDsc__MMA_Cou
 07DA:00D6       L__Init_AvrDscr__MMA_Cout
 07DA:0124       L__MinMaxAvr__MMA_Cout
 07DA:01BF       $BODY__MMA_Cout
 07DA:01C5       $INIT__MMA_Cout
 07DA:01F4       $EM__MMA_Cout
 07FA:0000       $BM__D_results
 07FA:0022       L__SaveAnRes__D_results
 07FA:0054       L__GetAnRes__D_results
 07FA:00FF       N__Init_MMA_SignalDscArr__Init_
 07FA:0150       L__Init__D_results
 07FA:038B       $BODY__D_results
 07FA:0413       $INIT__D_results
 07FA:0460       $EM__D_results
 0841:0000       $BM__ZoomInterface
 0841:0062       L__Show__ZoomInterface
 0841:0184       N__Niepusty__Load__ZoomInterfac
 0841:01E1       S__Load__ZoomInterface
 0841:0413       L__RespProc__ZoomInterface
 0841:0892       L__ZmienOdniesienie__ZoomInterf
 0841:0969       L__Pokaz__ZoomInterface
 0841:097F       L__Rezygnuj__ZoomInterface
 0841:098F       $BODY__ZoomInterface
 0841:09BD       $INIT__ZoomInterface
 0841:0A32       $EM__ZoomInterface
 08E5:0000       $BM__PrintScreen
 08E5:0013       S__OpenF__PrintScreen
 08E5:00A7       L__SaveToDib__PrintScreen
 08E5:02FC       S__Init__PrintScreen
 08E5:031D       $BODY__PrintScreen
 08E5:0326       $INIT__PrintScreen
 08E5:036E       $EM__PrintScreen
 091C:0000       $BM__D_Report
 091C:0733       S__DokladnoscWNormie_P__D_Repor
 091C:07FF       L__DokladnoscWNormie_A__D_Repor
 091C:081D       L__DokladnoscWNormie_B__D_Repor
 091C:083B       S__SygnalRozpoznawczy__D_Report
 091C:0907       L__SygnalRozpoznawczy_A__D_Repo
 091C:0925       L__SygnalRozpoznawczy_B__D_Repo
 091C:0943       L__DodatkoweButtony__D_Report
 091C:0AFA       S__min__D_Report
 091C:0B1A       S__max__D_Report
 091C:0B3A       S__PodstawCardinal__D_Report
 091C:0B99       S__WrPrnFmt__D_Report
 091C:0C43       S__WrPrnFmtLn__D_Report
 091C:0C98       N__PoczatekWypisywania__RaportK
 091C:0EEA       N__AssignButtString__RaportKonc
 091C:0F4C       N__KoniecWypisywania__RaportKon
 091C:11DA       L__RaportKoncowy__D_Report
 091C:12BF       N__WrOdcinek__DaneDlaDME__D_Rep
 091C:1391       N__UstawPokrycieWPoziomie__Dane
 091C:15C2       N__ZasiegiNaOdcinkach__DaneDlaD
 091C:18C0       N__DatyNagl__DaneDlaDME__D_Repo
 091C:191F       N__WrFmtNad__DaneDlaDME__D_Repo
 091C:19F9       N__CoordAt__WykresPokryciaWPozi
 091C:1C94       N__Circle__WykresPokryciaWPozio
 091C:1D36       N__WykresPokryciaWPoziomie__Dru
 091C:22F8       N__DrukujOrbite__DaneDlaDME__D_
 091C:259C       N__IndexWys__WykresPokryciaWPio
 091C:2606       N__PolozenieNaWspolrzednejY__Wy
 091C:2746       N__WykresPokryciaWPionie__Druku
 091C:2EB7       N__DrukujPromien__DaneDlaDME__D
 091C:3074       L__DaneDlaDME__D_Report
 091C:31A1       N__InitLocalData__InitDane__D_R
 091C:3248       S__InitDane__D_Report
 091C:3316       $BODY__D_Report
 091C:3339       $INIT__D_Report
 091C:3408       $EM__D_Report
 0C5D:0000       $BM__GrafTypes
 0C5D:0002       L__IsIntersect__GrafTypes
 0C5D:0058       L__Intersection__GrafTypes
 0C5D:0100       L__MoveRect__GrafTypes
 0C5D:014B       L__IsEqual__GrafTypes
 0C5D:0187       L__AssignRect__GrafTypes
 0C5D:01AD       L__AssignPoint__GrafTypes
 0C5D:01C5       $BODY__GrafTypes
 0C5D:01CB       $INIT__GrafTypes
 0C5D:01E6       $EM__GrafTypes
 0C7C:0000       $BM__HiLevGraf
 0C7C:0007       S__Max__HiLevGraf
 0C7C:0027       S__Min__HiLevGraf
 0C7C:0047       S__StdPalette__HiLevGraf
 0C7C:0182       L__SetPaletteEntry__HiLevGraf
 0C7C:0230       S__SetPalette__HiLevGraf
 0C7C:030F       N__OpenF__LoadDIB__HiLevGraf
 0C7C:03A5       L__LoadDIB__HiLevGraf
 0C7C:06B5       L__DIBWidth__HiLevGraf
 0C7C:06E9       L__DIBHeight__HiLevGraf
 0C7C:071E       S__Swap__HiLevGraf
 0C7C:0741       S__Norm__HiLevGraf
 0C7C:0785       L__ShowDIB__HiLevGraf
 0C7C:0A9F       L__CloseDIB__HiLevGraf
 0C7C:0AE1       L__SetLineStyle__HiLevGraf
 0C7C:0AF4       L__Line__HiLevGraf
 0C7C:0B20       L__LineS__HiLevGraf
 0C7C:0C85       L__Circle__HiLevGraf
 0C7C:0F6C       L__FillRect__HiLevGraf
 0C7C:1026       L__Clip__HiLevGraf
 0C7C:10F4       L__NoClip__HiLevGraf
 0C7C:115F       L__GetClip__HiLevGraf
 0C7C:117A       L__Point__HiLevGraf
 0C7C:121A       L__MoveTo__HiLevGraf
 0C7C:1234       L__LineTo__HiLevGraf
 0C7C:1268       L__FrameRect__HiLevGraf
 0C7C:12D2       L__WrStr__HiLevGraf
 0C7C:138A       L__WrStrXY__HiLevGraf
 0C7C:144C       L__Wr2StrXY__HiLevGraf
 0C7C:1504       L__Wr2fStrXY__HiLevGraf
 0C7C:15BC       S__GetDir__HiLevGraf
 0C7C:1630       $BODY__HiLevGraf
 0C7C:1678       $INIT__HiLevGraf
 0C7C:16E3       $EM__HiLevGraf
 0DEB:0000       $BM__ShortCuts
 0DEB:0002       L__KeyPressed__monitor__ShortCu
 0DEB:0002       L__KeyPressed__ShortCuts
 0DEB:003B       L__PutKeyStrokeIntoBuffer__moni
 0DEB:003B       L__PutKeyStrokeIntoBuffer__Shor
 0DEB:006D       L__ClearBuffer__monitor__ShortC
 0DEB:006D       L__ClearBuffer__ShortCuts
 0DEB:008B       L__Read__monitor__ShortCuts
 0DEB:008B       L__Read__ShortCuts
 0DEB:0104       L__Rd__ShortCuts
 0DEB:0104       L__Rd__monitor__ShortCuts
 0DEB:013F       S__Insert__monitor__ShortCuts
 0DEB:01A0       N__Remove__RemoveToKill__monito
 0DEB:032C       S__RemoveToKill__monitor__Short
 0DEB:0382       S__Find__monitor__ShortCuts
 0DEB:0424       S__FindAMark__monitor__ShortCut
 0DEB:04D2       S__Unmark__monitor__ShortCuts
 0DEB:0532       $BODY__monitor__ShortCuts
 0DEB:056C       N__GetChar__KbdScan__ShortCuts
 0DEB:05B8       L__KbdScan__ShortCuts
 0DEB:0612       L__DefineShortCut__ShortCuts
 0DEB:0691       N__Kill__DeleteShortCut__ShortC
 0DEB:06DD       L__DeleteShortCut__ShortCuts
 0DEB:070A       $BODY__ShortCuts
 0DEB:0762       $INIT__ShortCuts
 0DEB:079B       $EM__ShortCuts
 0E65:0000       $BM__MMMouse
 0E65:0002       S__DefineStdCursor__MMMouse
 0E65:00D9       S__Init__MMMouse
 0E65:00DF       L__HideConditionally__MMMouse
 0E65:018A       L__IsHidden__MMMouse
 0E65:019E       L__RegisterRegion__MMMouse
 0E65:02C7       L__SetOnTop__MMMouse
 0E65:03E9       L__UnregisterRegion__MMMouse
 0E65:0623       S__Swap__MMMouse
 0E65:0639       S__SetShape__MMMouse
 0E65:0651       S__WrIdx__MMMouse
 0E65:066E       S__WrBit__MMMouse
 0E65:06C2       L__GetRegion__MMMouse
 0E65:0713       L__GetRegionRect__MMMouse
 0E65:0780       L__SetParent__MMMouse
 0E65:07F2       L__EventDispatcher__BezPrzerwan
 0E65:08F0       N__Button2Ev__GetEvent__BezPrze
 0E65:096B       S__GetEvent__BezPrzerwanOdMyszy
 0E65:0AC3       L__InsertEvent__MMMouse
 0E65:0AC3       L__InsertEvent__BezPrzerwanOdMy
 0E65:0B15       $BODY__BezPrzerwanOdMyszy__MMMo
 0E65:0B5F       S__RedrawAt__BezWyszeregowania_
 0E65:0BB2       L__ShowCursor__MMMouse
 0E65:0BB2       L__ShowCursor__BezWyszeregowani
 0E65:0BDE       L__HideCursor__BezWyszeregowani
 0E65:0BDE       L__HideCursor__MMMouse
 0E65:0C0A       S__RemoveCursor__BezWyszeregowa
 0E65:0C8E       S__DrawCursor__BezWyszeregowani
 0E65:1031       L__MouseLoop__MMMouse
 0E65:133C       L__Terminator__MMMouse
 0E65:134F       $BODY__MMMouse
 0E65:14AB       $INIT__MMMouse
 0E65:1502       $EM__MMMouse
 0FB6:0000       $BM__InpLine
 0FB6:0002       L__CreateInpLine__InpLine
 0FB6:0183       L__Enable__InpLine
 0FB6:01CA       L__DeleteInpLine__InpLine
 0FB6:02C9       L__SetText__InpLine
 0FB6:0388       L__GetText__InpLine
 0FB6:03DC       L__Key__InpLine
 0FB6:07B4       L__DoNothing__InpLine
 0FB6:07C4       L__KillFocus__InpLine
 0FB6:0827       S__Draw__InpLine
 0FB6:09E5       L__SetCursor__InpLine
 0FB6:0B2F       L__SetActive__InpLine
 0FB6:0C4D       L__GetRegion__InpLine
 0FB6:0C9E       $BODY__InpLine
 0FB6:0CB5       $INIT__InpLine
 0FB6:0D16       $EM__InpLine
 1088:0000       $BM__Buttons
 1088:0002       S__Insert__MONITOR__Buttons
 1088:0052       N__Remove__RemoveToKill__MONITO
 1088:01B5       S__RemoveToKill__MONITOR__Butto
 1088:0205       S__FindAMark__MONITOR__Buttons
 1088:0318       S__MarkBut__MONITOR__Buttons
 1088:03BB       S__Unmark__MONITOR__Buttons
 1088:041B       $BODY__MONITOR__Buttons
 1088:043F       N__Dec__DrawInter__Buttons
 1088:047D       S__DrawInter__Buttons
 1088:0790       L__UniversalKBD__Buttons
 1088:07E1       L__MouseHandler__Buttons
 1088:0959       L__ChangeButton__Buttons
 1088:09D0       L__ChangeButtonText__Buttons
 1088:0A36       N__KillButton__DisposeButton__B
 1088:0AAB       L__DisposeButton__Buttons
 1088:0AE2       L__PressRadio__Buttons
 1088:0B27       L__Nic__Buttons
 1088:0B2D       L__CreateButton__Buttons
 1088:0C3C       L__CreateRadioButton__Buttons
 1088:0CC0       L__EnableButton__Buttons
 1088:0D0E       L__GetRegion__Buttons
 1088:0D35       L__CallProc__Buttons
 1088:0D4E       L__EnableDisableAllButtons__But
 1088:0D61       $BODY__Buttons
 1088:0D80       $INIT__Buttons
 1088:0DD7       $EM__Buttons
 1166:0000       $BM__GList
 1166:0002       L__SetNotificationProc__GList
 1166:0020       L__DummyNotification__GList
 1166:0028       L__TworzListe__GList
 1166:02FB       N__UsunStr__SkasujWszystko__GLi
 1166:033D       L__SkasujWszystko__GList
 1166:0387       L__Skasuj__GList
 1166:04C1       L__UsunListe__GList
 1166:06B6       L__DodajDoListy__GList
 1166:08C9       L__WstawDoListy__GList
 1166:0A11       L__Idx2Str__GList
 1166:0AC4       L__ZmienListe__GList
 1166:0B6F       L__LiczbaElementow__GList
 1166:0B8E       L__kbHandler__GList
 1166:0C76       L__RScrollUp__GList
 1166:0D8F       L__RScrollDn__GList
 1166:0E9F       L__RChoose__GList
 1166:0FE8       S__CP__GList
 1166:100F       L__Wybor__GList
 1166:1046       S__Redraw__GList
 1166:107D       N__WrStr__Draw__GList
 1166:1181       S__Draw__GList
 1166:128C       L__HandleEvent__GList
 1166:1454       L__CanEnable__GList
 1166:1470       L__Disable__GList
 1166:14F4       L__GetSelection__GList
 1166:1513       L__Enable__GList
 1166:1608       L__GetRegion__GList
 1166:1698       L__Sortowana__GList
 1166:16B4       S__SetSelectionInt__GList
 1166:1754       L__SetSelectionNotf__GList
 1166:1772       L__SetSelection__GList
 1166:1790       S__SetPositions__GList
 1166:1819       L__GetRect__GList
 1166:1839       L__GetContents__GList
 1166:1860       L__SetContents__GList
 1166:18E1       L__KillContents__GList
 1166:18FD       $BODY__GList
 1166:1920       $INIT__GList
 1166:197C       $EM__GList
 12FE:0000       $BM__Dialog
 12FE:0006       L__GetDialogDIBHandle__Dialog
 12FE:002D       L__WstawButton__Dialog
 12FE:0156       L__WstawRadioButton__Dialog
 12FE:02EB       L__RadioBProc__Dialog
 12FE:03EC       L__WstawInpLine__Dialog
 12FE:0518       L__WstawListe__Dialog
 12FE:0663       L__TworzDialog__Dialog
 12FE:0A79       N__UsunPola__UsunDialog__Dialog
 12FE:0B28       L__UsunDialog__Dialog
 12FE:0D8A       L__KlawiszSpacji__Dialog
 12FE:0E12       L__KlawiszTab__Dialog
 12FE:0E94       L__KlawiszShiftTab__Dialog
 12FE:0F3F       N__Expand__Aktywizuj__Dialog
 12FE:0FCA       S__Aktywizuj__Dialog
 12FE:1185       S__CzyMoznaSkonczyc__Dialog
 12FE:123F       L__Go__Dialog
 12FE:1488       L__DialogMouseHandle__Dialog
 12FE:15B1       S__ChwilowoZablokujDialog__Dial
 12FE:15E7       L__EndDialog__Dialog
 12FE:1666       L__AltF4__Dialog
 12FE:167B       L__EnableDlg__Dialog
 12FE:17AC       L__IsBusy__Dialog
 12FE:17EF       L__Redraw__Dialog
 12FE:18C2       $BODY__Dialog
 12FE:18EB       $INIT__Dialog
 12FE:195B       $EM__Dialog
 1494:0000       $BM__PI_PA
 1494:0002       $BODY__PI_PA
 1494:0012       $INIT__PI_PA
 1494:002D       $EM__PI_PA
 1497:0000       $BM__PI_Glowny
 1497:0002       L__GlownyEP__PI_Glowny
 1497:00A4       $BODY__PI_Glowny
 1497:00AA       $INIT__PI_Glowny
 1497:00E8       $EM__PI_Glowny
 14A6:0000       $BM__V_Oblot
 14A6:0BDE       L__Nic__V_Oblot
 14A6:0BE4       L__InitOblot__V_Oblot
 14A6:10D9       L__OblotOK__V_Oblot
 14A6:1185       L__WymienPasujaceObloty1__V_Obl
 14A6:11CD       N__InitDefault__InitLot__V_Oblo
 14A6:147E       L__InitLot__V_Oblot
 14A6:2009       S__Wlacz_Wylacz__V_Oblot
 14A6:20BF       S__WstawDoListyOblotow__V_Oblot
 14A6:20E9       L__TestUP_PROC__V_Oblot
 14A6:210C       L__DaneArch_Play__V_Oblot
 14A6:212F       L__DaneArch_Stat__V_Oblot
 14A6:2152       L__DaneArch_Raport__V_Oblot
 14A6:2175       L__RaportKoncowy__V_Oblot
 14A6:2198       L__RaportKoncowy_DME__V_Oblot
 14A6:21BB       S__RealVal__V_Oblot
 14A6:2218       S__CardVal__V_Oblot
 14A6:2273       S__ToOrbita__V_Oblot
 14A6:227B       L__OrbBladA__V_Oblot
 14A6:22BA       L__OrbBladB__V_Oblot
 14A6:22F9       L__PromBladA__V_Oblot
 14A6:235C       L__PromBladB__V_Oblot
 14A6:23BF       L__OrbZasA__V_Oblot
 14A6:2474       L__OrbZasB__V_Oblot
 14A6:2529       L__PromZasA__V_Oblot
 14A6:258C       L__PromZasB__V_Oblot
 14A6:25EF       L__PomiarP__V_Oblot
 14A6:2654       L__GlowOdbP__V_Oblot
 14A6:2706       L__OdnBladP__V_Oblot
 14A6:27CB       S__UstawPredkosc__V_Oblot
 14A6:2874       S__PodajPredkosc__V_Oblot
 14A6:28B4       L__PredkoscValid__V_Oblot
 14A6:2913       L__OdnOdlP__V_Oblot
 14A6:2A71       L__RealValidOrb__V_Oblot
 14A6:2B40       L__RealCisnValid__V_Oblot
 14A6:2C09       L__LotyA__V_Oblot
 14A6:2CA3       L__LotyB__V_Oblot
 14A6:2D3D       S__NowaLista__V_Oblot
 14A6:329B       N__UsunSpacje__FillData__V_Oblo
 14A6:32F0       S__FillData__V_Oblot
 14A6:3A2E       S__ZapisanieDodatkowychPromieni
 14A6:3D7B       L__ZmienOblot__V_Oblot
 14A6:40E1       S__StripSPC__V_Oblot
 14A6:415A       S__UstawPromienie__V_Oblot
 14A6:42F5       L__CardValid__V_Oblot
 14A6:438B       L__ProbujWstawic__V_Oblot
 14A6:4452       L__DodajPr__V_Oblot
 14A6:4691       L__DodajP__V_Oblot
 14A6:46C4       L__WymienPasujaceObloty__V_Oblo
 14A6:4715       L__EnumObl__V_Oblot
 14A6:473F       L__DodajOblot__V_Oblot
 14A6:4D97       L__ProbujWstawicOblot__V_Oblot
 14A6:4DAD       L__NowyOblot__V_Oblot
 14A6:4DE0       S__Pokaz__V_Oblot
 14A6:4E0E       L__UsunP__V_Oblot
 14A6:504F       L__UsunOblotP__V_Oblot
 14A6:5082       L__UsunOblot__V_Oblot
 14A6:5127       S__SciezkaDoKataloguOpisu__V_Ob
 14A6:5159       L__SciezkaDoKataloguOpisuUst__V
 14A6:52E8       S__ExistDIR__V_Oblot
 14A6:5333       S__WykonanoWszystkiePromienie__
 14A6:55BE       L__Zapisz__V_Oblot
 14A6:5BF7       $BODY__V_Oblot
 14A6:5CA2       $INIT__V_Oblot
 14A6:5D85       $EM__V_Oblot
 1A7F:0000       $BM__CommonData
 1A7F:0012       $BODY__CommonData
 1A7F:00A7       $INIT__CommonData
 1A7F:00CC       $EM__CommonData
 1A8C:0000       $BM__Files
 1A8C:016F       L__Kopiuj__Files
 1A8C:0240       L__ReadDef__Files
 1A8C:0273       L__CreateFiles__Files
 1A8C:0638       L__OpenFiles__Files
 1A8C:09FD       L__SaveData__Files
 1A8C:0CB2       L__LoadData__Files
 1A8C:0F3B       L__CloseFiles__Files
 1A8C:1096       L__OpenSignalFiles__Files
 1A8C:1685       L__ReadXref__Files
 1A8C:16EA       L__ReadFlgs__Files
 1A8C:1729       L__ReadAllSignals__Files
 1A8C:17EB       L__CloseSignalFiles__Files
 1A8C:1902       S__RemoveBSl__Files
 1A8C:1965       N__TworzK__KopiujWszystkiePliki
 1A8C:19D4       L__KopiujWszystkiePliki__Files
 1A8C:1BE4       L__LoadAResult__Files
 1A8C:1D15       L__SaveAResult__Files
 1A8C:1DB9       L__ExistDIR__Files
 1A8C:1E04       L__ChangeDir__Files
 1A8C:1E3D       L__GoHomeDir__Files
 1A8C:1E70       S__AssignName__Files
 1A8C:1F1C       L__SubstituteAngle100__Files
 1A8C:1F61       L__addAngle100__Files
 1A8C:1FCB       L__subNormal__Files
 1A8C:203F       L__addNormal__Files
 1A8C:20C9       L__FInterpolacja__Files
 1A8C:246E       L__SigInterpolacja__Files
 1A8C:264E       L__GetALfaRefFName__Files
 1A8C:26C2       L__GetDisRefFName__Files
 1A8C:2735       L__GetCommSigFName__Files
 1A8C:27A8       L__OpenCommSigFName__Files
 1A8C:2819       L__CloseCommSigFName__Files
 1A8C:2833       L__ReadCommSigFName__Files
 1A8C:2852       S__Init__Files
 1A8C:2B3D       $BODY__Files
 1A8C:2B56       $INIT__Files
 1A8C:2BCB       $EM__Files
 1D49:0000       $BM__V_CP_ControlProc
 1D49:0012       S__ClearLinVelContiner__V_CP_Co
 1D49:006E       N__succ__RadialDirection__Radia
 1D49:009B       N__checkDir__RadialDirection__R
 1D49:0149       N__RadialDirection__Radial__V_C
 1D49:0329       L__Radial__V_CP_ControlProc
 1D49:04FD       S__ClearAngVelContiner__V_CP_Co
 1D49:0559       N__succ__OrbitDirection__Orbit_
 1D49:0586       N__checkDir__OrbitDirection__Or
 1D49:05DE       N__OrbitDirection__Orbit__V_CP_
 1D49:07B7       L__Orbit__V_CP_ControlProc
 1D49:09BD       L__StartCPLoop__V_CP_ControlPro
 1D49:0A8A       L__StopCPLoop__V_CP_ControlProc
 1D49:0AF3       $BODY__V_CP_ControlProc
 1D49:0B48       $INIT__V_CP_ControlProc
 1D49:0BA9       $EM__V_CP_ControlProc
 1E04:0000       $BM__Pomiar
 1E04:00F4       L__StartBP__Pomiar
 1E04:0104       L__RestartBP__Pomiar
 1E04:0114       L__AbortBP__Pomiar
 1E04:0124       L__CallStopButton__Pomiar
 1E04:012E       L__StopBP__Pomiar
 1E04:013E       L__PrzelaczPomiaryBP__Pomiar
 1E04:014F       L__AkceptacjaBP__Pomiar
 1E04:015F       N__Sek2__PolaryzacjaBP__Pomiar
 1E04:01F6       L__PolaryzacjaBP__Pomiar
 1E04:03EF       L__InitPomiar__Pomiar
 1E04:05EF       N__PoprawnieUstawButtony__Pomia
 1E04:06EF       N__NastepnyStan__GetEvent__Pomi
 1E04:0767       N__GetEvent__PomiarEP__Pomiar
 1E04:08A5       N__InitButtony__PomiarEP__Pomia
 1E04:0B16       N__DisposeButtons__Done__Pomiar
 1E04:0B84       N__Done__PomiarEP__Pomiar
 1E04:0B92       N__AlfaRefInfo__PomiarEP__Pomia
 1E04:0BD2       N__DeltaRefInfo__PomiarEP__Pomi
 1E04:0C3F       N__DataLosInfo__PomiarEP__Pomia
 1E04:0C88       N__PrologAnalyse__PomiarEP__Pom
 1E04:0EC2       L__PomiarEP__Pomiar
 1E04:14E0       $BODY__Pomiar
 1E04:153F       $INIT__Pomiar
 1E04:15AF       $EM__Pomiar
 1F60:0000       $BM__Screen
 1F60:01D5       S__RectWykresy__Screen
 1F60:0259       S__UniversalEvent__Dialog__Scre
 1F60:02D8       L__RegionWykGEvent__Dialog__Scr
 1F60:0323       L__RegionWykGButton__Dialog__Sc
 1F60:037F       L__RegionWyk1Event__Dialog__Scr
 1F60:03CA       L__RegionWyk1Button__Dialog__Sc
 1F60:0419       L__RegionWyk2Event__Dialog__Scr
 1F60:0464       L__RegionWyk2Button__Dialog__Sc
 1F60:04B3       L__RegionWyk3Event__Dialog__Scr
 1F60:04FE       L__RegionWyk3Button__Dialog__Sc
 1F60:054D       S__PokazWgKursora__Dialog__Scre
 1F60:0B48       L__WykrEvent__Dialog__Screen
 1F60:0BC1       L__KursorLewoButton__Dialog__Sc
 1F60:0BDA       L__KursorPrawoPar__Dialog__Scre
 1F60:0BF3       N__RedrawRqs__Xchg__Dialog__Scr
 1F60:0C7D       S__Xchg__Dialog__Screen
 1F60:0CC9       S__ShowBarCursor__Dialog__Scree
 1F60:0D49       L__KursorOnOffBP__Dialog__Scree
 1F60:0D66       L__SkalaPlusBP__Dialog__Screen
 1F60:0E5D       L__SkalaMinusBP__Dialog__Screen
 1F60:0F54       L__KursorPrawoBP__Dialog__Scree
 1F60:0F7E       L__KursorLewoBP__Dialog__Screen
 1F60:0FA8       S__UpdateMap__Dialog__Screen
 1F60:0FD7       N__CurrCursorMode__RuszKursor__
 1F60:10CD       S__RuszKursor__Dialog__Screen
 1F60:1236       N__CurrDistance__OpisDla__InitW
 1F60:13D2       N__OpisDla__InitWykr__Dialog__S
 1F60:1749       S__InitWykr__Dialog__Screen
 1F60:17F1       S__InitDialog__Dialog__Screen
 1F60:1876       S__DisposeKursor__Dialog__Scree
 1F60:18A7       S__KursoffOff__Dialog__Screen
 1F60:18CD       S__KursoffOn__Dialog__Screen
 1F60:18F9       L__ConEventButton__Screen
 1F60:190A       L__SetButtons__Screen
 1F60:1983       S__InitButtony__Screen
 1F60:1AFD       N__ShowCurrDIB__InitSlupki__Scr
 1F60:1B5E       N__Define__InitSlupki__Screen
 1F60:1B9A       S__InitSlupki__Screen
 1F60:1D4C       S__InitKrokOpisuOsi__Screen
 1F60:1D6D       L__Init__Screen
 1F60:1F5F       N__WriteText__ShowMarks__Update
 1F60:20D1       N__DrawEvent__ShowMarks__Update
 1F60:2201       N__ZwKrokOpisuOsi__ShowMarks__U
 1F60:22B6       N__ShowMarks__UpdateWykr__Updat
 1F60:2485       N__UpdateWykr__Update__Screen
 1F60:2CA3       N__MarkDraw__WskazWykresy__Upda
 1F60:2D08       N__WskazWykresy__Update__Screen
 1F60:2D80       N__NapiszGPSFlg__NapiszGPS__Upd
 1F60:2DE6       N__NapiszGPS__UpdateNapisy__Upd
 1F60:30F6       N__NapiszTEO__UpdateNapisy__Upd
 1F60:3357       N__UpdateNapisy__Update__Screen
 1F60:34A4       L__Update__Screen
 1F60:35A5       L__ScreenStart__Screen
 1F60:35AE       N__KasujSlupki__Done__Screen
 1F60:3664       N__DisposeButtons__Done__Screen
 1F60:36CD       L__Done__Screen
 1F60:36D9       $BODY__Screen
 1F60:36F5       $INIT__Screen
 1F60:37A6       $EM__Screen
 22DB:0000       $BM__PI_Analiza
 22DB:0062       L__DrukujBP__MouseMonitor__PI_A
 22DB:0091       L__ZapamietajBP__MouseMonitor__
 22DB:00C0       L__PWyjscieZProgramuBP__MouseMo
 22DB:00EF       L__PageUpBP__MouseMonitor__PI_A
 22DB:011E       L__PrzelaczPomiaryBP__MouseMoni
 22DB:014D       L__PageDownBP__MouseMonitor__PI
 22DB:017C       S__InitButtony__MouseMonitor__P
 22DB:036D       S__GetEvent__MouseMonitor__PI_A
 22DB:042C       S__DisposeButtons__MouseMonitor
 22DB:04A9       $BODY__MouseMonitor__PI_Analiza
 22DB:0518       L__AnalizaEP__PI_Analiza
 22DB:072D       $BODY__PI_Analiza
 22DB:0736       $INIT__PI_Analiza
 22DB:07B0       $EM__PI_Analiza
 2357:0000       $BM__PI_Pomiar
 2357:0022       L__V_Analiza__PI_Pomiar
 2357:0076       L__D_Analiza__PI_Pomiar
 2357:00C0       L__NullPolV__PI_Pomiar
 2357:00C8       L__InitPomiar__PI_Pomiar
 2357:05C5       $BODY__PI_Pomiar
 2357:05CB       $INIT__PI_Pomiar
 2357:0654       $EM__PI_Pomiar
 23BD:0000       $BM__PI_ArchDate
 23BD:0002       L__LoadData__PI_ArchDate
 23BD:00C4       $BODY__PI_ArchDate
 23BD:00CA       $INIT__PI_ArchDate
 23BD:012B       $EM__PI_ArchDate
 23D0:0000       $BM__PI_Drukuj
 23D0:0002       L__Druk__PI_Drukuj
 23D0:0028       $BODY__PI_Drukuj
 23D0:002E       $INIT__PI_Drukuj
 23D0:0053       $EM__PI_Drukuj
 23D6:0000       $BM__PI_Report
 23D6:075D       S__WrPrnFmt__PI_Report
 23D6:07D0       S__WrFmtNad__PI_Report
 23D6:08AA       S__WrPrnFmtLn__PI_Report
 23D6:08FF       N__Wr__WrJakiGdzie__PI_Report
 23D6:0A26       S__WrJakiGdzie__PI_Report
 23D6:0ADB       N__Wr__WrJakiGdzieC__PI_Report
 23D6:0BA7       S__WrJakiGdzieC__PI_Report
 23D6:0C51       S__BledyNaOrbicie__PI_Report
 23D6:1019       S__VarRefSub__PI_Report
 23D6:13D1       L__RaportKoncowy__PI_Report
 23D6:257D       N__AtX__Wykres__Wykresy__PI_Rep
 23D6:2621       N__AtPromien__Wykres__Wykresy__
 23D6:2697       N__Wykres__Wykresy__PI_Report
 23D6:2A66       S__Wykresy__PI_Report
 23D6:2B4E       S__JakaWysokosc__PI_Report
 23D6:2BF7       N__PodstawJakiGdzie__PrzygotujD
 23D6:2C61       N__PodstawInteger__PrzygotujDan
 23D6:2CB9       N__ProbujWstawic__ZasiegiNaProm
 23D6:2D14       N__ZasiegiNaPromieniu__DaneProm
 23D6:2D9E       N__DanePromieni__PrzygotujDane_
 23D6:3232       N__DaneOrbity__PrzygotujDane__P
 23D6:3751       S__PrzygotujDane__PI_Report
 23D6:3EFB       N__InitJakiGdzie__InitDane__PI_
 23D6:3F11       S__InitDane__PI_Report
 23D6:42DE       $BODY__PI_Report
 23D6:4301       $INIT__PI_Report
 23D6:43E9       $EM__PI_Report
 2815:0000       $BM__SoftIntHandlingManager
 2815:0002       L__SetEventHandler__SoftIntHand
 2815:0041       L__RestoreEventHandler__SoftInt
 2815:0067       L__checkBreak__SoftIntHandlingM
 2815:008A       L__BreakChain__SoftIntHandlingM
 2815:009A       L__InstPrologueHnd__SoftIntHand
 2815:009A       L__InstPrologueHnd__Monitor__So
 2815:0256       L__InstEpilogueHnd__Monitor__So
 2815:0256       L__InstEpilogueHnd__SoftIntHand
 2815:03FA       L__UnInstallHandler__SoftIntHan
 2815:03FA       L__UnInstallHandler__Monitor__S
 2815:0517       L__UnInstallAllHandlers__Monito
 2815:0590       $BODY__Monitor__SoftIntHandling
 2815:05BE       $BODY__SoftIntHandlingManager
 2815:05D1       $INIT__SoftIntHandlingManager
 2815:05F6       $EM__SoftIntHandlingManager
 2875:0000       $BM__Storage
 2875:0002       L__ALLOCATE__Storage
 2875:01B9       L__DEALLOCATE__Storage
 2875:02D0       L__Available__Storage
 2875:03A3       L__InstallHeap__Storage
 2875:0422       L__RemoveHeap__Storage
 2875:04B3       S__SetStrategia__Storage
 2875:04CB       S__GetStrategia__Storage
 2875:04E7       S__SetChain__Storage
 2875:04FF       S__GetChain__Storage
 2875:051E       L__Terminator__Storage
 2875:0544       $BODY__Storage
 2875:058E       $INIT__Storage
 2875:05B8       $EM__Storage
 28D1:0000       $BM__Timer
 28D1:0002       S__Insert__Monitor__Timer
 28D1:0159       S__Remove__Monitor__Timer
 28D1:0277       L__Wait__Monitor__Timer
 28D1:0277       L__Wait__Timer
 28D1:0309       L__WaitBefProtOper__Timer
 28D1:0309       L__WaitBefProtOper__Monitor__Ti
 28D1:03B8       L__WaitMetronomeBefProtOper__Ti
 28D1:03B8       L__WaitMetronomeBefProtOper__Mo
 28D1:043F       L__WaitMetronome__Timer
 28D1:043F       L__WaitMetronome__Monitor__Time
 28D1:04B5       L__DefinePeriod__Timer
 28D1:04B5       L__DefinePeriod__Monitor__Timer
 28D1:051F       L__CurrentPeriod__Monitor__Time
 28D1:051F       L__CurrentPeriod__Timer
 28D1:0559       L__AssignPeriodicProc__Timer
 28D1:0559       L__AssignPeriodicProc__Monitor_
 28D1:057E       N__Count__IBMIntHandler__Monito
 28D1:06FC       L__IBMIntHandler__Monitor__Time
 28D1:07F7       S__SetCount__Monitor__Timer
 28D1:08B3       L__RestoreTimer__Monitor__Timer
 28D1:08D4       $BODY__Monitor__Timer
 28D1:092C       L__TInOneSecond__Timer
 28D1:0940       L__NewMetronome__Timer
 28D1:09B7       L__ResetMetronome__Timer
 28D1:0A36       L__DisposeMetronome__Timer
 28D1:0A94       L__NewWatchdog__Timer
 28D1:0AE2       L__StartProtectedOperation__Tim
 28D1:0B56       L__StopProtectedOperation__Time
 28D1:0B9B       L__DisposeWatchdog__Timer
 28D1:0BFF       L__Dummy__Timer
 28D1:0C05       S__BreakKey__Timer
 28D1:0C72       $BODY__Timer
 28D1:0C8E       $INIT__Timer
 28D1:0CBD       $EM__Timer
 299D:0000       $BM__Messages
 299D:0004       L__DisableDisplay__Messages
 299D:002E       L__EnableDisplay__Messages
 299D:0058       S__ACKMess__Messages
 299D:010B       L__NewMessage__Messages
 299D:0164       L__DisposeMessage__Messages
 299D:0181       L__Display__Messages
 299D:0265       L__ShowFirst__Messages
 299D:0312       L__AcknowledgeFirst__Messages
 299D:0337       L__Acknowledge__Messages
 299D:0358       S__OUTMessage__Messages
 299D:0382       S__Beep__Messages
 299D:03F9       L__KbdAck__Messages
 299D:0405       L__KbdDsp__Messages
 299D:0411       $BODY__Messages
 299D:046A       $INIT__Messages
 299D:04A8       $EM__Messages
 29E8:0000       $BM__StdIO
 29E8:0022       N__GetNum__sprintf__StdIO
 29E8:00C8       N__IntConv__sprintf__StdIO
 29E8:023F       N__StripSpaces__sprintf__StdIO
 29E8:031F       N__BuildNumber__sprintf__StdIO
 29E8:037B       L__sprintf__StdIO
 29E8:0D80       L__sprintf4__StdIO
 29E8:0F81       L__sprintf5__StdIO
 29E8:11F3       L__sprintf3__StdIO
 29E8:1383       L__sprintf2__StdIO
 29E8:149F       $BODY__StdIO
 29E8:14A5       $INIT__StdIO
 29E8:14D9       $EM__StdIO
 2B36:0000       $BM__MsgBox
 2B36:0017       L__Warn__MsgBox
 2B36:0072       L__Info__MsgBox
 2B36:00F2       L__AdvInfo__MsgBox
 2B36:05C9       L__P0__MsgBox
 2B36:05EA       L__P1__MsgBox
 2B36:060B       L__P2__MsgBox
 2B36:062C       L__P3__MsgBox
 2B36:064D       S__Init__MsgBox
 2B36:0680       $BODY__MsgBox
 2B36:0689       $INIT__MsgBox
 2B36:06DB       $EM__MsgBox
 2BA4:0000       $BM__WorseBecause
 2BA4:0002       L__WorseBLess__WorseBecause
 2BA4:003E       L__WorseBLessDis__WorseBecause
 2BA4:0069       L__WorseBGreater__WorseBecause
 2BA4:00A5       $BODY__WorseBecause
 2BA4:00AB       $INIT__WorseBecause
 2BA4:00D0       $EM__WorseBecause
 2BB2:0000       $BM__Graphics
 2BB2:000B       L__MaxHor__Graphics
 2BB2:0014       L__MaxVer__Graphics
 2BB2:001D       L__Tryb__Graphics
 2BB2:008B       S__HugeMemCpy__Graphics
 2BB2:0136       L__SetBank__Graphics
 2BB2:0136       L__SetBank__InternalMonitor__Gr
 2BB2:0191       L__GetBank__InternalMonitor__Gr
 2BB2:0191       L__GetBank__Graphics
 2BB2:01B2       L__DP__InternalMonitor__Graphic
 2BB2:01B2       L__DP__Graphics
 2BB2:025A       L__FillRect__Graphics
 2BB2:025A       L__FillRect__InternalMonitor__G
 2BB2:03B5       L__GetWindow__InternalMonitor__
 2BB2:03B5       L__GetWindow__Graphics
 2BB2:0593       L__InvertW__Graphics
 2BB2:0593       L__InvertW__InternalMonitor__Gr
 2BB2:0703       L__SetWindow__Graphics
 2BB2:0703       L__SetWindow__InternalMonitor__
 2BB2:08E1       L___WrStrXY__Graphics
 2BB2:08E1       L___WrStrXY__InternalMonitor__G
 2BB2:09BB       S__GetFontPtr__InternalMonitor_
 2BB2:0CF3       L___Wr16StrXY__InternalMonitor_
 2BB2:0CF3       L___Wr16StrXY__Graphics
 2BB2:0DC9       L___Wr2StrXY__InternalMonitor__
 2BB2:0DC9       L___Wr2StrXY__Graphics
 2BB2:0F13       L___Wr2fStrXY__InternalMonitor_
 2BB2:0F13       L___Wr2fStrXY__Graphics
 2BB2:1059       L__Terminator__Graphics
 2BB2:1064       S__FindROMFontAddr__Graphics
 2BB2:108B       S__LoadPLFonts__Graphics
 2BB2:10C2       $BODY__Graphics
 2BB2:10F2       $INIT__Graphics
 2BB2:1121       $EM__Graphics
 2CC5:0000       L__XmsInstalled__XMS
 2CC5:0000       $BM__XMS
 2CC5:0011       L__QueryFreeExtMem__XMS
 2CC5:003C       L__AllocateExtMem__XMS
 2CC5:0068       L__FreeExtMem__XMS
 2CC5:008B       L__MoveExtMemBlock__XMS
 2CC5:00B2       L__ResizeExtMemBlock__XMS
 2CC5:00D8       L__AllocUpperMemBlock__XMS
 2CC5:0107       L__FreeUpperMemBlock__XMS
 2CC5:012A       $EM__XMS
 2CD8:0000       $INIT__XMS
 2CDC:0000       $BM__XMSService
 2CDC:004E       L__Allocate__XMSService
 2CDC:00EE       L__Deallocate__XMSService
 2CDC:0110       L__Copy__XMSService
 2CDC:01F3       S__Free__XMSService
 2CDC:02F4       L__Terminator__XMSService
 2CDC:03C4       S__Blad__XMSService
 2CDC:0412       S__WrWarning__XMSService
 2CDC:0450       $BODY__XMSService
 2CDC:0485       $INIT__XMSService
 2CDC:04BE       $EM__XMSService
 2D28:0000       $BM__HRD_Clock
 2D28:0002       S__BCD__HRD_Clock
 2D28:003A       S__CheckUpdateCycle__HRD_Clock
 2D28:006D       S__GetGodzina__HRD_Clock
 2D28:00A1       L__Godzina__HRD_Clock
 2D28:011E       L__Data__HRD_Clock
 2D28:0242       $BODY__HRD_Clock
 2D28:0248       $INIT__HRD_Clock
 2D28:026D       $EM__HRD_Clock
 2D4F:0000       $BM__FIO
 2D4F:0002       L__Open__FIO
 2D4F:00FA       L__Create__FIO
 2D4F:01F2       L__Close__FIO
 2D4F:026A       L__Seek__FIO
 2D4F:02BC       L__Write__FIO
 2D4F:0301       L__Read__FIO
 2D4F:0346       L__ReadExt__FIO
 2D4F:0389       L__Length__FIO
 2D4F:040B       L__EOF__FIO
 2D4F:046B       L__Delete__FIO
 2D4F:04B4       L__CD__FIO
 2D4F:0510       L__MkDir__FIO
 2D4F:056C       L__RmDir__FIO
 2D4F:05B5       L__GetDir__FIO
 2D4F:0614       L__Rename__FIO
 2D4F:0685       L__GetFileStamp__FIO
 2D4F:0700       L__DirQuery__FIO
 2D4F:08B1       L__CriticalErrorHandlerProc__FI
 2D4F:08BA       L__Terminator__FIO
 2D4F:097A       S__InitFiles__FIO
 2D4F:09F0       $BODY__FIO
 2D4F:0A16       $INIT__FIO
 2D4F:0A45       $EM__FIO
 2DF4:0000       $BM__V_Odb
 2DF4:002A       N__ReadNAV__Oblicz__V_Odb
 2DF4:0434       L__Oblicz__V_Odb
 2DF4:063C       L__PoprawDane__V_Odb
 2DF4:08AB       S__ClearContiners__V_Odb
 2DF4:0A38       L__Start__V_Odb
 2DF4:0A58       L__Zatrzymaj__V_Odb
 2DF4:0A75       L__Wznow__V_Odb
 2DF4:0A92       L__IniData__V_Odb
 2DF4:0BCA       $BODY__V_Odb
 2DF4:0BFB       $INIT__V_Odb
 2DF4:0C61       $EM__V_Odb
 2EBB:0000       $BM__ScannerI
 2EBB:0022       L__AssSim_Dis__ScannerI
 2EBB:0037       L__AssSim_Alfa__ScannerI
 2EBB:004C       L__NewDataAvailable__ScannerI
 2EBB:005F       L__Start__ScannerI
 2EBB:0086       L__CurrGPSAlfaOffset__ScannerI
 2EBB:00B5       L__LocationsTogether__ScannerI
 2EBB:00E4       L__Stop__ScannerI
 2EBB:00F7       L__InitPilotEventId__ScannerI
 2EBB:010C       L__GetPilotEvent__ScannerI
 2EBB:0137       L__SetEvalPROC__ScannerI
 2EBB:014C       $BODY__ScannerI
 2EBB:0265       $INIT__ScannerI
 2EBB:02A8       $EM__ScannerI
 2EE6:0000       $BM__TheodolitRead
 2EE6:0107       N__Angle360__TheodolitView__The
 2EE6:01B7       L__TheodolitView__TheodolitRead
 2EE6:05AE       L__GetCurrDataSign__TheodolitRe
 2EE6:05DD       L__InitTeoEventId__TheodolitRea
 2EE6:0600       L__GetTeoEvent__TheodolitRead
 2EE6:0654       L__GetTheoR__TheodolitRead
 2EE6:0700       L__GetTheoI__TheodolitRead
 2EE6:0852       S__signalError__TheodolitRead
 2EE6:086F       N__AssignRes__Analizer__Theodol
 2EE6:0915       N__Rd__Analizer__TheodolitRead
 2EE6:097D       N__CountCrc__Analizer__Theodoli
 2EE6:09A8       N__GetNum__Analizer__TheodolitR
 2EE6:0A73       S__Analizer__TheodolitRead
 2EE6:0DF1       L__WatchDog__TheodolitRead
 2EE6:0ECB       L__NicNieRob__TheodolitRead
 2EE6:0EE0       $BODY__TheodolitRead
 2EE6:1039       $INIT__TheodolitRead
 2EE6:1095       $EM__TheodolitRead
 2FF0:0000       $BM__GPSRead
 2FF0:001A       L__Read_Nic__GPSRead
 2FF0:002D       L__Read_Nov__GPSRead
 2FF0:0177       L__Read_Trimble__GPSRead
 2FF0:0225       L__GPSReceive__GPSRead
 2FF0:029B       L__GetDirection__GPSRead
 2FF0:02DA       L__GetCurrDataSign__GPSRead
 2FF0:0309       L__WatchDog__GPSRead
 2FF0:05FA       $BODY__GPSRead
 2FF0:0670       $INIT__GPSRead
 2FF0:06B3       $EM__GPSRead
 305C:0000       $BM__DGHIni
 305C:03D8       S__InitTableOfNames__DGHIni
 305C:08D1       S__FillSignalTable__DGHIni
 305C:0CDC       S__ReadDGHIniFile__DGHIni
 305C:0D08       $BODY__DGHIni
 305C:0D49       $INIT__DGHIni
 305C:0D73       $EM__DGHIni
 3134:0000       $BM__D_Odb
 3134:001A       N__ReadSimul__ReadDME__Oblicz__
 3134:01EF       N__ReadDME__Oblicz__D_Odb
 3134:04CF       L__Oblicz__D_Odb
 3134:071E       L__PoprawDane__D_Odb
 3134:077B       S__ClearContiners__D_Odb
 3134:08B2       L__Start__D_Odb
 3134:08C5       L__Zatrzymaj__D_Odb
 3134:08D5       L__Wznow__D_Odb
 3134:08E5       L__IniData__D_Odb
 3134:0A98       $BODY__D_Odb
 3134:0AAD       $INIT__D_Odb
 3134:0B18       $EM__D_Odb
 31E6:0000       $BM__Zoom
 31E6:0161       L__Init__Zoom
 31E6:04E7       S__KtoryWykres__Zoom
 31E6:055B       L__ObslugaMyszy__Zoom
 31E6:082E       S__RedrawAll__Zoom
 31E6:0880       L__ZoomOutPoziomP__Zoom
 31E6:0889       L__ZoomOutPionP1__Zoom
 31E6:089D       L__ZoomOutPionP2__Zoom
 31E6:08B1       L__ZoomOutPionP3__Zoom
 31E6:08C5       L__ZoomOutPionP4__Zoom
 31E6:08D9       L__Run__Zoom
 31E6:0978       S__EnableAll__Zoom
 31E6:0A04       L__ZmienPDefault__Zoom
 31E6:0A0A       L__Done__Zoom
 31E6:0B17       S__FillData__Zoom
 31E6:0BAE       S__LoadData__Zoom
 31E6:0D92       L__Assign__Zoom
 31E6:12E0       S__DobierzDzialki__Zoom
 31E6:179A       S__PushX__Zoom
 31E6:182C       S__PopX__Zoom
 31E6:18B7       S__PushY__Zoom
 31E6:1A0A       S__PopY__Zoom
 31E6:1B58       L__ZmiennaNiezalezna__Zoom
 31E6:1E0A       S__MinV__Zoom
 31E6:1E59       S__MaxV__Zoom
 31E6:1EA8       S__MinMax__Zoom
 31E6:2059       S__Redraw__Zoom
 31E6:26F2       $BODY__Zoom
 31E6:270D       $INIT__Zoom
 31E6:2796       $EM__Zoom
 3460:0000       $BM__GrafUtil
 3460:0003       L__Info__GrafUtil
 3460:00BB       L__InfoBeep__GrafUtil
 3460:0112       L__DoBeep__GrafUtil
 3460:017A       $BODY__GrafUtil
 3460:01D3       $INIT__GrafUtil
 3460:0220       $EM__GrafUtil
 3483:0000       $BM__PI_ZoomSpecific
 3483:01C8       L__ZmiennaNiezalezna__PI_ZoomSp
 3483:029F       L__InitNames__PI_ZoomSpecific
 3483:0AC1       L__NazwaOdniesienia__PI_ZoomSpe
 3483:0B04       $BODY__PI_ZoomSpecific
 3483:0B0A       $INIT__PI_ZoomSpecific
 3483:0B7F       $EM__PI_ZoomSpecific
 353C:0000       $BM__Rap_Util
 353C:0093       L__GetInteractiveData__Rap_Util
 353C:03C7       L__Samolot__Rap_Util
 353C:0412       L__SpelniaP__Rap_Util
 353C:0432       L__NieSpelniaP__Rap_Util
 353C:0452       L__Dummy__Rap_Util
 353C:045A       $BODY__Rap_Util
 353C:0460       $INIT__Rap_Util
 353C:04CB       $EM__Rap_Util
 3589:0000       $BM__Print
 3589:0159       L__GorszeBoMniejsze__Print
 3589:0186       L__DalszeOdZera__Print
 3589:01C3       L__MaxY__Print
 3589:01DE       L__log__Print
 3589:0232       L__Wr__Print
 3589:02A2       L__WrPrn__Print
 3589:0360       L__WrLn__Print
 3589:0390       L__WrPrnLn__Print
 3589:03D2       L__InitA__Print
 3589:0821       L__InitB__Print
 3589:0886       S__PointA__Print
 3589:0ADD       S__PointB__Print
 3589:0CBF       L__Point__Print
 3589:0CF3       L__Opis__Print
 3589:0E2F       L__CloseAll__Print
 3589:0EC8       L__InitAll__Print
 3589:0FE0       L__EvProc__Print
 3589:12D3       L__ZnacznikiOdleglosci__Print
 3589:15A6       L__WrFlagsTableWHeading__Print
 3589:16BA       L__WrFlagsTable__Print
 3589:1799       L__WrF_TablicaOdci__Print
 3589:183C       L__WypiszStrefy__Print
 3589:1998       L__PrintScreenProc__Print
 3589:19A5       $BODY__Print
 3589:19F2       $INIT__Print
 3589:1A80       $EM__Print
 3732:0000       $BM__DrawEpson
 3732:00A5       S__UstawTrybTekstowy__DrawEpson
 3732:00E9       L__MaxX__DrawEpson
 3732:00F8       L__MaxY__DrawEpson
 3732:0107       S__Map__DrawEpson
 3732:01C6       L__Point__DrawEpson
 3732:0322       L__IsDrawn__DrawEpson
 3732:03D3       L__Out__DrawEpson
 3732:0670       L__Open__DrawEpson
 3732:06E2       L__Close__DrawEpson
 3732:06FE       L__Line__DrawEpson
 3732:0849       L__SetTextMode__DrawEpson
 3732:085C       L__SetFont__DrawEpson
 3732:0942       S__Conv2PL__DrawEpson
 3732:0ABD       S__DrawChar0__DrawEpson
 3732:0DA0       S__DrawText0__DrawEpson
 3732:0E1D       S__DrawChar90__DrawEpson
 3732:10A7       S__DrawText90__DrawEpson
 3732:1124       L__DrawText__DrawEpson
 3732:1193       L__SetDir__DrawEpson
 3732:11A6       L__Mnoznik__DrawEpson
 3732:11C0       L__InitPort__DrawEpson
 3732:120D       L__IsAborted__DrawEpson
 3732:1253       L__WrProc__DrawEpson
 3732:138C       $BODY__DrawEpson
 3732:1415       $INIT__DrawEpson
 3732:1462       $EM__DrawEpson
 3879:0000       $BM__PI_DMEnaglowek
 3879:0047       L__UstawSciezke__PI_DMEnaglowek
 3879:0052       L__DaneZBazyDanych__PI_DMEnaglo
 3879:00BD       N__Prom__NastepneDane__PI_DMEna
 3879:019F       L__NastepneDane__PI_DMEnaglowek
 3879:03C5       $BODY__PI_DMEnaglowek
 3879:03CB       $INIT__PI_DMEnaglowek
 3879:043B       $EM__PI_DMEnaglowek
 38BD:0000       $BM__EventsMng
 38BD:0037       L__NewEvent__EventsMng
 38BD:014C       L__NewTeoEvent__EventsMng
 38BD:01CF       L__NewPilotEvent__EventsMng
 38BD:0252       L__NewConsoleEvent__EventsMng
 38BD:02D5       L__FindNextEvent__EventsMng
 38BD:0366       L__GetUpdNextEvent__EventsMng
 38BD:041A       L__GetEventInfo__EventsMng
 38BD:04AA       L__SaveDistEvents__EventsMng
 38BD:04F4       S__InitEvents__EventsMng
 38BD:0519       L__LoadDistEvents__EventsMng
 38BD:055C       L__EventsMngInit__EventsMng
 38BD:060A       L__UpdateStrefa__EventsMng
 38BD:087E       L__Terminator__EventsMng
 38BD:09B8       $BODY__EventsMng
 38BD:09EE       $INIT__EventsMng
 38BD:0A4A       $EM__EventsMng
 3962:0000       $BM__Ini
 3962:0006       L__DefaultError__Ini
 3962:001E       S__FormSectionString__Ini
 3962:010A       S__LookForSection__Ini
 3962:018F       N__ToEOL__LookForEntry__Ini
 3962:020F       S__LookForEntry__Ini
 3962:035E       L__GetPrivateProfileString__Ini
 3962:050E       L__DeleteSection__Ini
 3962:06C6       L__WritePrivateProfileString__I
 3962:0BE2       S__Expand__Ini
 3962:0E08       L__CloseBuffer__Ini
 3962:0F29       S__AllocateBuffer__Ini
 3962:1139       $BODY__Ini
 3962:119F       $INIT__Ini
 3962:11D8       $EM__Ini
 3A80:0000       $BM__PrintUtl
 3A80:0048       L__Wr_NagTab10__PrintUtl
 3A80:027A       L__PiszSignalDsc__PrintUtl
 3A80:0422       $BODY__PrintUtl
 3A80:0439       $INIT__PrintUtl
 3A80:049A       $EM__PrintUtl
 3ACA:0000       $BM__Semafory
 3ACA:0002       L__Set__Semafory
 3ACA:00AA       L__Free__Semafory
 3ACA:0120       L__Register__Semafory
 3ACA:01B0       L__Init__Semafory
 3ACA:01FC       L__Unregister__Semafory
 3ACA:02B0       S__ExceptionHandler__Semafory
 3ACA:03BE       S__InitTbl__Semafory
 3ACA:041D       $BODY__Semafory
 3ACA:0433       $INIT__Semafory
 3ACA:0453       $EM__Semafory
 3B10:0000       $BM__Polozenie
 3B10:005A       N__FlipY__InitMarkers__Polozeni
 3B10:0120       N__FlipX__InitMarkers__Polozeni
 3B10:0226       N__Rot90__InitMarkers__Polozeni
 3B10:032E       S__InitMarkers__Polozenie
 3B10:044A       S__DrawMarker__Polozenie
 3B10:0855       S__EraseMarker__Polozenie
 3B10:08FE       L__Start_Polozenie__Polozenie
 3B10:0959       N__XY__LL__DrawNCO__Polozenie
 3B10:0A88       N__LL__DrawNCO__Polozenie
 3B10:0BA8       S__DrawNCO__Polozenie
 3B10:0C2C       L__UpdateM__Polozenie
 3B10:0DD7       L__Stop_Polozenie__Polozenie
 3B10:0E09       L__RresetCzesciOkregu__Polozeni
 3B10:0E6A       L__NoweCzesciOkregu__Polozenie
 3B10:0EEE       N__Rysuj__Promienie__Polozenie
 3B10:1084       L__Promienie__Polozenie
 3B10:1164       $BODY__Polozenie
 3B10:11C4       $INIT__Polozenie
 3B10:1225       $EM__Polozenie
 3C33:0000       $BM__V_Database
 3C33:01BC       N__GetStr__LoadVorData__V_Datab
 3C33:0303       S__LoadVorData__V_Database
 3C33:095E       L__LoadVorData1__V_Database
 3C33:09D2       L__LoadVorData2__V_Database
 3C33:0A1B       N__GetCardinal__LoadProgramPar_
 3C33:0A8A       S__LoadProgramPar__V_Database
 3C33:0AF8       $BODY__V_Database
 3C33:0B2D       $INIT__V_Database
 3C33:0B98       $EM__V_Database
 3CED:0000       $BM__Mapa
 3CED:008A       S__RedefineMaxDist__Mapa
 3CED:0151       N__GetGPS__resolveSituation__Ma
 3CED:0260       N__CountMaxDist__resolveSituati
 3CED:037D       S__resolveSituation__Mapa
 3CED:0419       S__MakeMAP__Mapa
 3CED:0545       L__PokazKatyLotu__Mapa
 3CED:0696       N__Min__Promienie__Mapa
 3CED:06B6       L__Promienie__Mapa
 3CED:07B3       L__GdzieJest__Mapa
 3CED:0922       S__Stop__monitor__Mapa
 3CED:0951       L__StartProcess__Mapa
 3CED:0951       L__StartProcess__monitor__Mapa
 3CED:098B       L__CancelProcess__monitor__Mapa
 3CED:098B       L__CancelProcess__Mapa
 3CED:09BA       $BODY__monitor__Mapa
 3CED:09DC       S__FillPromieie__Mapa
 3CED:0A4F       $BODY__Mapa
 3CED:0AF4       $INIT__Mapa
 3CED:0B50       $EM__Mapa
 3DA3:0000       $BM__RealConversions
 3DA3:0052       L__StringToReal__RealConversion
 3DA3:04DF       N__convDigit__RealToString__Rea
 3DA3:0572       N__convertnumber__RealToString_
 3DA3:05EA       N__exp10__RealToString__RealCon
 3DA3:06AC       L__RealToString__RealConversion
 3DA3:0AF9       $BODY__RealConversions
 3DA3:0AFF       $INIT__RealConversions
 3DA3:0B1F       $EM__RealConversions
 3E56:0000       $BM__Tune
 3E56:0007       S__Send__Tune
 3E56:009C       L__TurnOffADF__Tune
 3E56:00F4       L__TurnOffVOR_ILS__Tune
 3E56:014C       L__TuneADF__Tune
 3E56:0303       N__TuneGS__TuneILS__Tune
 3E56:0409       L__TuneILS__Tune
 3E56:049F       S__SendDMECntrlWrd__Tune
 3E56:052E       N__ConvertFrqTOControlWord__Tun
 3E56:05D9       L__TuneDMEforVOR__Tune
 3E56:061B       L__TuneDMEforILS__Tune
 3E56:065D       L__TuneVOR__Tune
 3E56:0697       S__TuneVOR_ILS__Tune
 3E56:07EE       L__ILSfrqString__Tune
 3E56:0849       L__ILSIncFch__Tune
 3E56:0881       L__ILSDecFch__Tune
 3E56:08B9       L__VORIncFch__Tune
 3E56:08FF       L__VORDecFch__Tune
 3E56:093F       L__IncADFFch__Tune
 3E56:0966       L__DecADFFch__Tune
 3E56:0998       L__SetCPFlags__Tune
 3E56:0A08       $BODY__Tune
 3E56:0C0B       $INIT__Tune
 3E56:0C49       $EM__Tune
 3F1B:0000       $BM__Obloty
 3F1B:01EB       L__UstawHomeDir__Obloty
 3F1B:0242       L__Ile__Obloty
 3F1B:0266       S__IleInspekcji__Obloty
 3F1B:02DC       S__WymienWszystkie__Obloty
 3F1B:037F       L__Dopasuj__Obloty
 3F1B:041D       L__WymInspekcjeDlaUrz__Obloty
 3F1B:04E4       L__WymienWszystkiePasujace__Obl
 3F1B:051E       L__SzczegolowyPlikOpisu__Obloty
 3F1B:068A       L__Kasuj__Obloty
 3F1B:06B2       L__ZmienISkasuj__Obloty
 3F1B:0738       S__SkasujKartoteke__Obloty
 3F1B:078A       L__SkasujOblot__Obloty
 3F1B:09B5       N__KasujPlik__KasujPodkartoteke
 3F1B:0A4B       L__KasujPodkartoteke__Obloty
 3F1B:0B21       S__Kasuj_DelDir__Obloty
 3F1B:0B98       L__SkasujInspekcje__Obloty
 3F1B:0DD3       N__ExistDIR__FreeSlot__Obloty
 3F1B:0E1A       L__FreeSlot__Obloty
 3F1B:0EB9       S__ZnajdzNumInspekcji__Obloty
 3F1B:0FF8       L__ZnajdzInspekcje__Obloty
 3F1B:1042       L__InspekcjeNowyWpis__Obloty
 3F1B:11EB       N__KopiujPlik__KopiujPodkartote
 3F1B:13F8       L__KopiujPodkartoteke__Obloty
 3F1B:1564       S__KopiujKartoteke__Obloty
 3F1B:15DB       L__KopiujInspekcje__Obloty
 3F1B:171F       L__StartInspection__Obloty
 3F1B:1A87       L__InitListaUrzadzen__Obloty
 3F1B:1B83       L__Dum_Stat_Size_Monitor__Oblot
 3F1B:1B8B       L__Dum_Stat_File_Monitor__Oblot
 3F1B:1B9E       $BODY__Obloty
 3F1B:1C0F       $INIT__Obloty
 3F1B:1C75       $EM__Obloty
 40E3:0000       $BM__SwitchCntrl
 40E3:0002       L__SwitchTo__SwitchCntrl
 40E3:00D4       $BODY__SwitchCntrl
 40E3:0109       $INIT__SwitchCntrl
 40E3:012E       $EM__SwitchCntrl
 40F6:0000       $BM__Kalibracja
 40F6:097E       L__GetErrReset__ErrorHand__Kali
 40F6:097E       L__GetErrReset__Kalibracja
 40F6:09B6       S__SetError__ErrorHand__Kalibra
 40F6:09DC       $BODY__ErrorHand__Kalibracja
 40F6:09FA       N__Lookup__OmnibearingV__Kalibr
 40F6:0E16       L__OmnibearingV__Kalibracja
 40F6:0F88       L__Lookup__Kalibracja
 40F6:143A       N__Status__Error__Kalibracja
 40F6:1489       S__Error__Kalibracja
 40F6:14D4       N__LoadValue__LoadSegmentTables
 40F6:15EC       N__LoadReal__LoadSegmentTables_
 40F6:1673       N__LoadTable__LoadSegmentTables
 40F6:1719       N__LoadSegment__LoadChannel__Lo
 40F6:17D7       N__LoadChannel__LoadSegmentTabl
 40F6:1E6D       S__LoadSegmentTables__Kalibracj
 40F6:219B       N__SaveValue__SaveSegmentTables
 40F6:2293       N__SaveReal__SaveSegmentTables_
 40F6:230E       N__SaveTable__SaveSegmentTables
 40F6:23A0       N__SaveSegment__SaveChannel__Sa
 40F6:243E       N__SaveChannel__SaveSegmentTabl
 40F6:2A2F       L__SaveSegmentTables__Kalibracj
 40F6:2C81       $BODY__Kalibracja
 40F6:2DA5       $INIT__Kalibracja
 40F6:2E15       $EM__Kalibracja
 43D8:0000       $BM__CocpDsp
 43D8:0002       L__UstawFormat__CocpDsp
 43D8:02E6       L__PodajFormat__CocpDsp
 43D8:0315       L__UstawZmienne__CocpDsp
 43D8:058F       L__SetIdleMsg__CocpDsp
 43D8:05AF       N__SendMsg__ControlLoop__CocpDs
 43D8:077A       N__PozWskazowki__SetLOC_G_SCP__
 43D8:0823       N__SetLOC_G_SCP__ControlLoop__C
 43D8:090E       N__pozycjaStrzalki__ControlLoop
 43D8:0A5E       L__ControlLoop__CocpDsp
 43D8:0C01       L__WatchDogProcess__CocpDsp
 43D8:0C4D       $BODY__CocpDsp
 43D8:0D49       $INIT__CocpDsp
 43D8:0D8C       $EM__CocpDsp
 44B1:0000       $BM__DataCollect
 44B1:0002       L__SampleNr__DataCollect
 44B1:0002       L__SampleNr__tablice__DataColle
 44B1:004E       L__RedrawReq__DataCollect
 44B1:004E       L__RedrawReq__tablice__DataColl
 44B1:0152       N__UpdateNR__Tablice800__tablic
 44B1:0219       N__Shrink__Tablice800__tablice_
 44B1:034B       N__ShrinkX__Tablice800__tablice
 44B1:0422       S__Tablice800__tablice__DataCol
 44B1:15DF       S__InitTab__tablice__DataCollec
 44B1:1867       L__Samp2Dis__tablice__DataColle
 44B1:1867       L__Samp2Dis__DataCollect
 44B1:1968       L__Samp2Kat__DataCollect
 44B1:1968       L__Samp2Kat__tablice__DataColle
 44B1:1A69       L__ResetMarks_A__DataCollect
 44B1:1A86       L__ResetMarks_D__DataCollect
 44B1:1AA3       L__GetNextDMark__DataCollect
 44B1:1B29       L__GetNextAMark__DataCollect
 44B1:1BBB       S__Start__DataCollect
 44B1:2002       L__ResetDataCollect__DataCollec
 44B1:2092       N__UpdateDistMarks__UpdTab800__
 44B1:20FA       N__UpdateAlfaMarks__UpdTab800__
 44B1:2171       L__UpdTab800__DataCollect
 44B1:21D7       L__NilProc__DataCollect
 44B1:21DF       $BODY__DataCollect
 44B1:2221       $INIT__DataCollect
 44B1:226E       $EM__DataCollect
 46D8:0000       $BM__Wykres
 46D8:009B       S__Log10__Wykres
 46D8:0101       N__SkalY__Draw__Wykres
 46D8:03D7       L__Draw__Wykres
 46D8:052F       N__SkalY__PokazWykres__Wykres
 46D8:062B       N__SkalX__PokazWykres__Wykres
 46D8:0758       L__PokazWykres__Wykres
 46D8:0853       N__SkalY__PokazWykres1__Wykres
 46D8:09B4       L__PokazWykres1__Wykres
 46D8:0B0C       L__Opis__Wykres
 46D8:0B8B       N__AutoFormat__OpisLog__Wykres
 46D8:0C63       N__LineV__OpisLog__Wykres
 46D8:1024       N__LineH__OpisLog__Wykres
 46D8:1330       L__OpisLog__Wykres
 46D8:14E2       L__PokazWykresNS__Wykres
 46D8:1546       N__SkalY__PokazWykresNSLog__Wyk
 46D8:17B3       N__SkalX__PokazWykresNSLog__Wyk
 46D8:1B1F       L__PokazWykresNSLog__Wykres
 46D8:1DFD       S__LogPos__Wykres
 46D8:1EE5       L__LessInt__Wykres
 46D8:1F01       L__LessCard__Wykres
 46D8:1F1D       L__Card2Real__Wykres
 46D8:1F64       L__Int2Real__Wykres
 46D8:1FA0       N__GetX__PokazWykresZXms__Wykre
 46D8:1FC9       N__GetY__PokazWykresZXms__Wykre
 46D8:1FF2       N__SkalY__PokazWykresZXms__Wykr
 46D8:222D       N__SkalX__PokazWykresZXms__Wykr
 46D8:256B       L__PokazWykresZXms__Wykres
 46D8:270A       $BODY__Wykres
 46D8:2710       $INIT__Wykres
 46D8:2762       $EM__Wykres
 494F:0000       $BM__XMSTable
 494F:0002       L__AssignNil__XMSTable
 494F:0018       L__Size__XMSTable
 494F:0039       L__IsValid__XMSTable
 494F:005D       L__Allocate__XMSTable
 494F:00F2       L__Deallocate__XMSTable
 494F:0142       L__PutElem__XMSTable
 494F:01B7       L__GetElem__XMSTable
 494F:0245       S__Map__XMSTable
 494F:0325       $BODY__XMSTable
 494F:032B       $INIT__XMSTable
 494F:035A       $EM__XMSTable
 4985:0000       $BM__PI_ScrUtility
 4985:0002       L__ShowScreenDIB__PI_ScrUtility
 4985:0053       L__ShowCursorDIB__PI_ScrUtility
 4985:009A       S__UniversalAB__PI_ScrUtility
 4985:015B       L__UniversalLAF__PI_ScrUtility
 4985:0183       L__UniversalSAF__PI_ScrUtility
 4985:01AB       L__UniversalPAF__PI_ScrUtility
 4985:01D3       L__UniversalLBF__PI_ScrUtility
 4985:01FB       L__UniversalSBF__PI_ScrUtility
 4985:0223       L__UniversalPBF__PI_ScrUtility
 4985:024B       L__UniversalLAB__PI_ScrUtility
 4985:0273       L__UniversalSAB__PI_ScrUtility
 4985:029B       L__UniversalPAB__PI_ScrUtility
 4985:02C3       L__UniversalLBB__PI_ScrUtility
 4985:02EB       L__UniversalSBB__PI_ScrUtility
 4985:0313       L__UniversalPBB__PI_ScrUtility
 4985:033B       S__NowySlup__PI_ScrUtility
 4985:039B       N__WykSlupB__WykSlup__PI_ScrUti
 4985:0470       N__WykSlupF__WykSlup__PI_ScrUti
 4985:0545       L__WykSlup__PI_ScrUtility
 4985:06A1       L__UpdateSlupki__PI_ScrUtility
 4985:0708       L__DisposeSlupki__PI_ScrUtility
 4985:076F       L__NapiszSygnaly__PI_ScrUtility
 4985:078A       L__Init_ScrUtility__PI_ScrUtili
 4985:07E5       L__IniSkale__PI_ScrUtility
 4985:0812       L__GetRegionWykG__PI_ScrUtility
 4985:084D       L__GetRegionWyk1__PI_ScrUtility
 4985:0870       L__GetRegionWyk2__PI_ScrUtility
 4985:08BE       L__GetRegionWyk3__PI_ScrUtility
 4985:08E1       $BODY__PI_ScrUtility
 4985:08E7       $INIT__PI_ScrUtility
 4985:092F       $EM__PI_ScrUtility
 4A19:0000       $BM__Slupek
 4A19:0002       L__WykresSlupkowy__Slupek
 4A19:0229       N__Skala__Update__Slupek
 4A19:02EE       N__Kolor__Update__Slupek
 4A19:0317       N__FillR__Odswiez__Update__Slup
 4A19:036C       N__Odswiez__Update__Slupek
 4A19:058F       L__Update__Slupek
 4A19:0647       L__Dispose__Slupek
 4A19:065C       L__Nothing__Slupek
 4A19:0666       L__GetSlupRect__Slupek
 4A19:0695       L__Nil__Slupek
 4A19:06A7       $BODY__Slupek
 4A19:06AD       $INIT__Slupek
 4A19:06E6       $EM__Slupek
 4A88:0000       $BM__ScreenCTypes
 4A88:0002       S__Init__ScreenCTypes
 4A88:016B       $BODY__ScreenCTypes
 4A88:0174       $INIT__ScreenCTypes
 4A88:019E       $EM__ScreenCTypes
 4AA2:0000       $BM__V_DisResults
 4AA2:0220       L__WriteTab__V_DisResults
 4AA2:03F7       N__WriteBends__DispResults__V_D
 4AA2:05DF       N__WriteDev__DispResults__V_Dis
 4AA2:0861       N__WriteMod__DispResults__V_Dis
 4AA2:0B25       N__WriteDevOrbit__DispResults__
 4AA2:0DA2       N__WriteFlgAndLowSignal__DispRe
 4AA2:0E20       L__DispResults__V_DisResults
 4AA2:0EE2       $BODY__V_DisResults
 4AA2:0F1E       $INIT__V_DisResults
 4AA2:0F7A       $EM__V_DisResults
 4B9A:0000       $BM__DisResUtilities
 4B9A:000A       L__WriteTab__DisResUtilities
 4B9A:00BE       L__WrS__DisResUtilities
 4B9A:00F4       L__WrSPlus__DisResUtilities
 4B9A:014A       L__INCLine__DisResUtilities
 4B9A:0170       L__WrFlagsTableWHeading__DisRes
 4B9A:023C       L__WrFlagsTable__DisResUtilitie
 4B9A:02AF       L__WrF_TablicaOdci__DisResUtili
 4B9A:0340       $BODY__DisResUtilities
 4B9A:0346       $INIT__DisResUtilities
 4B9A:0389       $EM__DisResUtilities
 4BD3:0000       $BM__D_DisResults
 4BD3:00B4       L__WriteTab__D_DisResults
 4BD3:027A       N__WriteMod__DispResults__D_Dis
 4BD3:04A7       L__DispResults__D_DisResults
 4BD3:053A       $BODY__D_DisResults
 4BD3:0540       $INIT__D_DisResults
 4BD3:0592       $EM__D_DisResults
 4C2D:0000       $BM__PiszEventy
 4C2D:038B       N__Znacznik__Decode__PiszEventy
 4C2D:0786       S__Decode__PiszEventy
 4C2D:0A31       L__IleEventow__PiszEventy
 4C2D:0A53       L__TworzEventy__PiszEventy
 4C2D:0AA6       N__WrStr__PiszNaEkranie__PiszEv
 4C2D:0B99       L__PiszNaEkranie__PiszEventy
 4C2D:0D48       S__min__PiszEventy
 4C2D:0D6B       L__PiszNaDrukarce__PiszEventy
 4C2D:0F04       L__EnumEv__PiszEventy
 4C2D:10B0       S__WrStrLn__PiszEventy
 4C2D:10DC       S__WrStr__PiszEventy
 4C2D:1163       S__WrLn__PiszEventy
 4C2D:117D       S__WrP__PiszEventy
 4C2D:1199       $BODY__PiszEventy
 4C2D:11AA       $INIT__PiszEventy
 4C2D:1233       $EM__PiszEventy
 4D51:0000       $BM__V_Count
 4D51:00EA       N__CountDev__Analiza__V_Count
 4D51:010B       N__SigMaxAvr__Analiza__V_Count
 4D51:01F8       N__CountAv__Analiza__V_Count
 4D51:07FD       N__ClearAvrArr__Analiza__V_Coun
 4D51:0888       N__ClearDevAvrArr__Analiza__V_C
 4D51:0912       N__GetEvent__R_Analiza__Analiza
 4D51:09B3       N__AssignPolRes__R_Analiza__Ana
 4D51:0CD7       N__Pol_AddSample__R_Analiza__An
 4D51:0D43       N__ClearAllCont__R_Analiza__Ana
 4D51:0F9F       N__CountBends__R_Analiza__Anali
 4D51:1159       N__R_Analiza__Analiza__V_Count
 4D51:19FF       N__Ini_T_WynikAnalizyOrbita__O_
 4D51:1A68       N__ClearDevOAvr__O_Analiza__Ana
 4D51:1AEF       N__ZerujFlagi__O_Analiza__Anali
 4D51:1B1B       N__ClearAllCont__O_Analiza__Ana
 4D51:1B68       N__ReadData__O_Analiza__Analiza
 4D51:1C26       N__PodstawWynikNaLuku__O_Analiz
 4D51:1CB4       N__AddAvrDscr__AnalizujWynikiNa
 4D51:1D2C       N__AddAvrArr__AnalizujWynikiNaL
 4D51:1E13       N__AddDevAvrArr__AnalizujWyniki
 4D51:1EF7       N__AnalizujWynikiNaLuku__O_Anal
 4D51:2036       N__O_Analiza__Analiza__V_Count
 4D51:249B       N__Interpolacja__Analiza__V_Cou
 4D51:250B       L__Analiza__V_Count
 4D51:2637       $BODY__V_Count
 4D51:263D       $INIT__V_Count
 4D51:26B2       $EM__V_Count
 4FBD:0000       $BM__D_Count
 4FBD:008A       N__GetEvent__DoAnaliza__Analiza
 4FBD:011E       N__ClearAllCont__DoAnaliza__Ana
 4FBD:01A8       N__CountResult__DoAnaliza__Anal
 4FBD:0235       N__DoAnaliza__Analiza__D_Count
 4FBD:05BB       N__Interpolacja__Analiza__D_Cou
 4FBD:05EE       L__Analiza__D_Count
 4FBD:06CB       $BODY__D_Count
 4FBD:06D1       $INIT__D_Count
 4FBD:0732       $EM__D_Count
 5031:0000       $BM__D_DAcquizition
 5031:0002       S__CommReq__Monitor__D_DAcquizi
 5031:0034       L__Stop__Monitor__D_DAcquizitio
 5031:0034       L__Stop__D_DAcquizition
 5031:0063       L__ConsoleEv__Monitor__D_DAcqui
 5031:0063       L__ConsoleEv__D_DAcquizition
 5031:0092       L__Restart__Monitor__D_DAcquizi
 5031:0092       L__Restart__D_DAcquizition
 5031:00C1       S__GetEvent__Monitor__D_DAcquiz
 5031:011B       $BODY__Monitor__D_DAcquizition
 5031:0142       L__Acquire__D_DAcquizition
 5031:0352       L__RedrawReq__D_DAcquizition
 5031:03A1       L__RedrawMarksReq__D_DAcquiziti
 5031:03CE       L__UpdateMarksOrbit__D_DAcquizi
 5031:0431       L__UpdateMarksRadial__D_DAcquiz
 5031:0494       S__IniData__D_DAcquizition
 5031:0507       L__IniDataOrbit__D_DAcquizition
 5031:051F       L__IniDataRadial__D_DAcquizitio
 5031:0537       L__Start__D_DAcquizition
 5031:0592       L__Abort__D_DAcquizition
 5031:05C2       $BODY__D_DAcquizition
 5031:05E5       $INIT__D_DAcquizition
 5031:0682       $EM__D_DAcquizition
 509A:0000       $BM__V_DAcquizition
 509A:0002       L__PolV__V_DAcquizition
 509A:001A       S__CommReq__Monitor__V_DAcquizi
 509A:004C       L__Stop__V_DAcquizition
 509A:004C       L__Stop__Monitor__V_DAcquizitio
 509A:007B       L__ConsoleEv__V_DAcquizition
 509A:007B       L__ConsoleEv__Monitor__V_DAcqui
 509A:00AA       L__Restart__Monitor__V_DAcquizi
 509A:00AA       L__Restart__V_DAcquizition
 509A:00D9       S__GetEvent__Monitor__V_DAcquiz
 509A:0133       $BODY__Monitor__V_DAcquizition
 509A:015A       L__Acquire__V_DAcquizition
 509A:03E7       L__RedrawReq__V_DAcquizition
 509A:0436       L__RedrawMarksReq__V_DAcquiziti
 509A:0463       L__UpdateMarksOrbit__V_DAcquizi
 509A:04C6       L__UpdateMarksRadial__V_DAcquiz
 509A:0529       S__IniData__V_DAcquizition
 509A:05B6       L__IniDataOrbit__V_DAcquizition
 509A:05CE       L__IniDataRadial__V_DAcquizitio
 509A:05E6       L__Start__V_DAcquizition
 509A:0641       L__Abort__V_DAcquizition
 509A:0671       $BODY__V_DAcquizition
 509A:0694       $INIT__V_DAcquizition
 509A:0745       $EM__V_DAcquizition
 510F:0000       $BM__AltInterface
 510F:0012       L__SetPressure__AltInterface
 510F:0032       L__ALTConvert__AltInterface
 510F:0214       $BODY__AltInterface
 510F:02DB       $INIT__AltInterface
 510F:030F       $EM__AltInterface
 5141:0000       $BM__DMEPrint
 5141:03C9       N__PromienANieOrbita__Raport__D
 5141:03E8       N__MakeHeader__Raport__DMEPrint
 5141:0533       N__WrSignalDesc__OpisBleduDME__
 5141:05D9       N__WrSignalInt__OpisBleduDME__O
 5141:0638       N__OpisBleduDME__OpisPomiaru__R
 5141:089A       N__IntFrac__WrSignalDesc__OpisP
 5141:098B       N__WrSignalDesc__OpisPomiaru__R
 5141:0B08       N__OpisPomiaru__Raport__DMEPrin
 5141:0C40       N__Print__Raport__DMEPrint
 5141:135C       L__Raport__DMEPrint
 5141:1425       $BODY__DMEPrint
 5141:142B       $INIT__DMEPrint
 5141:14BE       $EM__DMEPrint
 528D:0000       $BM__VORPrint
 528D:03C3       S__PromienANieOrbita__VORPrint
 528D:03E2       S__MakeHeader__VORPrint
 528D:05C6       N__Wr4Signals__OpisPomiaru__VOR
 528D:0718       N__WrSignalDesc__OpisPomiaru__V
 528D:07B7       N__Pomiar2Str__OpisPomiaru__VOR
 528D:0936       N__WriteFlgAndLowSignal__OpisPo
 528D:09C0       S__OpisPomiaru__VORPrint
 528D:0F86       S__Print__VORPrint
 528D:1BB8       L__Raport__VORPrint
 528D:1C65       $BODY__VORPrint
 528D:1C76       $INIT__VORPrint
 528D:1D0E       $EM__VORPrint
 545E:0000       $BM__Marks
 545E:0032       L__AngResetContiner__Marks
 545E:0041       L__DisResetContiner__Marks
 545E:0050       N__findidx__AngAddSample__Marks
 545E:010A       N__Side__AngAddSample__Marks
 545E:015E       L__AngAddSample__Marks
 545E:037F       N__findidx__DisAddSample__Marks
 545E:0423       N__Side__DisAddSample__Marks
 545E:0453       L__DisAddSample__Marks
 545E:0636       L__InicjujOpisStanuLuku__Marks
 545E:0670       N__findidx__SegZakonczony__Mark
 545E:0806       L__SegZakonczony__Marks
 545E:08FD       $BODY__Marks
 545E:0903       $INIT__Marks
 545E:0937       $EM__Marks
 54F2:0000       $BM__FIltr1St
 54F2:0082       L__UstawOkresImpulsowania__FIlt
 54F2:00A2       L__InitCont__FIltr1St
 54F2:0199       L__Filtr__FIltr1St
 54F2:024F       L__InitCont2Filters__FIltr1St
 54F2:03DA       L__Filtr2Filters__FIltr1St
 54F2:050E       L__InitContB__FIltr1St
 54F2:053F       L__FiltrB__FIltr1St
 54F2:0598       L__InitContBCoun__FIltr1St
 54F2:05B7       L__BinaryCounter__FIltr1St
 54F2:0607       L__MemFiltr__FIltr1St
 54F2:0689       L__InitMemFiltr__FIltr1St
 54F2:06B5       L__MemFiltrInt__FIltr1St
 54F2:0712       L__InitMemFIntContiner__FIltr1S
 54F2:0737       $BODY__FIltr1St
 54F2:0757       $INIT__FIltr1St
 54F2:0786       $EM__FIltr1St
 556B:0000       $BM__DGH_utils
 556B:0002       L__TurnOffILSSig__DGH_utils
 556B:00D0       L__TurnOnLOCSig__DGH_utils
 556B:016E       L__TurnOnGSSig__DGH_utils
 556B:020C       L__TurnOnVORSig__DGH_utils
 556B:027A       L__TurnOffVORSig__DGH_utils
 556B:02E8       L__TurnOnDMESig__DGH_utils
 556B:0366       L__TurnOffDMESig__DGH_utils
 556B:03E4       L__TurnOnADFSig__DGH_utils
 556B:0432       L__TurnOffADFSig__DGH_utils
 556B:0480       N__ReadAnalog__ReadValue__DGH_u
 556B:04A8       L__ReadValue__DGH_utils
 556B:063C       L__ReadOmniber__DGH_utils
 556B:06BA       L__BinaryValSet__DGH_utils
 556B:0734       $BODY__DGH_utils
 556B:084D       $INIT__DGH_utils
 556B:08A4       $EM__DGH_utils
 55F6:0000       $BM__Random
 55F6:002A       S__Next__Random
 55F6:00DE       L__RandomInit__Random
 55F6:01A8       L__RandomCard__Random
 55F6:0245       L__RandomInt__Random
 55F6:026A       L__RandomReal__Random
 55F6:0385       L__Randomize__Random
 55F6:03DC       $BODY__Random
 55F6:03E6       $INIT__Random
 55F6:0410       $EM__Random
 5638:0000       $BM__DigiRS
 5638:0002       L__GetWrBufLength__DigiRS
 5638:004E       S__MarkError__DigiRS
 5638:007D       L__ReadString__DigiRS
 5638:00F3       L__WriteString__DigiRS
 5638:018F       L__SetBaudRate__DigiRS
 5638:02D4       $BODY__DigiRS
 5638:02F2       $INIT__DigiRS
 5638:031C       $EM__DigiRS
 566A:0000       $BM__Math
 566A:002A       L__ACos__Math
 566A:018D       L__Sqr__Math
 566A:01BD       $BODY__Math
 566A:01C3       $INIT__Math
 566A:01E8       $EM__Math
 5689:0000       $BM__GPS_nov
 5689:014D       L__KopijZnakZTeo__GPS_nov
 5689:0170       S__KopZnakDoKanaluMonitora__GPS
 5689:0193       N__ConvertHexChar__ReadGPS__Get
 5689:0200       N__ReadGPS__GetFrame__GPS_nov
 5689:03B1       N__szukaniePola__GetFrame__GPS_
 5689:0426       N__DekomozycjaRamki__GetFrame__
 5689:04F0       N__GetReal__GetFrame__GPS_nov
 5689:0538       N__GetCardinal__GetFrame__GPS_n
 5689:058D       N__GetInteger__GetFrame__GPS_no
 5689:05E2       N__An_Frame_DOPA__GetFrame__GPS
 5689:06A2       N__Isolate__ConvertStrToWspGeo_
 5689:0929       N__ConvertStrToWspGeo__GetWspGe
 5689:09E3       N__GetWspGeo__An_Frame_GPGGA__G
 5689:0A2D       N__An_Frame_GPGGA__GetFrame__GP
 5689:0B25       N__An_Frame_GPVTG__GetFrame__GP
 5689:0B90       N__Wydziel__An_Frame_GPZDA__Get
 5689:0C2E       N__An_Frame_GPZDA__GetFrame__GP
 5689:0CFB       L__GetFrame__GPS_nov
 5689:0DCE       L__Inicjacja__GPS_nov
 5689:109C       L__gpzdaOff__GPS_nov
 5689:10EC       $BODY__GPS_nov
 5689:11A6       $INIT__GPS_nov
 5689:11FD       $EM__GPS_nov
 57A9:0000       $BM__GPS_TRIMBLE
 57A9:0021       N__ReadPacketHead__GetFrame__GP
 57A9:006A       N__ReadEOL__GetFrame__GPS_TRIMB
 57A9:00C9       N__ReadGPS__GetFrame__GPS_TRIMB
 57A9:016D       N__WspGeoPoprawne__ReadG__GetFr
 57A9:01D7       N__Isolate__ReadG__GetFrame__GP
 57A9:0306       N__ReadG__GetFrame__GPS_TRIMBLE
 57A9:03CB       N__TypGPS__GetFrame__GPS_TRIMBL
 57A9:043F       N__Wydziel__GetFrame__GPS_TRIMB
 57A9:0509       N__PodstawWyniki__GetFrame__GPS
 57A9:05C7       L__GetFrame__GPS_TRIMBLE
 57A9:082D       L__Inicjacja__GPS_TRIMBLE
 57A9:084A       $BODY__GPS_TRIMBLE
 57A9:08B5       $INIT__GPS_TRIMBLE
 57A9:08F8       $EM__GPS_TRIMBLE
 5839:0000       $BM__DGHInterface
 5839:002B       L__GetCurrDataSign__DGHInterfac
 5839:005A       L__WaitForNewData__DGHInterface
 5839:00A0       L__TurnOff__DGHInterface
 5839:00F2       L__TurnOn__DGHInterface
 5839:0187       L__GetAnalogVal__DGHInterface
 5839:0226       L__GetBinaryVal__DGHInterface
 5839:02BB       L__SetAnalogVal__DGHInterface
 5839:0392       L__SetBinaryVal__DGHInterface
 5839:04A0       L__SetMessage__DGHInterface
 5839:065C       N__HexDigit__CHKSRight__Reader_
 5839:06B0       N__CHKSRight__Reader__Writer__D
 5839:07A4       N__Reader__Writer__DGHInterface
 5839:0CCB       L__Writer__DGHInterface
 5839:0F7B       $BODY__DGHInterface
 5839:102C       $INIT__DGHInterface
 5839:1079       $EM__DGHInterface
 5941:0000       $BM__Int_DME
 5941:0002       L__DMEConvert__Int_DME
 5941:00C8       $BODY__Int_DME
 5941:00CE       $INIT__Int_DME
 5941:00EE       $EM__Int_DME
 5950:0000       $BM__GeoArithmetic
 5950:006A       S__DodajPolozenieGeo__GeoArithm
 5950:012E       S__Odwr__GeoArithmetic
 5950:01D4       S__OdejmijPolozenieGeo__GeoArit
 5950:02F0       S__SredniPolozenieGeo__GeoArith
 5950:03A9       S__Rad__GeoArithmetic
 5950:04C0       S__Odl2Geo__GeoArithmetic
 5950:0601       S__Mile__GeoArithmetic
 5950:0719       L__Geo2Kat__GeoArithmetic
 5950:0AEF       L__Kat2Geo__GeoArithmetic
 5950:0D1C       L__AssignOdniesienie__GeoArithm
 5950:0D90       $BODY__GeoArithmetic
 5950:0DA1       $INIT__GeoArithmetic
 5950:0DD5       $EM__GeoArithmetic
 5A2E:0000       $BM__Kl_FGenerators
 5A2E:0002       L__LookupM__Kl_FGenerators
 5A2E:04D9       $BODY__Kl_FGenerators
 5A2E:04DF       $INIT__Kl_FGenerators
 5A2E:04FF       $EM__Kl_FGenerators
 5A7F:0000       $BM__V_Slupek
 5A7F:007F       L__ShowScreenDIB__V_Slupek
 5A7F:00CB       L__ShowCursorDIB__V_Slupek
 5A7F:0109       L__UnverslVal__V_Slupek
 5A7F:01E1       S__Init__V_Slupek
 5A7F:0234       L__NapiszSygnaly__V_Slupek
 5A7F:047E       L__IniSkale__V_Slupek
 5A7F:065B       L__InitSlupek__V_Slupek
 5A7F:06B3       L__DoneSlupek__V_Slupek
 5A7F:06DF       $BODY__V_Slupek
 5A7F:0705       $INIT__V_Slupek
 5A7F:0748       $EM__V_Slupek
 5AF4:0000       $BM__D_Slupek
 5AF4:0092       L__ShowScreenDIB__D_Slupek
 5AF4:00DE       L__ShowCursorDIB__D_Slupek
 5AF4:011C       L__UnverslVal__D_Slupek
 5AF4:0211       S__Init__D_Slupek
 5AF4:0264       L__NapiszSygnaly__D_Slupek
 5AF4:04D4       L__IniSkale__D_Slupek
 5AF4:06B1       L__InitSlupek__D_Slupek
 5AF4:06F1       L__DoneSlupek__D_Slupek
 5AF4:071D       $BODY__D_Slupek
 5AF4:0743       $INIT__D_Slupek
 5AF4:078B       $EM__D_Slupek
 5B6D:0000       $BM__VORR_Average
 5B6D:002A       L__Bend_ClearContainer__VORR_Av
 5B6D:007A       N__Count__Bend_AddSample__VORR_
 5B6D:0265       L__Bend_AddSample__VORR_Average
 5B6D:0461       L__Roughness_ClearContainer__VO
 5B6D:04E1       N__sqr__Count__Roughness_AddSam
 5B6D:0511       N__Count__Roughness_AddSample__
 5B6D:070A       L__Roughness_AddSample__VORR_Av
 5B6D:0A94       $BODY__VORR_Average
 5B6D:0A9A       $INIT__VORR_Average
 5B6D:0ACE       $EM__VORR_Average
 5C1A:0000       $BM__SimScanner
 5C1A:0032       L__Simulate__SimScanner
 5C1A:03B7       L__LoadEvents__SimScanner
 5C1A:05A8       L__OdtworzEventy__SimScanner
 5C1A:0602       $BODY__SimScanner
 5C1A:0608       $INIT__SimScanner
 5C1A:066E       $EM__SimScanner
 5C81:0000       $BM__PrintCntroll
 5C81:00D5       L__CoKtoraPUp__PrintCntroll
 5C81:013A       L__CoKtoraPDn__PrintCntroll
 5C81:01BC       S__UstawStrony__PrintCntroll
 5C81:01FC       S__UstawLiczbe__PrintCntroll
 5C81:0232       L__OkP__PrintCntroll
 5C81:0248       L__ValidPodz__PrintCntroll
 5C81:037E       L__Odn__PrintCntroll
 5C81:03D5       L__P1__PrintCntroll
 5C81:03F6       L__P2__PrintCntroll
 5C81:0417       L__UstalSkalowanie__PrintCntrol
 5C81:085B       $BODY__PrintCntroll
 5C81:0861       $INIT__PrintCntroll
 5C81:08E0       $EM__PrintCntroll
 5D10:0000       $BM__NAVInterface
 5D10:0022       L__GetOmnibearing__NAVInterface
 5D10:0190       L__GetLocDev__NAVInterface
 5D10:0241       L__GetGSDev__NAVInterface
 5D10:02F2       $BODY__NAVInterface
 5D10:0322       $INIT__NAVInterface
 5D10:0351       $EM__NAVInterface
 5D46:0000       $BM__ARINC
 5D46:0002       S__INByte__ARINC
 5D46:0062       S__OUTByte__ARINC
 5D46:00BF       L__ReInitialize__ARINC
 5D46:00FF       L__WriteTXParity__ARINC
 5D46:0173       L__WriteTXChannel__ARINC
 5D46:01F1       L__WriteTXLabel__ARINC
 5D46:026F       L__WriteTXData__ARINC
 5D46:032A       L__WriteTXRate__ARINC
 5D46:03F4       L__WriteKillTime__ARINC
 5D46:04B2       L__WriteCardMode__ARINC
 5D46:051B       L__ReadConfiguration__ARINC
 5D46:0637       L__ReadTXSlot__ARINC
 5D46:079E       L__ReadRXSlot__ARINC
 5D46:093D       $BODY__ARINC
 5D46:0954       $INIT__ARINC
 5D46:096F       $EM__ARINC
 5DDE:0000       NMIServer
 5DDE:003E       AT87Server
 5DE4:0000       $INIT__RTS87
 5DEA:0000       CaseError__RTSError
 5DEA:000A       FctRetError__RTSError
 5DEA:0014       AddrOvf__RTSError
 5DEA:001E       CardOvf__RTSError
 5DEA:0028       IntegerOvf__RTSError
 5DEA:0032       LongIntegerOvf__RTSError
 5DEA:003C       RangeError__RTSError
 5DEA:0046       DivZero__RTSError
 5DF7:0000       $INIT__RTSError
 5DFA:0000       $BM__RTSMain
 5DFA:0001       L__InstallTermProc__RTSMain
 5DFA:007B       L__InstallInitProc__RTSMain
 5DFA:00EF       L__CallInitProc__RTSMain
 5DFA:00FD       L__CallTermProc__RTSMain
 5DFA:0147       L__GetMessage__RTSMain
 5DFA:0526       L__Execute__RTSMain
 5DFA:0636       Error__RTSMain
 5DFA:0673       StackCheck__RTSMain
 5DFA:067C       StackOvf__RTSMain
 5DFA:0683       M2Halt__RTSMain
 5DFA:068A       L__Terminate__RTSMain
 5DFA:0731       $INIT__RTSMain
 5DFA:0743       $BODY__RTSMain
 5DFA:076F       $EM__RTSMain
 5DFA:0770       $INIT__RTSMonExit
 5E72:0000       SpecialCASE__RTSLanguage
 5E72:004D       ParCopy__RTSLanguage
 5E72:0069       DynParCopy__RTSLanguage
 5E7E:0000       $INIT__RTSLanguage
 5E7F:0000       L__InstallHandler__RTSDevice
 5E7F:0000       $BM__RTSDevice
 5E7F:0058       L__UninstallHandler__RTSDevice
 5E7F:009B       L__GetDeviceStatus__RTSDevice
 5E7F:00BE       L__SetDeviceStatus__RTSDevice
 5E7F:00F6       L__SaveInterruptVector__RTSDevi
 5E7F:00FB       L__RestoreInterruptVector__RTSD
 5E7F:0100       L__GetPrioMask__RTSDevice
 5E7F:011F       L__SetPrioMask__RTSDevice
 5E7F:0140       $EM__RTSDevice
 5E94:0000       $INIT__RTSDevice
 5E95:0000       MonEntry__RTSPriority
 5E95:0043       MonExit__RTSPriority
 5E95:006F       Listen__RTSPriority
 5EA0:0000       $INIT__RTSPriority
 5EA1:0000       NewProcess__RTSCoroutine
 5EA1:0000       $BM__RTSCoroutine
 5EA1:0143       Transfer__RTSCoroutine
 5EA1:01A7       $EM__RTSCoroutine
 5EBC:0000       $INIT__RTSCoroutine
 5EBD:011E       IOTransfer__RTSInterrupt
 5EE2:0000       $INIT__RTSInterrupt
 5EE7:0000       RealError__RTSRealError
 5EE8:0000       $INIT__RTSRealError
 5EE9:0000       L__Length__Strings
 5EE9:001D       L__ConstAssign__Strings
 5EE9:005F       L__Assign__Strings
 5EE9:0096       L__Insert__Strings
 5EE9:014C       L__Delete__Strings
 5EE9:0188       L__Pos__Strings
 5EE9:01E9       L__Copy__Strings
 5EE9:025B       L__Concat__Strings
 5EE9:02B2       L__CompareStr__Strings
 5EE9:0303       $INIT__Strings
 5F1A:0000       L__InstallDynMem__DynMem
 5F1A:0000       $BM__DynMem
 5F1A:0059       L__Alloc__DynMem
 5F1A:0102       L__DeAlloc__DynMem
 5F1A:01BF       L__Avail__DynMem
 5F1A:0203       $INIT__DynMem
 5F1A:0204       $EM__DynMem
 5F3B:0002       L__AssignRead__Termbase
 5F3B:0088       L__Read__Termbase
 5F3B:00D7       L__KeyPressed__Termbase
 5F3B:0127       L__UnAssignRead__Termbase
 5F3B:0184       L__AssignWrite__Termbase
 5F3B:01F1       L__Write__Termbase
 5F3B:023E       L__UnAssignWrite__Termbase
 5F3B:03BB       $INIT__Termbase
 5F3B:03E5       $EM__Termbase
 5F7A:0000       $BM__BlockOps
 5F7A:0000       L__BlockMoveForward__BlockOps
 5F7A:001A       L__BlockMoveBackward__BlockOps
 5F7A:003B       L__BlockMove__BlockOps
 5F7A:007D       L__BlockClear__BlockOps
 5F7A:0096       L__BlockSet__BlockOps
 5F7A:00B8       L__BlockEqual__BlockOps
 5F7A:00D9       L__BlockPosition__BlockOps
 5F7A:0107       $INIT__BlockOps
 5F7A:0108       $EM__BlockOps
 5F8B:01B9       L__IntToString__NumberConversio
 5F8B:01FE       L__LongIntToString__NumberConve
 5F8B:0259       L__CardToString__NumberConversi
 5F8B:028D       L__NumToString__NumberConversio
 5F8B:04BA       L__StringToInt__NumberConversio
 5F8B:0522       L__StringToCard__NumberConversi
 5F8B:0587       L__StringToLongInt__NumberConve
 5F8B:05B5       L__StringToNum__NumberConversio
 5F8B:0620       $INIT__NumberConversion
 5F8B:063B       $EM__NumberConversion
 5FEF:0009       $INIT__ASCII
 5FEF:0024       $EM__ASCII
 5FF2:0000       $BM__BitByteOps
 5FF2:0000       L__GetBits__BitByteOps
 5FF2:0018       L__SetBits__BitByteOps
 5FF2:0046       L__ByteAnd__BitByteOps
 5FF2:0055       L__ByteOr__BitByteOps
 5FF2:0064       L__ByteXor__BitByteOps
 5FF2:0073       L__ByteNot__BitByteOps
 5FF2:0081       L__ByteShr__BitByteOps
 5FF2:0092       L__ByteSar__BitByteOps
 5FF2:00A3       L__ByteShl__BitByteOps
 5FF2:00B4       L__ByteRor__BitByteOps
 5FF2:00C5       L__ByteRol__BitByteOps
 5FF2:00D6       L__HighNibble__BitByteOps
 5FF2:00E6       L__LowNibble__BitByteOps
 5FF2:00F4       L__Swap__BitByteOps
 5FF2:0108       $INIT__BitByteOps
 5FF2:0109       $EM__BitByteOps
 6003:0002       L__Sound__Sounds
 6003:0032       L__NoSound__Sounds
 6003:0046       $INIT__Sounds
 6003:0061       $EM__Sounds
 600A:0002       L__GetDeviceStatus__Devices
 600A:0018       L__SetDeviceStatus__Devices
 600A:002C       L__SaveInterruptVector__Devices
 600A:004D       L__RestoreInterruptVector__Devi
 600A:006A       L__InstallHandler__Devices
 600A:0080       L__UninstallHandler__Devices
 600A:009A       $INIT__Devices
 600A:00BA       $EM__Devices
 6016:0000       pushLSet__Longs
 6016:001E       areSetsEQ__Longs
 6016:0036       superSet__Longs
 6016:005E       subSet__Longs
 6016:0086       union__Longs
 6016:009D       intersection__Longs
 6016:00B4       complement__Longs
 6016:00CF       unionCompl__Longs
 6016:00E6       LMult__Longs
 6016:018D       LMultU__Longs
 6016:01F7       LDiv__Longs
 6016:02DE       $INIT__Longs
 6044:0002       L__DOSAlloc__DOSMemory
 6044:00E3       L__DOSDeAlloc__DOSMemory
 6044:01B0       L__DOSAvail__DOSMemory
 6044:01F0       L__DOSSetSize__DOSMemory
 6044:0241       L__DOSGetMaxSize__DOSMemory
 6044:0298       $INIT__DOSMemory
 6044:02B8       $EM__DOSMemory
 6070:0002       L__FlagReset__Mouse
 6070:001F       L__ShowCursor__Mouse
 6070:002B       L__HideCursor__Mouse
 6070:0037       L__GetPosBut__Mouse
 6070:005A       L__SetCursorPos__Mouse
 6070:006E       L__GetButPres__Mouse
 6070:00A0       L__GetButRel__Mouse
 6070:00D2       L__SetHorizontalLimits__Mouse
 6070:00E6       L__SetVerticalLimits__Mouse
 6070:00FA       L__SetGraphicCursor__Mouse
 6070:0127       L__SetTextCursor__Mouse
 6070:013E       L__ReadMotionCounters__Mouse
 6070:0157       L__SetEventHandler__Mouse
 6070:0188       L__LightPenOn__Mouse
 6070:0194       L__LightPenOff__Mouse
 6070:01A0       L__SetMickeysPerPixel__Mouse
 6070:01B4       L__ConditionalOff__Mouse
 6070:01CE       L__SetSpeedThreshold__Mouse
 6070:0296       $INIT__Mouse
 6070:02B1       $EM__Mouse
 609C:0002       L__KeyPressed__Keyboard
 609C:0033       L__Read__Keyboard
 609C:0142       $INIT__Keyboard
 609C:0167       $EM__Keyboard
 60B3:0002       L__KeyPressed__Terminal
 60B3:000E       L__Read__Terminal
 60B3:0089       L__ReadString__Terminal
 60B3:010A       L__ReadAgain__Terminal
 60B3:011B       L__Write__Terminal
 60B3:012C       L__WriteLn__Terminal
 60B3:013B       L__WriteString__Terminal
 60B3:01A1       $INIT__Terminal
 60B3:01C6       $EM__Terminal
 6119:0000       $INIT__DebugPMD
 6123:0002       L__Write__Display
 6123:007C       $INIT__Display
 6123:009C       $EM__Display
 612D:0000       $BM__MathLib0
 612D:002A       L__sqrt__MathLib0
 612D:0098       L__exp__MathLib0
 612D:0209       L__ln__MathLib0
 612D:0251       L__sin__MathLib0
 612D:03A5       L__cos__MathLib0
 612D:04CA       L__arctan__MathLib0
 612D:05AC       L__real__MathLib0
 612D:05BE       L__entier__MathLib0
 612D:06AF       $INIT__MathLib0
 612D:06C4       $EM__MathLib0
 619A:0000       $DD
 619A:0000       $MN__AV
 619A:0000       $OK__10jul99_1216_OF_AV
 619A:008E       $OK__10jul99_1214_OF_FCBS
 619A:0094       $OK__10jul99_1214_OF_DOSEntry
 619A:009A       $OK__10jul99_1214_OF_MANAGER
 619A:00A0       $OK__10jul99_1214_OF_ErrorMess
 619A:00A6       $OK__10jul99_1215_OF_V_results
 619A:00AC       $OK__10jul99_1215_OF_VORO_avrag
 619A:00B2       $OK__10jul99_1214_OF_CommonType
 619A:00B8       $OK__10jul99_1214_OF_D_CommonTy
 619A:00BE       $OK__10jul99_1215_OF_V_CommonTy
 619A:00C4       $OK__10jul99_1214_OF_SpecConv
 619A:00CA       $OK__10jul99_1214_OF_FlagAnal
 619A:00D0       $OK__10jul99_1214_OF_Czas
 619A:00D6       $OK__10jul99_1215_OF_V_Files
 619A:00DC       $OK__10jul99_1215_OF_D_Files
 619A:00E2       $OK__10jul99_1214_OF_MMA_Cout
 619A:00E8       $OK__10jul99_1215_OF_D_results
 619A:00EE       $OK__10jul99_1215_OF_ZoomInterf
 619A:00F4       $OK__10jul99_1214_OF_PrintScree
 619A:00FA       $OK__10jul99_1216_OF_D_Report
 619A:0100       $OK__10jul99_1214_OF_GrafTypes
 619A:0106       $OK__10jul99_1214_OF_HiLevGraf
 619A:010C       $OK__10jul99_1214_OF_ShortCuts
 619A:0112       $OK__10jul99_1214_OF_MMMouse
 619A:0118       $OK__10jul99_1214_OF_InpLine
 619A:011E       $OK__10jul99_1214_OF_Buttons
 619A:0124       $OK__10jul99_1214_OF_GList
 619A:012A       $OK__10jul99_1214_OF_Dialog
 619A:0130       $OK__10jul99_1215_OF_PI_PA
 619A:0136       $OK__10jul99_1215_OF_PI_Glowny
 619A:013C       $OK__10jul99_1215_OF_V_Oblot
 619A:0142       $OK__10jul99_1214_OF_CommonData
 619A:0148       $OK__10jul99_1215_OF_Files
 619A:014E       $OK__10jul99_1215_OF_V_CP_Contr
 619A:0154       $OK__10jul99_1215_OF_Pomiar
 619A:015A       $OK__10jul99_1215_OF_Screen
 619A:0160       $OK__10jul99_1215_OF_PI_Analiza
 619A:0166       $OK__10jul99_1215_OF_PI_Pomiar
 619A:016C       $OK__10jul99_1215_OF_PI_ArchDat
 619A:0172       $OK__10jul99_1215_OF_PI_Drukuj
 619A:0178       $OK__10jul99_1216_OF_PI_Report
 619A:017E       $OK__10jul99_1214_OF_SoftIntHan
 619A:0184       $OK__10jul99_1214_OF_Storage
 619A:018A       $OK__10jul99_1214_OF_Timer
 619A:0190       $OK__10jul99_1214_OF_Messages
 619A:0196       $OK__10jul99_1214_OF_StdIO
 619A:019C       $OK__10jul99_1214_OF_MsgBox
 619A:01A2       $OK__10jul99_1214_OF_WorseBecau
 619A:01A8       $OK__10jul99_1214_OF_Graphics
 619A:01AE       $OK__10jul99_1214_OF_XMSService
 619A:01B4       $OK__10jul99_1214_OF_HRD_Clock
 619A:01BA       $OK__10jul99_1214_OF_FIO
 619A:01C0       $OK__10jul99_1215_OF_V_Odb
 619A:01C6       $OK__10jul99_1215_OF_ScannerI
 619A:01CC       $OK__10jul99_1214_OF_TheodolitR
 619A:01D2       $OK__10jul99_1215_OF_GPSRead
 619A:01D8       $OK__10jul99_1214_OF_DGHIni
 619A:01DE       $OK__10jul99_1215_OF_D_Odb
 619A:01E4       $OK__10jul99_1215_OF_Zoom
 619A:01EA       $OK__10jul99_1214_OF_GrafUtil
 619A:01F0       $OK__10jul99_1215_OF_PI_ZoomSpe
 619A:01F6       $OK__10jul99_1216_OF_Rap_Util
 619A:01FC       $OK__10jul99_1215_OF_Print
 619A:0202       $OK__10jul99_1215_OF_DrawEpson
 619A:0208       $OK__10jul99_1216_OF_PI_DMEnagl
 619A:020E       $OK__10jul99_1215_OF_EventsMng
 619A:0214       $OK__10jul99_1214_OF_Ini
 619A:021A       $OK__10jul99_1216_OF_PrintUtl
 619A:0220       $OK__10jul99_1214_OF_Semafory
 619A:0226       $OK__10jul99_1215_OF_Polozenie
 619A:022C       $OK__10jul99_1215_OF_V_Database
 619A:0232       $OK__10jul99_1215_OF_Mapa
 619A:0238       $OK__10jul99_1214_OF_RealConver
 619A:023E       $OK__10jul99_1214_OF_Tune
 619A:0244       $OK__10jul99_1214_OF_Obloty
 619A:024A       $OK__10jul99_1214_OF_SwitchCntr
 619A:0250       $OK__10jul99_1214_OF_Kalibracja
 619A:0256       $OK__10jul99_1214_OF_CocpDsp
 619A:025C       $OK__10jul99_1215_OF_DataCollec
 619A:0262       $OK__10jul99_1214_OF_Wykres
 619A:0268       $OK__10jul99_1214_OF_XMSTable
 619A:026E       $OK__10jul99_1215_OF_PI_ScrUtil
 619A:0274       $OK__10jul99_1215_OF_Slupek
 619A:027A       $OK__10jul99_1215_OF_ScreenCTyp
 619A:0280       $OK__10jul99_1215_OF_V_DisResul
 619A:0286       $OK__10jul99_1215_OF_DisResUtil
 619A:028C       $OK__10jul99_1215_OF_D_DisResul
 619A:0292       $OK__10jul99_1215_OF_PiszEventy
 619A:0298       $OK__10jul99_1215_OF_V_Count
 619A:029E       $OK__10jul99_1215_OF_D_Count
 619A:02A4       $OK__10jul99_1215_OF_D_DAcquizi
 619A:02AA       $OK__10jul99_1215_OF_V_DAcquizi
 619A:02B0       $OK__10jul99_1214_OF_AltInterfa
 619A:02B6       $OK__10jul99_1215_OF_DMEPrint
 619A:02BC       $OK__10jul99_1215_OF_VORPrint
 619A:02C2       $OK__10jul99_1215_OF_Marks
 619A:02C8       $OK__10jul99_1214_OF_FIltr1St
 619A:02CE       $OK__10jul99_1214_OF_DGH_utils
 619A:02D4       $OK__10jul99_1215_OF_Random
 619A:02DA       $OK__10jul99_1214_OF_DigiRS
 619A:02E0       $OK__10jul99_1214_OF_Math
 619A:02E6       $OK__10jul99_1214_OF_GPS_nov
 619A:02EC       $OK__10jul99_1214_OF_GPS_TRIMBL
 619A:02F2       $OK__10jul99_1214_OF_DGHInterfa
 619A:02F8       $OK__10jul99_1214_OF_Int_DME
 619A:02FE       $OK__10jul99_1215_OF_GeoArithme
 619A:0304       $OK__10jul99_1214_OF_Kl_FGenera
 619A:030A       $OK__10jul99_1215_OF_V_Slupek
 619A:0310       $OK__10jul99_1215_OF_D_Slupek
 619A:0316       $OK__10jul99_1215_OF_VORR_Avera
 619A:031C       $OK__10jul99_1215_OF_SimScanner
 619A:0322       $OK__10jul99_1215_OF_PrintCntro
 619A:0328       $OK__10jul99_1214_OF_NAVInterfa
 619A:032E       $OK__10jul99_1214_OF_ARINC
 619A:0334       $OK__10jul87_1403_OF_RTS87
 619A:033A       $OK__10jul87_1400_OF_RTSError
 619A:0340       $OK__19aug87_1403_OF_RTSMain
 619A:0346       $OK__10jul87_1401_OF_RTSLanguag
 619A:034C       $OK__15jun87_0924_OF_RTSDevice
 619A:0352       $OK__10jul87_1404_OF_RTSPriorit
 619A:0358       $OK__15jun87_0924_OF_RTSCorouti
 619A:035E       $OK__10jul87_1402_OF_RTSInterru
 619A:0364       $OK__10jul87_1400_OF_RTSRealErr
 619A:036A       $OK__31jul87_1000_OF_Strings
 619A:0370       $OK__16jun87_1952_OF_DynMem
 619A:0376       $OK__01mar90_1621_OF_Termbase
 619A:037C       $OK__31jul87_1300_OF_BlockOps
 619A:0382       $OK__01mar90_1621_OF_NumberConv
 619A:0388       $OK__01mar90_1621_OF_ASCII
 619A:038E       $OK__31jul87_1100_OF_BitByteOps
 619A:0394       $OK__01mar90_1622_OF_Sounds
 619A:039A       $OK__01mar90_1622_OF_Devices
 619A:03A0       $OK__05feb87_1233_OF_Longs
 619A:03A6       $OK__01mar90_1621_OF_DOSMemory
 619A:03AC       $OK__01mar90_1622_OF_Mouse
 619A:03B2       $OK__01mar90_1621_OF_Keyboard
 619A:03B8       $OK__01mar90_1621_OF_Terminal
 619A:03BE       $OK__16jun87_2059_OF_DebugPMD
 619A:03C4       $OK__01mar90_1621_OF_Display
 61E8:0000       $BD__RTSMain
 61E8:0000       errorCode__RTSMain
 61E8:0002       PSPAddress__RTSMain
 61E8:0006       blockList__RTSMain
 61E8:000A       overlayList__RTSMain
 61E8:000E       overlayInitProc__RTSMain
 61E8:0012       overlayTermProc__RTSMain
 61E8:0016       curProcess__RTSMain
 61E8:001A       activProcess__RTSMain
 61E8:001E       debuggerRecord__RTSMain
 61E8:0030       deviceMask__RTSMain
 61E8:0032       dyingOverlay__RTSMain
 61E8:0036       MonitorExitProc__RTSMonExit
 61E8:003E       programSize
 61E8:0046       priorityMasks__RTSMain
 61E8:0058       DescInt0__RTSMain
 61E8:0128       freeList__RTSMain
 61E8:01CE       oldNMIvector
 61E8:01DD       $ED__RTSMain
 6207:0000       addProcess__RTSCoroutine
 6207:0000       $BD__RTSCoroutine
 6207:0003       $ED__RTSCoroutine
 6274:0000       mainState__AV
 6274:0000       $BD__AV
 6274:0002       switchAble__AV
 6274:0003       Zestaw__AV
 6274:0004       polaryzacjaOK__AV
 6274:0006       podzielnik__AV
 6274:000A       synResult__AV
 6274:000E       dataOk__AV
 6274:0010       $ED__AV
 6276:0000       Code__FCBS
 6276:0000       $BD__FCBS
 6276:003D       $ED__FCBS
 627A:0000       $BD__DOSEntry
 627A:0000       entryTmp__DOSEntry
 627A:003D       exitTmp__DOSEntry
 627A:007A       entryTmpPtr__DOSEntry
 627A:007E       exitTmpPtr__DOSEntry
 627A:0082       insideFlag__DOSEntry
 627A:0084       DOSEmpty__DOSEntry
 627A:0088       $ED__DOSEntry
 6283:0000       ErrorQueue__MANAGER
 6283:0000       $BD__MANAGER
 6283:0004       ReadyFirst__MANAGER
 6283:0008       NuOfErrorProc__MANAGER
 6283:000A       MaxNumOfReady__MANAGER
 6283:000C       MaxRunTime__MANAGER
 6283:000E       LongestProcess__MANAGER
 6283:0012       ErrorHandler__MANAGER
 6283:0016       LastCreated__MANAGER
 6283:001A       NumberOfProc__MANAGER
 6283:001C       Statistic__MANAGER
 6283:0114       CP__MANAGER
 6283:0118       ReadyLast__MANAGER
 6283:011C       DUMMY__MANAGER
 6283:0120       NuOfReady__MANAGER
 6283:0122       WaitForInt__MANAGER
 6283:0124       TSSInterval__MANAGER
 6283:0126       MaxRecTime__MANAGER
 6283:0128       TimeIntNum__MANAGER
 6283:012A       spTab__MANAGER
 6283:01F6       expInter__Scheduler__MANAGER
 6283:0208       VarDR__MANAGER
 6283:021A       Count__MANAGER
 6283:021C       LastMask__MANAGER
 6283:021E       $ED__MANAGER
 62A5:0000       $ED__ErrorMess
 62A5:0000       $BD__ErrorMess
 62A6:0000       anRes__V_results
 62A6:0000       $BD__V_results
 62A6:05A3       currDT__V_results
 62A6:05AF       sec__V_results
 62A6:05B1       $ED__V_results
 6302:0000       $ED__VORO_avrage
 6302:0000       $BD__VORO_avrage
 6303:0000       $ED__CommonTypes
 6303:0000       $BD__CommonTypes
 6304:0000       $ED__D_CommonTypes
 6304:0000       $BD__D_CommonTypes
 6305:0000       Procedura__V_CommonTypes
 6305:0000       $BD__V_CommonTypes
 6305:0001       $ED__V_CommonTypes
 6306:0000       $BD__SpecConv
 6306:0000       $ED__SpecConv
 6307:0000       $ED__FlagAnal
 6307:0000       $BD__FlagAnal
 6308:0000       $BD__Czas
 6308:0000       StringRect__BezPrzerwan__Czas
 6308:0008       SystemTime__BezPrzerwan__Czas
 6308:0014       $ED__Czas
 630A:0000       $BD__V_Files
 630A:0000       FileErr__V_Files
 630A:0004       NamesSig__V_Files
 630A:0090       FileSig__V_Files
 630A:00A4       NameRes__V_Files
 630A:00F8       FileRes__V_Files
 630A:0104       $ED__V_Files
 631B:0000       FileErr__D_Files
 631B:0000       $BD__D_Files
 631B:0004       NamesSig__D_Files
 631B:0074       NamesDis__D_Files
 631B:0090       FileSig__D_Files
 631B:00A0       FileDis__D_Files
 631B:00A4       $ED__D_Files
 6326:0000       $ED__MMA_Cout
 6326:0000       $BD__MMA_Cout
 6327:0000       $BD__D_results
 6327:0000       anRes__D_results
 6327:1EA4       currDT__D_results
 6327:1EB0       sec__D_results
 6327:1EB2       $ED__D_results
 6513:0000       Koniec__ZoomInterface
 6513:0000       $BD__ZoomInterface
 6513:0004       FirstTime__ZoomInterface
 6513:0005       Zawartosc__ZoomInterface
 6513:0009       CoRobic__ZoomInterface
 6513:0019       Lista__ZoomInterface
 6513:0029       OstatniStan__ZoomInterface
 6513:002A       OdnB__ZoomInterface
 6513:002E       MozeBycGlowny__ZoomInterface
 6513:002F       MozeBycDme__ZoomInterface
 6513:0030       $ED__ZoomInterface
 6517:0000       $BD__PrintScreen
 6517:0000       $ED__PrintScreen
 6518:0000       StartN__D_Report
 6518:0000       $BD__D_Report
 6518:0004       StartTol__D_Report
 6518:0006       AktualnyPromien__D_Report
 6518:0008       DWN__D_Report
 6518:0010       SR__D_Report
 6518:0018       Dane__D_Report
 6518:023F       line__D_Report
 6518:0241       $ED__D_Report
 653D:0000       $ED__GrafTypes
 653D:0000       $BD__GrafTypes
 653E:0000       ClipRect__HiLevGraf
 653E:0000       $BD__HiLevGraf
 653E:0008       Style__HiLevGraf
 653E:000A       LastPosition__HiLevGraf
 653E:000C       semafor__HiLevGraf
 653E:0018       Path__HiLevGraf
 653E:0059       XS__HiLevGraf
 653E:005B       YS__HiLevGraf
 653E:005D       $ED__HiLevGraf
 6544:0000       $BD__ShortCuts
 6544:0000       Kill__ShortCuts
 6544:0001       ShortCutList__monitor__ShortCut
 6544:0005       SavedChar__monitor__ShortCuts
 6544:0007       FreeKey__monitor__ShortCuts
 6544:000B       NumEl__monitor__ShortCuts
 6544:000D       done__ShortCuts
 6544:000E       $ED__ShortCuts
 6545:0000       Regiony__MMMouse
 6545:0000       $BD__MMMouse
 6545:0004       LastX__MMMouse
 6545:0006       LastY__MMMouse
 6545:0008       CursorShapePtr__MMMouse
 6545:000C       DefaultShape__MMMouse
 6545:0050       maxX__MMMouse
 6545:0052       maxY__MMMouse
 6545:0054       PrevReg__MMMouse
 6545:0058       MonitoCheck__BezPrzerwanOdMyszy
 6545:005A       MouseEvent__BezPrzerwanOdMyszy_
 6545:005E       OldButtons__BezPrzerwanOdMyszy_
 6545:005F       EVF__BezPrzerwanOdMyszy__MMMous
 6545:0061       EVL__BezPrzerwanOdMyszy__MMMous
 6545:0063       EVC__BezPrzerwanOdMyszy__MMMous
 6545:0065       EventBuff__BezPrzerwanOdMyszy__
 6545:01E5       Stored__BezPrzerwanOdMyszy__MMM
 6545:01EC       lx__BezWyszeregowania__MMMouse
 6545:01EE       ly__BezWyszeregowania__MMMouse
 6545:01F0       rx__BezWyszeregowania__MMMouse
 6545:01F2       ry__BezWyszeregowania__MMMouse
 6545:01F4       CursorBuf__BezWyszeregowania__M
 6545:02F4       Hidden__BezWyszeregowania__MMMo
 6545:02F5       CursorB__BezWyszeregowania__MMM
 6545:03F5       MSemafor__MMMouse
 6545:0401       $ED__MMMouse
 6586:0000       Active__InpLine
 6586:0000       $BD__InpLine
 6586:0004       $ED__InpLine
 6587:0000       $BD__Buttons
 6587:0000       KbdButton__Buttons
 6587:0004       AllEnabled__Buttons
 6587:0005       ButtonList__MONITOR__Buttons
 6587:0009       $ED__Buttons
 6588:0000       CurH__GList
 6588:0000       $BD__GList
 6588:0004       Lista__GList
 6588:0008       $ED__GList
 6589:0000       ListaDlg__Dialog
 6589:0000       $BD__Dialog
 6589:0004       FocusChanged__Dialog
 6589:0008       $ED__Dialog
 658A:0000       $BD__PI_PA
 658A:0000       PomiarANieArchiwum__PI_PA
 658A:0001       $ED__PI_PA
 658B:0000       $ED__PI_Glowny
 658B:0000       $BD__PI_Glowny
 658C:0000       $BD__V_Oblot
 658C:0000       CoRobimy__V_Oblot
 658C:0001       hDlg__V_Oblot
 658C:0005       Identyfikacja__V_Oblot
 658C:000D       OrbBlad__V_Oblot
 658C:0015       PromBlad__V_Oblot
 658C:001D       OrbZasieg__V_Oblot
 658C:0025       PromZasieg__V_Oblot
 658C:002D       GlowOdb__V_Oblot
 658C:0031       OdnBlad__V_Oblot
 658C:0035       OdnOdl__V_Oblot
 658C:0039       LiniaOrbZasi__V_Oblot
 658C:003D       LiniaOrbBledu__V_Oblot
 658C:0041       WykLoty__V_Oblot
 658C:0049       ListaOblotow__V_Oblot
 658C:004D       ListaVOR_Ob__V_Oblot
 658C:0051       DodajB__V_Oblot
 658C:0055       UsunB__V_Oblot
 658C:0059       LiniaPredkosc__V_Oblot
 658C:005D       TestUP__V_Oblot
 658C:0061       Raport__V_Oblot
 658C:0065       Pomiar__V_Oblot
 658C:0069       CisnienieOdn__V_Oblot
 658C:006D       KierunekA__V_Oblot
 658C:006F       KierunekB__V_Oblot
 658C:0071       OstatniOblot__V_Oblot
 658C:0073       IloscDodatkowychPromieni__V_Obl
 658C:0075       DodPromienie__V_Oblot
 658C:008B       Redraw__V_Oblot
 658C:008C       Uaktualnij__V_Oblot
 658C:0090       LiniaNowegoKierunku__V_Oblot
 658C:0094       ListaVORow__V_Oblot
 658C:0098       ListaPomocnicza__V_Oblot
 658C:009C       WybranyA__V_Oblot
 658C:009E       WybranyB__V_Oblot
 658C:00A0       $ED__V_Oblot
 6597:0000       $BD__CommonData
 6597:0000       NazwaUrzadz1__CommonData
 6597:0029       NazwaUrzadz2__CommonData
 6597:0052       NazwaOblotu__CommonData
 6597:007B       NazwaPlikuOpisu__CommonData
 6597:00FB       DME__CommonData
 6597:00FC       SciezkaOpisuPomiaru__CommonData
 6597:013D       OdnDlaPomBledu__CommonData
 6597:013E       OdnDlaPomOdl__CommonData
 6597:013F       Nadajnik1__CommonData
 6597:0140       Nadajnik2__CommonData
 6597:0141       GlownyOdbiornik__CommonData
 6597:0142       Promien__CommonData
 6597:0144       Orbita__CommonData
 6597:0146       Predkosc__CommonData
 6597:014E       CisnienieOdniesienia__CommonDat
 6597:0156       $ED__CommonData
 65AD:0000       $BD__Files
 65AD:0000       FileErr__Files
 65AD:0004       DirErr__Files
 65AD:0008       NamesAn__Files
 65AD:0040       NamesDist__Files
 65AD:00B0       NamesAlfa__Files
 65AD:00E8       NamesComm__Files
 65AD:0190       filesDist__Files
 65AD:01A0       filesAlfa__Files
 65AD:01A8       filesComm__Files
 65AD:01C0       xRefFile__Files
 65AD:01C4       xRefDefV__Files
 65AD:01C8       homeDir__Files
 65AD:0219       $ED__Files
 65CF:0000       $BD__V_CP_ControlProc
 65CF:0000       disCont__V_CP_ControlProc
 65CF:00CD       angCont__V_CP_ControlProc
 65CF:0190       myRadial__V_CP_ControlProc
 65CF:0192       aktOrbita__V_CP_ControlProc
 65CF:0194       radial__V_CP_ControlProc
 65CF:0195       Running__V_CP_ControlProc
 65CF:0196       $ED__V_CP_ControlProc
 65E9:0000       $BD__Pomiar
 65E9:0000       ProcPom__Pomiar
 65E9:0050       EtapPolaryzacji__Pomiar
 65E9:0054       StanButtonow__Pomiar
 65E9:0058       currButtonSet__Pomiar
 65E9:005A       B_01__Pomiar
 65E9:005E       B_02__Pomiar
 65E9:0062       B_03__Pomiar
 65E9:0066       B_04__Pomiar
 65E9:006A       B_05__Pomiar
 65E9:006E       NapisB_01__Pomiar
 65E9:0075       StanZestawu__Pomiar
 65E9:0077       frstBut__Pomiar
 65E9:0079       katPromien__Pomiar
 65E9:007B       promien__Pomiar
 65E9:007C       format360__Pomiar
 65E9:007E       distOff__Pomiar
 65E9:0082       alfaOff__Pomiar
 65E9:0092       currZestaw__Pomiar
 65E9:0093       dataInBuff__Pomiar
 65E9:0095       $ED__Pomiar
 65F3:0000       $BD__Screen
 65F3:0000       VAL1__Screen
 65F3:0004       VAL2__Screen
 65F3:0008       VAL3__Screen
 65F3:000C       VAL4__Screen
 65F3:0010       Zestaw__Screen
 65F3:0011       aktPromien__Screen
 65F3:0013       aktPromienOdAnt__Screen
 65F3:001B       pomPromieniowy__Screen
 65F3:001C       aktFormat360__Screen
 65F3:001D       devDistR__Screen
 65F3:0025       by23__Screen
 65F3:0027       LastDTidx__Screen
 65F3:0029       ThisDTidx__Screen
 65F3:002B       samplediv__Screen
 65F3:002D       NextRedraw__Screen
 65F3:002E       LastEventIDX__Screen
 65F3:0030       KrokOpisuOsi__Screen
 65F3:0032       Predrawmarksreq__Screen
 65F3:0036       Predrawreq__Screen
 65F3:003A       currConsoleEv__Screen
 65F3:003E       RegionWykG__Screen
 65F3:0042       RegionWykGCreated__Screen
 65F3:0043       RegionWyk1__Screen
 65F3:0047       RegionWyk1Created__Screen
 65F3:0048       RegionWyk2__Screen
 65F3:004C       RegionWyk2Created__Screen
 65F3:004D       RegionWyk3__Screen
 65F3:0051       RegionWyk3Created__Screen
 65F3:0052       RegionWykresow__Screen
 65F3:0056       B_CURSOR__Screen
 65F3:005A       B_LEFT__Screen
 65F3:005E       B_RIGHT__Screen
 65F3:0062       B_UP__Screen
 65F3:0066       B_DOWN__Screen
 65F3:006A       screenDIB__Screen
 65F3:006E       RysSytMaxDis__Dialog__Screen
 65F3:0076       CursorMode__Dialog__Screen
 65F3:0077       JakijedenWykres__Dialog__Screen
 65F3:0078       JedenWykres__Dialog__Screen
 65F3:0079       JakieWykr__Dialog__Screen
 65F3:007A       popJakieWykr__Dialog__Screen
 65F3:007B       CursorPos__Dialog__Screen
 65F3:007D       OileKursor__Dialog__Screen
 65F3:007F       ZmianaSkaliWpionie__Dialog__Scr
 65F3:0080       BarOnScreen__Dialog__Screen
 65F3:0082       skalaWpionie__Dialog__Screen
 65F3:012C       ChangeKursorMode__Dialog__Scree
 65F3:012D       $ED__Screen
 6606:0000       dispResults__PI_Analiza
 6606:0000       $BD__PI_Analiza
 6606:0004       currButtonSet__MouseMonitor__PI
 6606:0005       B_Drukuj__MouseMonitor__PI_Anal
 6606:0009       B_Akceptuj__MouseMonitor__PI_An
 6606:000D       B_Abort__MouseMonitor__PI_Anali
 6606:0011       B_UP__MouseMonitor__PI_Analiza
 6606:0015       B_DOWN__MouseMonitor__PI_Analiz
 6606:0019       B_XCHG__MouseMonitor__PI_Analiz
 6606:001D       sthPressed__MouseMonitor__PI_An
 6606:0021       $ED__PI_Analiza
 6609:0000       $BD__PI_Pomiar
 6609:0000       $ED__PI_Pomiar
 660A:0000       $ED__PI_ArchDate
 660A:0000       $BD__PI_ArchDate
 660B:0000       $BD__PI_Drukuj
 660B:0000       $ED__PI_Drukuj
 660C:0000       $BD__PI_Report
 660C:0000       StartN__PI_Report
 660C:0004       StartTol__PI_Report
 660C:0006       Dane__PI_Report
 660C:1411       Line__PI_Report
 660C:1413       $ED__PI_Report
 674E:0000       $BD__SoftIntHandlingManager
 674E:0000       break__SoftIntHandlingManager
 674E:0001       firstISRDescriptorPtr__Monitor_
 674E:0005       $ED__SoftIntHandlingManager
 674F:0000       $BD__Storage
 674F:0000       OCCUPED__Storage
 674F:0001       heapList__Storage
 674F:0021       prevHeap__Storage
 674F:0023       StaraStrategia__Storage
 674F:0025       StaryCh__Storage
 674F:0027       $ED__Storage
 6752:0000       $BD__Timer
 6752:0000       TimeCounter__Timer
 6752:0002       TIOS__Timer
 6752:0004       ClockPer__Timer
 6752:0006       TOQueue__Monitor__Timer
 6752:000A       Period__Monitor__Timer
 6752:000C       PeriodCount__Monitor__Timer
 6752:000E       PeriodicProcedure__Monitor__Tim
 6752:0012       Dumm__Monitor__Timer
 6752:0014       $ED__Timer
 6754:0000       $BD__Messages
 6754:0000       MList__Messages
 6754:0004       MDispl__Messages
 6754:0008       MessageSound__Messages
 6754:000A       TurnBeepOn__Messages
 6754:000E       $ED__Messages
 6755:0000       $BD__StdIO
 6755:0000       $ED__StdIO
 6756:0000       hDlg__MsgBox
 6756:0000       $BD__MsgBox
 6756:0004       ret__MsgBox
 6756:0006       P_A__MsgBox
 6756:0016       $ED__MsgBox
 6758:0000       $ED__WorseBecause
 6758:0000       $BD__WorseBecause
 6759:0000       FontPtr__Graphics
 6759:0000       $BD__Graphics
 6759:0004       bank__InternalMonitor__Graphics
 6759:0006       bankstart__InternalMonitor__Gra
 6759:000A       BKSizeL__InternalMonitor__Graph
 6759:000E       BK64Inc__InternalMonitor__Graph
 6759:0010       FntTable__Graphics
 6759:0130       $ED__Graphics
 676D:0000       $BD__XMS
 676D:0004       $ED__XMS
 676E:0000       GarbageList__XMSService
 676E:0000       $BD__XMSService
 676E:0004       $ED__XMSService
 676F:0000       $BD__HRD_Clock
 676F:0000       $ED__HRD_Clock
 6770:0000       $BD__FIO
 6770:0000       lastErr__FIO
 6770:0002       numErr__FIO
 6770:0004       opened__FIO
 6770:0006       maxOpened__FIO
 6770:0008       Files__FIO
 6770:0C08       CriticalErrorRec__FIO
 6770:0C12       $ED__FIO
 6832:0000       navFlg__V_Odb
 6832:0000       $BD__V_Odb
 6832:0002       audio__V_Odb
 6832:0004       obr__V_Odb
 6832:0008       var__V_Odb
 6832:000C       ref__V_Odb
 6832:0010       sub__V_Odb
 6832:0014       agc__V_Odb
 6832:0018       flg__V_Odb
 6832:001A       DEVVAL__V_Odb
 6832:001E       DEVMIN__V_Odb
 6832:0022       DEVMAX__V_Odb
 6832:0026       DEVAV__V_Odb
 6832:002A       DevNr__V_Odb
 6832:002E       DevErrSum__V_Odb
 6832:003E       CollectData__V_Odb
 6832:003F       OdnDlaPomBledu__V_Odb
 6832:0040       navFlgCon__V_Odb
 6832:0048       locationsTogether__V_Odb
 6832:0049       licznik__V_Odb
 6832:004B       $ED__V_Odb
 6837:0000       flg__ScannerI
 6837:0000       $BD__ScannerI
 6837:0002       Alfa__ScannerI
 6837:0006       AlfaF__ScannerI
 6837:000A       RefAlfa__ScannerI
 6837:000C       TeoAlfaF__ScannerI
 6837:000E       Delta__ScannerI
 6837:0016       DeltaDME__ScannerI
 6837:001A       DeltaF__ScannerI
 6837:0022       RefDis__ScannerI
 6837:0024       ABOVESL__ScannerI
 6837:0026       pilErr__ScannerI
 6837:0028       TEO_A__ScannerI
 6837:0030       TEO_E__ScannerI
 6837:0038       TEO_OK__ScannerI
 6837:003A       TEO_DGPSpoprawki__ScannerI
 6837:003B       GPS_A__ScannerI
 6837:0043       GPS_R__ScannerI
 6837:004B       GPS_OK__ScannerI
 6837:004C       GPS_SAT__ScannerI
 6837:004E       GPS_GDOP__ScannerI
 6837:0050       GPS_DIFFMODE__ScannerI
 6837:0051       GPS_PREC__ScannerI
 6837:0053       Simul__ScannerI
 6837:0054       currAlfaOff__ScannerI
 6837:0056       loc_tog__ScannerI
 6837:0057       $ED__ScannerI
 683D:0000       PolozenieTeodolitu__TheodolitRe
 683D:0000       $BD__TheodolitRead
 683D:0010       Kopiowanie__TheodolitRead
 683D:0014       Azymut__TheodolitRead
 683D:001C       Elewacja__TheodolitRead
 683D:0024       lstAzymuth__TheodolitRead
 683D:002C       lstElevation__TheodolitRead
 683D:0034       currentSign__TheodolitRead
 683D:0036       TeoEvNr__TheodolitRead
 683D:0038       wd_dgps_currSign__TheodolitRead
 683D:003A       lstEvent__TheodolitRead
 683D:003B       lstTracking__TheodolitRead
 683D:003C       teoEvBit__TheodolitRead
 683D:003D       State__TheodolitRead
 683D:003F       currState__TheodolitRead
 683D:0040       lastNum__TheodolitRead
 683D:0046       lastCrc__TheodolitRead
 683D:0048       numPos__TheodolitRead
 683D:004A       CheckSumIdx__TheodolitRead
 683D:004C       teoEvCon__TheodolitRead
 683D:0050       teoEvNrCOn__TheodolitRead
 683D:0053       Nie_mozna_uruchomic_kanalu_Teod
 683D:0057       $ED__TheodolitRead
 6843:0000       $BD__GPSRead
 6843:0000       ObecnyStan__GPSRead
 6843:0001       currentSign__GPSRead
 6843:0003       Last_Gdop__GPSRead
 6843:0005       Last_NumberOfSattelites__GPSRea
 6843:0007       Last_polGeo__GPSRead
 6843:0013       Last_Diffmode__GPSRead
 6843:0014       Last_tog__GPSRead
 6843:001C       Last_EPE__GPSRead
 6843:001E       CurrGPSAnalizer__GPSRead
 6843:0022       $ED__GPSRead
 6846:0000       $BD__DGHIni
 6846:0000       signals__DGHIni
 6846:08E8       TableOfNames__DGHIni
 6846:0F70       SignalDescr__DGHIni
 6846:0F8E       $ED__DGHIni
 693F:0000       Dis__D_Odb
 693F:0000       $BD__D_Odb
 693F:0004       DisI__D_Odb
 693F:0008       Reply__D_Odb
 693F:000C       Squitter__D_Odb
 693F:0010       Agc__D_Odb
 693F:0014       Audio__D_Odb
 693F:0016       Mem__D_Odb
 693F:0018       Trace__D_Odb
 693F:001A       flg__D_Odb
 693F:001C       distErr__D_Odb
 693F:0020       distErrF__D_Odb
 693F:0024       SSmin__D_Odb
 693F:0028       samples__D_Odb
 693F:002A       CollectData__D_Odb
 693F:002B       distErrF_MemFIntContiner__D_Odb
 693F:003B       $ED__D_Odb
 6943:0000       $BD__Zoom
 6943:0000       ZmienP__Zoom
 6943:0004       OpisWykresu__Zoom
 6943:021C       x_odn__Zoom
 6943:0220       x_time__Zoom
 6943:0224       PosMarkerX__Zoom
 6943:0274       NrX__Zoom
 6943:0276       PrzeskokWGore__Zoom
 6943:0278       PrzeskokWDol__Zoom
 6943:027A       podz__Zoom
 6943:0282       xFirst__Zoom
 6943:0284       xLast__Zoom
 6943:0286       ZnacznikPrzerwy__Zoom
 6943:0288       ObslugaWylaczona__Zoom
 6943:0289       ZoomOutPoziom__Zoom
 6943:028D       ZoomOutPion__Zoom
 6943:029D       Koniec__Zoom
 6943:02A1       XStack__Zoom
 6943:02C9       XStackDepth__Zoom
 6943:02CB       YStack__Zoom
 6943:054B       YStackDepth__Zoom
 6943:0553       KierunekZmian__Zoom
 6943:0555       PMDLicznik__Zoom
 6943:0557       $ED__Zoom
 6999:0000       StatusR__GrafUtil
 6999:0000       $BD__GrafUtil
 6999:0008       str__GrafUtil
 6999:006C       WaitTime__GrafUtil
 6999:006E       Tone__GrafUtil
 6999:0070       $ED__GrafUtil
 69A1:0000       Opisy__PI_ZoomSpecific
 69A1:0000       $BD__PI_ZoomSpecific
 69A1:07BC       Sciezka__PI_ZoomSpecific
 69A1:07FD       $ED__PI_ZoomSpecific
 6A21:0000       $BD__Rap_Util
 6A21:0000       SpelniaWymagania__Rap_Util
 6A21:0001       SamName__Rap_Util
 6A21:0007       Sam__Rap_Util
 6A21:000B       $ED__Rap_Util
 6A22:0000       PrnX__Print
 6A22:0000       $BD__Print
 6A22:0002       PrnY__Print
 6A22:0004       PolozenieNapisu__Print
 6A22:0006       TextModeOutProc__Print
 6A22:000A       PrevIdx__Print
 6A22:000C       Flagi__Print
 6A22:000E       flgEOF__Print
 6A22:000F       scaleDiv__Print
 6A22:0011       CoKtoraProbka__Print
 6A22:0013       ZestawProbekBinDoWyboru__Print
 6A22:00D5       Tmpl__Print
 6A22:0112       $ED__Print
 6A34:0000       $BD__DrawEpson
 6A34:0000       PrnPort__DrawEpson
 6A34:0002       xh__DrawEpson
 6A34:0004       Bufor__DrawEpson
 6A34:0784       LastPosition__DrawEpson
 6A34:0786       Masks__DrawEpson
 6A34:078E       Adr1__DrawEpson
 6A34:0792       Adr2__DrawEpson
 6A34:0796       PrevPage__DrawEpson
 6A34:0798       CurMode__DrawEpson
 6A34:0799       FontAdrN__DrawEpson
 6A34:079D       FontAdrA__DrawEpson
 6A34:07A1       FontHeight__DrawEpson
 6A34:07A3       Rotation__DrawEpson
 6A34:07A4       MnX__DrawEpson
 6A34:07A6       MnY__DrawEpson
 6A34:07A8       JuzNarysowane__DrawEpson
 6A34:07A9       $ED__DrawEpson
 6AAF:0000       $ED__PI_DMEnaglowek
 6AAF:0000       $BD__PI_DMEnaglowek
 6AB0:0000       Events__EventsMng
 6AB0:0000       $BD__EventsMng
 6AB0:0B44       pilEnr__EventsMng
 6AB0:0B48       conEnr__EventsMng
 6AB0:0B4C       teoEnr__EventsMng
 6AB0:0B50       $ED__EventsMng
 6B66:0000       ErrorProc__Ini
 6B66:0000       $BD__Ini
 6B66:0004       ini__Ini
 6B66:0010       currfile__Ini
 6B66:0012       BuffP__Ini
 6B66:0016       Bufor__Ini
 6B66:5017       charsInBuffer__Ini
 6B66:5019       SavedFileName__Ini
 6B66:507D       LastDir__Ini
 6B66:50E1       Modified__Ini
 6B66:50E2       check__Ini
 6B66:50E4       $ED__Ini
 7075:0000       StartN__PrintUtl
 7075:0000       $BD__PrintUtl
 7075:0004       $ED__PrintUtl
 7076:0000       $BD__Semafory
 7076:0000       TablicaSemaforow__Semafory
 7076:0054       $ED__Semafory
 707C:0000       StalyKat__Polozenie
 707C:0000       $BD__Polozenie
 707C:0002       Srodek__Polozenie
 707C:0006       Promien__Polozenie
 707C:0008       MaxVal__Polozenie
 707C:0010       AktOdleglosc__Polozenie
 707C:0018       AktKat__Polozenie
 707C:0020       Narysowany__Polozenie
 707C:0022       Bufor__Polozenie
 707C:0112       Rect__Polozenie
 707C:011A       ProcesAktywny__Polozenie
 707C:011B       NCO__Polozenie
 707C:011C       angContiner__Polozenie
 707C:011F       MarkerShapes__Polozenie
 707C:020F       Dir__Polozenie
 707C:0211       CzesciOkregu__Polozenie
 707C:0235       $ED__Polozenie
 70A0:0000       $BD__V_Database
 70A0:0000       CurVor1__V_Database
 70A0:00E8       CurVor2__V_Database
 70A0:01D0       twoLocations__V_Database
 70A0:01D1       VOR_O_czuloscWP__V_Database
 70A0:01D3       VOR_O_czuloscCP__V_Database
 70A0:01D5       VOR_R_czuloscWP__V_Database
 70A0:01D7       VOR_R_czuloscCP__V_Database
 70A0:01D9       Blad_podczas_wczytywania_opisu_
 70A0:01DD       $ED__V_Database
 70BE:0000       doZrobienia__Mapa
 70BE:0000       $BD__Mapa
 70BE:0020       zrobione__Mapa
 70BE:0040       aktualny__Mapa
 70BE:0042       mapRct__Mapa
 70BE:004A       distRect__Mapa
 70BE:0052       PokazywacPolozenie__Mapa
 70BE:0053       RysSytMaxDis__Mapa
 70BE:005B       myPoint__Mapa
 70BE:005F       redraw__Mapa
 70BE:0060       noActive__monitor__Mapa
 70BE:0064       $ED__Mapa
 70C5:0000       $BD__RealConversions
 70C5:0000       $ED__RealConversions
 70C6:0000       $BD__Tune
 70C6:0000       VORfreqCRT__Tune
 70C6:0050       GSfreqCRT__Tune
 70C6:00A0       lastCPFlags__Tune
 70C6:00A2       lastDMEfrqBits__Tune
 70C6:00A6       $ED__Tune
 70D1:0000       NazwaPlikuIni__Obloty
 70D1:0000       $BD__Obloty
 70D1:0040       Stat_Size_Monitor__Obloty
 70D1:0044       Stat_File_Monitor__Obloty
 70D1:0048       HomeDir__Obloty
 70D1:0058       HomeDirNazwaPlikuIni__Obloty
 70D1:0099       bd_NazwaPliku__Obloty
 70D1:00AA       bd_Sekcja__Obloty
 70D1:00B5       bd_WpisNazwa__Obloty
 70D1:00C0       insp_DirTmp__Obloty
 70D1:00CB       stat_Size__Obloty
 70D1:00D3       stat_Files__Obloty
 70D1:00D5       NUrzadzDlaDopasuj__Obloty
 70D1:0116       HomeDirDlaDopasuj__Obloty
 70D1:0157       CallBackDlaDopasuj__Obloty
 70D1:015B       NazwaPlikuZOpisem__Obloty
 70D1:019C       DelDir__Obloty
 70D1:01DD       SrcDir__Obloty
 70D1:021E       DstDir__Obloty
 70D1:025F       $ED__Obloty
 70F7:0000       $BD__SwitchCntrl
 70F7:0000       ControlWords__SwitchCntrl
 70F7:000E       $ED__SwitchCntrl
 70F8:0000       $BD__Kalibracja
 70F8:0000       TabKalib2P__Kalibracja
 70F8:0800       AGCwartosciProgow__Kalibracja
 70F8:0870       AGCwartosciProgowM__Kalibracja
 70F8:08C0       AGCwartosciProgowD__Kalibracja
 70F8:0910       LocDev_delay__Kalibracja
 70F8:0918       GsDev_delay__Kalibracja
 70F8:0920       LocPrcMod_delay__Kalibracja
 70F8:0928       GsPrcMod_delay__Kalibracja
 70F8:0930       VorRefPrcMod_delay__Kalibracja
 70F8:0938       VorVarPrcMod_delay__Kalibracja
 70F8:0940       SubcarPrcMod_delay__Kalibracja
 70F8:0948       Omnibearing_delay__Kalibracja
 70F8:0950       VorAgc_delay__Kalibracja
 70F8:0958       GsAgc_delay__Kalibracja
 70F8:0960       MkrAgc_delay__Kalibracja
 70F8:0968       OmnibearingProgi__Kalibracja
 70F8:0A88       LOC_DEVPuntyKal__Kalibracja
 70F8:0AC0       GS_DEVPuntyKal__Kalibracja
 70F8:0AF8       Par__Kalibracja
 70F8:13B8       errDetected__Kalibracja
 70F8:13BC       inputCoeff__Kalibracja
 70F8:13EC       DataOstatniejKalibracji__Kalibr
 70F8:13F8       WystapilBlad__Kalibracja
 70F8:13F9       lastError__ErrorHand__Kalibracj
 70F8:13FB       for_counter__Kalibracja
 70F8:13FD       void__Kalibracja
 70F8:13FF       f__Kalibracja
 70F8:1401       $ED__Kalibracja
 7239:0000       $BD__CocpDsp
 7239:0000       currGSflg__CocpDsp
 7239:0001       currNAVflg__CocpDsp
 7239:0002       currFROMflg__CocpDsp
 7239:0003       currTOflg__CocpDsp
 7239:0004       dirCP__CocpDsp
 7239:0006       dirWP__CocpDsp
 7239:0008       SkalaCP__CocpDsp
 7239:000A       Skala__CocpDsp
 7239:000C       SkalaCPMax__CocpDsp
 7239:000E       SkalaWPMax__CocpDsp
 7239:0010       srodekSkali__CocpDsp
 7239:0012       iloscStrzal__CocpDsp
 7239:0014       currState__CocpDsp
 7239:0015       currLNumber__CocpDsp
 7239:0017       currRNumber__CocpDsp
 7239:0019       currErrorCP__CocpDsp
 7239:001B       currErrorWP__CocpDsp
 7239:001D       currErrorGS__CocpDsp
 7239:001F       newState__CocpDsp
 7239:0023       dtaSign__CocpDsp
 7239:0025       force__CocpDsp
 7239:0026       currMsg__CocpDsp
 7239:0028       $ED__CocpDsp
 723C:0000       $BD__DataCollect
 723C:0000       VAL1__DataCollect
 723C:3210       VAL2__DataCollect
 723C:6420       VAL3__DataCollect
 723C:9630       VAL4__DataCollect
 723C:C840       Idx__DataCollect
 723C:C844       angContiner__DataCollect
 723C:C84C       disContiner__DataCollect
 723C:C854       marks_Con_D__DataCollect
 723C:C857       marks_Con_A__DataCollect
 723C:C85A       samplediv__tablice__DataCollect
 723C:C85E       curr23__tablice__DataCollect
 723C:C862       IDX3__tablice__DataCollect
 723C:C866       IDX2__tablice__DataCollect
 723C:C86A       Div3T__tablice__DataCollect
 723C:C86E       Div2T__tablice__DataCollect
 723C:C872       div2n__tablice__DataCollect
 723C:C876       div3n__tablice__DataCollect
 723C:C87A       ix2__tablice__DataCollect
 723C:C87E       ix3__tablice__DataCollect
 723C:C882       procVAL1__tablice__DataCollect
 723C:C88A       procVAL2__tablice__DataCollect
 723C:C892       procVAL3__tablice__DataCollect
 723C:C89A       procVAL4__tablice__DataCollect
 723C:C8A2       samples__tablice__DataCollect
 723C:C8A6       VALX__tablice__DataCollect
 723C:E1AE       $ED__DataCollect
 8057:0000       $ED__Wykres
 8057:0000       $BD__Wykres
 8058:0000       $BD__XMSTable
 8058:0000       $ED__XMSTable
 8059:0000       slupki__PI_ScrUtility
 8059:0000       $BD__PI_ScrUtility
 8059:000C       slupkiAktywne__PI_ScrUtility
 8059:000D       $ED__PI_ScrUtility
 805A:0000       $ED__Slupek
 805A:0000       $BD__Slupek
 805B:0000       $BD__ScreenCTypes
 805B:0000       slL_rec__ScreenCTypes
 805B:0008       slL_pnt__ScreenCTypes
 805B:000C       slLReg_rec__ScreenCTypes
 805B:0014       slLDib_rec__ScreenCTypes
 805B:001C       slS_rec__ScreenCTypes
 805B:0024       slS_pnt__ScreenCTypes
 805B:0028       slSReg_rec__ScreenCTypes
 805B:0030       slSDib_rec__ScreenCTypes
 805B:0038       slP_rec__ScreenCTypes
 805B:0040       slP_pnt__ScreenCTypes
 805B:0044       slPReg_rec__ScreenCTypes
 805B:004C       slPDib_rec__ScreenCTypes
 805B:0054       $ED__ScreenCTypes
 8061:0000       $BD__V_DisResults
 8061:0000       colPos__V_DisResults
 8061:000C       $ED__V_DisResults
 8062:0000       $ED__DisResUtilities
 8062:0000       $BD__DisResUtilities
 8063:0000       $ED__D_DisResults
 8063:0000       $BD__D_DisResults
 8064:0000       $BD__PiszEventy
 8064:0000       PoczatekStrony__PiszEventy
 8064:0002       EvPtr__PiszEventy
 8064:0006       $ED__PiszEventy
 8065:0000       dvAVcont__V_Count
 8065:0000       $BD__V_Count
 8065:006C       signalsAVcont__V_Count
 8065:00FC       bendsCon__V_Count
 8065:34F8       roughnessCon__V_Count
 8065:38A0       $ED__V_Count
 83F0:0000       $BD__D_Count
 83F0:0000       $ED__D_Count
 83F1:0000       ImportantDiv__D_DAcquizition
 83F1:0000       $BD__D_DAcquizition
 83F1:0002       redraw__D_DAcquizition
 83F1:0003       redrawM__D_DAcquizition
 83F1:0004       currUpdMarks__D_DAcquizition
 83F1:0008       filesNotEmpty__D_DAcquizition
 83F1:0009       notify__Monitor__D_DAcquizition
 83F1:000D       lastComm__Monitor__D_DAcquiziti
 83F1:000E       $ED__D_DAcquizition
 83F2:0000       ImportantDiv__V_DAcquizition
 83F2:0000       $BD__V_DAcquizition
 83F2:0002       redraw__V_DAcquizition
 83F2:0003       redrawM__V_DAcquizition
 83F2:0004       currUpdMarks__V_DAcquizition
 83F2:0008       currGlownyOdbiornik__V_DAcquizi
 83F2:0009       TrwaPomiarPolaryzacji__V_DAcqui
 83F2:000A       polvfaza__V_DAcquizition
 83F2:000C       pom2sek__V_DAcquizition
 83F2:000E       notify__Monitor__V_DAcquizition
 83F2:0012       lastComm__Monitor__V_DAcquiziti
 83F2:0013       filesNotEmpty__V_DAcquizition
 83F2:0014       $ED__V_DAcquizition
 83F4:0000       ALT_Conver_Tab__AltInterface
 83F4:0000       $BD__AltInterface
 83F4:0020       ALT_Conver_TabC__AltInterface
 83F4:0040       refPress__AltInterface
 83F4:0048       $ED__AltInterface
 83F9:0000       $ED__DMEPrint
 83F9:0000       $BD__DMEPrint
 83FA:0000       Zestaw__VORPrint
 83FA:0000       $BD__VORPrint
 83FA:0002       Odniesienie__VORPrint
 83FA:0003       header__VORPrint
 83FA:0067       NazwaPliku__VORPrint
 83FA:0086       gOdb__VORPrint
 83FA:0087       zOdb__VORPrint
 83FA:0088       NAVG_flg__VORPrint
 83FA:008A       NAVZ_flg__VORPrint
 83FA:008C       NAVG_AFlg__VORPrint
 83FA:008E       NAVZ_AFlg__VORPrint
 83FA:0090       $ED__VORPrint
 8404:0000       $BD__Marks
 8404:0000       $ED__Marks
 8405:0000       $BD__FIltr1St
 8405:0000       okresImp__FIltr1St
 8405:0008       $ED__FIltr1St
 8406:0000       address__DGH_utils
 8406:0000       $BD__DGH_utils
 8406:0020       binAddress__DGH_utils
 8406:0036       $ED__DGH_utils
 840A:0000       a__Random
 840A:0000       $BD__Random
 840A:006E       j__Random
 840A:0070       k__Random
 840A:0072       $ED__Random
 8412:0000       $BD__DigiRS
 8412:0000       minWrBufLength__DigiRS
 8412:0002       $ED__DigiRS
 8413:0000       $ED__Math
 8413:0000       $BD__Math
 8414:0000       framesWError__GPS_nov
 8414:0000       $BD__GPS_nov
 8414:0002       chrCount__GPS_nov
 8414:0004       frmCount__GPS_nov
 8414:0006       actPart__GPS_nov
 8414:0007       sumaModC__GPS_nov
 8414:0008       sumaModF__GPS_nov
 8414:000A       posInRecBuf__GPS_nov
 8414:000C       bufor__GPS_nov
 8414:007B       eos__GPS_nov
 8414:007E       err_unrec_cnt__GPS_nov
 8414:0080       BladKanaluGPS__GPS_nov
 8414:0084       $ED__GPS_nov
 841D:0000       framesWError__GPS_TRIMBLE
 841D:0000       $BD__GPS_TRIMBLE
 841D:0002       chrCount__GPS_TRIMBLE
 841D:0004       frmCount__GPS_TRIMBLE
 841D:0006       actPart__GPS_TRIMBLE
 841D:0007       posInRecBuf__GPS_TRIMBLE
 841D:0009       bufor__GPS_TRIMBLE
 841D:0049       L_epe__GPS_TRIMBLE
 841D:004B       L_WspSzerokosc__GPS_TRIMBLE
 841D:0051       L_WspDlugosc__GPS_TRIMBLE
 841D:0057       L_Kierunek__GPS_TRIMBLE
 841D:005F       L_FixNotAvailable__GPS_TRIMBLE
 841D:0060       L_month__GPS_TRIMBLE
 841D:0062       L_day__GPS_TRIMBLE
 841D:0064       L_year__GPS_TRIMBLE
 841D:0066       L_hour__GPS_TRIMBLE
 841D:0068       L_min__GPS_TRIMBLE
 841D:006A       L_sec__GPS_TRIMBLE
 841D:006C       L_NumberOfSattelites__GPS_TRIMB
 841D:006E       BladKanaluGPS__GPS_TRIMBLE
 841D:0072       $ED__GPS_TRIMBLE
 8425:0000       $BD__DGHInterface
 8425:0000       BufferFull__DGHInterface
 8425:0004       currentSign__DGHInterface
 8425:0006       binaryDtaSign__DGHInterface
 8425:0008       csErrorCnt__DGHInterface
 8425:000A       nvErrorCndF__DGHInterface
 8425:000C       nvErrorCndS__DGHInterface
 8425:000E       maxClicks__DGHInterface
 8425:0010       activated__DGHInterface
 8425:0014       Ostrzezenie_ze_za_dlugo__DGHInt
 8425:0018       $ED__DGHInterface
 8427:0000       $ED__Int_DME
 8427:0000       $BD__Int_DME
 8428:0000       Deklinacja__GeoArithmetic
 8428:0000       $BD__GeoArithmetic
 8428:0008       OdniesienieMtx__GeoArithmetic
 8428:0020       IloscOdniesien__GeoArithmetic
 8428:0022       $ED__GeoArithmetic
 842B:0000       $BD__Kl_FGenerators
 842B:0000       $ED__Kl_FGenerators
 842C:0000       parSlupkow__V_Slupek
 842C:0000       $BD__V_Slupek
 842C:0018       screeenDIB__V_Slupek
 842C:001C       cursorDIB__V_Slupek
 842C:0020       $ED__V_Slupek
 842F:0000       $BD__D_Slupek
 842F:0000       parSlupkow__D_Slupek
 842F:0018       screeenDIB__D_Slupek
 842F:001C       cursorDIB__D_Slupek
 842F:0020       $ED__D_Slupek
 8432:0000       $BD__VORR_Average
 8432:0000       $ED__VORR_Average
 8433:0000       CalkowitaLiczbaEventow__SimScan
 8433:0000       $BD__SimScanner
 8433:0004       $ED__SimScanner
 8434:0000       hDlg__PrintCntroll
 8434:0000       $BD__PrintCntroll
 8434:0004       Zestaw__PrintCntroll
 8434:0006       Odniesienie__PrintCntroll
 8434:0007       OdnB__PrintCntroll
 8434:000B       CoKtoraProbka__PrintCntroll
 8434:000D       IleStron__PrintCntroll
 8434:000F       IloscProbek__PrintCntroll
 8434:0011       lPodz__PrintCntroll
 8434:0015       $ED__PrintCntroll
 8436:0000       disableMask__NAVInterface
 8436:0000       $BD__NAVInterface
 8436:0002       speedMask__NAVInterface
 8436:0004       fineMode__NAVInterface
 8436:0005       killTime__NAVInterface
 8436:0007       $ED__NAVInterface
 8437:0000       $BD__ARINC
 8437:0000       maxCountW__ARINC
 8437:0002       maxCountR__ARINC
 8437:0004       $ED__ARINC
 8447:0000       DriverInstalled__Mouse

Program entry point at 5DFA:03C9
