
 Start  Stop   Length Name                   Class
 00010H 00419H 0040AH PG_TEXT                CODE
 00420H 0222CH 01E0DH MANAGER_TEXT           CODE
 02230H 023AAH 0017BH DOSENTRY_TEXT          CODE
 023B0H 024F5H 00146H ERRORMESS_TEXT         CODE
 02500H 0252DH 0002EH PI_PA_TEXT             CODE
 02530H 03179H 00C4AH TUNE_TEXT              CODE
 03180H 03BA7H 00A28H PI_QCHECK_TEXT         CODE
 03BB0H 05583H 019D4H SCANNERI_TEXT          CODE
 05590H 056AFH 00120H COMMONTYPES_TEXT       CODE
 056C0H 06755H 01096H THEODOLITREAD_TEXT     CODE
 06760H 06E13H 006B4H GPSREAD_TEXT           CODE
 06E20H 07B93H 00D74H DGHINI_TEXT            CODE
 07BA0H 08D37H 01198H G_FILES_TEXT           CODE
 08D40H 08E3DH 000FEH PI_GLOWNY_TEXT         CODE
 08E40H 0A1E1H 013A2H G_INSPEKCJA_TEXT       CODE
 0A1F0H 0D5A5H 033B6H G_OBLOT_TEXT           CODE
 0D5B0H 0EFA8H 019F9H SPECCONV_TEXT          CODE
 0EFB0H 0F68AH 006DBH FLAGANAL_TEXT          CODE
 0F690H 0F9F9H 0036AH CZAS_TEXT              CODE
 0FA00H 0FB7BH 0017CH L_COMMONTYPES_TEXT     CODE
 0FB80H 0FBBCH 0003DH G_COMMONTYPES_TEXT     CODE
 0FBC0H 10748H 00B89H ILS_ZONEMNGMNT_TEXT    CODE
 10750H 1081CH 000CDH COMMONDATA_TEXT        CODE
 10820H 133EBH 02BCCH FILES_TEXT             CODE
 133F0H 13A14H 00625H G_CP_CONTROLPROC_TEXT  CODE
 13A20H 14FCFH 015B0H POMIAR_TEXT            CODE
 14FE0H 18786H 037A7H SCREEN_TEXT            CODE
 18790H 18ED2H 00743H PI_ANALIZA_TEXT        CODE
 18EE0H 19208H 00329H PI_POMIAR_TEXT         CODE
 19210H 192F6H 000E7H PI_ARCHDATE_TEXT       CODE
 19300H 19353H 00054H PI_DRUKUJ_TEXT         CODE
 19360H 1A4E9H 0118AH L_DATABASE_TEXT        CODE
 1A4F0H 1AAA8H 005B9H STORAGE_TEXT           CODE
 1AAB0H 1B0A6H 005F7H SOFTINTHANDLINGMANAGER_TEXT CODE
 1B0B0H 1BD6DH 00CBEH TIMER_TEXT             CODE
 1BD70H 1C218H 004A9H MESSAGES_TEXT          CODE
 1C220H 1D6F9H 014DAH STDIO_TEXT             CODE
 1D700H 1E779H 0107AH DGHINTERFACE_TEXT      CODE
 1E780H 1FE63H 016E4H HILEVGRAF_TEXT         CODE
 1FE70H 20056H 001E7H GRAFTYPES_TEXT         CODE
 20060H 20280H 00221H GRAFUTIL_TEXT          CODE
 20290H 22645H 023B6H G_ODB_TEXT             CODE
 22650H 227EEH 0019FH SCREENCTYPES_TEXT      CODE
 227F0H 22ECBH 006DCH MSGBOX_TEXT            CODE
 22ED0H 23BA7H 00CD8H NAVGPIB_TEXT           CODE
 23BB0H 23EBFH 00310H ALTINTERFACE_TEXT      CODE
 23ED0H 23FBEH 000EFH INT_DME_TEXT           CODE
 23FC0H 24746H 00787H FILTR1ST_TEXT          CODE
 24750H 25525H 00DD6H GEOARITHMETIC_TEXT     CODE
 25530H 25DD4H 008A5H DGH_UTILS_TEXT         CODE
 25DE0H 28BF5H 02E16H KALIBRACJA_TEXT        CODE
 28C00H 28F1CH 0031DH DIGIRS_TEXT            CODE
 28F20H 29A3FH 00B20H REALCONVERSIONS_TEXT   CODE
 29A50H 29C38H 001E9H MATH_TEXT              CODE
 29C40H 2AE3DH 011FEH GPS_NOV_TEXT           CODE
 2AE40H 2B738H 008F9H GPS_TRIMBLE_TEXT       CODE
 2B740H 2C918H 011D9H INI_TEXT               CODE
 2C920H 2D365H 00A46H FIO_TEXT               CODE
 2D370H 2DB0BH 0079CH SHORTCUTS_TEXT         CODE
 2DB10H 2F785H 01C76H OBLOTY_TEXT            CODE
 2F790H 30C92H 01503H MMMOUSE_TEXT           CODE
 30CA0H 3261CH 0197DH GLIST_TEXT             CODE
 32620H 333F7H 00DD8H BUTTONS_TEXT           CODE
 33400H 34D5BH 0195CH DIALOG_TEXT            CODE
 34D60H 35A76H 00D17H INPLINE_TEXT           CODE
 35A80H 365D0H 00B51H MAPA_TEXT              CODE
 365E0H 37805H 01226H POLOZENIE_TEXT         CODE
 37810H 3793EH 0012FH SWITCHCNTRL_TEXT       CODE
 37940H 37A10H 000D1H WORSEBECAUSE_TEXT      CODE
 37A20H 38B41H 01122H GRAPHICS_TEXT          CODE
 38B50H 38C79H 0012AH XMS_TEXT               CODE
 38C80H 38CBEH 0003FH XMS_INIT_TEXT          CODE
 38CC0H 3917EH 004BFH XMSSERVICE_TEXT        CODE
 39180H 393EDH 0026EH HRD_CLOCK_TEXT         CODE
 393F0H 39461H 00072H FCBS_TEXT              CODE
 39470H 3A1FCH 00D8DH COCPDSP_TEXT           CODE
 3A200H 3C46EH 0226FH DATACOLLECT_TEXT       CODE
 3C470H 3EBD2H 02763H WYKRES_TEXT            CODE
 3EBE0H 3EF3AH 0035BH XMSTABLE_TEXT          CODE
 3EF40H 3F98AH 00A4BH EVENTSMNG_TEXT         CODE
 3F990H 3FFCFH 00640H PI_SCRUTILITY_TEXT     CODE
 3FFE0H 406C6H 006E7H SLUPEK_TEXT            CODE
 406D0H 41636H 00F67H G_DISRESULTS_TEXT      CODE
 41640H 419C9H 0038AH DISRESUTILITIES_TEXT   CODE
 419D0H 42C03H 01234H PISZEVENTY_TEXT        CODE
 42C10H 43F8DH 0137EH G_RESULTS_TEXT         CODE
 43F90H 44A60H 00AD1H G_DACQUIZITION_TEXT    CODE
 44A70H 45378H 00909H L_COUNT_TEXT           CODE
 45380H 49BC1H 04842H G_PRINT_TEXT           CODE
 49BD0H 4A023H 00454H SEMAFORY_TEXT          CODE
 4A030H 4C6CEH 0269FH ILS_EVALPROCEDURES_TEXT CODE
 4C6D0H 4CAE0H 00411H RANDOM_TEXT            CODE
 4CAF0H 4CCD1H 001E2H M_PGPIB_TEXT           CODE
 4CCE0H 4D031H 00352H NAVINTERFACE_TEXT      CODE
 4D040H 4D9AFH 00970H ARINC_TEXT             CODE
 4D9C0H 4DEBFH 00500H KL_FGENERATORS_TEXT    CODE
 4DED0H 4E807H 00938H MARKS_TEXT             CODE
 4E810H 4FD7FH 01570H L_SLUPEK_TEXT          CODE
 4FD90H 511F2H 01463H DRAWEPSON_TEXT         CODE
 51200H 52C80H 01A81H PRINT_TEXT             CODE
 52C90H 55844H 02BB5H G_CNTPROCEDURES_TEXT   CODE
 55850H 56130H 008E1H PRINTCNTROLL_TEXT      CODE
 56140H 5619DH 0005EH RTS87_TEXT             CODE
 561A0H 561F9H 0005AH RTS87_INIT_TEXT        CODE
 56200H 562C6H 000C7H RTSError_TEXT          CODE
 562D0H 562FEH 0002FH RTSError_INIT_TEXT     CODE
 56300H 56A70H 00771H RTSMain_TEXT           CODE
 56A80H 56B32H 000B3H RTSLanguage_TEXT       CODE
 56B40H 56B40H 00001H RTSLanguage_INIT_TEXT  CODE
 56B50H 56C90H 00141H RTSDevice_TEXT         CODE
 56CA0H 56CA0H 00001H RTSDevice_INIT_TEXT    CODE
 56CB0H 56D5EH 000AFH RTSPriority_TEXT       CODE
 56D60H 56D60H 00001H RTSPriority_INIT_TEXT  CODE
 56D70H 56F17H 001A8H RTSCoroutine_TEXT      CODE
 56F20H 56F20H 00001H RTSCoroutine_INIT_TEXT CODE
 56F30H 57178H 00249H RTSInterrupt_TEXT      CODE
 57180H 571CCH 0004DH RTSInterrupt_INIT_TEXT CODE
 571D0H 571D9H 0000AH RTSRealError_TEXT      CODE
 571E0H 571E0H 00001H RTSRealError_INIT_TEXT CODE
 571F0H 574F3H 00304H Strings_TEXT           CODE
 57500H 57703H 00204H DynMem_TEXT            CODE
 57710H 57AF5H 003E6H TERMBASE_TEXT          CODE
 57B00H 57C07H 00108H BlockOps_TEXT          CODE
 57C10H 5824BH 0063CH NUMBERCONVERSION_TEXT  CODE
 58250H 58274H 00025H ASCII_TEXT             CODE
 58280H 58388H 00109H BitByteOps_TEXT        CODE
 58390H 583F1H 00062H SOUNDS_TEXT            CODE
 58400H 584BAH 000BBH DEVICES_TEXT           CODE
 584C0H 5879EH 002DFH Longs_TEXT             CODE
 587A0H 58A58H 002B9H DOSMEMORY_TEXT         CODE
 58A60H 58D11H 002B2H MOUSE_TEXT             CODE
 58D20H 58E87H 00168H KEYBOARD_TEXT          CODE
 58E90H 59056H 001C7H TERMINAL_TEXT          CODE
 59060H 594ECH 0048DH DebugPMD_TEXT          CODE
 594F0H 59588H 00099H DebugPMD_INIT_TEXT     CODE
 59590H 5962CH 0009DH DISPLAY_TEXT           CODE
 59630H 59CF3H 006C4H MathLib0_TEXT          CODE
 59D00H 5A075H 00376H MODULE_TABLE_DATA      FAR_DATA
 5A080H 5A166H 000E7H INIT_FLAG_DATA         FAR_DATA
 5A170H 5A34DH 001DEH RTSMain_DATA           FAR_DATA
 5A350H 5A355H 00006H RTS87_DATA             FAR_DATA
 5A360H 5A363H 00004H RTSCoroutine_DATA      FAR_DATA
 5A370H 5AA11H 006A2H DebugPMD_DATA          FAR_DATA
 5AA20H 5AA20H 00000H MathLib0_DATA          FAR_DATA
 5AA30H 5AA3BH 0000CH PG_DATA                FAR_BSS
 5AA40H 5AC5DH 0021EH MANAGER_DATA           FAR_BSS
 5AC60H 5ACE7H 00088H DOSENTRY_DATA          FAR_BSS
 5ACF0H 5ACF0H 00000H ERRORMESS_DATA         FAR_BSS
 5AD00H 5AD00H 00001H PI_PA_DATA             FAR_BSS
 5AD10H 5ADB5H 000A6H TUNE_DATA              FAR_BSS
 5ADC0H 5AE07H 00048H PI_QCHECK_DATA         FAR_BSS
 5AE10H 5AEBEH 000AFH SCANNERI_DATA          FAR_BSS
 5AEC0H 5AEC0H 00000H COMMONTYPES_DATA       FAR_BSS
 5AED0H 5AF26H 00057H THEODOLITREAD_DATA     FAR_BSS
 5AF30H 5AF51H 00022H GPSREAD_DATA           FAR_BSS
 5AF60H 5BEEDH 00F8EH DGHINI_DATA            FAR_BSS
 5BEF0H 5C038H 00149H G_FILES_DATA           FAR_BSS
 5C040H 5C040H 00000H PI_GLOWNY_DATA         FAR_BSS
 5C050H 5C066H 00017H G_INSPEKCJA_DATA       FAR_BSS
 5C070H 5C14BH 000DCH G_OBLOT_DATA           FAR_BSS
 5C150H 5C150H 00000H SPECCONV_DATA          FAR_BSS
 5C160H 5C160H 00000H FLAGANAL_DATA          FAR_BSS
 5C170H 5C183H 00014H CZAS_DATA              FAR_BSS
 5C190H 5C195H 00006H L_COMMONTYPES_DATA     FAR_BSS
 5C1A0H 5C1A3H 00004H G_COMMONTYPES_DATA     FAR_BSS
 5C1B0H 5C1B6H 00007H ILS_ZONEMNGMNT_DATA    FAR_BSS
 5C1C0H 5C315H 00156H COMMONDATA_DATA        FAR_BSS
 5C320H 5C538H 00219H FILES_DATA             FAR_BSS
 5C540H 5C553H 00014H G_CP_CONTROLPROC_DATA  FAR_BSS
 5C560H 5C5F4H 00095H POMIAR_DATA            FAR_BSS
 5C600H 5C72CH 0012DH SCREEN_DATA            FAR_BSS
 5C730H 5C750H 00021H PI_ANALIZA_DATA        FAR_BSS
 5C760H 5C760H 00000H PI_POMIAR_DATA         FAR_BSS
 5C770H 5C770H 00000H PI_ARCHDATE_DATA       FAR_BSS
 5C780H 5C780H 00000H PI_DRUKUJ_DATA         FAR_BSS
 5C790H 5C827H 00098H L_DATABASE_DATA        FAR_BSS
 5C830H 5C856H 00027H STORAGE_DATA           FAR_BSS
 5C860H 5C864H 00005H SOFTINTHANDLINGMANAGER_DATA FAR_BSS
 5C870H 5C883H 00014H TIMER_DATA             FAR_BSS
 5C890H 5C89DH 0000EH MESSAGES_DATA          FAR_BSS
 5C8A0H 5C8A0H 00000H STDIO_DATA             FAR_BSS
 5C8B0H 5C8C7H 00018H DGHINTERFACE_DATA      FAR_BSS
 5C8D0H 5C92CH 0005DH HILEVGRAF_DATA         FAR_BSS
 5C930H 5C930H 00000H GRAFTYPES_DATA         FAR_BSS
 5C940H 5C9AFH 00070H GRAFUTIL_DATA          FAR_BSS
 5C9C0H 5CC63H 002A4H G_ODB_DATA             FAR_BSS
 5CC70H 5CCC3H 00054H SCREENCTYPES_DATA      FAR_BSS
 5CCD0H 5CCE5H 00016H MSGBOX_DATA            FAR_BSS
 5CCF0H 5D08FH 003A0H NAVGPIB_DATA           FAR_BSS
 5D0A0H 5D0E7H 00048H ALTINTERFACE_DATA      FAR_BSS
 5D0F0H 5D0F0H 00000H INT_DME_DATA           FAR_BSS
 5D100H 5D107H 00008H FILTR1ST_DATA          FAR_BSS
 5D110H 5D131H 00022H GEOARITHMETIC_DATA     FAR_BSS
 5D140H 5D175H 00036H DGH_UTILS_DATA         FAR_BSS
 5D180H 5E580H 01401H KALIBRACJA_DATA        FAR_BSS
 5E590H 5E591H 00002H DIGIRS_DATA            FAR_BSS
 5E5A0H 5E5A0H 00000H REALCONVERSIONS_DATA   FAR_BSS
 5E5B0H 5E5B0H 00000H MATH_DATA              FAR_BSS
 5E5C0H 5E643H 00084H GPS_NOV_DATA           FAR_BSS
 5E650H 5E6C1H 00072H GPS_TRIMBLE_DATA       FAR_BSS
 5E6D0H 637B3H 050E4H INI_DATA               FAR_BSS
 637C0H 643D1H 00C12H FIO_DATA               FAR_BSS
 643E0H 643EDH 0000EH SHORTCUTS_DATA         FAR_BSS
 643F0H 6464EH 0025FH OBLOTY_DATA            FAR_BSS
 64650H 64A50H 00401H MMMOUSE_DATA           FAR_BSS
 64A60H 64A67H 00008H GLIST_DATA             FAR_BSS
 64A70H 64A78H 00009H BUTTONS_DATA           FAR_BSS
 64A80H 64A87H 00008H DIALOG_DATA            FAR_BSS
 64A90H 64A93H 00004H INPLINE_DATA           FAR_BSS
 64AA0H 64B03H 00064H MAPA_DATA              FAR_BSS
 64B10H 64D44H 00235H POLOZENIE_DATA         FAR_BSS
 64D50H 64D5DH 0000EH SWITCHCNTRL_DATA       FAR_BSS
 64D60H 64D60H 00000H WORSEBECAUSE_DATA      FAR_BSS
 64D70H 64E9FH 00130H GRAPHICS_DATA          FAR_BSS
 64EB0H 64EB3H 00004H XMS_DATA               FAR_BSS
 64EC0H 64EC3H 00004H XMSSERVICE_DATA        FAR_BSS
 64ED0H 64ED0H 00000H HRD_CLOCK_DATA         FAR_BSS
 64EE0H 64F1CH 0003DH FCBS_DATA              FAR_BSS
 64F20H 64F47H 00028H COCPDSP_DATA           FAR_BSS
 64F50H 730FDH 0E1AEH DATACOLLECT_DATA       FAR_BSS
 73100H 73100H 00000H WYKRES_DATA            FAR_BSS
 73110H 73110H 00000H XMSTABLE_DATA          FAR_BSS
 73120H 73C6FH 00B50H EVENTSMNG_DATA         FAR_BSS
 73C80H 73C8CH 0000DH PI_SCRUTILITY_DATA     FAR_BSS
 73C90H 73C90H 00000H SLUPEK_DATA            FAR_BSS
 73CA0H 73CA3H 00004H G_DISRESULTS_DATA      FAR_BSS
 73CB0H 73CB0H 00000H DISRESUTILITIES_DATA   FAR_BSS
 73CC0H 73CC5H 00006H PISZEVENTY_DATA        FAR_BSS
 73CD0H 7415AH 0048BH G_RESULTS_DATA         FAR_BSS
 74160H 74177H 00018H G_DACQUIZITION_DATA    FAR_BSS
 74180H 74185H 00006H L_COUNT_DATA           FAR_BSS
 74190H 74277H 000E8H G_PRINT_DATA           FAR_BSS
 74280H 742D3H 00054H SEMAFORY_DATA          FAR_BSS
 742E0H 742E3H 00004H ILS_EVALPROCEDURES_DATA FAR_BSS
 742F0H 74361H 00072H RANDOM_DATA            FAR_BSS
 74370H 74370H 00000H M_PGPIB_DATA           FAR_BSS
 74380H 74386H 00007H NAVINTERFACE_DATA      FAR_BSS
 74390H 74393H 00004H ARINC_DATA             FAR_BSS
 743A0H 743A0H 00000H KL_FGENERATORS_DATA    FAR_BSS
 743B0H 743B0H 00000H MARKS_DATA             FAR_BSS
 743C0H 745A3H 001E4H L_SLUPEK_DATA          FAR_BSS
 745B0H 74D58H 007A9H DRAWEPSON_DATA         FAR_BSS
 74D60H 74E71H 00112H PRINT_DATA             FAR_BSS
 74E80H 76431H 015B2H G_CNTPROCEDURES_DATA   FAR_BSS
 76440H 76454H 00015H PRINTCNTROLL_DATA      FAR_BSS
 76460H 764F2H 00093H TERMBASE_DATA          FAR_BSS
 76500H 76500H 00000H NUMBERCONVERSION_DATA  FAR_BSS
 76510H 76510H 00000H ASCII_DATA             FAR_BSS
 76520H 76520H 00000H SOUNDS_DATA            FAR_BSS
 76530H 76530H 00000H DEVICES_DATA           FAR_BSS
 76540H 76540H 00000H DOSMEMORY_DATA         FAR_BSS
 76550H 7655EH 0000FH MOUSE_DATA             FAR_BSS
 76560H 765E7H 00088H KEYBOARD_DATA          FAR_BSS
 765F0H 765F1H 00002H TERMINAL_DATA          FAR_BSS
 76600H 76600H 00000H DISPLAY_DATA           FAR_BSS
 76610H 7A0A7H 03A98H STACK                  STACK
 7A0B0H 7A0B0H 00000H FREE                   FREE_BSS

 Origin   Group
 5AA3:0   DGROUP

  Address         Publics by Name

 7439:0000       $BD__ARINC
 5D0A:0000       $BD__AltInterface
 64A7:0000       $BD__Buttons
 64F2:0000       $BD__CocpDsp
 5C1C:0000       $BD__CommonData
 5AEC:0000       $BD__CommonTypes
 5C17:0000       $BD__Czas
 5AF6:0000       $BD__DGHIni
 5C8B:0000       $BD__DGHInterface
 5D14:0000       $BD__DGH_utils
 5AC6:0000       $BD__DOSEntry
 64F5:0000       $BD__DataCollect
 64A8:0000       $BD__Dialog
 5E59:0000       $BD__DigiRS
 73CB:0000       $BD__DisResUtilities
 745B:0000       $BD__DrawEpson
 5ACF:0000       $BD__ErrorMess
 7312:0000       $BD__EventsMng
 64EE:0000       $BD__FCBS
 637C:0000       $BD__FIO
 5D10:0000       $BD__FIltr1St
 5C32:0000       $BD__Files
 5C16:0000       $BD__FlagAnal
 64A6:0000       $BD__GList
 5AF3:0000       $BD__GPSRead
 5E65:0000       $BD__GPS_TRIMBLE
 5E5C:0000       $BD__GPS_nov
 5C54:0000       $BD__G_CP_ControlProc
 74E8:0000       $BD__G_CntProcedures
 5C1A:0000       $BD__G_CommonTypes
 7416:0000       $BD__G_DAcquizition
 73CA:0000       $BD__G_DisResults
 5BEF:0000       $BD__G_Files
 5C05:0000       $BD__G_Inspekcja
 5C07:0000       $BD__G_Oblot
 5C9C:0000       $BD__G_Odb
 7419:0000       $BD__G_Print
 73CD:0000       $BD__G_results
 5D11:0000       $BD__GeoArithmetic
 5C93:0000       $BD__GrafTypes
 5C94:0000       $BD__GrafUtil
 64D7:0000       $BD__Graphics
 64ED:0000       $BD__HRD_Clock
 5C8D:0000       $BD__HiLevGraf
 742E:0000       $BD__ILS_EvalProcedures
 5C1B:0000       $BD__ILS_ZoneMngmnt
 5E6D:0000       $BD__Ini
 64A9:0000       $BD__InpLine
 5D0F:0000       $BD__Int_DME
 5D18:0000       $BD__Kalibracja
 743A:0000       $BD__Kl_FGenerators
 5C19:0000       $BD__L_CommonTypes
 7418:0000       $BD__L_Count
 5C79:0000       $BD__L_DataBase
 743C:0000       $BD__L_Slupek
 5AA4:0000       $BD__MANAGER
 6465:0000       $BD__MMMouse
 7437:0000       $BD__M_PGPIB
 64AA:0000       $BD__Mapa
 743B:0000       $BD__Marks
 5E5B:0000       $BD__Math
 5C89:0000       $BD__Messages
 5CCD:0000       $BD__MsgBox
 5CCF:0000       $BD__NAVGPIB
 7438:0000       $BD__NAVInterface
 643F:0000       $BD__Obloty
 5AA3:0000       $BD__PG
 5C73:0000       $BD__PI_Analiza
 5C77:0000       $BD__PI_ArchDate
 5C78:0000       $BD__PI_Drukuj
 5C04:0000       $BD__PI_Glowny
 5AD0:0000       $BD__PI_PA
 5C76:0000       $BD__PI_Pomiar
 5ADC:0000       $BD__PI_Qcheck
 73C8:0000       $BD__PI_ScrUtility
 73CC:0000       $BD__PiszEventy
 64B1:0000       $BD__Polozenie
 5C56:0000       $BD__Pomiar
 74D6:0000       $BD__Print
 7644:0000       $BD__PrintCntroll
 5A36:0000       $BD__RTSCoroutine
 5A17:0000       $BD__RTSMain
 742F:0000       $BD__Random
 5E5A:0000       $BD__RealConversions
 5AE1:0000       $BD__ScannerI
 5C60:0000       $BD__Screen
 5CC7:0000       $BD__ScreenCTypes
 7428:0000       $BD__Semafory
 643E:0000       $BD__ShortCuts
 73C9:0000       $BD__Slupek
 5C86:0000       $BD__SoftIntHandlingManager
 5C15:0000       $BD__SpecConv
 5C8A:0000       $BD__StdIO
 5C83:0000       $BD__Storage
 64D5:0000       $BD__SwitchCntrl
 5AED:0000       $BD__TheodolitRead
 5C87:0000       $BD__Timer
 5AD1:0000       $BD__Tune
 64D6:0000       $BD__WorseBecause
 7310:0000       $BD__Wykres
 64EB:0000       $BD__XMS
 64EC:0000       $BD__XMSService
 7311:0000       $BD__XMSTable
 4D04:0000       $BM__ARINC
 23BB:0000       $BM__AltInterface
 5828:0000       $BM__BitByteOps
 57B0:0000       $BM__BlockOps
 3262:0000       $BM__Buttons
 3947:0000       $BM__CocpDsp
 1075:0000       $BM__CommonData
 0559:0000       $BM__CommonTypes
 0F69:0000       $BM__Czas
 06E2:0000       $BM__DGHIni
 1D70:0000       $BM__DGHInterface
 2553:0000       $BM__DGH_utils
 0223:0000       $BM__DOSEntry
 3A20:0000       $BM__DataCollect
 3340:0000       $BM__Dialog
 28C0:0000       $BM__DigiRS
 4164:0000       $BM__DisResUtilities
 4FD9:0000       $BM__DrawEpson
 5750:0000       $BM__DynMem
 023B:0000       $BM__ErrorMess
 3EF4:0000       $BM__EventsMng
 393F:0000       $BM__FCBS
 2C92:0000       $BM__FIO
 23FC:0000       $BM__FIltr1St
 1082:0000       $BM__Files
 0EFB:0000       $BM__FlagAnal
 30CA:0000       $BM__GList
 0676:0000       $BM__GPSRead
 2AE4:0000       $BM__GPS_TRIMBLE
 29C4:0000       $BM__GPS_nov
 133F:0000       $BM__G_CP_ControlProc
 52C9:0000       $BM__G_CntProcedures
 0FB8:0000       $BM__G_CommonTypes
 43F9:0000       $BM__G_DAcquizition
 406D:0000       $BM__G_DisResults
 07BA:0000       $BM__G_Files
 08E4:0000       $BM__G_Inspekcja
 0A1F:0000       $BM__G_Oblot
 2029:0000       $BM__G_Odb
 4538:0000       $BM__G_Print
 42C1:0000       $BM__G_results
 2475:0000       $BM__GeoArithmetic
 1FE7:0000       $BM__GrafTypes
 2006:0000       $BM__GrafUtil
 37A2:0000       $BM__Graphics
 3918:0000       $BM__HRD_Clock
 1E78:0000       $BM__HiLevGraf
 4A03:0000       $BM__ILS_EvalProcedures
 0FBC:0000       $BM__ILS_ZoneMngmnt
 2B74:0000       $BM__Ini
 34D6:0000       $BM__InpLine
 23ED:0000       $BM__Int_DME
 25DE:0000       $BM__Kalibracja
 4D9C:0000       $BM__Kl_FGenerators
 0FA0:0000       $BM__L_CommonTypes
 44A7:0000       $BM__L_Count
 1936:0000       $BM__L_DataBase
 4E81:0000       $BM__L_Slupek
 0042:0000       $BM__MANAGER
 2F79:0000       $BM__MMMouse
 4CAF:0000       $BM__M_PGPIB
 35A8:0000       $BM__Mapa
 4DED:0000       $BM__Marks
 29A5:0000       $BM__Math
 5963:0000       $BM__MathLib0
 1BD7:0000       $BM__Messages
 227F:0000       $BM__MsgBox
 22ED:0000       $BM__NAVGPIB
 4CCE:0000       $BM__NAVInterface
 2DB1:0000       $BM__Obloty
 0001:0000       $BM__PG
 1879:0000       $BM__PI_Analiza
 1921:0000       $BM__PI_ArchDate
 1930:0000       $BM__PI_Drukuj
 08D4:0000       $BM__PI_Glowny
 0250:0000       $BM__PI_PA
 18EE:0000       $BM__PI_Pomiar
 0318:0000       $BM__PI_Qcheck
 3F99:0000       $BM__PI_ScrUtility
 419D:0000       $BM__PiszEventy
 365E:0000       $BM__Polozenie
 13A2:0000       $BM__Pomiar
 5120:0000       $BM__Print
 5585:0000       $BM__PrintCntroll
 56D7:0000       $BM__RTSCoroutine
 56B5:0000       $BM__RTSDevice
 5630:0000       $BM__RTSMain
 4C6D:0000       $BM__Random
 28F2:0000       $BM__RealConversions
 03BB:0000       $BM__ScannerI
 14FE:0000       $BM__Screen
 2265:0000       $BM__ScreenCTypes
 49BD:0000       $BM__Semafory
 2D37:0000       $BM__ShortCuts
 3FFE:0000       $BM__Slupek
 1AAB:0000       $BM__SoftIntHandlingManager
 0D5B:0000       $BM__SpecConv
 1C22:0000       $BM__StdIO
 1A4F:0000       $BM__Storage
 3781:0000       $BM__SwitchCntrl
 056C:0000       $BM__TheodolitRead
 1B0B:0000       $BM__Timer
 0253:0000       $BM__Tune
 3794:0000       $BM__WorseBecause
 3C47:0000       $BM__Wykres
 38B5:0000       $BM__XMS
 38CC:0000       $BM__XMSService
 3EBE:0000       $BM__XMSTable
 4D04:093D       $BODY__ARINC
 23BB:0214       $BODY__AltInterface
 2F79:0B15       $BODY__BezPrzerwanOdMyszy__MMMo
 3262:0D61       $BODY__Buttons
 3947:0C4D       $BODY__CocpDsp
 1075:0012       $BODY__CommonData
 0559:00F4       $BODY__CommonTypes
 0F69:02E0       $BODY__Czas
 06E2:0D08       $BODY__DGHIni
 1D70:0F7B       $BODY__DGHInterface
 2553:0734       $BODY__DGH_utils
 0223:00C2       $BODY__DOSEntry
 3A20:21DF       $BODY__DataCollect
 3340:18C2       $BODY__Dialog
 28C0:02D4       $BODY__DigiRS
 4164:0340       $BODY__DisResUtilities
 4FD9:138C       $BODY__DrawEpson
 25DE:09DC       $BODY__ErrorHand__Kalibracja
 023B:00E1       $BODY__ErrorMess
 3EF4:09B8       $BODY__EventsMng
 393F:0037       $BODY__FCBS
 2C92:09F0       $BODY__FIO
 23FC:0737       $BODY__FIltr1St
 1082:2B3D       $BODY__Files
 0EFB:06A0       $BODY__FlagAnal
 30CA:18FD       $BODY__GList
 0676:05FA       $BODY__GPSRead
 2AE4:084A       $BODY__GPS_TRIMBLE
 29C4:10EC       $BODY__GPS_nov
 133F:055E       $BODY__G_CP_ControlProc
 52C9:2B43       $BODY__G_CntProcedures
 0FB8:0002       $BODY__G_CommonTypes
 43F9:0A10       $BODY__G_DAcquizition
 406D:0EE9       $BODY__G_DisResults
 07BA:110F       $BODY__G_Files
 08E4:12CC       $BODY__G_Inspekcja
 0A1F:32A8       $BODY__G_Oblot
 2029:22C6       $BODY__G_Odb
 4538:478E       $BODY__G_Print
 42C1:0F2E       $BODY__G_results
 2475:0D90       $BODY__GeoArithmetic
 1FE7:01C5       $BODY__GrafTypes
 2006:017A       $BODY__GrafUtil
 37A2:10C2       $BODY__Graphics
 3918:0242       $BODY__HRD_Clock
 1E78:1630       $BODY__HiLevGraf
 4A03:264A       $BODY__ILS_EvalProcedures
 0FBC:0B3A       $BODY__ILS_ZoneMngmnt
 2B74:1139       $BODY__Ini
 34D6:0C9E       $BODY__InpLine
 23ED:00C8       $BODY__Int_DME
 25DE:2C81       $BODY__Kalibracja
 4D9C:04D9       $BODY__Kl_FGenerators
 0FA0:0141       $BODY__L_CommonTypes
 44A7:087B       $BODY__L_Count
 1936:10F3       $BODY__L_DataBase
 4E81:1500       $BODY__L_Slupek
 0042:1B1A       $BODY__MANAGER
 2F79:134F       $BODY__MMMouse
 3262:041B       $BODY__MONITOR__Buttons
 4CAF:01BB       $BODY__M_PGPIB
 35A8:0A4F       $BODY__Mapa
 4DED:08FD       $BODY__Marks
 29A5:01BD       $BODY__Math
 1BD7:0411       $BODY__Messages
 43F9:01A4       $BODY__Monitor__G_DAcquizition
 1AAB:0590       $BODY__Monitor__SoftIntHandling
 1B0B:08D4       $BODY__Monitor__Timer
 1879:04A9       $BODY__MouseMonitor__PI_Analiza
 227F:0680       $BODY__MsgBox
 22ED:0A79       $BODY__NAVGPIB
 4CCE:02F2       $BODY__NAVInterface
 2DB1:1B9E       $BODY__Obloty
 0001:0002       $BODY__PG
 1879:06BA       $BODY__PI_Analiza
 1921:0089       $BODY__PI_ArchDate
 1930:000F       $BODY__PI_Drukuj
 08D4:009B       $BODY__PI_Glowny
 0250:0002       $BODY__PI_PA
 18EE:02AD       $BODY__PI_Pomiar
 0318:09A9       $BODY__PI_Qcheck
 3F99:05D8       $BODY__PI_ScrUtility
 419D:1199       $BODY__PiszEventy
 365E:1164       $BODY__Polozenie
 13A2:14E0       $BODY__Pomiar
 5120:19A5       $BODY__Print
 5585:085B       $BODY__PrintCntroll
 5630:0743       $BODY__RTSMain
 4C6D:03DC       $BODY__Random
 28F2:0AF9       $BODY__RealConversions
 03BB:1886       $BODY__ScannerI
 0042:1357       $BODY__Scheduler__MANAGER
 14FE:36D9       $BODY__Screen
 2265:016B       $BODY__ScreenCTypes
 49BD:041D       $BODY__Semafory
 2D37:070A       $BODY__ShortCuts
 3FFE:06A7       $BODY__Slupek
 1AAB:05BE       $BODY__SoftIntHandlingManager
 0D5B:19B9       $BODY__SpecConv
 1C22:149F       $BODY__StdIO
 1A4F:0544       $BODY__Storage
 3781:00D4       $BODY__SwitchCntrl
 056C:0EE0       $BODY__TheodolitRead
 1B0B:0C72       $BODY__Timer
 0253:0A08       $BODY__Tune
 3794:00A5       $BODY__WorseBecause
 3C47:270A       $BODY__Wykres
 38CC:0450       $BODY__XMSService
 3EBE:0325       $BODY__XMSTable
 35A8:09BA       $BODY__monitor__Mapa
 2D37:0532       $BODY__monitor__ShortCuts
 59D0:0000       $DD
 7439:0004       $ED__ARINC
 5D0A:0048       $ED__AltInterface
 64A7:0009       $ED__Buttons
 64F2:0028       $ED__CocpDsp
 5C1C:0156       $ED__CommonData
 5AEC:0000       $ED__CommonTypes
 5C17:0014       $ED__Czas
 5AF6:0F8E       $ED__DGHIni
 5C8B:0018       $ED__DGHInterface
 5D14:0036       $ED__DGH_utils
 5AC6:0088       $ED__DOSEntry
 64F5:E1AE       $ED__DataCollect
 64A8:0008       $ED__Dialog
 5E59:0002       $ED__DigiRS
 73CB:0000       $ED__DisResUtilities
 745B:07A9       $ED__DrawEpson
 5ACF:0000       $ED__ErrorMess
 7312:0B50       $ED__EventsMng
 64EE:003D       $ED__FCBS
 637C:0C12       $ED__FIO
 5D10:0008       $ED__FIltr1St
 5C32:0219       $ED__Files
 5C16:0000       $ED__FlagAnal
 64A6:0008       $ED__GList
 5AF3:0022       $ED__GPSRead
 5E65:0072       $ED__GPS_TRIMBLE
 5E5C:0084       $ED__GPS_nov
 5C54:0014       $ED__G_CP_ControlProc
 74E8:15B2       $ED__G_CntProcedures
 5C1A:0004       $ED__G_CommonTypes
 7416:0018       $ED__G_DAcquizition
 73CA:0004       $ED__G_DisResults
 5BEF:0149       $ED__G_Files
 5C05:0017       $ED__G_Inspekcja
 5C07:00DC       $ED__G_Oblot
 5C9C:02A4       $ED__G_Odb
 7419:00E8       $ED__G_Print
 73CD:048B       $ED__G_results
 5D11:0022       $ED__GeoArithmetic
 5C93:0000       $ED__GrafTypes
 5C94:0070       $ED__GrafUtil
 64D7:0130       $ED__Graphics
 64ED:0000       $ED__HRD_Clock
 5C8D:005D       $ED__HiLevGraf
 742E:0004       $ED__ILS_EvalProcedures
 5C1B:0007       $ED__ILS_ZoneMngmnt
 5E6D:50E4       $ED__Ini
 64A9:0004       $ED__InpLine
 5D0F:0000       $ED__Int_DME
 5D18:1401       $ED__Kalibracja
 743A:0000       $ED__Kl_FGenerators
 5C19:0006       $ED__L_CommonTypes
 7418:0006       $ED__L_Count
 5C79:0098       $ED__L_DataBase
 743C:01E4       $ED__L_Slupek
 5AA4:021E       $ED__MANAGER
 6465:0401       $ED__MMMouse
 7437:0000       $ED__M_PGPIB
 64AA:0064       $ED__Mapa
 743B:0000       $ED__Marks
 5E5B:0000       $ED__Math
 5C89:000E       $ED__Messages
 5CCD:0016       $ED__MsgBox
 5CCF:03A0       $ED__NAVGPIB
 7438:0007       $ED__NAVInterface
 643F:025F       $ED__Obloty
 5AA3:000C       $ED__PG
 5C73:0021       $ED__PI_Analiza
 5C77:0000       $ED__PI_ArchDate
 5C78:0000       $ED__PI_Drukuj
 5C04:0000       $ED__PI_Glowny
 5AD0:0001       $ED__PI_PA
 5C76:0000       $ED__PI_Pomiar
 5ADC:0048       $ED__PI_Qcheck
 73C8:000D       $ED__PI_ScrUtility
 73CC:0006       $ED__PiszEventy
 64B1:0235       $ED__Polozenie
 5C56:0095       $ED__Pomiar
 74D6:0112       $ED__Print
 7644:0015       $ED__PrintCntroll
 5A36:0003       $ED__RTSCoroutine
 5A17:01DD       $ED__RTSMain
 742F:0072       $ED__Random
 5E5A:0000       $ED__RealConversions
 5AE1:00AF       $ED__ScannerI
 5C60:012D       $ED__Screen
 5CC7:0054       $ED__ScreenCTypes
 7428:0054       $ED__Semafory
 643E:000E       $ED__ShortCuts
 73C9:0000       $ED__Slupek
 5C86:0005       $ED__SoftIntHandlingManager
 5C15:0000       $ED__SpecConv
 5C8A:0000       $ED__StdIO
 5C83:0027       $ED__Storage
 64D5:000E       $ED__SwitchCntrl
 5AED:0057       $ED__TheodolitRead
 5C87:0014       $ED__Timer
 5AD1:00A6       $ED__Tune
 64D6:0000       $ED__WorseBecause
 7310:0000       $ED__Wykres
 64EB:0004       $ED__XMS
 64EC:0004       $ED__XMSService
 7311:0000       $ED__XMSTable
 4D04:096F       $EM__ARINC
 5825:0024       $EM__ASCII
 23BB:030F       $EM__AltInterface
 5828:0109       $EM__BitByteOps
 57B0:0108       $EM__BlockOps
 3262:0DD7       $EM__Buttons
 3947:0D8C       $EM__CocpDsp
 1075:00CC       $EM__CommonData
 0559:011F       $EM__CommonTypes
 0F69:0369       $EM__Czas
 06E2:0D73       $EM__DGHIni
 1D70:1079       $EM__DGHInterface
 2553:08A4       $EM__DGH_utils
 0223:017A       $EM__DOSEntry
 587A:02B8       $EM__DOSMemory
 3A20:226E       $EM__DataCollect
 5840:00BA       $EM__Devices
 3340:195B       $EM__Dialog
 28C0:031C       $EM__DigiRS
 4164:0389       $EM__DisResUtilities
 5959:009C       $EM__Display
 4FD9:1462       $EM__DrawEpson
 5750:0204       $EM__DynMem
 023B:0145       $EM__ErrorMess
 3EF4:0A4A       $EM__EventsMng
 393F:0071       $EM__FCBS
 2C92:0A45       $EM__FIO
 23FC:0786       $EM__FIltr1St
 1082:2BCB       $EM__Files
 0EFB:06DA       $EM__FlagAnal
 30CA:197C       $EM__GList
 0676:06B3       $EM__GPSRead
 2AE4:08F8       $EM__GPS_TRIMBLE
 29C4:11FD       $EM__GPS_nov
 133F:0624       $EM__G_CP_ControlProc
 52C9:2BB4       $EM__G_CntProcedures
 0FB8:003C       $EM__G_CommonTypes
 43F9:0AD0       $EM__G_DAcquizition
 406D:0F66       $EM__G_DisResults
 07BA:1197       $EM__G_Files
 08E4:13A1       $EM__G_Inspekcja
 0A1F:33B5       $EM__G_Oblot
 2029:23B5       $EM__G_Odb
 4538:4841       $EM__G_Print
 42C1:137D       $EM__G_results
 2475:0DD5       $EM__GeoArithmetic
 1FE7:01E6       $EM__GrafTypes
 2006:0220       $EM__GrafUtil
 37A2:1121       $EM__Graphics
 3918:026D       $EM__HRD_Clock
 1E78:16E3       $EM__HiLevGraf
 4A03:269E       $EM__ILS_EvalProcedures
 0FBC:0B88       $EM__ILS_ZoneMngmnt
 2B74:11D8       $EM__Ini
 34D6:0D16       $EM__InpLine
 23ED:00EE       $EM__Int_DME
 25DE:2E15       $EM__Kalibracja
 58D2:0167       $EM__Keyboard
 4D9C:04FF       $EM__Kl_FGenerators
 0FA0:017B       $EM__L_CommonTypes
 44A7:0908       $EM__L_Count
 1936:1189       $EM__L_DataBase
 4E81:156F       $EM__L_Slupek
 0042:1E0C       $EM__MANAGER
 2F79:1502       $EM__MMMouse
 4CAF:01E1       $EM__M_PGPIB
 35A8:0B50       $EM__Mapa
 4DED:0937       $EM__Marks
 29A5:01E8       $EM__Math
 5963:06C4       $EM__MathLib0
 1BD7:04A8       $EM__Messages
 58A6:02B1       $EM__Mouse
 227F:06DB       $EM__MsgBox
 22ED:0CD7       $EM__NAVGPIB
 4CCE:0351       $EM__NAVInterface
 57C1:063B       $EM__NumberConversion
 2DB1:1C75       $EM__Obloty
 0001:0409       $EM__PG
 1879:0742       $EM__PI_Analiza
 1921:00E6       $EM__PI_ArchDate
 1930:0053       $EM__PI_Drukuj
 08D4:00FD       $EM__PI_Glowny
 0250:002D       $EM__PI_PA
 18EE:0328       $EM__PI_Pomiar
 0318:0A27       $EM__PI_Qcheck
 3F99:063F       $EM__PI_ScrUtility
 419D:1233       $EM__PiszEventy
 365E:1225       $EM__Polozenie
 13A2:15AF       $EM__Pomiar
 5120:1A80       $EM__Print
 5585:08E0       $EM__PrintCntroll
 56D7:01A7       $EM__RTSCoroutine
 56B5:0140       $EM__RTSDevice
 5630:076F       $EM__RTSMain
 4C6D:0410       $EM__Random
 28F2:0B1F       $EM__RealConversions
 03BB:19D3       $EM__ScannerI
 14FE:37A6       $EM__Screen
 2265:019E       $EM__ScreenCTypes
 49BD:0453       $EM__Semafory
 2D37:079B       $EM__ShortCuts
 3FFE:06E6       $EM__Slupek
 1AAB:05F6       $EM__SoftIntHandlingManager
 5839:0061       $EM__Sounds
 0D5B:19F8       $EM__SpecConv
 1C22:14D9       $EM__StdIO
 1A4F:05B8       $EM__Storage
 3781:012E       $EM__SwitchCntrl
 5771:03E5       $EM__Termbase
 58E9:01C6       $EM__Terminal
 056C:1095       $EM__TheodolitRead
 1B0B:0CBD       $EM__Timer
 0253:0C49       $EM__Tune
 3794:00D0       $EM__WorseBecause
 3C47:2762       $EM__Wykres
 38B5:012A       $EM__XMS
 38CC:04BE       $EM__XMSService
 3EBE:035A       $EM__XMSTable
 4D04:0954       $INIT__ARINC
 5825:0009       $INIT__ASCII
 23BB:02DB       $INIT__AltInterface
 5828:0108       $INIT__BitByteOps
 57B0:0107       $INIT__BlockOps
 3262:0D80       $INIT__Buttons
 3947:0D49       $INIT__CocpDsp
 1075:00A7       $INIT__CommonData
 0559:00FA       $INIT__CommonTypes
 0F69:0308       $INIT__Czas
 06E2:0D49       $INIT__DGHIni
 1D70:102C       $INIT__DGHInterface
 2553:084D       $INIT__DGH_utils
 0223:0150       $INIT__DOSEntry
 587A:0298       $INIT__DOSMemory
 3A20:2221       $INIT__DataCollect
 594F:0000       $INIT__DebugPMD
 5840:009A       $INIT__Devices
 3340:18EB       $INIT__Dialog
 28C0:02F2       $INIT__DigiRS
 4164:0346       $INIT__DisResUtilities
 5959:007C       $INIT__Display
 4FD9:1415       $INIT__DrawEpson
 5750:0203       $INIT__DynMem
 023B:010C       $INIT__ErrorMess
 3EF4:09EE       $INIT__EventsMng
 393F:004C       $INIT__FCBS
 2C92:0A16       $INIT__FIO
 23FC:0757       $INIT__FIltr1St
 1082:2B56       $INIT__Files
 0EFB:06A6       $INIT__FlagAnal
 30CA:1920       $INIT__GList
 0676:0670       $INIT__GPSRead
 2AE4:08B5       $INIT__GPS_TRIMBLE
 29C4:11A6       $INIT__GPS_nov
 133F:05AA       $INIT__G_CP_ControlProc
 52C9:2B49       $INIT__G_CntProcedures
 0FB8:0008       $INIT__G_CommonTypes
 43F9:0A33       $INIT__G_DAcquizition
 406D:0F00       $INIT__G_DisResults
 07BA:1118       $INIT__G_Files
 08E4:12FA       $INIT__G_Inspekcja
 0A1F:32D7       $INIT__G_Oblot
 2029:232C       $INIT__G_Odb
 4538:479F       $INIT__G_Print
 42C1:132B       $INIT__G_results
 2475:0DA1       $INIT__GeoArithmetic
 1FE7:01CB       $INIT__GrafTypes
 2006:01D3       $INIT__GrafUtil
 37A2:10F2       $INIT__Graphics
 3918:0248       $INIT__HRD_Clock
 1E78:1678       $INIT__HiLevGraf
 4A03:265B       $INIT__ILS_EvalProcedures
 0FBC:0B4A       $INIT__ILS_ZoneMngmnt
 2B74:119F       $INIT__Ini
 34D6:0CB5       $INIT__InpLine
 23ED:00CE       $INIT__Int_DME
 25DE:2DA5       $INIT__Kalibracja
 58D2:0142       $INIT__Keyboard
 4D9C:04DF       $INIT__Kl_FGenerators
 0FA0:0147       $INIT__L_CommonTypes
 44A7:0898       $INIT__L_Count
 1936:111E       $INIT__L_DataBase
 4E81:1509       $INIT__L_Slupek
 584C:02DE       $INIT__Longs
 0042:1DCE       $INIT__MANAGER
 2F79:14AB       $INIT__MMMouse
 4CAF:01C1       $INIT__M_PGPIB
 35A8:0AF4       $INIT__Mapa
 4DED:0903       $INIT__Marks
 29A5:01C3       $INIT__Math
 5963:06AF       $INIT__MathLib0
 1BD7:046A       $INIT__Messages
 58A6:0296       $INIT__Mouse
 227F:0689       $INIT__MsgBox
 22ED:0C8A       $INIT__NAVGPIB
 4CCE:0322       $INIT__NAVInterface
 57C1:0620       $INIT__NumberConversion
 2DB1:1C0F       $INIT__Obloty
 1879:06C3       $INIT__PI_Analiza
 1921:008F       $INIT__PI_ArchDate
 1930:0015       $INIT__PI_Drukuj
 08D4:00A1       $INIT__PI_Glowny
 0250:0012       $INIT__PI_PA
 18EE:02B3       $INIT__PI_Pomiar
 0318:09B2       $INIT__PI_Qcheck
 3F99:05DE       $INIT__PI_ScrUtility
 419D:11AA       $INIT__PiszEventy
 365E:11C4       $INIT__Polozenie
 13A2:153F       $INIT__Pomiar
 5120:19F2       $INIT__Print
 5585:0861       $INIT__PrintCntroll
 561A:0000       $INIT__RTS87
 56F2:0000       $INIT__RTSCoroutine
 56CA:0000       $INIT__RTSDevice
 562D:0000       $INIT__RTSError
 5718:0000       $INIT__RTSInterrupt
 56B4:0000       $INIT__RTSLanguage
 5630:0731       $INIT__RTSMain
 5630:0770       $INIT__RTSMonExit
 56D6:0000       $INIT__RTSPriority
 571E:0000       $INIT__RTSRealError
 4C6D:03E6       $INIT__Random
 28F2:0AFF       $INIT__RealConversions
 03BB:1954       $INIT__ScannerI
 14FE:36F5       $INIT__Screen
 2265:0174       $INIT__ScreenCTypes
 49BD:0433       $INIT__Semafory
 2D37:0762       $INIT__ShortCuts
 3FFE:06AD       $INIT__Slupek
 1AAB:05D1       $INIT__SoftIntHandlingManager
 5839:0046       $INIT__Sounds
 0D5B:19BF       $INIT__SpecConv
 1C22:14A5       $INIT__StdIO
 1A4F:058E       $INIT__Storage
 571F:0303       $INIT__Strings
 3781:0109       $INIT__SwitchCntrl
 5771:03BB       $INIT__Termbase
 58E9:01A1       $INIT__Terminal
 056C:1039       $INIT__TheodolitRead
 1B0B:0C8E       $INIT__Timer
 0253:0C0B       $INIT__Tune
 3794:00AB       $INIT__WorseBecause
 3C47:2710       $INIT__Wykres
 38C8:0000       $INIT__XMS
 38CC:0485       $INIT__XMSService
 3EBE:032B       $INIT__XMSTable
 59D0:0000       $MN__PG
 59D0:0334       $OK__01mar90_1621_OF_ASCII
 59D0:0352       $OK__01mar90_1621_OF_DOSMemory
 59D0:0370       $OK__01mar90_1621_OF_Display
 59D0:035E       $OK__01mar90_1621_OF_Keyboard
 59D0:032E       $OK__01mar90_1621_OF_NumberConv
 59D0:0322       $OK__01mar90_1621_OF_Termbase
 59D0:0364       $OK__01mar90_1621_OF_Terminal
 59D0:0346       $OK__01mar90_1622_OF_Devices
 59D0:0358       $OK__01mar90_1622_OF_Mouse
 59D0:0340       $OK__01mar90_1622_OF_Sounds
 59D0:034C       $OK__05feb87_1233_OF_Longs
 59D0:02E6       $OK__10jul87_1400_OF_RTSError
 59D0:0310       $OK__10jul87_1400_OF_RTSRealErr
 59D0:02F2       $OK__10jul87_1401_OF_RTSLanguag
 59D0:030A       $OK__10jul87_1402_OF_RTSInterru
 59D0:02E0       $OK__10jul87_1403_OF_RTS87
 59D0:02FE       $OK__10jul87_1404_OF_RTSPriorit
 59D0:02B0       $OK__10jul99_1214_OF_ARINC
 59D0:0196       $OK__10jul99_1214_OF_AltInterfa
 59D0:01FC       $OK__10jul99_1214_OF_Buttons
 59D0:023E       $OK__10jul99_1214_OF_CocpDsp
 59D0:010C       $OK__10jul99_1214_OF_CommonData
 59D0:00B8       $OK__10jul99_1214_OF_CommonType
 59D0:00F4       $OK__10jul99_1214_OF_Czas
 59D0:00CA       $OK__10jul99_1214_OF_DGHIni
 59D0:0166       $OK__10jul99_1214_OF_DGHInterfa
 59D0:01AE       $OK__10jul99_1214_OF_DGH_utils
 59D0:0094       $OK__10jul99_1214_OF_DOSEntry
 59D0:0202       $OK__10jul99_1214_OF_Dialog
 59D0:01BA       $OK__10jul99_1214_OF_DigiRS
 59D0:009A       $OK__10jul99_1214_OF_ErrorMess
 59D0:0238       $OK__10jul99_1214_OF_FCBS
 59D0:01DE       $OK__10jul99_1214_OF_FIO
 59D0:01A2       $OK__10jul99_1214_OF_FIltr1St
 59D0:00EE       $OK__10jul99_1214_OF_FlagAnal
 59D0:01F6       $OK__10jul99_1214_OF_GList
 59D0:01D2       $OK__10jul99_1214_OF_GPS_TRIMBL
 59D0:01CC       $OK__10jul99_1214_OF_GPS_nov
 59D0:0172       $OK__10jul99_1214_OF_GrafTypes
 59D0:0178       $OK__10jul99_1214_OF_GrafUtil
 59D0:0226       $OK__10jul99_1214_OF_Graphics
 59D0:0232       $OK__10jul99_1214_OF_HRD_Clock
 59D0:016C       $OK__10jul99_1214_OF_HiLevGraf
 59D0:01D8       $OK__10jul99_1214_OF_Ini
 59D0:0208       $OK__10jul99_1214_OF_InpLine
 59D0:019C       $OK__10jul99_1214_OF_Int_DME
 59D0:01B4       $OK__10jul99_1214_OF_Kalibracja
 59D0:02B6       $OK__10jul99_1214_OF_Kl_FGenera
 59D0:008E       $OK__10jul99_1214_OF_MANAGER
 59D0:01F0       $OK__10jul99_1214_OF_MMMouse
 59D0:02A4       $OK__10jul99_1214_OF_M_PGPIB
 59D0:01C6       $OK__10jul99_1214_OF_Math
 59D0:015A       $OK__10jul99_1214_OF_Messages
 59D0:018A       $OK__10jul99_1214_OF_MsgBox
 59D0:0190       $OK__10jul99_1214_OF_NAVGPIB
 59D0:02AA       $OK__10jul99_1214_OF_NAVInterfa
 59D0:01EA       $OK__10jul99_1214_OF_Obloty
 59D0:01C0       $OK__10jul99_1214_OF_RealConver
 59D0:0292       $OK__10jul99_1214_OF_Semafory
 59D0:01E4       $OK__10jul99_1214_OF_ShortCuts
 59D0:014E       $OK__10jul99_1214_OF_SoftIntHan
 59D0:00E8       $OK__10jul99_1214_OF_SpecConv
 59D0:0160       $OK__10jul99_1214_OF_StdIO
 59D0:0148       $OK__10jul99_1214_OF_Storage
 59D0:021A       $OK__10jul99_1214_OF_SwitchCntr
 59D0:00BE       $OK__10jul99_1214_OF_TheodolitR
 59D0:0154       $OK__10jul99_1214_OF_Timer
 59D0:00A6       $OK__10jul99_1214_OF_Tune
 59D0:0220       $OK__10jul99_1214_OF_WorseBecau
 59D0:024A       $OK__10jul99_1214_OF_Wykres
 59D0:022C       $OK__10jul99_1214_OF_XMSService
 59D0:0250       $OK__10jul99_1214_OF_XMSTable
 59D0:0244       $OK__10jul99_1215_OF_DataCollec
 59D0:026E       $OK__10jul99_1215_OF_DisResUtil
 59D0:02C8       $OK__10jul99_1215_OF_DrawEpson
 59D0:0256       $OK__10jul99_1215_OF_EventsMng
 59D0:0112       $OK__10jul99_1215_OF_Files
 59D0:00C4       $OK__10jul99_1215_OF_GPSRead
 59D0:01A8       $OK__10jul99_1215_OF_GeoArithme
 59D0:020E       $OK__10jul99_1215_OF_Mapa
 59D0:02BC       $OK__10jul99_1215_OF_Marks
 59D0:0274       $OK__10jul99_1215_OF_PiszEventy
 59D0:0214       $OK__10jul99_1215_OF_Polozenie
 59D0:011E       $OK__10jul99_1215_OF_Pomiar
 59D0:02CE       $OK__10jul99_1215_OF_Print
 59D0:02DA       $OK__10jul99_1215_OF_PrintCntro
 59D0:029E       $OK__10jul99_1215_OF_Random
 59D0:00B2       $OK__10jul99_1215_OF_ScannerI
 59D0:0124       $OK__10jul99_1215_OF_Screen
 59D0:0184       $OK__10jul99_1215_OF_ScreenCTyp
 59D0:0262       $OK__10jul99_1215_OF_Slupek
 59D0:0298       $OK__10jul99_1216_OF_ILS_EvalPr
 59D0:0106       $OK__10jul99_1216_OF_ILS_ZoneMn
 59D0:00FA       $OK__10jul99_1216_OF_L_CommonTy
 59D0:0142       $OK__10jul99_1216_OF_L_DataBase
 59D0:0118       $OK__10jul99_1217_OF_G_CP_Contr
 59D0:02D4       $OK__10jul99_1217_OF_G_CntProce
 59D0:0100       $OK__10jul99_1217_OF_G_CommonTy
 59D0:0280       $OK__10jul99_1217_OF_G_DAcquizi
 59D0:0268       $OK__10jul99_1217_OF_G_DisResul
 59D0:00D0       $OK__10jul99_1217_OF_G_Files
 59D0:00DC       $OK__10jul99_1217_OF_G_Inspekcj
 59D0:00E2       $OK__10jul99_1217_OF_G_Oblot
 59D0:017E       $OK__10jul99_1217_OF_G_Odb
 59D0:028C       $OK__10jul99_1217_OF_G_Print
 59D0:027A       $OK__10jul99_1217_OF_G_results
 59D0:0286       $OK__10jul99_1217_OF_L_Count
 59D0:02C2       $OK__10jul99_1217_OF_L_Slupek
 59D0:0000       $OK__10jul99_1217_OF_PG
 59D0:012A       $OK__10jul99_1217_OF_PI_Analiza
 59D0:0136       $OK__10jul99_1217_OF_PI_ArchDat
 59D0:013C       $OK__10jul99_1217_OF_PI_Drukuj
 59D0:00D6       $OK__10jul99_1217_OF_PI_Glowny
 59D0:00A0       $OK__10jul99_1217_OF_PI_PA
 59D0:0130       $OK__10jul99_1217_OF_PI_Pomiar
 59D0:00AC       $OK__10jul99_1217_OF_PI_Qcheck
 59D0:025C       $OK__10jul99_1217_OF_PI_ScrUtil
 59D0:0304       $OK__15jun87_0924_OF_RTSCorouti
 59D0:02F8       $OK__15jun87_0924_OF_RTSDevice
 59D0:031C       $OK__16jun87_1952_OF_DynMem
 59D0:036A       $OK__16jun87_2059_OF_DebugPMD
 59D0:02EC       $OK__19aug87_1403_OF_RTSMain
 59D0:0316       $OK__31jul87_1000_OF_Strings
 59D0:033A       $OK__31jul87_1100_OF_BitByteOps
 59D0:0328       $OK__31jul87_1300_OF_BlockOps
 5AE1:0024       ABOVESL__ScannerI
 5D18:08C0       AGCwartosciProgowD__Kalibracja
 5D18:0870       AGCwartosciProgowM__Kalibracja
 5D18:0800       AGCwartosciProgow__Kalibracja
 5D0A:0020       ALT_Conver_TabC__AltInterface
 5D0A:0000       ALT_Conver_Tab__AltInterface
 5614:003E       AT87Server
 5AE1:0054       AcqQ__ScannerI
 64A9:0000       Active__InpLine
 5620:0014       AddrOvf__RTSError
 745B:078E       Adr1__DrawEpson
 745B:0792       Adr2__DrawEpson
 64B1:0018       AktKat__Polozenie
 64B1:0010       AktOdleglosc__Polozenie
 5AE1:0006       AlfaF__ScannerI
 5AE1:0094       AlfaGPSWatcDog__ScannerI
 5AE1:0059       AlfaSigma__ScannerI
 5AE1:0096       AlfaTeoWatcDog__ScannerI
 5AE1:0002       Alfa__ScannerI
 64A7:0004       AllEnabled__Buttons
 5C9C:019E       Az0_Con__G_Odb
 74E8:01B2       Az0_PB_Con__G_CntProcedures
 74E8:0102       Az150_G_PB_Con__G_CntProcedures
 74E8:015A       Az190_D_PB_Con__G_CntProcedures
 5C9C:00EE       Az75_150_Con__G_Odb
 5C9C:0146       Az75_90_Con__G_Odb
 74E8:00AA       Az75_D_PB_Con__G_CntProcedures
 74E8:0052       Az75_G_PB_Con__G_CntProcedures
 5C9C:0276       AzOsiAv_Con__G_Odb
 74E8:0212       AzymAV_Con__G_CntProcedures
 5C9C:01FE       AzymAV_Con__G_Odb
 5AED:0014       Azymut__TheodolitRead
 64D7:000E       BK64Inc__InternalMonitor__Graph
 64D7:000A       BKSizeL__InternalMonitor__Graph
 5C56:005A       B_01__Pomiar
 5C56:005E       B_02__Pomiar
 5C56:0062       B_03__Pomiar
 5C56:0066       B_04__Pomiar
 5C56:006A       B_05__Pomiar
 5C73:000D       B_Abort__MouseMonitor__PI_Anali
 5C73:0009       B_Akceptuj__MouseMonitor__PI_An
 5C60:0056       B_CURSOR__Screen
 5C73:0015       B_DOWN__MouseMonitor__PI_Analiz
 5C60:0066       B_DOWN__Screen
 5C73:0005       B_Drukuj__MouseMonitor__PI_Anal
 5C60:005A       B_LEFT__Screen
 5C60:005E       B_RIGHT__Screen
 5C73:0011       B_UP__MouseMonitor__PI_Analiza
 5C60:0062       B_UP__Screen
 5C73:0019       B_XCHG__MouseMonitor__PI_Analiz
 5C60:0080       BarOnScreen__Dialog__Screen
 74E8:0398       Bend_con__G_CntProcedures
 5E65:006E       BladKanaluGPS__GPS_TRIMBLE
 5E5C:0080       BladKanaluGPS__GPS_nov
 5C79:0094       Blad_podczas_wczytywania_Lotnis
 5E6D:0012       BuffP__Ini
 5C8B:0000       BufferFull__DGHInterface
 745B:0004       Bufor__DrawEpson
 5E6D:0016       Bufor__Ini
 64B1:0022       Bufor__Polozenie
 64A7:0005       ButtonList__MONITOR__Buttons
 5AA4:0114       CP__MANAGER
 643F:0157       CallBackDlaDopasuj__Obloty
 5620:001E       CardOvf__RTSError
 5620:0000       CaseError__RTSError
 5C60:012C       ChangeKursorMode__Dialog__Scree
 5AED:004A       CheckSumIdx__TheodolitRead
 5C07:00CB       CisnienieOdn_L__G_Oblot
 5C1C:014E       CisnienieOdniesienia__CommonDat
 5C8D:0000       ClipRect__HiLevGraf
 5C87:0004       ClockPer__Timer
 74D6:0011       CoKtoraProbka__Print
 7644:000B       CoKtoraProbka__PrintCntroll
 5C07:0000       CoRobimy__G_Oblot
 64EE:0000       Code__FCBS
 5C9C:0090       CollectData__G_Odb
 5CCF:0398       CommCount__NAVGPIB
 64D5:0000       ControlWords__SwitchCntrl
 5AA4:021A       Count__MANAGER
 637C:0C08       CriticalErrorRec__FIO
 64A6:0000       CurH__GList
 745B:0798       CurMode__DrawEpson
 5AF3:001E       CurrGPSAnalizer__GPSRead
 6465:02F5       CursorB__BezWyszeregowania__MMM
 6465:01F4       CursorBuf__BezWyszeregowania__M
 5C60:0076       CursorMode__Dialog__Screen
 5C60:007B       CursorPos__Dialog__Screen
 6465:0008       CursorShapePtr__MMMouse
 64B1:0211       CzesciOkregu__Polozenie
 5C1C:00FB       DME__CommonData
 5AC6:0084       DOSEmpty__DOSEntry
 5AA4:011C       DUMMY__MANAGER
 5D18:13EC       DataOstatniejKalibracji__Kalibr
 6465:000C       DefaultShape__MMMouse
 5D11:0000       Deklinacja__GeoArithmetic
 643F:019C       DelDir__Obloty
 5AE1:0016       DeltaDME__ScannerI
 5AE1:001A       DeltaF__ScannerI
 5AE1:000E       Delta__ScannerI
 5A17:0058       DescInt0__RTSMain
 74E8:01E2       Dif0_Con__G_CntProcedures
 5C9C:01CE       Dif0_Con__G_Odb
 74E8:026E       DifAvTotal_Con__G_CntProcedures
 5C9C:0262       DifAv_Con__G_Odb
 5C32:0004       DirErr__Files
 64B1:020F       Dir__Polozenie
 5C9C:0291       DisSigma__G_Odb
 5AE1:0061       DisSigma__ScannerI
 64F5:C86E       Div2T__tablice__DataCollect
 64F5:C86A       Div3T__tablice__DataCollect
 5620:0046       DivZero__RTSError
 7655:0000       DriverInstalled__Mouse
 643F:021E       DstDir__Obloty
 5C87:0012       Dumm__Monitor__Timer
 56A8:0069       DynParCopy__RTSLanguage
 6465:0063       EVC__BezPrzerwanOdMyszy__MMMous
 6465:005F       EVF__BezPrzerwanOdMyszy__MMMous
 6465:0061       EVL__BezPrzerwanOdMyszy__MMMous
 5AED:001C       Elewacja__TheodolitRead
 5AA4:0012       ErrorHandler__MANAGER
 5E6D:0000       ErrorProc__Ini
 5AA4:0000       ErrorQueue__MANAGER
 5630:0636       Error__RTSMain
 5C56:0050       EtapPolaryzacji__Pomiar
 73CC:0002       EvPtr__PiszEventy
 5AE1:0069       EvalPROC__ScannerI
 5C9C:0024       EvalVal__G_Odb
 6465:0065       EventBuff__BezPrzerwanOdMyszy__
 7312:0000       Events__EventsMng
 5620:000A       FctRetError__RTSError
 5C32:0000       FileErr__Files
 5BEF:0000       FileErr__G_Files
 5BEF:0144       FileResCreated__G_Files
 5BEF:0130       FileRes__G_Files
 5BEF:0090       FileSig__G_Files
 637C:0008       Files__FIO
 5CCF:0397       FirstLocal__NAVGPIB
 74D6:000C       Flagi__Print
 64D7:0010       FntTable__Graphics
 64A8:0004       FocusChanged__Dialog
 745B:079D       FontAdrA__DrawEpson
 745B:0799       FontAdrN__DrawEpson
 745B:07A1       FontHeight__DrawEpson
 64D7:0000       FontPtr__Graphics
 643E:0007       FreeKey__monitor__ShortCuts
 5AE1:008B       GPSEcounting__ScannerI
 5AE1:003B       GPS_A__ScannerI
 5AE1:0050       GPS_DIFFMODE__ScannerI
 5AE1:004E       GPS_GDOP__ScannerI
 5AE1:004B       GPS_OK__ScannerI
 5AE1:0051       GPS_PREC__ScannerI
 5AE1:0043       GPS_R__ScannerI
 5AE1:004C       GPS_SAT__ScannerI
 5AE1:00AB       GPS_dtaSign__ScannerI
 7419:00D6       GSG_flg__G_Print
 5C54:0008       GSPilErr__G_CP_ControlProc
 7419:00D8       GSZ_flg__G_Print
 5D18:0AC0       GS_DEVPuntyKal__Kalibracja
 5C79:0092       GS_El_czuloscCP__L_DataBase
 5AD1:0050       GSfreqCRT__Tune
 64EC:0000       GarbageList__XMSService
 5C07:00A5       GlowOdb__G_Oblot
 5C1C:0141       GlownyOdbiornik__CommonData
 5D18:0958       GsAgc_delay__Kalibracja
 5D18:0918       GsDev_delay__Kalibracja
 5D18:0928       GsPrcMod_delay__Kalibracja
 6465:02F4       Hidden__BezWyszeregowania__MMMo
 643F:0116       HomeDirDlaDopasuj__Obloty
 643F:0058       HomeDirNazwaPlikuIni__Obloty
 643F:0048       HomeDir__Obloty
 64F5:C866       IDX2__tablice__DataCollect
 64F5:C862       IDX3__tablice__DataCollect
 56F3:011E       IOTransfer__RTSInterrupt
 5C1B:0000       IdentPunktow__ILS_ZoneMngmnt
 64F5:C840       Idx__DataCollect
 7644:000D       IleStron__PrintCntroll
 5D11:0020       IloscOdniesien__GeoArithmetic
 7644:000F       IloscProbek__PrintCntroll
 7416:0000       ImportantDiv__G_DAcquizition
 5620:0028       IntegerOvf__RTSError
 5C60:0079       JakieWykr__Dialog__Screen
 5C60:0077       JakijedenWykres__Dialog__Screen
 5C60:0078       JedenWykres__Dialog__Screen
 745B:07A8       JuzNarysowane__DrawEpson
 0000:0000  Abs  KEY__00xxx00_0000_OF_DebugPMD
 0000:0000  Abs  KEY__00xxx00_0000_OF_RTS87
 0000:0000  Abs  KEY__00xxx00_0000_OF_RTSCorouti
 0000:0000  Abs  KEY__00xxx00_0000_OF_RTSError
 0000:0000  Abs  KEY__00xxx00_0000_OF_RTSInterru
 0000:0000  Abs  KEY__00xxx00_0000_OF_RTSLanguag
 0000:0000  Abs  KEY__00xxx00_0000_OF_RTSMain
 0000:0000  Abs  KEY__00xxx00_0000_OF_RTSPriorit
 0000:0000  Abs  KEY__00xxx00_0000_OF_RTSRealErr
 0000:0000  Abs  KEY__05feb87_1233_OF_Longs
 0000:0000  Abs  KEY__10aug87_2030_OF_ASCII
 0000:0000  Abs  KEY__10aug87_2030_OF_BitByteOps
 0000:0000  Abs  KEY__10aug87_2030_OF_BlockOps
 0000:0000  Abs  KEY__10aug87_2031_OF_DOSMemory
 0000:0000  Abs  KEY__10aug87_2031_OF_DebugPMD
 0000:0000  Abs  KEY__10aug87_2031_OF_Devices
 0000:0000  Abs  KEY__10aug87_2031_OF_Display
 0000:0000  Abs  KEY__10aug87_2031_OF_DynMem
 0000:0000  Abs  KEY__10aug87_2031_OF_Keyboard
 0000:0000  Abs  KEY__10aug87_2031_OF_NumberConv
 0000:0000  Abs  KEY__10aug87_2031_OF_RTSDevice
 0000:0000  Abs  KEY__10aug87_2031_OF_Storage
 0000:0000  Abs  KEY__10aug87_2031_OF_Strings
 0000:0000  Abs  KEY__10aug87_2031_OF_Termbase
 0000:0000  Abs  KEY__10aug87_2031_OF_Terminal
 0000:0000  Abs  KEY__10aug87_2032_OF_MathLib0
 0000:0000  Abs  KEY__10aug87_2033_OF_Mouse
 0000:0000  Abs  KEY__10aug87_2033_OF_RTSCorouti
 0000:0000  Abs  KEY__10aug87_2033_OF_Random
 0000:0000  Abs  KEY__10aug87_2033_OF_RealConver
 0000:0000  Abs  KEY__10aug87_2033_OF_Sounds
 0000:0000  Abs  KEY__10jul87_1035_OF_RTSMonExit
 0000:0000  Abs  KEY__10jul99_1214_OF_ARINC
 0000:0000  Abs  KEY__10jul99_1214_OF_AltInterfa
 0000:0000  Abs  KEY__10jul99_1214_OF_Buttons
 0000:0000  Abs  KEY__10jul99_1214_OF_CocpDsp
 0000:0000  Abs  KEY__10jul99_1214_OF_CommonData
 0000:0000  Abs  KEY__10jul99_1214_OF_CommonType
 0000:0000  Abs  KEY__10jul99_1214_OF_Czas
 0000:0000  Abs  KEY__10jul99_1214_OF_DGHIni
 0000:0000  Abs  KEY__10jul99_1214_OF_DGHInterfa
 0000:0000  Abs  KEY__10jul99_1214_OF_DGH_utils
 0000:0000  Abs  KEY__10jul99_1214_OF_DOSEntry
 0000:0000  Abs  KEY__10jul99_1214_OF_DataCollec
 0000:0000  Abs  KEY__10jul99_1214_OF_Dialog
 0000:0000  Abs  KEY__10jul99_1214_OF_DigiRS
 0000:0000  Abs  KEY__10jul99_1214_OF_DisResUtil
 0000:0000  Abs  KEY__10jul99_1214_OF_DrawEpson
 0000:0000  Abs  KEY__10jul99_1214_OF_ErrorMess
 0000:0000  Abs  KEY__10jul99_1214_OF_EventsMng
 0000:0000  Abs  KEY__10jul99_1214_OF_FCBS
 0000:0000  Abs  KEY__10jul99_1214_OF_FIO
 0000:0000  Abs  KEY__10jul99_1214_OF_FIltr1St
 0000:0000  Abs  KEY__10jul99_1214_OF_Files
 0000:0000  Abs  KEY__10jul99_1214_OF_FlagAnal
 0000:0000  Abs  KEY__10jul99_1214_OF_GList
 0000:0000  Abs  KEY__10jul99_1214_OF_GPSRead
 0000:0000  Abs  KEY__10jul99_1214_OF_GPS_TRIMBL
 0000:0000  Abs  KEY__10jul99_1214_OF_GPS_nov
 0000:0000  Abs  KEY__10jul99_1214_OF_GeoArithme
 0000:0000  Abs  KEY__10jul99_1214_OF_GrafTypes
 0000:0000  Abs  KEY__10jul99_1214_OF_GrafUtil
 0000:0000  Abs  KEY__10jul99_1214_OF_Graphics
 0000:0000  Abs  KEY__10jul99_1214_OF_HRD_Clock
 0000:0000  Abs  KEY__10jul99_1214_OF_HiLevGraf
 0000:0000  Abs  KEY__10jul99_1214_OF_Ini
 0000:0000  Abs  KEY__10jul99_1214_OF_InpLine
 0000:0000  Abs  KEY__10jul99_1214_OF_Int_DME
 0000:0000  Abs  KEY__10jul99_1214_OF_Kalibracja
 0000:0000  Abs  KEY__10jul99_1214_OF_Kl_FGenera
 0000:0000  Abs  KEY__10jul99_1214_OF_MANAGER
 0000:0000  Abs  KEY__10jul99_1214_OF_MMMouse
 0000:0000  Abs  KEY__10jul99_1214_OF_M_PGPIB
 0000:0000  Abs  KEY__10jul99_1214_OF_Mapa
 0000:0000  Abs  KEY__10jul99_1214_OF_Marks
 0000:0000  Abs  KEY__10jul99_1214_OF_Math
 0000:0000  Abs  KEY__10jul99_1214_OF_Messages
 0000:0000  Abs  KEY__10jul99_1214_OF_MsgBox
 0000:0000  Abs  KEY__10jul99_1214_OF_NAVGPIB
 0000:0000  Abs  KEY__10jul99_1214_OF_NAVInterfa
 0000:0000  Abs  KEY__10jul99_1214_OF_Obloty
 0000:0000  Abs  KEY__10jul99_1214_OF_PI_Analiza
 0000:0000  Abs  KEY__10jul99_1214_OF_PI_ArchDat
 0000:0000  Abs  KEY__10jul99_1214_OF_PI_Drukuj
 0000:0000  Abs  KEY__10jul99_1214_OF_PI_Glowny
 0000:0000  Abs  KEY__10jul99_1214_OF_PI_PA
 0000:0000  Abs  KEY__10jul99_1214_OF_PI_Pomiar
 0000:0000  Abs  KEY__10jul99_1214_OF_PI_Qcheck
 0000:0000  Abs  KEY__10jul99_1214_OF_PI_ScrUtil
 0000:0000  Abs  KEY__10jul99_1214_OF_PiszEventy
 0000:0000  Abs  KEY__10jul99_1214_OF_Polozenie
 0000:0000  Abs  KEY__10jul99_1214_OF_Pomiar
 0000:0000  Abs  KEY__10jul99_1214_OF_Print
 0000:0000  Abs  KEY__10jul99_1214_OF_PrintCntro
 0000:0000  Abs  KEY__10jul99_1214_OF_ScannerI
 0000:0000  Abs  KEY__10jul99_1214_OF_Screen
 0000:0000  Abs  KEY__10jul99_1214_OF_ScreenCTyp
 0000:0000  Abs  KEY__10jul99_1214_OF_Semafory
 0000:0000  Abs  KEY__10jul99_1214_OF_ShortCuts
 0000:0000  Abs  KEY__10jul99_1214_OF_Slupek
 0000:0000  Abs  KEY__10jul99_1214_OF_SoftIntHan
 0000:0000  Abs  KEY__10jul99_1214_OF_SpecConv
 0000:0000  Abs  KEY__10jul99_1214_OF_StdIO
 0000:0000  Abs  KEY__10jul99_1214_OF_SwitchCntr
 0000:0000  Abs  KEY__10jul99_1214_OF_TheodolitR
 0000:0000  Abs  KEY__10jul99_1214_OF_Timer
 0000:0000  Abs  KEY__10jul99_1214_OF_Tune
 0000:0000  Abs  KEY__10jul99_1214_OF_WorseBecau
 0000:0000  Abs  KEY__10jul99_1214_OF_Wykres
 0000:0000  Abs  KEY__10jul99_1214_OF_XMSService
 0000:0000  Abs  KEY__10jul99_1214_OF_XMSTable
 0000:0000  Abs  KEY__10jul99_1216_OF_ILS_EvalPr
 0000:0000  Abs  KEY__10jul99_1216_OF_ILS_ZoneMn
 0000:0000  Abs  KEY__10jul99_1216_OF_L_CommonTy
 0000:0000  Abs  KEY__10jul99_1216_OF_L_Count
 0000:0000  Abs  KEY__10jul99_1216_OF_L_DataBase
 0000:0000  Abs  KEY__10jul99_1216_OF_L_Slupek
 0000:0000  Abs  KEY__10jul99_1217_OF_G_CP_Contr
 0000:0000  Abs  KEY__10jul99_1217_OF_G_CntProce
 0000:0000  Abs  KEY__10jul99_1217_OF_G_CommonTy
 0000:0000  Abs  KEY__10jul99_1217_OF_G_DAcquizi
 0000:0000  Abs  KEY__10jul99_1217_OF_G_DisResul
 0000:0000  Abs  KEY__10jul99_1217_OF_G_Files
 0000:0000  Abs  KEY__10jul99_1217_OF_G_Inspekcj
 0000:0000  Abs  KEY__10jul99_1217_OF_G_Oblot
 0000:0000  Abs  KEY__10jul99_1217_OF_G_Odb
 0000:0000  Abs  KEY__10jul99_1217_OF_G_Print
 0000:0000  Abs  KEY__10jul99_1217_OF_G_results
 0000:0000  Abs  KEY__10jul99_1217_OF_PG
 0000:0000  Abs  KEY__12aug87_1620_OF_RTSMain
 0000:0000  Abs  KEY__21aug96_1223_OF_XMS
 74E8:0350       KapaFun1_Con__G_CntProcedures
 74E8:0374       KapaFun3_Con__G_CntProcedures
 64A7:0000       KbdButton__Buttons
 643E:0000       Kill__ShortCuts
 5AED:0010       Kopiowanie__TheodolitRead
 5C60:0030       KrokOpisuOsi__Screen
 584C:01F7       LDiv__Longs
 584C:018D       LMultU__Longs
 584C:00E6       LMult__Longs
 5C54:000C       LOCPilErr__G_CP_ControlProc
 5C79:0090       LOC_Az_czuloscCP__L_DataBase
 5C79:008E       LOC_Az_czuloscWP__L_DataBase
 5D18:0A88       LOC_DEVPuntyKal__Kalibracja
 5C79:0088       LOC_O_czuloscCP__L_DataBase
 5C79:0086       LOC_O_czuloscWP__L_DataBase
 5C79:008C       LOC_R_czuloscCP__L_DataBase
 5C79:008A       LOC_R_czuloscWP__L_DataBase
 5E65:005F       L_FixNotAvailable__GPS_TRIMBLE
 5E65:0057       L_Kierunek__GPS_TRIMBLE
 5E65:006C       L_NumberOfSattelites__GPS_TRIMB
 5E65:0051       L_WspDlugosc__GPS_TRIMBLE
 5E65:004B       L_WspSzerokosc__GPS_TRIMBLE
 29A5:002A       L__ACos__Math
 1A4F:0002       L__ALLOCATE__Storage
 23BB:0032       L__ALTConvert__AltInterface
 4A03:0378       L__AV_Addsmpl__ILS_EvalProcedur
 4A03:04C6       L__AV_Clear__ILS_EvalProcedures
 0042:0FEF       L__AWAITEDC__MANAGER
 0042:0FEF       L__AWAITEDC__Scheduler__MANAGER
 0042:0FB4       L__AWAITEDS__MANAGER
 0042:0FB4       L__AWAITEDS__Scheduler__MANAGER
 13A2:0114       L__AbortBP__Pomiar
 43F9:09E8       L__Abort__G_DAcquizition
 1BD7:0312       L__AcknowledgeFirst__Messages
 1BD7:0337       L__Acknowledge__Messages
 43F9:02AA       L__Acquire__G_DAcquizition
 0D5B:0E7B       L__AddAngle100__SpecConv
 0D5B:1858       L__AddDis__SpecConv
 0D5B:10CE       L__AddNormal__SpecConv
 0D5B:17AE       L__Add__SpecConv
 227F:00F2       L__AdvInfo__MsgBox
 0D5B:101A       L__AfterAngle100__SpecConv
 13A2:014F       L__AkceptacjaBP__Pomiar
 2029:2233       L__AktStrefa__G_Odb
 42C1:0CF1       L__AktualnyKatProcedury__G_resu
 0A1F:05C9       L__AlarmSciezki_A_D__G_Oblot
 0A1F:05A4       L__AlarmSciezki_A_G__G_Oblot
 0A1F:0613       L__AlarmSciezki_B_D__G_Oblot
 0A1F:05EE       L__AlarmSciezki_B_G__G_Oblot
 0A1F:08EC       L__AlarmSzer_pB_A__G_Oblot
 0A1F:090B       L__AlarmSzer_pB_B__G_Oblot
 0A1F:06F1       L__AlarmSzeroki_pA_A_D__G_Oblot
 0A1F:06CC       L__AlarmSzeroki_pA_A_G__G_Oblot
 0A1F:073B       L__AlarmSzeroki_pA_B_D__G_Oblot
 0A1F:0716       L__AlarmSzeroki_pA_B_G__G_Oblot
 0A1F:0785       L__AlarmWaski_pA_A_D__G_Oblot
 0A1F:0760       L__AlarmWaski_pA_A_G__G_Oblot
 0A1F:07CF       L__AlarmWaski_pA_B_D__G_Oblot
 0A1F:07AA       L__AlarmWaski_pA_B_G__G_Oblot
 0A1F:092A       L__AlarmWaski_pB_A__G_Oblot
 0A1F:0949       L__AlarmWaski_pB_B__G_Oblot
 38B5:00D8       L__AllocUpperMemBlock__XMS
 5750:0059       L__Alloc__DynMem
 38B5:003C       L__AllocateExtMem__XMS
 38CC:004E       L__Allocate__XMSService
 3EBE:005D       L__Allocate__XMSTable
 3340:1666       L__AltF4__Dialog
 2029:0BE5       L__Alt_CP__G_Odb
 4E81:07AA       L__Alt_SWP__L_Slupek
 52C9:0D65       L__An_OpisBadDod_CP__G_CntProce
 52C9:0652       L__An_OpisOsi_CP__G_CntProcedur
 52C9:0B14       L__An_OpisSektora_CP__G_CntProc
 52C9:0F19       L__An_OpisZabezpieczenie_CP__G_
 52C9:0E21       L__An_OpisZasiegSzer_CP__G_CntP
 1879:0518       L__AnalizaEP__PI_Analiza
 44A7:0827       L__Analiza__L_Count
 18EE:000A       L__Analiza__PI_Pomiar
 0D5B:0711       L__Ang100Str36Calk__SpecConv
 0D5B:06A4       L__Ang100Str36__SpecConv
 4DED:015E       L__AngAddSample__Marks
 4DED:0032       L__AngResetContiner__Marks
 0D5B:0BF8       L__Angle100__SpecConv
 0D5B:0D36       L__AngleDeg__SpecConv
 03BB:0B3C       L__AssSim_Alfa__ScannerI
 03BB:0AA9       L__AssSim_Dis__ScannerI
 0042:12EF       L__Assert__MANAGER
 0042:12EF       L__Assert__Scheduler__MANAGER
 3EBE:0002       L__AssignNil__XMSTable
 2475:0D1C       L__AssignOdniesienie__GeoArithm
 1B0B:0559       L__AssignPeriodicProc__Monitor_
 1B0B:0559       L__AssignPeriodicProc__Timer
 1FE7:01AD       L__AssignPoint__GrafTypes
 5771:0002       L__AssignRead__Termbase
 1FE7:0187       L__AssignRect__GrafTypes
 5771:0184       L__AssignWrite__Termbase
 571F:005F       L__Assign__Strings
 5750:01BF       L__Avail__DynMem
 1A4F:02D0       L__Available__Storage
 4A03:04F5       L__Az0Av_Addsmpl__ILS_EvalProce
 4A03:069B       L__Az0Av_Clear__ILS_EvalProcedu
 2029:08E8       L__Az0_CP__G_Odb
 4A03:136F       L__Az0_Clear__ILS_EvalProcedure
 2029:072E       L__Az75_150_CP__G_Odb
 2029:080B       L__Az75_90_CP__G_Odb
 2029:09ED       L__AzAv_CP__G_Odb
 4A03:0EC6       L__AzDif0_Addsmpl__ILS_EvalProc
 133F:0291       L__AzDis__G_CP_ControlProc
 2029:02E4       L__AzOsiAv_CP__G_Odb
 4E81:054F       L__Az_SWP__L_Slupek
 4A03:16EC       L__AzymAV_Addsmpl__ILS_EvalProc
 4A03:1850       L__AzymAV_Clear__ILS_EvalProced
 4A03:0890       L__Azym_Addsmpl__ILS_EvalProced
 4A03:0D17       L__Azym_Clear__ILS_EvalProcedur
 4A03:231A       L__Bend_AddSample__ILS_EvalProc
 4A03:1F14       L__Bend_ClearContainer__ILS_Eva
 23FC:05B7       L__BinaryCounter__FIltr1St
 2553:06BA       L__BinaryValSet__DGH_utils
 57B0:007D       L__BlockClear__BlockOps
 57B0:00B8       L__BlockEqual__BlockOps
 57B0:001A       L__BlockMoveBackward__BlockOps
 57B0:0000       L__BlockMoveForward__BlockOps
 57B0:003B       L__BlockMove__BlockOps
 57B0:00D9       L__BlockPosition__BlockOps
 57B0:0096       L__BlockSet__BlockOps
 1AAB:008A       L__BreakChain__SoftIntHandlingM
 0042:0AAF       L__Broadcast__MANAGER
 0042:0AAF       L__Broadcast__Scheduler__MANAGE
 5828:0046       L__ByteAnd__BitByteOps
 5828:0073       L__ByteNot__BitByteOps
 5828:0055       L__ByteOr__BitByteOps
 5828:00C5       L__ByteRol__BitByteOps
 5828:00B4       L__ByteRor__BitByteOps
 5828:0092       L__ByteSar__BitByteOps
 5828:00A3       L__ByteShl__BitByteOps
 5828:0081       L__ByteShr__BitByteOps
 5828:0064       L__ByteXor__BitByteOps
 2C92:04B4       L__CD__FIO
 5630:00EF       L__CallInitProc__RTSMain
 3262:0D35       L__CallProc__Buttons
 13A2:0124       L__CallStopButton__Pomiar
 5630:00FD       L__CallTermProc__RTSMain
 30CA:1454       L__CanEnable__GList
 35A8:098B       L__CancelProcess__Mapa
 35A8:098B       L__CancelProcess__monitor__Mapa
 0D5B:057F       L__Card100Str__SpecConv
 0D5B:033A       L__Card10Str__SpecConv
 3C47:1F1D       L__Card2Real__Wykres
 0D5B:0225       L__Card2Str__SpecConv
 0D5B:0959       L__Card500Str__SpecConv
 57C1:0259       L__CardToString__NumberConversi
 3262:09D0       L__ChangeButtonText__Buttons
 3262:0959       L__ChangeButton__Buttons
 1082:1E04       L__ChangeDir__Files
 1E78:0C85       L__Circle__HiLevGraf
 2D37:006D       L__ClearBuffer__ShortCuts
 2D37:006D       L__ClearBuffer__monitor__ShortC
 4A03:1428       L__Clearence_Addsmpl__ILS_EvalP
 4A03:16B7       L__Clearence_Clear__ILS_EvalPro
 1E78:1026       L__Clip__HiLevGraf
 5120:0E2F       L__CloseAll__Print
 2B74:0E08       L__CloseBuffer__Ini
 1082:2819       L__CloseCommSigFName__Files
 1E78:0A9F       L__CloseDIB__HiLevGraf
 07BA:0D79       L__CloseFileRes__G_Files
 1082:0F3B       L__CloseFiles__Files
 07BA:075B       L__CloseFiles__G_Files
 1082:17EB       L__CloseSignalFiles__Files
 07BA:0982       L__CloseSignalFiles__G_Files
 52C9:28BF       L__Close_CntProcedures__G_CntPr
 4FD9:06E2       L__Close__DrawEpson
 2C92:01F2       L__Close__FIO
 52C9:20F5       L__CntProcedures_Epilog__G_CntP
 52C9:1688       L__CntProcedures_Prolog__G_CntP
 5585:013A       L__CoKtoraPDn__PrintCntroll
 5585:00D5       L__CoKtoraPUp__PrintCntroll
 571F:02B2       L__CompareStr__Strings
 14FE:18F9       L__ConEventButton__Screen
 571F:025B       L__Concat__Strings
 58A6:01B4       L__ConditionalOff__Mouse
 43F9:00EC       L__ConsoleEv__G_DAcquizition
 43F9:00EC       L__ConsoleEv__Monitor__G_DAcqui
 571F:001D       L__ConstAssign__Strings
 3947:0A5E       L__ControlLoop__CocpDsp
 0F69:024E       L__ConvertToStr__Czas
 571F:01E9       L__Copy__Strings
 38CC:0110       L__Copy__XMSService
 4A03:0142       L__CountAzym0R__ILS_EvalProcedu
 4A03:19A9       L__CountAzymOsi__ILS_EvalProced
 4A03:18CF       L__CountAzym__ILS_EvalProcedure
 4A03:06F0       L__CountDelAzym__ILS_EvalProced
 4A03:0E0C       L__CountDif0R__ILS_EvalProcedur
 4A03:028B       L__CountDif__ILS_EvalProcedures
 42C1:0DE8       L__Count_ChiLoc__G_results
 42C1:0E23       L__Count_PhiLoc__G_results
 3262:0B2D       L__CreateButton__Buttons
 1082:0273       L__CreateFiles__Files
 07BA:022C       L__CreateFiles__G_Files
 34D6:0002       L__CreateInpLine__InpLine
 3262:0C3C       L__CreateRadioButton__Buttons
 2C92:00FA       L__Create__FIO
 2C92:08B1       L__CriticalErrorHandlerProc__FI
 03BB:1754       L__CurrGPSAlfaOffset__ScannerI
 1B0B:051F       L__CurrentPeriod__Monitor__Time
 1B0B:051F       L__CurrentPeriod__Timer
 0042:17F9       L__CurrentProcess__MANAGER
 0FA0:00F7       L__CzyToJestPromien__L_CommonTy
 1A4F:01B9       L__DEALLOCATE__Storage
 1E78:06E9       L__DIBHeight__HiLevGraf
 1E78:06B5       L__DIBWidth__HiLevGraf
 23ED:0002       L__DMEConvert__Int_DME
 0042:0CE1       L__DOIO__MANAGER
 0042:0CE1       L__DOIO__Scheduler__MANAGER
 587A:0002       L__DOSAlloc__DOSMemory
 587A:01B0       L__DOSAvail__DOSMemory
 587A:00E3       L__DOSDeAlloc__DOSMemory
 587A:0241       L__DOSGetMaxSize__DOSMemory
 587A:01F0       L__DOSSetSize__DOSMemory
 37A2:01B2       L__DP__Graphics
 37A2:01B2       L__DP__InternalMonitor__Graphic
 0042:1A90       L__DUMMYPRO__MANAGER
 4E81:085D       L__D_SWP__L_Slupek
 5120:0186       L__DalszeOdZera__Print
 3918:011E       L__Data__HRD_Clock
 5750:0102       L__DeAlloc__DynMem
 38CC:00EE       L__Deallocate__XMSService
 3EBE:00F2       L__Deallocate__XMSTable
 0253:0966       L__DecADFFch__Tune
 2B74:0006       L__DefaultError__Ini
 1B0B:04B5       L__DefinePeriod__Monitor__Timer
 1B0B:04B5       L__DefinePeriod__Timer
 2D37:0612       L__DefineShortCut__ShortCuts
 34D6:01CA       L__DeleteInpLine__InpLine
 2B74:050E       L__DeleteSection__Ini
 2D37:06DD       L__DeleteShortCut__ShortCuts
 2C92:046B       L__Delete__FIO
 571F:014C       L__Delete__Strings
 4E81:061E       L__Dew100_SWP__L_Slupek
 4E81:0476       L__DewDif_SWP__L_Slupek
 2029:0264       L__DewLoc_CP__G_Odb
 2029:0496       L__DewOff_CP__G_Odb
 3340:1488       L__DialogMouseHandle__Dialog
 4A03:1318       L__Dif0_Clear__ILS_EvalProcedur
 2029:0661       L__DifAZ_CP__G_Odb
 2029:0584       L__DifAv0_CP__G_Odb
 2C92:0700       L__DirQuery__FIO
 4DED:0453       L__DisAddSample__Marks
 4DED:0041       L__DisResetContiner__Marks
 1BD7:0004       L__DisableDisplay__Messages
 30CA:1470       L__Disable__GList
 406D:0E3A       L__DispResults__G_DisResults
 1BD7:0181       L__Display__Messages
 3262:0AAB       L__DisposeButton__Buttons
 1BD7:0164       L__DisposeMessage__Messages
 1B0B:0A36       L__DisposeMetronome__Timer
 3F99:0465       L__DisposeSlupki__PI_ScrUtility
 1B0B:0B9B       L__DisposeWatchdog__Timer
 3FFE:0647       L__Dispose__Slupek
 0D5B:1755       L__Div__SpecConv
 2006:0112       L__DoBeep__GrafUtil
 52C9:26F0       L__DoBendAnalyse__G_CntProcedur
 22ED:045A       L__DoCommandRealPar__NAVGPIB
 52C9:171B       L__DoCountProcedures__G_CntProc
 34D6:07B4       L__DoNothing__InpLine
 22ED:0357       L__DoSimpleComm__NAVGPIB
 30CA:06B6       L__DodajDoListy__GList
 08E4:0790       L__DodajOblot__G_Inspekcja
 4E81:1313       L__DoneSlupek__L_Slupek
 14FE:36CD       L__Done__Screen
 2DB1:037F       L__Dopasuj__Obloty
 4FD9:1124       L__DrawText__DrawEpson
 3C47:03D7       L__Draw__Wykres
 1930:0002       L__Druk__PI_Drukuj
 1879:0062       L__DrukujBP__MouseMonitor__PI_A
 2DB1:1B8B       L__Dum_Stat_File_Monitor__Oblot
 2DB1:1B83       L__Dum_Stat_Size_Monitor__Oblot
 30CA:0020       L__DummyNotification__GList
 52C9:0082       L__DummyProc__G_CntProcedures
 2029:0072       L__DummyProc__G_Odb
 1B0B:0BFF       L__Dummy__Timer
 2C92:040B       L__EOF__FIO
 133F:0234       L__ElDis__G_CP_ControlProc
 2029:0C63       L__Elew_CP__G_Odb
 3262:0CC0       L__EnableButton__Buttons
 3262:0D4E       L__EnableDisableAllButtons__But
 1BD7:002E       L__EnableDisplay__Messages
 3340:167B       L__EnableDlg__Dialog
 30CA:1513       L__Enable__GList
 34D6:0183       L__Enable__InpLine
 3340:15E7       L__EndDialog__Dialog
 0042:18E5       L__EnterProtectedOp__MANAGER
 419D:0F04       L__EnumEv__PiszEventy
 08E4:0704       L__EnumObl__G_Inspekcja
 5120:0FE0       L__EvProc__Print
 2F79:07F2       L__EventDispatcher__BezPrzerwan
 3EF4:055C       L__EventsMngInit__EventsMng
 5630:0526       L__Execute__RTSMain
 1082:1DB9       L__ExistDIR__Files
 0042:18ED       L__ExitProtectedOp__MANAGER
 1082:20C9       L__FInterpolacja__Files
 0A1F:09A6       L__Fazowanie_A__G_Oblot
 0A1F:09C5       L__Fazowanie_B__G_Oblot
 0D5B:08C0       L__Feed500Str__SpecConv
 37A2:025A       L__FillRect__Graphics
 1E78:0F6C       L__FillRect__HiLevGraf
 37A2:025A       L__FillRect__InternalMonitor__G
 0FBC:08D2       L__Fill_IdPunktowArr_T__ILS_Zon
 0FBC:088B       L__Fill_zoneBDisIdx__ILS_ZoneMn
 0FBC:083C       L__Fill_zoneBIdx__ILS_ZoneMngmn
 23FC:03DA       L__Filtr2Filters__FIltr1St
 23FC:053F       L__FiltrB__FIltr1St
 23FC:0199       L__Filtr__FIltr1St
 3EF4:02D5       L__FindNextEvent__EventsMng
 0EFB:01D6       L__FlagErr_Anal__FlagAnal
 58A6:0002       L__FlagReset__Mouse
 1E78:1268       L__FrameRect__HiLevGraf
 38B5:0068       L__FreeExtMem__XMS
 2DB1:0E1A       L__FreeSlot__Obloty
 38B5:0107       L__FreeUpperMemBlock__XMS
 49BD:00AA       L__Free__Semafory
 4CAF:0036       L__GPIBPresent__M_PGPIB
 0676:0225       L__GPSReceive__GPSRead
 133F:033D       L__GSDevDumm__G_CP_ControlProc
 133F:0173       L__GSDevErrDis__G_CP_ControlPro
 133F:00F7       L__GSDevErr__G_CP_ControlProc
 22ED:081B       L__GS_Default__NAVGPIB
 0FBC:0AB3       L__G_LstPToBeTraced__ILS_ZoneMn
 0FBC:0AD5       L__G_LstZToBeTraced__ILS_ZoneMn
 35A8:07B3       L__GdzieJest__Mapa
 2475:0719       L__Geo2Kat__GeoArithmetic
 1082:264E       L__GetALfaRefFName__Files
 42C1:004C       L__GetAnRes__G_results
 1D70:0187       L__GetAnalogVal__DGHInterface
 03BB:069A       L__GetAndCountTEODummy__Scanner
 03BB:0894       L__GetAndCountTEO__ScannerI
 37A2:0191       L__GetBank__Graphics
 37A2:0191       L__GetBank__InternalMonitor__Gr
 1D70:0226       L__GetBinaryVal__DGHInterface
 5828:0000       L__GetBits__BitByteOps
 58A6:006E       L__GetButPres__Mouse
 58A6:00A0       L__GetButRel__Mouse
 1E78:115F       L__GetClip__HiLevGraf
 1082:2735       L__GetCommSigFName__Files
 30CA:1839       L__GetContents__GList
 1D70:002B       L__GetCurrDataSign__DGHInterfac
 0676:02DA       L__GetCurrDataSign__GPSRead
 056C:05AE       L__GetCurrDataSign__TheodolitRe
 5840:0002       L__GetDeviceStatus__Devices
 56B5:009B       L__GetDeviceStatus__RTSDevice
 3340:0006       L__GetDialogDIBHandle__Dialog
 2C92:05B5       L__GetDir__FIO
 0676:029B       L__GetDirection__GPSRead
 1082:26C2       L__GetDisRefFName__Files
 3EBE:01B7       L__GetElem__XMSTable
 25DE:097E       L__GetErrReset__ErrorHand__Kali
 25DE:097E       L__GetErrReset__Kalibracja
 3EF4:041A       L__GetEventInfo__EventsMng
 2C92:0685       L__GetFileStamp__FIO
 2AE4:05C7       L__GetFrame__GPS_TRIMBLE
 29C4:0CFB       L__GetFrame__GPS_nov
 03BB:0377       L__GetGPSSpread__ScannerI
 03BB:01B8       L__GetGPS__ScannerI
 4CCE:0241       L__GetGSDev__NAVInterface
 4CCE:0190       L__GetLocDev__NAVInterface
 5630:0147       L__GetMessage__RTSMain
 3A20:1B29       L__GetNextAMark__DataCollect
 3A20:1AA3       L__GetNextDMark__DataCollect
 0EFB:0352       L__GetNextFrac__FlagAnal
 0FA0:0094       L__GetNumStrefyEp__L_CommonType
 0FA0:0077       L__GetNumStrefy__L_CommonTypes
 4CCE:0022       L__GetOmnibearing__NAVInterface
 03BB:17D3       L__GetPilotEvent__ScannerI
 58A6:0037       L__GetPosBut__Mouse
 56B5:0100       L__GetPrioMask__RTSDevice
 2B74:035E       L__GetPrivateProfileString__Ini
 0559:0010       L__GetRecName__CommonTypes
 30CA:1819       L__GetRect__GList
 2F79:0713       L__GetRegionRect__MMMouse
 4E81:1434       L__GetRegionWyk1__L_Slupek
 3F99:0578       L__GetRegionWyk1__PI_ScrUtility
 4E81:1478       L__GetRegionWyk2__L_Slupek
 3F99:0598       L__GetRegionWyk2__PI_ScrUtility
 4E81:14BC       L__GetRegionWyk3__L_Slupek
 3F99:05B8       L__GetRegionWyk3__PI_ScrUtility
 4E81:13F0       L__GetRegionWykG__L_Slupek
 3F99:0558       L__GetRegionWykG__PI_ScrUtility
 3262:0D0E       L__GetRegion__Buttons
 30CA:1608       L__GetRegion__GList
 34D6:0C4D       L__GetRegion__InpLine
 2F79:06C2       L__GetRegion__MMMouse
 07BA:0DF7       L__GetResFileName__G_Files
 30CA:14F4       L__GetSelection__GList
 07BA:0B1F       L__GetSigFileName__G_Files
 3FFE:0666       L__GetSlupRect__Slupek
 056C:0600       L__GetTeoEvent__TheodolitRead
 34D6:0388       L__GetText__InpLine
 056C:0700       L__GetTheoI__TheodolitRead
 056C:0654       L__GetTheoR__TheodolitRead
 0F69:00C0       L__GetTimeAndDate__BezPrzerwan_
 0F69:00C0       L__GetTimeAndDate__Czas
 0559:0055       L__GetTranName__CommonTypes
 3EF4:0366       L__GetUpdNextEvent__EventsMng
 37A2:03B5       L__GetWindow__Graphics
 37A2:03B5       L__GetWindow__InternalMonitor__
 28C0:0002       L__GetWrBufLength__DigiRS
 0FA0:00BB       L__GetZoneBoundPt__L_CommonType
 0A1F:12CD       L__GlowOdbP__G_Oblot
 08D4:0002       L__GlownyEP__PI_Glowny
 1082:1E3D       L__GoHomeDir__Files
 3340:123F       L__Go__Dialog
 3918:00A1       L__Godzina__HRD_Clock
 0D5B:1178       L__GorszeBoBlisze__SpecConv
 0D5B:14AD       L__GorszeBoDalszeOdZera__SpecCo
 0D5B:10E9       L__GorszeBoDalszeR__SpecConv
 0D5B:1127       L__GorszeBoDalsze__SpecConv
 4E81:00D1       L__GorszeBoDummy__L_Slupek
 0D5B:142B       L__GorszeBoMniejsze1500__SpecCo
 0D5B:1368       L__GorszeBoMniejsze160__SpecCon
 0D5B:146C       L__GorszeBoMniejsze2000__SpecCo
 0D5B:1327       L__GorszeBoMniejsze300__SpecCon
 0D5B:12A5       L__GorszeBoMniejsze400__SpecCon
 0D5B:13A9       L__GorszeBoMniejsze5000__SpecCo
 0D5B:13EA       L__GorszeBoMniejsze500__SpecCon
 0D5B:12E6       L__GorszeBoMniejsze800__SpecCon
 0D5B:1264       L__GorszeBoMniejszeM60__SpecCon
 0D5B:11C9       L__GorszeBoMniejszePol__SpecCon
 5120:0159       L__GorszeBoMniejsze__Print
 0D5B:120A       L__GorszeBoMniejsze__SpecConv
 0D5B:1237       L__GorszeBoWieksze__SpecConv
 1936:0F7C       L__GsMoveDis__L_DataBase
 30CA:128C       L__HandleEvent__GList
 2F79:00DF       L__HideConditionally__MMMouse
 2F79:0BDE       L__HideCursor__BezWyszeregowani
 2F79:0BDE       L__HideCursor__MMMouse
 58A6:002B       L__HideCursor__Mouse
 5828:00D6       L__HighNibble__BitByteOps
 1B0B:06FC       L__IBMIntHandler__Monitor__Time
 0253:0881       L__ILSDecFch__Tune
 0253:0849       L__ILSIncFch__Tune
 0253:07EE       L__ILSfrqString__Tune
 4164:014A       L__INCLine__DisResUtilities
 4CAF:0017       L__IOCheck__M_PGPIB
 0A1F:0C42       L__IdentPkt0__G_Oblot
 0A1F:0C56       L__IdentPkt1__G_Oblot
 0A1F:0C6A       L__IdentPkt2__G_Oblot
 30CA:0A11       L__Idx2Str__GList
 419D:0A31       L__IleEventow__PiszEventy
 2DB1:0242       L__Ile__Obloty
 52C9:16E7       L__InZoneAnalyse__G_CntProcedur
 0253:093F       L__IncADFFch__Tune
 0D5B:189B       L__IncRound__SpecConv
 2006:00BB       L__InfoBeep__GrafUtil
 2006:0003       L__Info__GrafUtil
 227F:0072       L__Info__MsgBox
 43F9:0947       L__IniDataOrbit__G_DAcquizition
 43F9:095F       L__IniDataRadial__G_DAcquizitio
 2029:1D91       L__IniData__G_Odb
 4E81:1392       L__IniSkale__L_Slupek
 3F99:053E       L__IniSkale__PI_ScrUtility
 2AE4:082D       L__Inicjacja__GPS_TRIMBLE
 29C4:0DCE       L__Inicjacja__GPS_nov
 4DED:0636       L__InicjujOpisStanuLuku__Marks
 5120:03D2       L__InitA__Print
 5120:0EC8       L__InitAll__Print
 5120:0821       L__InitB__Print
 0042:176C       L__InitC__MANAGER
 23FC:024F       L__InitCont2Filters__FIltr1St
 23FC:0598       L__InitContBCoun__FIltr1St
 23FC:050E       L__InitContB__FIltr1St
 23FC:00A2       L__InitCont__FIltr1St
 0EFB:02B3       L__InitFlagErr__FlagAnal
 2DB1:1A87       L__InitListaUrzadzen__Obloty
 0A1F:2B76       L__InitLot__G_Oblot
 23FC:0712       L__InitMemFIntContiner__FIltr1S
 23FC:0689       L__InitMemFiltr__FIltr1St
 03BB:17B0       L__InitPilotEventId__ScannerI
 18EE:007A       L__InitPomiar__PI_Pomiar
 13A2:03EF       L__InitPomiar__Pomiar
 4FD9:11C0       L__InitPort__DrawEpson
 0042:1782       L__InitS__MANAGER
 0559:0098       L__InitSignalDsc__CommonTypes
 0FA0:0123       L__InitSignalDsc__L_CommonTypes
 4E81:0BA0       L__InitSlupek__L_Slupek
 056C:05DD       L__InitTeoEventId__TheodolitRea
 3F99:04D9       L__Init_ScrUtility__PI_ScrUtili
 42C1:0B6F       L__Init__G_results
 14FE:1D6D       L__Init__Screen
 49BD:01B0       L__Init__Semafory
 0559:00B7       L__Init_flgTab__CommonTypes
 2F79:0AC3       L__InsertEvent__BezPrzerwanOdMy
 2F79:0AC3       L__InsertEvent__MMMouse
 571F:0096       L__Insert__Strings
 08E4:0F4E       L__InspekcjaEP__G_Inspekcja
 2DB1:1042       L__InspekcjeNowyWpis__Obloty
 1AAB:0256       L__InstEpilogueHnd__Monitor__So
 1AAB:0256       L__InstEpilogueHnd__SoftIntHand
 1AAB:009A       L__InstPrologueHnd__Monitor__So
 1AAB:009A       L__InstPrologueHnd__SoftIntHand
 5750:0000       L__InstallDynMem__DynMem
 5840:006A       L__InstallHandler__Devices
 56B5:0000       L__InstallHandler__RTSDevice
 1A4F:03A3       L__InstallHeap__Storage
 5630:007B       L__InstallInitProc__RTSMain
 0042:1815       L__InstallTermProc__MANAGER
 5630:0001       L__InstallTermProc__RTSMain
 0D5B:0A8D       L__Int1000Str__SpecConv
 0D5B:0535       L__Int100StrCalk__SpecConv
 0D5B:0411       L__Int100Str__SpecConv
 0D5B:025D       L__Int10Str__SpecConv
 0D5B:1948       L__Int2Card__SpecConv
 3C47:1F64       L__Int2Real__Wykres
 0D5B:165C       L__Int2StrCntr__SpecConv
 0D5B:01ED       L__Int2Str__SpecConv
 0D5B:078F       L__Int500Str__SpecConv
 57C1:01B9       L__IntToString__NumberConversio
 1FE7:0058       L__Intersection__GrafTypes
 37A2:0593       L__InvertW__Graphics
 37A2:0593       L__InvertW__InternalMonitor__Gr
 4FD9:120D       L__IsAborted__DrawEpson
 3340:17AC       L__IsBusy__Dialog
 4FD9:0322       L__IsDrawn__DrawEpson
 1FE7:014B       L__IsEqual__GrafTypes
 2F79:018A       L__IsHidden__MMMouse
 1FE7:0002       L__IsIntersect__GrafTypes
 3EBE:0039       L__IsValid__XMSTable
 52C9:1853       L__KapaFun1__G_CntProcedures
 52C9:18CF       L__KapaFun2__G_CntProcedures
 52C9:193E       L__KapaFun3__G_CntProcedures
 52C9:19BA       L__KapaFunDumm__G_CntProcedures
 2DB1:0A4B       L__KasujPodkartoteke__Obloty
 2DB1:068A       L__Kasuj__Obloty
 2475:0AEF       L__Kat2Geo__GeoArithmetic
 0A1F:07F4       L__KatSciezki_A__G_Oblot
 0A1F:0813       L__KatSciezki_B__G_Oblot
 0A1F:0832       L__KatSciezki_Szer_pA_A__G_Oblo
 0A1F:0851       L__KatSciezki_Szer_pA_B__G_Oblo
 0A1F:0870       L__KatSciezki_Waski_pA_A__G_Obl
 0A1F:088F       L__KatSciezki_Waski_pA_B__G_Obl
 1BD7:03F9       L__KbdAck__Messages
 1BD7:0405       L__KbdDsp__Messages
 2D37:05B8       L__KbdScan__ShortCuts
 58D2:0002       L__KeyPressed__Keyboard
 2D37:0002       L__KeyPressed__ShortCuts
 5771:00D7       L__KeyPressed__Termbase
 58E9:0002       L__KeyPressed__Terminal
 2D37:0002       L__KeyPressed__monitor__ShortCu
 34D6:03DC       L__Key__InpLine
 30CA:18E1       L__KillContents__GList
 34D6:07C4       L__KillFocus__InpLine
 3340:0E94       L__KlawiszShiftTab__Dialog
 3340:0D8A       L__KlawiszSpacji__Dialog
 3340:0E12       L__KlawiszTab__Dialog
 29C4:014D       L__KopijZnakZTeo__GPS_nov
 2DB1:15DB       L__KopiujInspekcje__Obloty
 2DB1:13F8       L__KopiujPodkartoteke__Obloty
 1082:19D4       L__KopiujWszystkiePliki__Files
 07BA:099C       L__KopiujWszystkiePliki__G_File
 1082:016F       L__Kopiuj__Files
 14FE:0F7E       L__KursorLewoBP__Dialog__Screen
 14FE:0BC1       L__KursorLewoButton__Dialog__Sc
 14FE:0D49       L__KursorOnOffBP__Dialog__Scree
 14FE:0F54       L__KursorPrawoBP__Dialog__Scree
 14FE:0BDA       L__KursorPrawoPar__Dialog__Scre
 133F:008D       L__LOCAzErr__G_CP_ControlProc
 133F:0057       L__LOCDevErr__G_CP_ControlProc
 22ED:06B0       L__LOC_Default__NAVGPIB
 0FBC:0A9F       L__L_LstPToBeTraced__ILS_ZoneMn
 0FBC:0AC1       L__L_LstZToBeTraced__ILS_ZoneMn
 2C92:0389       L__Length__FIO
 571F:0000       L__Length__Strings
 3C47:1F01       L__LessCard__Wykres
 3C47:1EE5       L__LessInt__Wykres
 30CA:0B6F       L__LiczbaElementow__GList
 58A6:0194       L__LightPenOff__Mouse
 58A6:0188       L__LightPenOn__Mouse
 1E78:0B20       L__LineS__HiLevGraf
 1E78:1234       L__LineTo__HiLevGraf
 4FD9:06FE       L__Line__DrawEpson
 1E78:0AF4       L__Line__HiLevGraf
 1082:1BE4       L__LoadAResult__Files
 1E78:03A5       L__LoadDIB__HiLevGraf
 1082:0CB2       L__LoadData__Files
 07BA:0552       L__LoadData__G_Files
 1921:0002       L__LoadData__PI_ArchDate
 3EF4:0519       L__LoadDistEvents__EventsMng
 03BB:1725       L__LocationsTogether__ScannerI
 57C1:01FE       L__LongIntToString__NumberConve
 4D9C:0002       L__LookupM__Kl_FGenerators
 25DE:0F88       L__Lookup__Kalibracja
 5828:00E6       L__LowNibble__BitByteOps
 22ED:096C       L__MKR_Default__NAVGPIB
 4538:4448       L__MakeRaport__G_Print
 37A2:000B       L__MaxHor__Graphics
 37A2:0014       L__MaxVer__Graphics
 4FD9:00E9       L__MaxX__DrawEpson
 4FD9:00F8       L__MaxY__DrawEpson
 5120:01C3       L__MaxY__Print
 23FC:06B5       L__MemFiltrInt__FIltr1St
 23FC:0607       L__MemFiltr__FIltr1St
 0EFB:0513       L__MinPoczKonDis__FlagAnal
 0EFB:044F       L__MinPoczKonSig__FlagAnal
 2C92:0510       L__MkDir__FIO
 4A03:1B99       L__MkrALengthConClear__ILS_Eval
 4A03:1CD0       L__MkrLength_Count__ILS_EvalPro
 4A03:1A78       L__MkrLnth_AddSmpl__ILS_EvalPro
 4A03:1B70       L__MkrLnth_Clear__ILS_EvalProce
 4FD9:11A6       L__Mnoznik__DrawEpson
 2029:0164       L__ModG_CP__G_Odb
 4E81:03C3       L__ModL_SWP__L_Slupek
 3262:07E1       L__MouseHandler__Buttons
 2F79:1031       L__MouseLoop__MMMouse
 38B5:008B       L__MoveExtMemBlock__XMS
 1FE7:0100       L__MoveRect__GrafTypes
 1E78:121A       L__MoveTo__HiLevGraf
 0D5B:1782       L__Mul__SpecConv
 023B:0029       L__MyErrorHand__ErrorMess
 4E81:01F5       L__NapiszSygnaly__L_Slupek
 3F99:04CC       L__NapiszSygnaly__PI_ScrUtility
 2029:2262       L__NastStrefa__G_Odb
 4538:0648       L__NazwaProcedury__G_Print
 3EF4:0252       L__NewConsoleEvent__EventsMng
 03BB:155E       L__NewDataAvailable__ScannerI
 3EF4:0037       L__NewEvent__EventsMng
 1BD7:010B       L__NewMessage__Messages
 1B0B:0940       L__NewMetronome__Timer
 3EF4:01CF       L__NewPilotEvent__EventsMng
 3EF4:014C       L__NewTeoEvent__EventsMng
 1B0B:0A94       L__NewWatchdog__Timer
 056C:0ECB       L__NicNieRob__TheodolitRead
 3262:0B27       L__Nic__Buttons
 3A20:21D7       L__NilProc__DataCollect
 3FFE:0695       L__Nil__Slupek
 1E78:10F4       L__NoClip__HiLevGraf
 5839:0032       L__NoSound__Sounds
 3FFE:065C       L__Nothing__Slupek
 0042:0A58       L__Notify__MANAGER
 0042:0A58       L__Notify__Scheduler__MANAGER
 365E:0E6A       L__NoweCzesciOkregu__Polozenie
 08E4:0D91       L__NowyOblot__G_Inspekcja
 57C1:028D       L__NumToString__NumberConversio
 2029:17BC       L__Oblicz__G_Odb
 08E4:0DF8       L__OblotOK__G_Inspekcja
 5585:037E       L__Odn__PrintCntroll
 2029:09DA       L__Ofset_CP__G_Odb
 5585:0232       L__OkP__PrintCntroll
 25DE:0E16       L__OmnibearingV__Kalibracja
 1082:27A8       L__OpenCommSigFName__Files
 07BA:0B92       L__OpenFileRes__G_Files
 1082:0638       L__OpenFiles__Files
 07BA:0248       L__OpenFiles__G_Files
 1082:1096       L__OpenSignalFiles__Files
 07BA:07EC       L__OpenSignalFiles__G_Files
 4FD9:0670       L__Open__DrawEpson
 2C92:0002       L__Open__FIO
 3C47:1330       L__OpisLog__Wykres
 1936:0887       L__OpisLotniska__L_DataBase
 5120:0CF3       L__Opis__Print
 3C47:0B0C       L__Opis__Wykres
 4FD9:03D3       L__Out__DrawEpson
 227F:05C9       L__P0__MsgBox
 227F:05EA       L__P1__MsgBox
 5585:03D5       L__P1__PrintCntroll
 227F:060B       L__P2__MsgBox
 5585:03F6       L__P2__PrintCntroll
 227F:062C       L__P3__MsgBox
 1879:00C0       L__PWyjscieZProgramuBP__MouseMo
 1879:014D       L__PageDownBP__MouseMonitor__PI
 1879:00EF       L__PageUpBP__MouseMonitor__PI_A
 419D:0D6B       L__PiszNaDrukarce__PiszEventy
 419D:0B99       L__PiszNaEkranie__PiszEventy
 0A1F:0CBE       L__PlayP__G_Oblot
 3947:02E6       L__PodajFormat__CocpDsp
 4FD9:01C6       L__Point__DrawEpson
 1E78:117A       L__Point__HiLevGraf
 5120:0CBF       L__Point__Print
 35A8:0545       L__PokazKatyLotu__Mapa
 3C47:09B4       L__PokazWykres1__Wykres
 3C47:1B1F       L__PokazWykresNSLog__Wykres
 3C47:14E2       L__PokazWykresNS__Wykres
 3C47:256B       L__PokazWykresZXms__Wykres
 3C47:0758       L__PokazWykres__Wykres
 0A1F:0A9E       L__Pokrycie_8_st_L_A__G_Oblot
 0A1F:0ABD       L__Pokrycie_8_st_L_B__G_Oblot
 0A1F:0A60       L__Pokrycie_8_st_P_A__G_Oblot
 0A1F:0A7F       L__Pokrycie_8_st_P_B__G_Oblot
 0A1F:0A22       L__Pokrycie_w_osi_A__G_Oblot
 0A1F:0A41       L__Pokrycie_w_osi_B__G_Oblot
 43F9:0002       L__PolV__G_DAcquizition
 13A2:01F6       L__PolaryzacjaBP__Pomiar
 13A2:0EC2       L__PomiarEP__Pomiar
 0A1F:1251       L__PomiarP__G_Oblot
 2029:0FC6       L__PoprawDane__G_Odb
 571F:0188       L__Pos__Strings
 3262:0AE2       L__PressRadio__Buttons
 5120:1998       L__PrintScreenProc__Print
 0042:1629       L__PriorityDecrease__MANAGER
 08E4:043D       L__ProbujWstawicOblot__G_Inspek
 52C9:02A2       L__ProfBComm_CP__G_CntProcedure
 35A8:06B6       L__Promienie__Mapa
 365E:1084       L__Promienie__Polozenie
 0FA0:0029       L__PrvNumPunktu__L_CommonTypes
 1879:011E       L__PrzelaczPomiaryBP__MouseMoni
 13A2:013E       L__PrzelaczPomiaryBP__Pomiar
 3EBE:0142       L__PutElem__XMSTable
 2D37:003B       L__PutKeyStrokeIntoBuffer__Shor
 2D37:003B       L__PutKeyStrokeIntoBuffer__moni
 38B5:0011       L__QueryFreeExtMem__XMS
 0D5B:0C58       L__RAngle100__SpecConv
 30CA:0E9F       L__RChoose__GList
 30CA:0D8F       L__RScrollDn__GList
 30CA:0C76       L__RScrollUp__GList
 133F:0002       L__Radial__G_CP_ControlProc
 3340:02EB       L__RadioBProc__Dialog
 4C6D:01A8       L__RandomCard__Random
 4C6D:00DE       L__RandomInit__Random
 4C6D:0245       L__RandomInt__Random
 4C6D:026A       L__RandomReal__Random
 4C6D:0385       L__Randomize__Random
 0A1F:0CDE       L__RaportKoncowy__G_Oblot
 0A1F:0C9E       L__Raport_PROC__G_Oblot
 2D37:0104       L__Rd__ShortCuts
 2D37:0104       L__Rd__monitor__ShortCuts
 4D04:00BF       L__ReInitialize__ARINC
 58E9:010A       L__ReadAgain__Terminal
 1082:1729       L__ReadAllSignals__Files
 07BA:0887       L__ReadAllSignals__G_Files
 1082:2833       L__ReadCommSigFName__Files
 4D04:051B       L__ReadConfiguration__ARINC
 1082:0240       L__ReadDef__Files
 2C92:0346       L__ReadExt__FIO
 1082:16EA       L__ReadFlgs__Files
 58A6:013E       L__ReadMotionCounters__Mouse
 2553:063C       L__ReadOmniber__DGH_utils
 4D04:079E       L__ReadRXSlot__ARINC
 28C0:007D       L__ReadString__DigiRS
 58E9:0089       L__ReadString__Terminal
 4D04:0637       L__ReadTXSlot__ARINC
 2553:04A8       L__ReadValue__DGH_utils
 1082:1685       L__ReadXref__Files
 0676:001A       L__Read_Nic__GPSRead
 0676:002D       L__Read_Nov__GPSRead
 0676:0177       L__Read_Trimble__GPSRead
 2C92:0301       L__Read__FIO
 58D2:0033       L__Read__Keyboard
 2D37:008B       L__Read__ShortCuts
 5771:0088       L__Read__Termbase
 58E9:000E       L__Read__Terminal
 2D37:008B       L__Read__monitor__ShortCuts
 0A1F:1546       L__RealCisnValid__G_Oblot
 28F2:06AC       L__RealToString__RealConversion
 0042:17E6       L__RecoveryTime__MANAGER
 43F9:0709       L__RedrawMarksReq__G_DAcquiziti
 3A20:004E       L__RedrawReq__DataCollect
 43F9:06BA       L__RedrawReq__G_DAcquizition
 3A20:004E       L__RedrawReq__tablice__DataColl
 3340:17EF       L__Redraw__Dialog
 14FE:03CA       L__RegionWyk1Button__Dialog__Sc
 14FE:037F       L__RegionWyk1Event__Dialog__Scr
 14FE:0464       L__RegionWyk2Button__Dialog__Sc
 14FE:0419       L__RegionWyk2Event__Dialog__Scr
 14FE:04FE       L__RegionWyk3Button__Dialog__Sc
 14FE:04B3       L__RegionWyk3Event__Dialog__Scr
 14FE:0323       L__RegionWykGButton__Dialog__Sc
 14FE:02D8       L__RegionWykGEvent__Dialog__Scr
 2F79:019E       L__RegisterRegion__MMMouse
 49BD:0120       L__Register__Semafory
 0042:1798       L__Release__MANAGER
 1A4F:0422       L__RemoveHeap__Storage
 0042:188B       L__RemoveTermProc__MANAGER
 2C92:0614       L__Rename__FIO
 3A20:2002       L__ResetDataCollect__DataCollec
 3A20:1A69       L__ResetMarks_A__DataCollect
 3A20:1A86       L__ResetMarks_D__DataCollect
 1B0B:09B7       L__ResetMetronome__Timer
 38B5:00B2       L__ResizeExtMemBlock__XMS
 13A2:0104       L__RestartBP__Pomiar
 43F9:011B       L__Restart__G_DAcquizition
 43F9:011B       L__Restart__Monitor__G_DAcquizi
 1AAB:0041       L__RestoreEventHandler__SoftInt
 5840:004D       L__RestoreInterruptVector__Devi
 56B5:00FB       L__RestoreInterruptVector__RTSD
 1B0B:08B3       L__RestoreTimer__Monitor__Timer
 2C92:056C       L__RmDir__FIO
 0A1F:0968       L__RownowagaModulacji_A__G_Oblo
 0A1F:0987       L__RownowagaModulacji_B__G_Oblo
 365E:0E09       L__RresetCzesciOkregu__Polozeni
 0042:0892       L__SEND__MANAGER
 0042:0892       L__SEND__Scheduler__MANAGER
 03BB:0F36       L__SIMDATA__ScannerI
 4E81:06F7       L__SS_SWP__L_Slupek
 0042:137C       L__STARTPROCESS__MANAGER
 3A20:1867       L__Samp2Dis__DataCollect
 3A20:1867       L__Samp2Dis__tablice__DataColle
 3A20:1968       L__Samp2Kat__DataCollect
 3A20:1968       L__Samp2Kat__tablice__DataColle
 3A20:0002       L__SampleNr__DataCollect
 3A20:0002       L__SampleNr__tablice__DataColle
 1082:1D15       L__SaveAResult__Files
 42C1:001A       L__SaveAnRes__G_results
 1082:09FD       L__SaveData__Files
 07BA:02EA       L__SaveData__G_Files
 3EF4:04AA       L__SaveDistEvents__EventsMng
 5840:002C       L__SaveInterruptVector__Devices
 56B5:00F6       L__SaveInterruptVector__RTSDevi
 25DE:2A2F       L__SaveSegmentTables__Kalibracj
 0A1F:2C6E       L__SciezkaDoKataloguOpisu__G_Ob
 14FE:35A5       L__ScreenStart__Screen
 2C92:026A       L__Seek__FIO
 4DED:0806       L__SegZakonczony__Marks
 34D6:0B2F       L__SetActive__InpLine
 1D70:02BB       L__SetAnalogVal__DGHInterface
 37A2:0136       L__SetBank__Graphics
 37A2:0136       L__SetBank__InternalMonitor__Gr
 28C0:018F       L__SetBaudRate__DigiRS
 1D70:0392       L__SetBinaryVal__DGHInterface
 5828:0018       L__SetBits__BitByteOps
 14FE:190A       L__SetButtons__Screen
 0253:0998       L__SetCPFlags__Tune
 30CA:1860       L__SetContents__GList
 58A6:005A       L__SetCursorPos__Mouse
 34D6:09E5       L__SetCursor__InpLine
 0F69:021B       L__SetDate__Czas
 5840:0018       L__SetDeviceStatus__Devices
 56B5:00BE       L__SetDeviceStatus__RTSDevice
 4FD9:1193       L__SetDir__DrawEpson
 03BB:14C3       L__SetEvalPROC__ScannerI
 58A6:0157       L__SetEventHandler__Mouse
 1AAB:0002       L__SetEventHandler__SoftIntHand
 4FD9:085C       L__SetFont__DrawEpson
 58A6:00FA       L__SetGraphicCursor__Mouse
 58A6:00D2       L__SetHorizontalLimits__Mouse
 3947:058F       L__SetIdleMsg__CocpDsp
 0FBC:0AF1       L__SetLastPointToBeTraced__ILS_
 1E78:0AE1       L__SetLineStyle__HiLevGraf
 1D70:04A0       L__SetMessage__DGHInterface
 58A6:01A0       L__SetMickeysPerPixel__Mouse
 30CA:0002       L__SetNotificationProc__GList
 2F79:02C7       L__SetOnTop__MMMouse
 1E78:0182       L__SetPaletteEntry__HiLevGraf
 2F79:0780       L__SetParent__MMMouse
 4A03:2630       L__SetPathAngle__ILS_EvalProced
 23BB:0012       L__SetPressure__AltInterface
 56B5:011F       L__SetPrioMask__RTSDevice
 30CA:1754       L__SetSelectionNotf__GList
 30CA:1772       L__SetSelection__GList
 58A6:01CE       L__SetSpeedThreshold__Mouse
 58A6:0127       L__SetTextCursor__Mouse
 4FD9:0849       L__SetTextMode__DrawEpson
 34D6:02C9       L__SetText__InpLine
 0F69:01DA       L__SetTime__Czas
 58A6:00E6       L__SetVerticalLimits__Mouse
 37A2:0703       L__SetWindow__Graphics
 37A2:0703       L__SetWindow__InternalMonitor__
 393F:0002       L__Set__FCBS
 49BD:0002       L__Set__Semafory
 4E81:0125       L__ShowCursorDIB__L_Slupek
 3F99:0035       L__ShowCursorDIB__PI_ScrUtility
 2F79:0BB2       L__ShowCursor__BezWyszeregowani
 2F79:0BB2       L__ShowCursor__MMMouse
 58A6:001F       L__ShowCursor__Mouse
 1E78:0785       L__ShowDIB__HiLevGraf
 1BD7:0265       L__ShowFirst__Messages
 4E81:00D9       L__ShowScreenDIB__L_Slupek
 3F99:0002       L__ShowScreenDIB__PI_ScrUtility
 1082:246E       L__SigInterpolacja__Files
 2029:1D62       L__Sim_Alfa__G_Odb
 03BB:0ACE       L__Sim_Alfa__ScannerI
 2029:1CBE       L__Sim_Dis__G_Odb
 03BB:098F       L__Sim_Dis__ScannerI
 3EBE:0018       L__Size__XMSTable
 14FE:0E5D       L__SkalaMinusBP__Dialog__Screen
 14FE:0D66       L__SkalaPlusBP__Dialog__Screen
 2DB1:0B98       L__SkasujInspekcje__Obloty
 2DB1:078A       L__SkasujOblot__Obloty
 30CA:033D       L__SkasujWszystko__GList
 30CA:0387       L__Skasuj__GList
 30CA:1698       L__Sortowana__GList
 5839:0002       L__Sound__Sounds
 0318:037A       L__Sprawdz__PI_Qcheck
 29A5:018D       L__Sqr__Math
 13A2:00F4       L__StartBP__Pomiar
 133F:034C       L__StartCPLoop__G_CP_ControlPro
 2DB1:171F       L__StartInspection__Obloty
 35A8:0951       L__StartProcess__Mapa
 35A8:0951       L__StartProcess__monitor__Mapa
 1B0B:0AE2       L__StartProtectedOperation__Tim
 0042:17CC       L__StartTimeSlicing__MANAGER
 365E:08FE       L__Start_Polozenie__Polozenie
 43F9:0977       L__Start__G_DAcquizition
 2029:1C4E       L__Start__G_Odb
 03BB:1588       L__Start__ScannerI
 13A2:012E       L__StopBP__Pomiar
 133F:0509       L__StopCPLoop__G_CP_ControlProc
 1B0B:0B56       L__StopProtectedOperation__Time
 365E:0DD7       L__Stop_Polozenie__Polozenie
 43F9:00BD       L__Stop__G_DAcquizition
 43F9:00BD       L__Stop__Monitor__G_DAcquizitio
 03BB:1783       L__Stop__ScannerI
 57C1:0522       L__StringToCard__NumberConversi
 57C1:04BA       L__StringToInt__NumberConversio
 57C1:0587       L__StringToLongInt__NumberConve
 57C1:05B5       L__StringToNum__NumberConversio
 28F2:0052       L__StringToReal__RealConversion
 0D5B:0F4F       L__SubAng360__SpecConv
 0D5B:0DA7       L__SubAngle100__SpecConv
 0D5B:180D       L__SubDis__SpecConv
 0D5B:10B3       L__SubNormal__SpecConv
 0D5B:18A9       L__SubWCheck__SpecConv
 0D5B:17DA       L__Sub__SpecConv
 1082:1F1C       L__SubstituteAngle100__Files
 0FA0:0002       L__SuccNumPunktu__L_CommonTypes
 0FA0:0050       L__SuccNumStrefy__L_CommonTypes
 0EFB:05D7       L__SumaDlugosciSig__FlagAnal
 5828:00F4       L__Swap__BitByteOps
 3781:0002       L__SwitchTo__SwitchCntrl
 2DB1:051E       L__SzczegolowyPlikOpisu__Obloty
 0A1F:065D       L__SzerSektora_pA_A_D__G_Oblot
 0A1F:0638       L__SzerSektora_pA_A_G__G_Oblot
 0A1F:06A7       L__SzerSektora_pA_B_D__G_Oblot
 0A1F:0682       L__SzerSektora_pA_B_G__G_Oblot
 0A1F:0EBE       L__Szer_Sekt__G_Oblot
 0A1F:08AE       L__Szer_i_Osi_pB_A__G_Oblot
 0A1F:08CD       L__Szer_i_Osi_pB_B__G_Oblot
 1B0B:092C       L__TInOneSecond__Timer
 0223:009C       L__TerminalProcedure__DOSEntry
 5630:068A       L__Terminate__RTSMain
 0F69:02AF       L__Terminator__Czas
 3EF4:087E       L__Terminator__EventsMng
 2C92:08BA       L__Terminator__FIO
 37A2:1059       L__Terminator__Graphics
 0042:1973       L__Terminator__MANAGER
 2F79:133C       L__Terminator__MMMouse
 1A4F:051E       L__Terminator__Storage
 38CC:02F4       L__Terminator__XMSService
 0A1F:0C7E       L__TestUP_PROC__G_Oblot
 056C:01B7       L__TheodolitView__TheodolitRead
 0FBC:0084       L__TraceZoneCont_Clear__ILS_Zon
 0FBC:00E1       L__TraceZone__ILS_ZoneMngmnt
 37A2:001D       L__Tryb__Graphics
 0253:014C       L__TuneADF__Tune
 0253:061B       L__TuneDMEforILS__Tune
 0253:05D9       L__TuneDMEforVOR__Tune
 0253:0409       L__TuneILS__Tune
 0253:065D       L__TuneVOR__Tune
 2553:0432       L__TurnOffADFSig__DGH_utils
 0253:009C       L__TurnOffADF__Tune
 2553:0366       L__TurnOffDMESig__DGH_utils
 2553:0002       L__TurnOffILSSig__DGH_utils
 2553:027A       L__TurnOffVORSig__DGH_utils
 0253:00F4       L__TurnOffVOR_ILS__Tune
 1D70:00A0       L__TurnOff__DGHInterface
 2553:03E4       L__TurnOnADFSig__DGH_utils
 2553:02E8       L__TurnOnDMESig__DGH_utils
 2553:016E       L__TurnOnGSSig__DGH_utils
 2553:00D0       L__TurnOnLOCSig__DGH_utils
 2553:020C       L__TurnOnVORSig__DGH_utils
 1D70:00F2       L__TurnOn__DGHInterface
 2029:17E0       L__TurnOn__G_Odb
 3340:0663       L__TworzDialog__Dialog
 419D:0A53       L__TworzEventy__PiszEventy
 30CA:0028       L__TworzListe__GList
 5771:0127       L__UnAssignRead__Termbase
 5771:023E       L__UnAssignWrite__Termbase
 1AAB:0517       L__UnInstallAllHandlers__Monito
 1AAB:03FA       L__UnInstallHandler__Monitor__S
 1AAB:03FA       L__UnInstallHandler__SoftIntHan
 5840:0080       L__UninstallHandler__Devices
 56B5:0058       L__UninstallHandler__RTSDevice
 3262:0790       L__UniversalKBD__Buttons
 3F99:0113       L__UniversalSAF__PI_ScrUtility
 3F99:0163       L__UniversalSBF__PI_ScrUtility
 2F79:03E9       L__UnregisterRegion__MMMouse
 49BD:01FC       L__Unregister__Semafory
 4E81:0163       L__UnverslVal__L_Slupek
 3A20:2171       L__UpdTab800__DataCollect
 365E:0C2C       L__UpdateM__Polozenie
 43F9:0736       L__UpdateMarksOrbit__G_DAcquizi
 43F9:07D0       L__UpdateMarksRadial__G_DAcquiz
 3F99:03FE       L__UpdateSlupki__PI_ScrUtility
 3EF4:060A       L__UpdateStrefa__EventsMng
 14FE:34A4       L__Update__Screen
 3FFE:058F       L__Update__Slupek
 5585:0417       L__UstalSkalowanie__PrintCntrol
 3947:0002       L__UstawFormat__CocpDsp
 2DB1:01EB       L__UstawHomeDir__Obloty
 23FC:0082       L__UstawOkresImpulsowania__FIlt
 3947:0315       L__UstawZmienne__CocpDsp
 3340:0B28       L__UsunDialog__Dialog
 30CA:04C1       L__UsunListe__GList
 08E4:03D6       L__UsunOblotP__G_Inspekcja
 08E4:033B       L__UsunOblot__G_Inspekcja
 0253:08FF       L__VORDecFch__Tune
 0253:08B9       L__VORIncFch__Tune
 22ED:04FA       L__VOR_Default__NAVGPIB
 5585:0248       L__ValidPodz__PrintCntroll
 0A1F:0DE5       L__ValidReal__G_Oblot
 0A1F:0CFE       L__View_PROC__G_Oblot
 0042:0BEF       L__WAITC__MANAGER
 0042:0BEF       L__WAITC__Scheduler__MANAGER
 0042:0AFD       L__WAITS__MANAGER
 0042:0AFD       L__WAITS__Scheduler__MANAGER
 1B0B:0309       L__WaitBefProtOper__Monitor__Ti
 1B0B:0309       L__WaitBefProtOper__Timer
 1D70:005A       L__WaitForNewData__DGHInterface
 1B0B:03B8       L__WaitMetronomeBefProtOper__Mo
 1B0B:03B8       L__WaitMetronomeBefProtOper__Ti
 1B0B:043F       L__WaitMetronome__Monitor__Time
 1B0B:043F       L__WaitMetronome__Timer
 1B0B:0277       L__Wait__Monitor__Timer
 1B0B:0277       L__Wait__Timer
 227F:0017       L__Warn__MsgBox
 3947:0C01       L__WatchDogProcess__CocpDsp
 0676:0309       L__WatchDog__GPSRead
 056C:0DF1       L__WatchDog__TheodolitRead
 3794:0069       L__WorseBGreater__WorseBecause
 3794:003E       L__WorseBLessDis__WorseBecause
 3794:0002       L__WorseBLess__WorseBecause
 1E78:144C       L__Wr2StrXY__HiLevGraf
 1E78:1504       L__Wr2fStrXY__HiLevGraf
 4164:02AF       L__WrF_TablicaOdci__DisResUtili
 5120:1799       L__WrF_TablicaOdci__Print
 4164:0170       L__WrFlagsTableWHeading__DisRes
 5120:15A6       L__WrFlagsTableWHeading__Print
 4164:023C       L__WrFlagsTable__DisResUtilitie
 5120:16BA       L__WrFlagsTable__Print
 5120:0360       L__WrLn__Print
 5120:0390       L__WrPrnLn__Print
 5120:02A2       L__WrPrn__Print
 4FD9:1253       L__WrProc__DrawEpson
 4164:00F4       L__WrSPlus__DisResUtilities
 4164:00BE       L__WrS__DisResUtilities
 4E81:00BE       L__WrStrXYDummy__L_Slupek
 1E78:138A       L__WrStrXY__HiLevGraf
 1E78:12D2       L__WrStr__HiLevGraf
 5120:0232       L__Wr__Print
 4D04:04B2       L__WriteCardMode__ARINC
 07BA:0D0F       L__WriteFileRes__G_Files
 4D04:03F4       L__WriteKillTime__ARINC
 58E9:012C       L__WriteLn__Terminal
 2B74:06C6       L__WritePrivateProfileString__I
 28C0:00F3       L__WriteString__DigiRS
 58E9:013B       L__WriteString__Terminal
 4D04:0173       L__WriteTXChannel__ARINC
 4D04:026F       L__WriteTXData__ARINC
 4D04:01F1       L__WriteTXLabel__ARINC
 4D04:00FF       L__WriteTXParity__ARINC
 4D04:032A       L__WriteTXRate__ARINC
 4164:000A       L__WriteTab__DisResUtilities
 406D:0329       L__WriteTab__G_DisResults
 0F69:0128       L__WriteTime__Czas
 5959:0002       L__Write__Display
 2C92:02BC       L__Write__FIO
 5771:01F1       L__Write__Termbase
 58E9:011B       L__Write__Terminal
 1D70:0CCB       L__Writer__DGHInterface
 3340:002D       L__WstawButton__Dialog
 30CA:08C9       L__WstawDoListy__GList
 3340:03EC       L__WstawInpLine__Dialog
 3340:0518       L__WstawListe__Dialog
 3340:0156       L__WstawRadioButton__Dialog
 30CA:100F       L__Wybor__GList
 3F99:0305       L__WykSlup__PI_ScrUtility
 14FE:0B48       L__WykrEvent__Dialog__Screen
 3FFE:0002       L__WykresSlupkowy__Slupek
 2DB1:041D       L__WymInspekcjeDlaUrz__Obloty
 08E4:072E       L__WymienPasujaceObloty__G_Insp
 2DB1:04E4       L__WymienWszystkiePasujace__Obl
 5120:183C       L__WypiszStrefy__Print
 2029:1CA1       L__Wznow__G_Odb
 38B5:0000       L__XmsInstalled__XMS
 0A1F:09E4       L__Zabezpieczenie_A__G_Oblot
 0A1F:0A03       L__Zabezpieczenie_B__G_Oblot
 0A1F:0EA8       L__ZakonczDlg__G_Oblot
 0D5B:197A       L__ZaokraglicDo500__SpecConv
 1879:0091       L__ZapamietajBP__MouseMonitor__
 0A1F:30A5       L__Zapisz__G_Oblot
 2029:1C84       L__Zatrzymaj__G_Odb
 2DB1:06B2       L__ZmienISkasuj__Obloty
 30CA:0AC4       L__ZmienListe__GList
 08E4:0453       L__ZmienOblot__G_Inspekcja
 5120:12D3       L__ZnacznikiOdleglosci__Print
 2DB1:0FF8       L__ZnajdzInspekcje__Obloty
 0FBC:0567       L__ZoneAnalyse__ILS_ZoneMngmnt
 0FBC:0910       L__ZoneBDisIdx_Init__ILS_ZoneMn
 0FBC:0191       L__ZoneConClear__ILS_ZoneMngmnt
 37A2:0CF3       L___Wr16StrXY__Graphics
 37A2:0CF3       L___Wr16StrXY__InternalMonitor_
 37A2:0DC9       L___Wr2StrXY__Graphics
 37A2:0DC9       L___Wr2StrXY__InternalMonitor__
 37A2:0F13       L___Wr2fStrXY__Graphics
 37A2:0F13       L___Wr2fStrXY__InternalMonitor_
 37A2:08E1       L___WrStrXY__Graphics
 37A2:08E1       L___WrStrXY__InternalMonitor__G
 1082:1F61       L__addAngle100__Files
 1082:203F       L__addNormal__Files
 5963:04CA       L__arctan__MathLib0
 1AAB:0067       L__checkBreak__SoftIntHandlingM
 5963:03A5       L__cos__MathLib0
 0D5B:14EA       L__entierCheck__SpecConv
 5963:05BE       L__entier__MathLib0
 0D5B:15A6       L__entier__SpecConv
 5963:0098       L__exp__MathLib0
 29C4:109C       L__gpzdaOff__GPS_nov
 4CAF:009E       L__ieabort__M_PGPIB
 4CAF:00BE       L__iedevclr__M_PGPIB
 4CAF:01AA       L__iedevice__M_PGPIB
 4CAF:008D       L__ieenter__M_PGPIB
 4CAF:0188       L__ieentera__M_PGPIB
 4CAF:00AD       L__ieeol__M_PGPIB
 4CAF:006B       L__ieinit__M_PGPIB
 4CAF:00CF       L__iello__M_PGPIB
 4CAF:00DE       L__ielocal__M_PGPIB
 4CAF:0199       L__ieouta__M_PGPIB
 4CAF:007C       L__ieoutput__M_PGPIB
 4CAF:00EF       L__ieppoll__M_PGPIB
 4CAF:0100       L__ieppollc__M_PGPIB
 4CAF:0111       L__ieppollu__M_PGPIB
 4CAF:0122       L__ieremote__M_PGPIB
 4CAF:0133       L__iesend__M_PGPIB
 4CAF:0144       L__iespoll__M_PGPIB
 4CAF:0155       L__iestatus__M_PGPIB
 4CAF:0166       L__ietimout__M_PGPIB
 4CAF:0177       L__ietrig__M_PGPIB
 30CA:0B8E       L__kbHandler__GList
 5963:0209       L__ln__MathLib0
 5120:01DE       L__log__Print
 0223:0002       L__onEntryHandler__DOSEntry
 0223:004F       L__onExitHandler__DOSEntry
 5963:05AC       L__real__MathLib0
 5963:0251       L__sin__MathLib0
 1C22:1383       L__sprintf2__StdIO
 1C22:11F3       L__sprintf3__StdIO
 1C22:0D80       L__sprintf4__StdIO
 1C22:0F81       L__sprintf5__StdIO
 1C22:037B       L__sprintf__StdIO
 5963:002A       L__sqrt__MathLib0
 1082:1FCB       L__subNormal__Files
 5E65:0062       L_day__GPS_TRIMBLE
 5E65:0049       L_epe__GPS_TRIMBLE
 5E65:0066       L_hour__GPS_TRIMBLE
 5E65:0068       L_min__GPS_TRIMBLE
 5E65:0060       L_month__GPS_TRIMBLE
 5E65:006A       L_sec__GPS_TRIMBLE
 5E65:0064       L_year__GPS_TRIMBLE
 5AA4:0016       LastCreated__MANAGER
 5C60:0027       LastDTidx__Screen
 5E6D:507D       LastDir__Ini
 5C60:002E       LastEventIDX__Screen
 5AA4:021C       LastMask__MANAGER
 745B:0784       LastPosition__DrawEpson
 5C8D:000A       LastPosition__HiLevGraf
 6465:0004       LastX__MMMouse
 6465:0006       LastY__MMMouse
 5AF3:0013       Last_Diffmode__GPSRead
 5AF3:001C       Last_EPE__GPSRead
 5AF3:0003       Last_Gdop__GPSRead
 5AF3:0005       Last_NumberOfSattelites__GPSRea
 5AF3:0007       Last_polGeo__GPSRead
 5AF3:0014       Last_tog__GPSRead
 5CCF:039E       Line__NAVGPIB
 64A8:0000       ListaDlg__Dialog
 5C05:0011       ListaLokalizacjiBAK__G_Inspekcj
 5C05:000D       ListaLokalizacji__G_Inspekcja
 5C05:0009       ListaOblotowBAK__G_Inspekcja
 5C05:0005       ListaOblotow__G_Inspekcja
 64A6:0004       Lista__GList
 56CB:006F       Listen__RTSPriority
 5D18:0910       LocDev_delay__Kalibracja
 5D18:0920       LocPrcMod_delay__Kalibracja
 5620:0032       LongIntegerOvf__RTSError
 5AA4:000E       LongestProcess__MANAGER
 5C79:0000       Lotnisko__L_DataBase
 5630:0683       M2Halt__RTSMain
 5C89:0004       MDispl__Messages
 5C89:0000       MList__Messages
 6465:03F5       MSemafor__MMMouse
 64B1:011F       MarkerShapes__Polozenie
 745B:0786       Masks__DrawEpson
 5AA4:000A       MaxNumOfReady__MANAGER
 5AA4:0126       MaxRecTime__MANAGER
 5AA4:000C       MaxRunTime__MANAGER
 64B1:0008       MaxVal__Polozenie
 5C89:0008       MessageSound__Messages
 5D18:0960       MkrAgc_delay__Kalibracja
 745B:07A4       MnX__DrawEpson
 745B:07A6       MnY__DrawEpson
 5E6D:50E1       Modified__Ini
 56CB:0000       MonEntry__RTSPriority
 56CB:0043       MonExit__RTSPriority
 6465:0058       MonitoCheck__BezPrzerwanOdMyszy
 5A17:0036       MonitorExitProc__RTSMonExit
 6465:005A       MouseEvent__BezPrzerwanOdMyszy_
 64B1:011B       NCO__Polozenie
 5614:0000       NMIServer
 643F:00D5       NUrzadzDlaDopasuj__Obloty
 4E81:0865       N__Activate__InitSlupek__L_Slup
 13A2:0B92       N__AlfaRefInfo__PomiarEP__Pomia
 406D:096C       N__An_AnalizaDsc__DispResults__
 29C4:05E2       N__An_Frame_DOPA__GetFrame__GPS
 29C4:0A2D       N__An_Frame_GPGGA__GetFrame__GP
 29C4:0B25       N__An_Frame_GPVTG__GetFrame__GP
 29C4:0C2E       N__An_Frame_GPZDA__GetFrame__GP
 406D:0A24       N__An_MkrLength__An_OpisOsi__Di
 406D:0D89       N__An_OpisBadDod__DispResults__
 406D:0AB7       N__An_OpisOsi__DispResults__G_D
 406D:0E06       N__An_OpisPokrycia__DispResults
 406D:0C81       N__An_OpisProfilB__DispResults_
 406D:0BC4       N__An_OpisSektora__DispResults_
 406D:0DC5       N__An_OpisZabezpieczenie__DispR
 44A7:03FC       N__AnalizeMain__Do_Analiza__Ana
 44A7:01CE       N__AnalyseZoneLa__Do_Analiza__A
 056C:0107       N__Angle360__TheodolitView__The
 52C9:1DC5       N__AssignAz__CntProcedures_Epil
 0A1F:23BC       N__AssignButt__InitLot__G_Oblot
 52C9:15ED       N__AssignEvalProc__CntProcedure
 07BA:0E6A       N__AssignName__InitLocals__G_Fi
 43F9:0250       N__AssignPilotEvBlock__Acquire_
 056C:086F       N__AssignRes__Analizer__Theodol
 3C47:0B8B       N__AutoFormat__OpisLog__Wykres
 1C22:031F       N__BuildNumber__sprintf__StdIO
 2F79:08F0       N__Button2Ev__GetEvent__BezPrze
 1D70:06B0       N__CHKSRight__Reader__Writer__D
 0FBC:0448       N__CalculateDist__CheckMkr__Zon
 0FBC:0381       N__CheckDis__ZoneAnalyse__ILS_Z
 0FBC:02C7       N__CheckIfLost__ZoneAnalyse__IL
 4A03:1C45       N__CheckMkrFlgs__MkrLength_Coun
 4A03:1C15       N__CheckMkrState__MkrLength_Cou
 0FBC:048B       N__CheckMkr__ZoneAnalyse__ILS_Z
 0FBC:03F5       N__CheckPEv__ZoneAnalyse__ILS_Z
 44A7:03A2       N__CheckZone__AnalizeMain__Do_A
 4A03:13D6       N__Check__Clearence_Addsmpl__IL
 52C9:1063       N__ClearAllCont__CntProcedures_
 52C9:100E       N__ClearProcTable__CntProcedure
 0253:052E       N__ConvertFrqTOControlWord__Tun
 29C4:0193       N__ConvertHexChar__ReadGPS__Get
 29C4:0929       N__ConvertStrToWspGeo__GetWspGe
 056C:097D       N__CountCrc__Analizer__Theodoli
 35A8:0260       N__CountMaxDist__resolveSituati
 52C9:19CB       N__Count_ChiLoc__CntProcedures_
 52C9:1B27       N__Count_PhiLoc__CntProcedures_
 4A03:1FB6       N__Count__Bend_AddSample__ILS_E
 1B0B:057E       N__Count__IBMIntHandler__Monito
 14FE:0FD7       N__CurrCursorMode__RuszKursor__
 14FE:1236       N__CurrDistance__OpisDla__InitW
 0A1F:1948       N__CzytajParametry__FillData__I
 1936:0647       N__CzytajPolozenieGeo__OpisLotn
 1936:050C       N__CzytajPolozenieMarkerow__Opi
 1936:040F       N__CzytajPolozeniePunktowCharak
 0A1F:19BF       N__CzytajPrmtryABLP__FillData__
 0A1F:1B10       N__CzytajPrmtryAB__FillData__In
 13A2:0C3F       N__DataLosInfo__PomiarEP__Pomia
 3262:043F       N__Dec__DrawInter__Buttons
 14FE:1B5E       N__Define__InitSlupki__Screen
 29C4:0426       N__DekomozycjaRamki__GetFrame__
 13A2:0BD2       N__DeltaRefInfo__PomiarEP__Pomi
 13A2:0B16       N__DisposeButtons__Done__Pomiar
 14FE:3664       N__DisposeButtons__Done__Screen
 44A7:06E8       N__Do_Analiza__Analiza__L_Count
 44A7:061D       N__Do_StructAnalyse__Do_Analiza
 13A2:0B84       N__Done__PomiarEP__Pomiar
 14FE:20D1       N__DrawEvent__ShowMarks__Update
 2DB1:0DD3       N__ExistDIR__FreeSlot__Obloty
 3340:0F3F       N__Expand__Aktywizuj__Dialog
 52C9:1E7C       N__FillBound__InitCon__CntProce
 0A1F:1BCB       N__FillData__InitLot__G_Oblot
 3FFE:0317       N__FillR__Odswiez__Update__Slup
 03BB:1450       N__FindFree__SetEvalPROC__Scann
 03BB:13C4       N__FindIt__SetEvalPROC__Scanner
 365E:0120       N__FlipX__InitMarkers__Polozeni
 365E:005A       N__FlipY__InitMarkers__Polozeni
 29C4:0538       N__GetCardinal__GetFrame__GPS_n
 1936:0FCE       N__GetCardinal__LoadProgramPar_
 2D37:056C       N__GetChar__KbdScan__ShortCuts
 44A7:0123       N__GetEvent__Do_Analiza__Analiz
 13A2:0767       N__GetEvent__PomiarEP__Pomiar
 35A8:0151       N__GetGPS__resolveSituation__Ma
 29C4:058D       N__GetInteger__GetFrame__GPS_no
 056C:09A8       N__GetNum__Analizer__TheodolitR
 1C22:0022       N__GetNum__sprintf__StdIO
 29C4:04F0       N__GetReal__GetFrame__GPS_nov
 1936:02C9       N__GetStr__OpisLotniska__L_Data
 03BB:06AF       N__GetTeo__GetAndCountTEO__Scan
 29C4:09E3       N__GetWspGeo__An_Frame_GPGGA__G
 3C47:1FA0       N__GetX__PokazWykresZXms__Wykre
 3C47:1FC9       N__GetY__PokazWykresZXms__Wykre
 1D70:065C       N__HexDigit__CHKSRight__Reader_
 42C1:0A91       N__InitAnalizaDsc__Init__G_resu
 13A2:08A5       N__InitButtony__PomiarEP__Pomia
 52C9:1F84       N__InitCon__CntProcedures_Epilo
 0A1F:165C       N__InitDefault__InitLot__G_Oblo
 42C1:00CC       N__InitFlagErrForARec__Init__G_
 42C1:011D       N__InitMkrLength__Init__G_resul
 42C1:0956       N__Init_an_OpisBadDod__Init__G_
 42C1:0286       N__Init_an_OpisOsi__Init__G_res
 42C1:0A6C       N__Init_an_OpisPokrycia__Init__
 42C1:07AE       N__Init_an_OpisProfilB__Init__G
 42C1:05E0       N__Init_an_OpisSektora__Init__G
 42C1:09AE       N__Init_an_OpisZabezpieczenie__
 1C22:00C8       N__IntConv__sprintf__StdIO
 44A7:00F0       N__Interpolacja__Analiza__L_Cou
 29C4:06A2       N__Isolate__ConvertStrToWspGeo_
 2AE4:01D7       N__Isolate__ReadG__GetFrame__GP
 2DB1:09B5       N__KasujPlik__KasujPodkartoteke
 14FE:35AE       N__KasujSlupki__Done__Screen
 4538:1831       N__KatSciezki_P__Print__G_Print
 3262:0A36       N__KillButton__DisposeButton__B
 2D37:0691       N__Kill__DeleteShortCut__ShortC
 3FFE:02EE       N__Kolor__Update__Slupek
 2DB1:11EB       N__KopiujPlik__KopiujPodkartote
 365E:0A88       N__LL__DrawNCO__Polozenie
 3C47:1024       N__LineH__OpisLog__Wykres
 3C47:0C63       N__LineV__OpisLog__Wykres
 25DE:17D7       N__LoadChannel__LoadSegmentTabl
 25DE:15EC       N__LoadReal__LoadSegmentTables_
 25DE:1719       N__LoadSegment__LoadChannel__Lo
 25DE:1673       N__LoadTable__LoadSegmentTables
 25DE:14D4       N__LoadValue__LoadSegmentTables
 0FBC:020C       N__LookForNextPnt__ZoneAnalyse_
 25DE:09FA       N__Lookup__OmnibearingV__Kalibr
 4538:0B8B       N__LstZToBeTraced__OpisPomiaru_
 0A1F:2037       N__Make2__AssignButt__InitLot__
 0A1F:2102       N__Make3__AssignButt__InitLot__
 0A1F:2276       N__Make4__AssignButt__InitLot__
 14FE:2CA3       N__MarkDraw__WskazWykresy__Upda
 4538:0D57       N__MarkerLength__OpisPomiaru__G
 35A8:0696       N__Min__Promienie__Mapa
 14FE:2D80       N__NapiszGPSFlg__NapiszGPS__Upd
 14FE:2DE6       N__NapiszGPS__UpdateNapisy__Upd
 14FE:30F6       N__NapiszTEO__UpdateNapisy__Upd
 13A2:06EF       N__NastepnyStan__GetEvent__Pomi
 03BB:0E64       N__OdlegWgPredk__SIMDATA__Scann
 3FFE:036C       N__Odswiez__Update__Slupek
 18EE:0036       N__Ofset__InitPomiar__PI_Pomiar
 1E78:030F       N__OpenF__LoadDIB__HiLevGraf
 4538:1581       N__OpisBadDod_P__OpisPomiaru__G
 14FE:13D2       N__OpisDla__InitWykr__Dialog__S
 4538:0E8D       N__OpisOsiP__OpisPomiaru__G_Pri
 4538:13B7       N__OpisProfB_P__OpisPomiaru__G_
 4538:127E       N__OpisSektoraP__OpisPomiaru__G
 4538:1609       N__OpisZabezpieczenia_P__OpisPo
 4A03:210C       N__OutSide__Bend_AddSample__ILS
 2AE4:0509       N__PodstawWyniki__GetFrame__GPS
 4538:168E       N__Pokrycie_P__OpisPomiaru__G_P
 4538:38EA       N__Pokrycie__Print__G_Print
 13A2:05EF       N__PoprawnieUstawButtony__Pomia
 3947:077A       N__PozWskazowki__SetLOC_G_SCP__
 4538:09A1       N__PrintStdValues__OpisPomiaru_
 0A1F:2E5B       N__ProcIdentifier__Zapisz__G_Ob
 4538:2555       N__ProfB__Print__G_Print
 13A2:0C88       N__PrologAnalyse__PomiarEP__Pom
 056C:0915       N__Rd__Analizer__TheodolitRead
 07BA:0511       N__Rd__LoadData__G_Files
 03BB:0DD2       N__ReadALT__SIMDATA__ScannerI
 2553:0480       N__ReadAnalog__ReadValue__DGH_u
 03BB:0C76       N__ReadDME__SIMDATA__ScannerI
 2AE4:006A       N__ReadEOL__GetFrame__GPS_TRIMB
 2AE4:00C9       N__ReadGPS__GetFrame__GPS_TRIMB
 29C4:0200       N__ReadGPS__GetFrame__GPS_nov
 2AE4:0306       N__ReadG__GetFrame__GPS_TRIMBLE
 2029:10A6       N__ReadNAV__Oblicz__G_Odb
 2AE4:0021       N__ReadPacketHead__GetFrame__GP
 1D70:07A4       N__Reader__Writer__DGHInterface
 14FE:0BF3       N__RedrawRqs__Xchg__Dialog__Scr
 3262:0052       N__Remove__RemoveToKill__MONITO
 2D37:01A0       N__Remove__RemoveToKill__monito
 365E:0226       N__Rot90__InitMarkers__Polozeni
 52C9:26B2       N__RoughErr_An__DoBendAnalyse__
 4538:3424       N__RownowagaModulacji__Print__G
 365E:0EEE       N__Rysuj__Promienie__Polozenie
 25DE:243E       N__SaveChannel__SaveSegmentTabl
 0A1F:1E47       N__SaveDefault__InitLot__G_Oblo
 25DE:2293       N__SaveReal__SaveSegmentTables_
 25DE:23A0       N__SaveSegment__SaveChannel__Sa
 25DE:230E       N__SaveTable__SaveSegmentTables
 25DE:219B       N__SaveValue__SaveSegmentTables
 13A2:015F       N__Sek2__PolaryzacjaBP__Pomiar
 3947:05AF       N__SendMsg__ControlLoop__CocpDs
 08E4:0EA4       N__SetDefInsp__InspekcjaEP__G_I
 3947:0823       N__SetLOC_G_SCP__ControlLoop__C
 14FE:1AFD       N__ShowCurrDIB__InitSlupki__Scr
 14FE:22B6       N__ShowMarks__UpdateWykr__Updat
 3A20:034B       N__ShrinkX__Tablice800__tablice
 3A20:0219       N__Shrink__Tablice800__tablice_
 4DED:010A       N__Side__AngAddSample__Marks
 4DED:0423       N__Side__DisAddSample__Marks
 3C47:17B3       N__SkalX__PokazWykresNSLog__Wyk
 3C47:222D       N__SkalX__PokazWykresZXms__Wykr
 3C47:062B       N__SkalX__PokazWykres__Wykres
 3C47:0101       N__SkalY__Draw__Wykres
 3C47:0853       N__SkalY__PokazWykres1__Wykres
 3C47:1546       N__SkalY__PokazWykresNSLog__Wyk
 3C47:1FF2       N__SkalY__PokazWykresZXms__Wykr
 3C47:052F       N__SkalY__PokazWykres__Wykres
 3FFE:0229       N__Skala__Update__Slupek
 25DE:143A       N__Status__Error__Kalibracja
 1C22:023F       N__StripSpaces__sprintf__StdIO
 4538:2D26       N__SzSekt__Print__G_Print
 0318:0131       N__Tlo__Sprawdz__PI_Qcheck
 2B74:018F       N__ToEOL__LookForEntry__Ini
 0253:0303       N__TuneGS__TuneILS__Tune
 03BB:0C27       N__TurnDGH_ON__SIMDATA__Scanner
 52C9:1598       N__TurnOn__AssignEvalProc__CntP
 1082:1965       N__TworzK__KopiujWszystkiePliki
 2AE4:03CB       N__TypGPS__GetFrame__GPS_TRIMBL
 3A20:20FA       N__UpdateAlfaMarks__UpdTab800__
 3A20:2092       N__UpdateDistMarks__UpdTab800__
 3A20:0152       N__UpdateNR__Tablice800__tablic
 14FE:3357       N__UpdateNapisy__Update__Screen
 14FE:2485       N__UpdateWykr__Update__Screen
 0EFB:0010       N__UsunNajmniejszy__FlagErr_Ana
 3340:0A79       N__UsunPola__UsunDialog__Dialog
 30CA:02FB       N__UsunStr__SkasujWszystko__GLi
 0318:0203       N__WrInt__Sprawdz__PI_Qcheck
 0318:027E       N__WrPrc__Sprawdz__PI_Qcheck
 4538:0B99       N__WrSectSignDesc__OpisPomiaru_
 4538:0C7F       N__WrSignDesc1__MarkerLength__O
 4538:0A54       N__WrSignDesc1__OpisPomiaru__G_
 4538:0B13       N__WrSignDesc__OpisPomiaru__G_P
 30CA:107D       N__WrStr__Draw__GList
 419D:0AA6       N__WrStr__PiszNaEkranie__PiszEv
 0318:019A       N__WrStr__Sprawdz__PI_Qcheck
 406D:07C8       N__Wr_DevValueTab_WL__DispResul
 406D:078C       N__Wr_DevValueTab__DispResults_
 406D:0835       N__Wr_Integer_WL__DispResults__
 406D:08A0       N__Wr_SignalInSecDsc_WL__DispRe
 406D:06C1       N__Wr_SignalsRecDsc_WL__DispRes
 406D:0623       N__Wr_SignalsRecDsc__DispResult
 14FE:1F5F       N__WriteText__ShowMarks__Update
 406D:04C7       N__WriteZoneDist__DispResults__
 14FE:2D08       N__WskazWykresy__Update__Screen
 2AE4:016D       N__WspGeoPoprawne__ReadG__GetFr
 29C4:0B90       N__Wydziel__An_Frame_GPZDA__Get
 2AE4:043F       N__Wydziel__GetFrame__GPS_TRIMB
 4E81:0B66       N__WykProcInit__InitSlupek__L_S
 3F99:0263       N__WykSlupF__WykSlup__PI_ScrUti
 365E:0959       N__XY__LL__DrawNCO__Polozenie
 419D:038B       N__Znacznik__Decode__PiszEventy
 43F9:01CB       N__ZnacznikiPol__Acquire__G_DAc
 14FE:2201       N__ZwKrokOpisuOsi__ShowMarks__U
 52C9:1E33       N__alig_ContinerClear__CntProce
 28F2:04DF       N__convDigit__RealToString__Rea
 28F2:0572       N__convertnumber__RealToString_
 28F2:05EA       N__exp10__RealToString__RealCon
 4DED:0050       N__findidx__AngAddSample__Marks
 4DED:037F       N__findidx__DisAddSample__Marks
 4DED:0670       N__findidx__SegZakonczony__Mark
 3947:090E       N__pozycjaStrzalki__ControlLoop
 4E81:0AB0       N__regionyWykActvABS__InitSlupe
 4E81:09F5       N__regionyWykActv__InitSlupek__
 4E81:0B14       N__regionyWykInit__InitSlupek__
 29C4:03B1       N__szukaniePola__GetFrame__GPS_
 5C1C:013F       Nadajnik1__CommonData
 5C1C:0140       Nadajnik2__CommonData
 5BEF:00A4       NameRes__G_Files
 5C32:00B0       NamesAlfa__Files
 5C32:0008       NamesAn__Files
 5C32:00E8       NamesComm__Files
 5C32:0040       NamesDist__Files
 5BEF:0004       NamesSig__G_Files
 5C56:006E       NapisB_01__Pomiar
 64B1:0020       Narysowany__Polozenie
 5C1C:0052       NazwaOblotu__CommonData
 643F:0000       NazwaPlikuIni__Obloty
 5C1C:007B       NazwaPlikuOpisu__CommonData
 643F:015B       NazwaPlikuZOpisem__Obloty
 7419:00B7       NazwaPliku__G_Print
 5C1C:0000       NazwaUrzadz1__CommonData
 5C1C:0029       NazwaUrzadz2__CommonData
 56D7:0000       NewProcess__RTSCoroutine
 5C60:002D       NextRedraw__Screen
 5AED:0053       Nie_mozna_uruchomic_kanalu_Teod
 5AA4:0008       NuOfErrorProc__MANAGER
 5AA4:0120       NuOfReady__MANAGER
 643E:000B       NumEl__monitor__ShortCuts
 5AA4:001A       NumberOfProc__MANAGER
 5C83:0000       OCCUPED__Storage
 5AF3:0000       ObecnyStan__GPSRead
 5C19:0002       Odl_dla_pom_pB__L_CommonTypes
 5C07:00A9       OdnAzymut__G_Oblot
 7644:0007       OdnB__PrintCntroll
 5C1C:013D       OdnDlaPomBledu__CommonData
 5C1C:013E       OdnDlaPomOdl__CommonData
 5C07:00AD       OdnOdl__G_Oblot
 5D11:0008       OdniesienieMtx__GeoArithmetic
 7644:0006       Odniesienie__PrintCntroll
 5C60:007D       OileKursor__Dialog__Screen
 6465:005E       OldButtons__BezPrzerwanOdMyszy_
 5D18:0968       OmnibearingProgi__Kalibracja
 5D18:0948       Omnibearing_delay__Kalibracja
 5C1C:0144       Orbita__CommonData
 5C05:0015       OstatniOblot__G_Inspekcja
 5C8B:0014       Ostrzezenie_ze_za_dlugo__DGHInt
 5A17:0002       PSPAddress__RTSMain
 5CCD:0006       P_A__MsgBox
 56A8:004D       ParCopy__RTSLanguage
 5D18:0AF8       Par__Kalibracja
 5C8D:0018       Path__HiLevGraf
 5C87:000C       PeriodCount__Monitor__Timer
 5C87:000A       Period__Monitor__Timer
 5C87:000E       PeriodicProcedure__Monitor__Tim
 5C54:0010       PilErrDis__G_CP_ControlProc
 73CC:0000       PoczatekStrony__PiszEventy
 64AA:0052       PokazywacPolozenie__Mapa
 7418:0000       PolVLewoC__L_Count
 7418:0004       PolVPrawoC__L_Count
 7418:0002       PolVZeroC__L_Count
 74D6:0004       PolozenieNapisu__Print
 5AED:0000       PolozenieTeodolitu__TheodolitRe
 5AD0:0000       PomiarANieArchiwum__PI_PA
 5C07:00D7       Pomiar__G_Oblot
 743C:0062       PosTable__L_Slupek
 5C1C:0146       Predkosc__CommonData
 5C60:0032       Predrawmarksreq__Screen
 5C60:0036       Predrawreq__Screen
 74D6:000A       PrevIdx__Print
 745B:0796       PrevPage__DrawEpson
 6465:0054       PrevReg__MMMouse
 745B:0000       PrnPort__DrawEpson
 74D6:0000       PrnX__Print
 74D6:0002       PrnY__Print
 5C56:0000       ProcPom__Pomiar
 5C1A:0000       Procedura__G_CommonTypes
 5C19:0000       Procedura__L_CommonTypes
 64B1:011A       ProcesAktywny__Polozenie
 5C1C:0142       Promien__CommonData
 64B1:0006       Promien__Polozenie
 5AE1:0058       RUN__ScannerI
 5620:003C       RangeError__RTSError
 5C07:00D3       Raport__G_Oblot
 5AA4:0004       ReadyFirst__MANAGER
 5AA4:0118       ReadyLast__MANAGER
 571D:0000       RealError__RTSRealError
 64B1:0112       Rect__Polozenie
 5C05:0004       RedrawScr__G_Inspekcja
 5C07:00DB       RedrawScr__G_Oblot
 5AE1:000A       RefAlfa__ScannerI
 5C9C:008C       RefDisTT__G_Odb
 5C9C:008E       RefDis__G_Odb
 5AE1:0022       RefDis__ScannerI
 5C60:0047       RegionWyk1Created__Screen
 5C60:0043       RegionWyk1__Screen
 5C60:004C       RegionWyk2Created__Screen
 5C60:0048       RegionWyk2__Screen
 5C60:0051       RegionWyk3Created__Screen
 5C60:004D       RegionWyk3__Screen
 5C60:0042       RegionWykGCreated__Screen
 5C60:003E       RegionWykG__Screen
 5C60:0052       RegionWykresow__Screen
 6465:0000       Regiony__MMMouse
 745B:07A3       Rotation__DrawEpson
 5C54:0002       Running__G_CP_ControlProc
 5C60:006E       RysSytMaxDis__Dialog__Screen
 64AA:0053       RysSytMaxDis__Mapa
 5ADC:0000       ST__PI_Qcheck
 1BD7:0058       S__ACKMess__Messages
 0042:0002       S__ASSERT__MANAGER
 0042:11B5       S__ActivateProcess__Scheduler__
 3340:0FCA       S__Aktywizuj__Dialog
 2B74:0F29       S__AllocateBuffer__Ini
 056C:0A73       S__Analizer__TheodolitRead
 4E81:034A       S__AssGorszeBoProc__L_Slupek
 1082:1E70       S__AssignName__Files
 3918:0002       S__BCD__HRD_Clock
 1BD7:0382       S__Beep__Messages
 38CC:03C4       S__Blad__XMSService
 1B0B:0C05       S__BreakKey__Timer
 30CA:0FE8       S__CP__GList
 0042:18F5       S__CallTerminatingProcedures__M
 0D5B:0163       S__CheckCNil__SpecConv
 0D5B:009C       S__CheckINil__SpecConv
 3918:003A       S__CheckUpdateCycle__HRD_Clock
 4A03:083C       S__Check__ILS_EvalProcedures
 03BB:1827       S__Chksimul__ScannerI
 3340:15B1       S__ChwilowoZablokujDialog__Dial
 2029:0CD9       S__ClearContiners__G_Odb
 0042:04D7       S__ClearQueue__MANAGER
 43F9:008B       S__CommReq__Monitor__G_DAcquizi
 52C9:0088       S__Common_CP__G_CntProcedures
 4FD9:0942       S__Conv2PL__DrawEpson
 22ED:01F5       S__ConvertTMStr__NAVGPIB
 4A03:01D2       S__CountAzymR__ILS_EvalProcedur
 393F:001A       S__CtrlBreakProc__FCBS
 3340:1185       S__CzyMoznaSkonczyc__Dialog
 419D:0786       S__Decode__PiszEventy
 2F79:0002       S__DefineStdCursor__MMMouse
 52C9:0266       S__DewMniejsz__G_CntProcedures
 2029:01E4       S__Dew_CP__G_Odb
 2029:0085       S__Dif_CP__G_Odb
 1879:042C       S__DisposeButtons__MouseMonitor
 14FE:1876       S__DisposeKursor__Dialog__Scree
 03BB:0104       S__DistR2C__ScannerI
 2475:006A       S__DodajPolozenieGeo__GeoArithm
 4FD9:0ABD       S__DrawChar0__DrawEpson
 4FD9:0E1D       S__DrawChar90__DrawEpson
 2F79:0C8E       S__DrawCursor__BezWyszeregowani
 3262:047D       S__DrawInter__Buttons
 365E:044A       S__DrawMarker__Polozenie
 365E:0BA8       S__DrawNCO__Polozenie
 4FD9:0DA0       S__DrawText0__DrawEpson
 4FD9:10A7       S__DrawText90__DrawEpson
 30CA:1181       S__Draw__GList
 34D6:0827       S__Draw__InpLine
 365E:0855       S__EraseMarker__Polozenie
 25DE:1489       S__Error__Kalibracja
 49BD:02B0       S__ExceptionHandler__Semafory
 2B74:0BE2       S__Expand__Ini
 35A8:09DC       S__FillPromieie__Mapa
 06E2:08D1       S__FillSignalTable__DGHIni
 3262:0205       S__FindAMark__MONITOR__Buttons
 2D37:0424       S__FindAMark__monitor__ShortCut
 37A2:1064       S__FindROMFontAddr__Graphics
 2D37:0382       S__Find__monitor__ShortCuts
 2B74:001E       S__FormSectionString__Ini
 38CC:01F3       S__Free__XMSService
 1A4F:04FF       S__GetChain__Storage
 1E78:15BC       S__GetDir__HiLevGraf
 2F79:096B       S__GetEvent__BezPrzerwanOdMyszy
 43F9:014A       S__GetEvent__Monitor__G_DAcquiz
 1879:036D       S__GetEvent__MouseMonitor__PI_A
 37A2:09BB       S__GetFontPtr__InternalMonitor_
 3918:006D       S__GetGodzina__HRD_Clock
 22ED:0261       S__GetResponse__NAVGPIB
 1A4F:04CB       S__GetStrategia__Storage
 133F:02EE       S__GsElErr__G_CP_ControlProc
 37A2:008B       S__HugeMemCpy__Graphics
 4D04:0002       S__INByte__ARINC
 0042:05E2       S__INSERT__MANAGER
 0A1F:0ADC       S__IdentPkt__G_Oblot
 2DB1:0266       S__IleInspekcji__Obloty
 43F9:086A       S__IniData__G_DAcquizition
 1879:017C       S__InitButtony__MouseMonitor__P
 14FE:1983       S__InitButtony__Screen
 03BB:0B61       S__InitDataSimul__ScannerI
 14FE:17F1       S__InitDialog__Dialog__Screen
 3EF4:04F4       S__InitEvents__EventsMng
 2C92:097A       S__InitFiles__FIO
 14FE:1D4C       S__InitKrokOpisuOsi__Screen
 07BA:0F16       S__InitLocals__G_Files
 365E:032E       S__InitMarkers__Polozenie
 14FE:1B9A       S__InitSlupki__Screen
 3A20:15DF       S__InitTab__tablice__DataCollec
 06E2:03D8       S__InitTableOfNames__DGHIni
 49BD:03BE       S__InitTbl__Semafory
 14FE:1749       S__InitWykr__Dialog__Screen
 1082:2852       S__Init__Files
 4E81:133F       S__Init__L_Slupek
 2F79:00D9       S__Init__MMMouse
 227F:064D       S__Init__MsgBox
 0318:092F       S__Init__PI_Qcheck
 2265:0002       S__Init__ScreenCTypes
 0042:002D       S__InsertReady__MANAGER
 3262:0002       S__Insert__MONITOR__Buttons
 1B0B:0002       S__Insert__Monitor__Timer
 2D37:013F       S__Insert__monitor__ShortCuts
 0042:1A6A       S__InstallTerminator__MANAGER
 2DB1:0B21       S__Kasuj_DelDir__Obloty
 29C4:0170       S__KopZnakDoKanaluMonitora__GPS
 2DB1:1564       S__KopiujKartoteke__Obloty
 14FE:18A7       S__KursoffOff__Dialog__Screen
 14FE:18CD       S__KursoffOn__Dialog__Screen
 37A2:108B       S__LoadPLFonts__Graphics
 1936:103D       S__LoadProgramPar__L_DataBase
 25DE:1E6D       S__LoadSegmentTables__Kalibracj
 3C47:009B       S__Log10__Wykres
 3C47:1DFD       S__LogPos__Wykres
 0FBC:0002       S__LookFNKP__ILS_ZoneMngmnt
 2B74:020F       S__LookForEntry__Ini
 2B74:010A       S__LookForSection__Ini
 4538:088F       S__MakeHeader__G_Print
 35A8:0419       S__MakeMAP__Mapa
 4FD9:0107       S__Map__DrawEpson
 3EBE:0245       S__Map__XMSTable
 3262:0318       S__MarkBut__MONITOR__Buttons
 28C0:004E       S__MarkError__DigiRS
 1E78:0007       S__Max__HiLevGraf
 2475:0601       S__Mile__GeoArithmetic
 1E78:0027       S__Min__HiLevGraf
 0A1F:1631       S__NadajnikCH__G_Oblot
 4C6D:002A       S__Next__Random
 1E78:0741       S__Norm__HiLevGraf
 3F99:0203       S__NowySlup__PI_ScrUtility
 4D04:0062       S__OUTByte__ARINC
 1BD7:0358       S__OUTMessage__Messages
 2475:01D4       S__OdejmijPolozenieGeo__GeoArit
 2475:04C0       S__Odl2Geo__GeoArithmetic
 0A1F:137F       S__OdnOdlP__G_Oblot
 2475:012E       S__Odwr__GeoArithmetic
 4538:172D       S__OpisPomiaru__G_Print
 5120:0886       S__PointA__Print
 5120:0ADD       S__PointB__Print
 14FE:054D       S__PokazWgKursora__Dialog__Scre
 08E4:02D1       S__Pokaz__G_Inspekcja
 0A1F:0D7B       S__Pokaz__G_Oblot
 4538:3E7B       S__Print__G_Print
 0042:07D2       S__REMOVE__MANAGER
 2475:03A9       S__Rad__GeoArithmetic
 06E2:0CDC       S__ReadDGHIniFile__DGHIni
 0A1F:0D1E       S__RealVal__G_Oblot
 0A1F:147D       S__RealValid__G_Oblot
 14FE:01D5       S__RectWykresy__Screen
 35A8:008A       S__RedefineMaxDist__Mapa
 2F79:0B5F       S__RedrawAt__BezWyszeregowania_
 30CA:1046       S__Redraw__GList
 1082:1902       S__RemoveBSl__Files
 2F79:0C0A       S__RemoveCursor__BezWyszeregowa
 0042:0236       S__RemoveReady__MANAGER
 3262:01B5       S__RemoveToKill__MONITOR__Butto
 2D37:032C       S__RemoveToKill__monitor__Short
 1B0B:0159       S__Remove__Monitor__Timer
 14FE:10CD       S__RuszKursor__Dialog__Screen
 2029:013E       S__SS_CP__G_Odb
 0042:102A       S__STOPPROCESS__Scheduler__MANA
 0253:049F       S__SendDMECntrlWrd__Tune
 0253:0007       S__Send__Tune
 1A4F:04E7       S__SetChain__Storage
 1B0B:07F7       S__SetCount__Monitor__Timer
 25DE:09B6       S__SetError__ErrorHand__Kalibra
 1E78:0230       S__SetPalette__HiLevGraf
 30CA:1790       S__SetPositions__GList
 30CA:16B4       S__SetSelectionInt__GList
 2F79:0639       S__SetShape__MMMouse
 1A4F:04B3       S__SetStrategia__Storage
 0F69:00E8       S__SetTimeAndDate__BezPrzerwan_
 14FE:0CC9       S__ShowBarCursor__Dialog__Scree
 1936:02B1       S__SignalError__L_DataBase
 2DB1:0738       S__SkasujKartoteke__Obloty
 2475:02F0       S__SredniPolozenieGeo__GeoArith
 07BA:00B5       S__StartFiles__G_Files
 3A20:1BBB       S__Start__DataCollect
 1E78:0047       S__StdPalette__HiLevGraf
 0042:1144       S__StopAError__Scheduler__MANAG
 35A8:0922       S__Stop__monitor__Mapa
 0A1F:160F       S__StronaCH__G_Oblot
 1E78:071E       S__Swap__HiLevGraf
 2F79:0623       S__Swap__MMMouse
 3A20:0422       S__Tablice800__tablice__DataCol
 0253:0697       S__TuneVOR_ILS__Tune
 3F99:0063       S__UniversalAB__PI_ScrUtility
 14FE:0259       S__UniversalEvent__Dialog__Scre
 3F99:018B       S__UniversalLAB__PI_ScrUtility
 3F99:013B       S__UniversalLBF__PI_ScrUtility
 3F99:01B3       S__UniversalPAB__PI_ScrUtility
 3F99:01DB       S__UniversalSBB__PI_ScrUtility
 3262:03BB       S__Unmark__MONITOR__Buttons
 2D37:04D2       S__Unmark__monitor__ShortCuts
 14FE:0FA8       S__UpdateMap__Dialog__Screen
 5585:01FC       S__UstawLiczbe__PrintCntroll
 5585:01BC       S__UstawStrony__PrintCntroll
 4FD9:00A5       S__UstawTrybTekstowy__DrawEpson
 0A1F:2DA4       S__Wlacz_Wylacz__G_Oblot
 2F79:066E       S__WrBit__MMMouse
 2F79:0651       S__WrIdx__MMMouse
 419D:1163       S__WrLn__PiszEventy
 419D:117D       S__WrP__PiszEventy
 419D:10B0       S__WrStrLn__PiszEventy
 419D:10DC       S__WrStr__PiszEventy
 38CC:0412       S__WrWarning__XMSService
 0F69:003B       S__Write__BezPrzerwan__Czas
 2DB1:02DC       S__WymienWszystkie__Obloty
 14FE:0C7D       S__Xchg__Dialog__Screen
 2DB1:0EB9       S__ZnajdzNumInspekcji__Obloty
 2029:0C0C       S__Zone_CP__G_Odb
 419D:0D48       S__min__PiszEventy
 35A8:037D       S__resolveSituation__Mapa
 056C:0852       S__signalError__TheodolitRead
 643E:0005       SavedChar__monitor__ShortCuts
 5E6D:5019       SavedFileName__Ini
 5C1C:00FC       SciezkaOpisuPomiaru__CommonData
 643E:0001       ShortCutList__monitor__ShortCut
 7419:0000       SigNam__G_Print
 5AF6:0F70       SignalDescr__DGHIni
 5AE1:0087       Sim_Alfa_CP__ScannerI
 5AE1:0083       Sim_Dis_CP__ScannerI
 5AE1:0053       Simul__ScannerI
 64F2:000C       SkalaCPMax__CocpDsp
 64F2:0008       SkalaCP__CocpDsp
 64F2:000E       SkalaWPMax__CocpDsp
 64F2:000A       Skala__CocpDsp
 56A8:0000       SpecialCASE__RTSLanguage
 643F:01DD       SrcDir__Obloty
 7419:00DC       Srd_Marker_G__G_Print
 7419:00E2       Srd_Marker_Z__G_Print
 64B1:0002       Srodek__Polozenie
 5630:0673       StackCheck__RTSMain
 5630:067C       StackOvf__RTSMain
 64B1:0000       StalyKat__Polozenie
 5C56:0054       StanButtonow__Pomiar
 5C56:0075       StanZestawu__Pomiar
 5C83:0023       StaraStrategia__Storage
 0001:0354       StartModula
 5C83:0025       StaryCh__Storage
 643F:0044       Stat_File_Monitor__Obloty
 643F:0040       Stat_Size_Monitor__Obloty
 5AED:003D       State__TheodolitRead
 5AA4:001C       Statistic__MANAGER
 5C94:0000       StatusR__GrafUtil
 6465:01E5       Stored__BezPrzerwanOdMyszy__MMM
 5C17:0000       StringRect__BezPrzerwan__Czas
 5C1A:0001       Strona__G_CommonTypes
 5C19:0001       Strona__L_CommonTypes
 5C8D:0008       Style__HiLevGraf
 5D18:0940       SubcarPrcMod_delay__Kalibracja
 5C17:0008       SystemTime__BezPrzerwan__Czas
 5C07:00C5       Szer_sekt_kier_AS__G_Oblot
 5C07:00C7       Szer_sekt_kier_AW__G_Oblot
 5C07:00C9       Szer_sekt_kier_N__G_Oblot
 5C1A:0002       Szer_sekt_kier__G_CommonTypes
 5C19:0004       Szer_sekt_kier__L_CommonTypes
 5AE1:008F       TEOEcounting__ScannerI
 5AE1:0028       TEO_A__ScannerI
 5AE1:003A       TEO_DGPSpoprawki__ScannerI
 5AE1:0030       TEO_E__ScannerI
 5AE1:0038       TEO_OK__ScannerI
 5AE1:00A7       TEO_dtaSign__ScannerI
 5C87:0002       TIOS__Timer
 5C87:0006       TOQueue__Monitor__Timer
 5AA4:0124       TSSInterval__MANAGER
 5D18:0000       TabKalib2P__Kalibracja
 5AF6:08E8       TableOfNames__DGHIni
 7428:0000       TablicaSemaforow__Semafory
 5AE1:000C       TeoAlfaF__ScannerI
 5AED:0036       TeoEvNr__TheodolitRead
 5C07:00CF       TestUP__G_Oblot
 74D6:0006       TextModeOutProc__Print
 5C60:0029       ThisDTidx__Screen
 5C87:0000       TimeCounter__Timer
 5AA4:0128       TimeIntNum__MANAGER
 74D6:00D5       Tmpl__Print
 5C94:006E       Tone__GrafUtil
 56D7:0143       Transfer__RTSCoroutine
 7416:000D       TrwaPomiarPolaryzacji__G_DAcqui
 5C89:000A       TurnBeepOn__Messages
 64F5:0000       VAL1__DataCollect
 5C60:0000       VAL1__Screen
 64F5:3210       VAL2__DataCollect
 5C60:0004       VAL2__Screen
 64F5:6420       VAL3__DataCollect
 5C60:0008       VAL3__Screen
 64F5:9630       VAL4__DataCollect
 5C60:000C       VAL4__Screen
 64F5:C8A6       VALX__tablice__DataCollect
 5AD1:0000       VORfreqCRT__Tune
 5AA4:0208       VarDR__MANAGER
 5D18:0950       VorAgc_delay__Kalibracja
 5D18:0930       VorRefPrcMod_delay__Kalibracja
 5D18:0938       VorVarPrcMod_delay__Kalibracja
 5AA4:0122       WaitForInt__MANAGER
 5C94:006C       WaitTime__GrafUtil
 7419:00DE       Wew_Marker_G__G_Print
 7419:00E4       Wew_Marker_Z__G_Print
 743C:0004       Wyk1Proc__L_Slupek
 5C9C:0080       Wyk1Val__G_Odb
 743C:0008       Wyk2Proc__L_Slupek
 5C9C:0084       Wyk2Val__G_Odb
 743C:000C       Wyk3Proc__L_Slupek
 5C9C:0088       Wyk3Val__G_Odb
 743C:0000       WykMainProc__L_Slupek
 5C9C:007C       WykMainVal__G_Odb
 74E8:0346       WysokoscAv_PB_Con__G_CntProcedu
 5D18:13F8       WystapilBlad__Kalibracja
 5C8D:0059       XS__HiLevGraf
 5C8D:005B       YS__HiLevGraf
 74D6:0013       ZestawProbekBinDoWyboru__Print
 7419:0050       Zestaw__G_Print
 7644:0004       Zestaw__PrintCntroll
 5C60:0010       Zestaw__Screen
 7419:00DA       Zew_Marker_G__G_Print
 7419:00E0       Zew_Marker_Z__G_Print
 5C60:007F       ZmianaSkaliWpionie__Dialog__Scr
 742F:0000       a__Random
 5E65:0006       actPart__GPS_TRIMBLE
 5E5C:0006       actPart__GPS_nov
 5A17:001A       activProcess__RTSMain
 5C8B:0010       activated__DGHInterface
 5A36:0000       addProcess__RTSCoroutine
 5D14:0000       address__DGH_utils
 5C9C:001E       agcM__G_Odb
 5C9C:001A       agc__G_Odb
 5C60:001C       aktFormat360__Screen
 5C60:0013       aktPromienOdAnt__Screen
 5C60:0011       aktPromien__Screen
 64AA:0040       aktualny__Mapa
 5C56:0082       alfaOff__Pomiar
 74E8:159E       aligSec_Con__G_CntProcedures
 74E8:0282       alig_Con__G_CntProcedures
 73CD:0094       anRes__G_results
 64F5:C844       angContiner__DataCollect
 64B1:011C       angContiner__Polozenie
 5AA3:0009       archData__PG
 584C:001E       areSetsEQ__Longs
 5C9C:000A       audio_L__G_Odb
 5C9C:000C       audio_V__G_Odb
 74E8:0246       azAv_PO_Con__G_CntProcedures
 5AE1:00A6       azymANieElew__ScannerI
 5C07:0005       bAlarmSciezki__G_Oblot
 5C07:0065       bAlarmSzer_pB__G_Oblot
 5C07:0025       bAlarmSzeroki_pA__G_Oblot
 5C07:0035       bAlarmWaski_pA__G_Oblot
 5C07:006D       bAlarmWaski_pB__G_Oblot
 5C07:007D       bFazowanie__G_Oblot
 5C07:00B1       bIdentPunktow__G_Oblot
 5C07:004D       bKatSciezki_Szer_pA__G_Oblot
 5C07:0055       bKatSciezki_Waski_pA__G_Oblot
 5C07:0045       bKatSciezki__G_Oblot
 5C07:009D       bPokrycie8stL__G_Oblot
 5C07:0095       bPokrycie8stP__G_Oblot
 5C07:008D       bPokrycieWOsi__G_Oblot
 5C07:0075       bRownowagaModulacji__G_Oblot
 5C07:0015       bSzerSektora_pA__G_Oblot
 5C07:005D       bSzer_i_Osi_pB__G_Oblot
 5C07:0085       bZabezpieczenie__G_Oblot
 64D7:0004       bank__InternalMonitor__Graphics
 64D7:0006       bankstart__InternalMonitor__Gra
 643F:0099       bd_NazwaPliku__Obloty
 643F:00AA       bd_Sekcja__Obloty
 643F:00B5       bd_WpisNazwa__Obloty
 74E8:159C       bendState__G_CntProcedures
 5D14:0020       binAddress__DGH_utils
 5C8B:0006       binaryDtaSign__DGHInterface
 5A17:0006       blockList__RTSMain
 5C86:0000       break__SoftIntHandlingManager
 5E65:0009       bufor__GPS_TRIMBLE
 5E5C:000C       bufor__GPS_nov
 5C60:0025       by23__Screen
 5E6D:5017       charsInBuffer__Ini
 5E6D:50E2       check__Ini
 5E65:0002       chrCount__GPS_TRIMBLE
 5E5C:0002       chrCount__GPS_nov
 73CA:0000       colPos__G_DisResults
 584C:00B4       complement__Longs
 7312:0B48       conEnr__EventsMng
 5C9C:00EC       covSecMax__G_Odb
 5C9C:00EA       covSecMin__G_Odb
 5C8B:0008       csErrorCnt__DGHInterface
 5A17:0016       curProcess__RTSMain
 64F5:C85E       curr23__tablice__DataCollect
 5AE1:00A4       currAlfaOff__ScannerI
 5C73:0004       currButtonSet__MouseMonitor__PI
 5C56:0058       currButtonSet__Pomiar
 5C60:003A       currConsoleEv__Screen
 73CD:0478       currDT__G_results
 64F2:0019       currErrorCP__CocpDsp
 64F2:001D       currErrorGS__CocpDsp
 64F2:001B       currErrorWP__CocpDsp
 64F2:0002       currFROMflg__CocpDsp
 64F2:0000       currGSflg__CocpDsp
 7416:000C       currGlownyOdbiornik__G_DAcquizi
 64F2:0015       currLNumber__CocpDsp
 64F2:0026       currMsg__CocpDsp
 64F2:0001       currNAVflg__CocpDsp
 74E8:0342       currNavState__G_CntProcedures
 5AE1:0099       currOdnDlaPomBledu__ScannerI
 5AE1:0098       currOdnDlaPomOdl__ScannerI
 5C9C:00B1       currOffI__G_Odb
 5C9C:00A9       currOffR__G_Odb
 5C9C:0299       currPredkosc__G_Odb
 5AE1:009A       currPredkosc__ScannerI
 5C54:0004       currProc__G_CP_ControlProc
 5AE1:00A2       currPromien__ScannerI
 64F2:0017       currRNumber__CocpDsp
 5C54:0003       currRec__G_CP_ControlProc
 743C:013A       currSkalaWpionie__L_Slupek
 64F2:0014       currState__CocpDsp
 5AED:003F       currState__TheodolitRead
 64F2:0003       currTOflg__CocpDsp
 7416:0008       currUpdMarks__G_DAcquizition
 5C56:0092       currZestaw__Pomiar
 5C9C:00B3       currZone__G_Odb
 5C8B:0004       currentSign__DGHInterface
 5AF3:0001       currentSign__GPSRead
 5AED:0034       currentSign__TheodolitRead
 5E6D:0010       currfile__Ini
 743C:005E       cursorDIB__L_Slupek
 5C56:0093       dataInBuff__Pomiar
 5AA3:0007       dataOk__PG
 5A17:001E       debuggerRecord__RTSMain
 5C60:001D       devDistR__Screen
 5C9C:0012       devG__G_Odb
 5C9C:000E       devL__G_Odb
 5A17:0030       deviceMask__RTSMain
 74E8:032E       dewAv_BD_Cont__G_CntProcedures
 74E8:025A       difAv_PO_Con__G_CntProcedures
 64F2:0004       dirCP__CocpDsp
 64F2:0006       dirWP__CocpDsp
 64F5:C84C       disContiner__DataCollect
 7438:0000       disableMask__NAVInterface
 5C73:0000       dispResults__PI_Analiza
 74E8:15A2       displSens__G_CntProcedures
 5C9C:0091       displSens__G_Odb
 5C56:007E       distOff__Pomiar
 64AA:004A       distRect__Mapa
 64F5:C872       div2n__tablice__DataCollect
 64F5:C876       div3n__tablice__DataCollect
 64AA:0000       doZrobienia__Mapa
 643E:000D       done__ShortCuts
 64F2:0023       dtaSign__CocpDsp
 5A17:0032       dyingOverlay__RTSMain
 5AC6:007A       entryTmpPtr__DOSEntry
 5AC6:0000       entryTmp__DOSEntry
 5E5C:007B       eos__GPS_nov
 5D18:13B8       errDetected__Kalibracja
 5E5C:007E       err_unrec_cnt__GPS_nov
 5A17:0000       errorCode__RTSMain
 5AC6:007E       exitTmpPtr__DOSEntry
 5AC6:003D       exitTmp__DOSEntry
 5AA4:01F6       expInter__Scheduler__MANAGER
 5D18:13FF       f__Kalibracja
 5C32:01A0       filesAlfa__Files
 5C32:01A8       filesComm__Files
 5C32:0190       filesDist__Files
 7416:0012       filesNotEmpty__G_DAcquizition
 7438:0004       fineMode__NAVInterface
 5C86:0001       firstISRDescriptorPtr__Monitor_
 74E8:0344       flag_20uV_OP_Con__G_CntProcedur
 74D6:000E       flgEOF__Print
 5AE1:0000       flg__ScannerI
 74E8:0048       flgs__G_CntProcedures
 5D18:13FB       for_counter__Kalibracja
 64F2:0025       force__CocpDsp
 5C56:007C       format360__Pomiar
 5E65:0000       framesWError__GPS_TRIMBLE
 5E5C:0000       framesWError__GPS_nov
 5A17:0128       freeList__RTSMain
 5E65:0004       frmCount__GPS_TRIMBLE
 5E5C:0004       frmCount__GPS_nov
 5C56:0077       frstBut__Pomiar
 7419:00E6       gOdb__G_Print
 5C9C:0002       gsFlg__G_Odb
 5C05:0000       hDlg__G_Inspekcja
 5C07:0001       hDlg__G_Oblot
 5CCD:0000       hDlg__MsgBox
 7644:0000       hDlg__PrintCntroll
 7419:0052       header__G_Print
 5C83:0001       heapList__Storage
 5C32:01C8       homeDir__Files
 74E8:0050       iMkrFlg__G_CntProcedures
 5C9C:0004       iMkrFlg__G_Odb
 74E8:02BA       iMkrL_Con__G_CntProcedures
 5C9C:0252       iMkrL_Con__G_Odb
 73CD:0484       idPnkt__G_results
 64F2:0012       iloscStrzal__CocpDsp
 5E6D:0004       ini__Ini
 5D18:13BC       inputCoeff__Kalibracja
 5AC6:0082       insideFlag__DOSEntry
 643F:00C0       insp_DirTmp__Obloty
 584C:009D       intersection__Longs
 64F5:C87A       ix2__tablice__DataCollect
 64F5:C87E       ix3__tablice__DataCollect
 5AE1:00AD       ix__ScannerI
 742F:006E       j__Random
 742F:0070       k__Random
 5C56:0079       katPromien__Pomiar
 7438:0005       killTime__NAVInterface
 7644:0011       lPodz__PrintCntroll
 73CD:0030       lastAzAv_ANr__G_results
 73CD:0060       lastAzAv_AWd__G_results
 73CD:0000       lastAzAv_A__G_results
 5AD1:00A0       lastCPFlags__Tune
 7416:0017       lastComm__Monitor__G_DAcquiziti
 5AED:0046       lastCrc__TheodolitRead
 5AD1:00A2       lastDMEfrqBits__Tune
 637C:0000       lastErr__FIO
 5D18:13F9       lastError__ErrorHand__Kalibracj
 73CD:0050       lastEta_D_ANr__G_results
 73CD:0080       lastEta_D_AWd__G_results
 73CD:0020       lastEta_D_A__G_results
 73CD:0040       lastEta_G_ANr__G_results
 73CD:0070       lastEta_G_AWd__G_results
 73CD:0010       lastEta_G_A__G_results
 5CCF:0353       lastGPIBCommand__NAVGPIB
 5CCF:0000       lastGPIBError__NAVGPIB
 5CCF:0374       lastGPIBResponse__NAVGPIB
 5AED:0040       lastNum__TheodolitRead
 73CD:0090       lastSecWith__G_results
 73CD:0092       lastUstawOsi__G_results
 5AE1:0093       locTogether__ScannerI
 5CCF:039A       loopCount__NAVGPIB
 5CCF:039C       loopCountmax__NAVGPIB
 5AED:0024       lstAzymuth__TheodolitRead
 5AED:002C       lstElevation__TheodolitRead
 5AED:003A       lstEvent__TheodolitRead
 5C1B:0005       lstPToBeTraced__ILS_ZoneMngmnt
 5AED:003B       lstTracking__TheodolitRead
 5C1B:0006       lstZone__ILS_ZoneMngmnt
 6465:01EC       lx__BezWyszeregowania__MMMouse
 6465:01EE       ly__BezWyszeregowania__MMMouse
 74E8:004E       mMkrFlg__G_CntProcedures
 5C9C:0006       mMkrFlg__G_Odb
 74E8:02AA       mMkrL_Con__G_CntProcedures
 5C9C:0242       mMkrL_Con__G_Odb
 5AA3:0000       mainState__PG
 64AA:0042       mapRct__Mapa
 64F5:C857       marks_Con_A__DataCollect
 64F5:C854       marks_Con_D__DataCollect
 5C8B:000E       maxClicks__DGHInterface
 7439:0002       maxCountR__ARINC
 7439:0000       maxCountW__ARINC
 637C:0006       maxOpened__FIO
 6465:0050       maxX__MMMouse
 6465:0052       maxY__MMMouse
 5E59:0000       minWrBufLength__DigiRS
 74E8:02CA       mkrLengthCon__G_CntProcedures
 74E8:031A       modAv_Con__G_CntProcedures
 5C9C:0016       mod__G_Odb
 5C9C:028F       myDistTT__G_Odb
 5C54:0000       myOffset__G_CP_ControlProc
 64AA:005B       myPoint__Mapa
 5C9C:0000       navFlg__G_Odb
 5C9C:0022       navOdbFlg__G_Odb
 64F2:001F       newState__CocpDsp
 74E8:002E       newZone__G_CntProcedures
 5C9C:028E       newZone__G_Odb
 64AA:0060       noActive__monitor__Mapa
 7416:0013       notify__Monitor__G_DAcquizition
 637C:0002       numErr__FIO
 5AED:0048       numPos__TheodolitRead
 5C8B:000A       nvErrorCndF__DGHInterface
 5C8B:000C       nvErrorCndS__DGHInterface
 74E8:004C       oMkrFlg__G_CntProcedures
 5C9C:0008       oMkrFlg__G_Odb
 74E8:029A       oMkrL_Con__G_CntProcedures
 5C9C:0232       oMkrL_Con__G_Odb
 74E8:0296       odcinki150_PS__G_CntProcedures
 74E8:0298       odcinki180_PS__G_CntProcedures
 5AA3:000A       offset__PG
 5D10:0000       okresImp__FIltr1St
 5A17:01CE       oldNMIvector
 637C:0004       opened__FIO
 5A17:000E       overlayInitProc__RTSMain
 5A17:000A       overlayList__RTSMain
 5A17:0012       overlayTermProc__RTSMain
 743C:0010       parSlupkow__L_Slupek
 74E8:15AA       pathAng__G_CntProcedures
 5C9C:0099       pathAng__G_Odb
 742E:0000       pathAng__ILS_EvalProcedures
 7312:0B44       pilEnr__EventsMng
 5AE1:0026       pilErr__ScannerI
 5AE1:0082       pilEvBit__ScannerI
 5AE1:007E       pilEvCon__ScannerI
 7416:0004       pilotEvId__G_DAcquizition
 5AE1:0079       pilotEvNrCOn__ScannerI
 5AE1:007C       pilotEvNr__ScannerI
 5AA3:0001       podzielnik__PG
 5AA3:0004       polaryzacjaOK__PG
 7416:000E       polvfaza__G_DAcquizition
 7416:0010       pom2sek__G_DAcquizition
 5C60:001B       pomPromieniowy__Screen
 5C60:007A       popJakieWykr__Dialog__Screen
 5E65:0007       posInRecBuf__GPS_TRIMBLE
 5E5C:000A       posInRecBuf__GPS_nov
 5C83:0021       prevHeap__Storage
 5A17:0046       priorityMasks__RTSMain
 74E8:002C       procIdx__G_CntProcedures
 5C9C:00E8       procIdx__G_Odb
 74E8:0000       procTable__G_CntProcedures
 5C9C:00B4       procTable__G_Odb
 64F5:C882       procVAL1__tablice__DataCollect
 64F5:C88A       procVAL2__tablice__DataCollect
 64F5:C892       procVAL3__tablice__DataCollect
 64F5:C89A       procVAL4__tablice__DataCollect
 5A17:003E       programSize
 5C56:007B       promien__Pomiar
 584C:0000       pushLSet__Longs
 5CCF:0221       realComm__NAVGPIB
 5C9C:02A3       rec__G_Odb
 73CD:0489       rec__G_results
 7416:0003       redrawM__G_DAcquizition
 7416:0002       redraw__G_DAcquizition
 64AA:005F       redraw__Mapa
 74E8:004A       refDisCV__G_CntProcedures
 74E8:0046       refEl__G_CntProcedures
 5D0A:0040       refPress__AltInterface
 743C:0028       regionyWyk__L_Slupek
 5CCD:0004       ret__MsgBox
 6465:01F0       rx__BezWyszeregowania__MMMouse
 6465:01F2       ry__BezWyszeregowania__MMMouse
 5C60:002B       samplediv__Screen
 64F5:C85A       samplediv__tablice__DataCollect
 64F5:C8A2       samples__tablice__DataCollect
 74D6:000F       scaleDiv__Print
 743C:005A       screeenDIB__L_Slupek
 5C60:006A       screenDIB__Screen
 5C9C:00A1       secWith__G_Odb
 5C8D:000C       semafor__HiLevGraf
 5C9C:028A       sigNilVal__G_Odb
 74E8:0030       signalsCV__G_CntProcedures
 5AF6:0000       signals__DGHIni
 5C9C:02A1       simEl__G_Odb
 5CCF:0001       simpleComm__NAVGPIB
 5C60:0082       skalaWpionie__Dialog__Screen
 5CC7:0014       slLDib_rec__ScreenCTypes
 5CC7:000C       slLReg_rec__ScreenCTypes
 5CC7:0008       slL_pnt__ScreenCTypes
 5CC7:0000       slL_rec__ScreenCTypes
 5CC7:004C       slPDib_rec__ScreenCTypes
 5CC7:0044       slPReg_rec__ScreenCTypes
 5CC7:0040       slP_pnt__ScreenCTypes
 5CC7:0038       slP_rec__ScreenCTypes
 5CC7:0030       slSDib_rec__ScreenCTypes
 5CC7:0028       slSReg_rec__ScreenCTypes
 5CC7:0024       slS_pnt__ScreenCTypes
 5CC7:001C       slS_rec__ScreenCTypes
 73C8:000C       slupkiAktywne__PI_ScrUtility
 73C8:0000       slupki__PI_ScrUtility
 5AA4:012A       spTab__MANAGER
 7438:0002       speedMask__NAVInterface
 64F2:0010       srodekSkali__CocpDsp
 643F:00D3       stat_Files__Obloty
 643F:00CB       stat_Size__Obloty
 5CCF:0395       status__NAVGPIB
 5C73:001D       sthPressed__MouseMonitor__PI_An
 5C94:0008       str__GrafUtil
 584C:005E       subSet__Longs
 5E5C:0007       sumaModC__GPS_nov
 5E5C:0008       sumaModF__GPS_nov
 584C:0036       superSet__Longs
 5AA3:0003       switchAble__PG
 5AA3:0005       synResult__PG
 7312:0B4C       teoEnr__EventsMng
 5AED:003C       teoEvBit__TheodolitRead
 5AED:004C       teoEvCon__TheodolitRead
 5AED:0050       teoEvNrCOn__TheodolitRead
 73CD:048A       trn__G_results
 584C:00CF       unionCompl__Longs
 584C:0086       union__Longs
 5D18:13FD       void__Kalibracja
 5AED:0038       wd_dgps_currSign__TheodolitRead
 74E8:0044       wysokoscCV__G_CntProcedures
 5C32:01C4       xRefDefV__Files
 5C32:01C0       xRefFile__Files
 745B:0002       xh__DrawEpson
 7419:00E7       zOdb__G_Print
 742E:0002       znakKata__ILS_EvalProcedures
 74E8:002F       zoneNr__G_CntProcedures
 64AA:0020       zrobione__Mapa

  Address         Publics by Value

 0000:0000  Abs  KEY__10jul99_1214_OF_AltInterfa
 0000:0000  Abs  KEY__10jul99_1214_OF_ARINC
 0000:0000  Abs  KEY__10jul99_1216_OF_L_DataBase
 0000:0000  Abs  KEY__10jul99_1214_OF_CocpDsp
 0000:0000  Abs  KEY__10jul99_1214_OF_Buttons
 0000:0000  Abs  KEY__10aug87_2033_OF_Random
 0000:0000  Abs  KEY__10aug87_2033_OF_RTSCorouti
 0000:0000  Abs  KEY__10aug87_2033_OF_RealConver
 0000:0000  Abs  KEY__10jul87_1035_OF_RTSMonExit
 0000:0000  Abs  KEY__10aug87_2033_OF_Sounds
 0000:0000  Abs  KEY__10jul99_1214_OF_CommonType
 0000:0000  Abs  KEY__10jul99_1214_OF_GeoArithme
 0000:0000  Abs  KEY__10jul99_1214_OF_Czas
 0000:0000  Abs  KEY__10jul99_1214_OF_Messages
 0000:0000  Abs  KEY__10jul99_1214_OF_DGHIni
 0000:0000  Abs  KEY__10jul99_1216_OF_L_Slupek
 0000:0000  Abs  KEY__10jul99_1214_OF_NAVInterfa
 0000:0000  Abs  KEY__10jul99_1214_OF_CommonData
 0000:0000  Abs  KEY__10jul99_1214_OF_MsgBox
 0000:0000  Abs  KEY__10jul99_1214_OF_NAVGPIB
 0000:0000  Abs  KEY__10jul99_1214_OF_PI_Drukuj
 0000:0000  Abs  KEY__10jul99_1214_OF_PI_Glowny
 0000:0000  Abs  KEY__10jul99_1214_OF_PI_ArchDat
 0000:0000  Abs  KEY__10aug87_2031_OF_Strings
 0000:0000  Abs  KEY__10jul99_1214_OF_Int_DME
 0000:0000  Abs  KEY__10aug87_2031_OF_NumberConv
 0000:0000  Abs  KEY__10jul99_1214_OF_PI_Pomiar
 0000:0000  Abs  KEY__10aug87_2031_OF_RTSDevice
 0000:0000  Abs  KEY__10jul99_1214_OF_PI_PA
 0000:0000  Abs  KEY__10aug87_2031_OF_Storage
 0000:0000  Abs  KEY__10aug87_2032_OF_MathLib0
 0000:0000  Abs  KEY__10jul99_1214_OF_Obloty
 0000:0000  Abs  KEY__10aug87_2033_OF_Mouse
 0000:0000  Abs  KEY__10jul99_1214_OF_GrafTypes
 0000:0000  Abs  KEY__10jul99_1214_OF_GrafUtil
 0000:0000  Abs  KEY__10jul99_1214_OF_PI_Analiza
 0000:0000  Abs  KEY__10jul99_1214_OF_Kalibracja
 0000:0000  Abs  KEY__10aug87_2031_OF_Termbase
 0000:0000  Abs  KEY__10jul99_1216_OF_L_Count
 0000:0000  Abs  KEY__10aug87_2031_OF_Terminal
 0000:0000  Abs  KEY__10jul99_1217_OF_G_DisResul
 0000:0000  Abs  KEY__10jul99_1217_OF_G_Files
 0000:0000  Abs  KEY__10jul99_1217_OF_G_DAcquizi
 0000:0000  Abs  KEY__10jul99_1214_OF_DrawEpson
 0000:0000  Abs  KEY__10jul99_1217_OF_G_CommonTy
 0000:0000  Abs  KEY__10jul99_1214_OF_DisResUtil
 0000:0000  Abs  KEY__10jul99_1217_OF_G_Odb
 0000:0000  Abs  KEY__10jul99_1214_OF_GPS_TRIMBL
 0000:0000  Abs  KEY__10jul99_1217_OF_G_Inspekcj
 0000:0000  Abs  KEY__10jul99_1217_OF_G_Oblot
 0000:0000  Abs  KEY__10jul99_1214_OF_FIltr1St
 0000:0000  Abs  KEY__10jul99_1214_OF_GPSRead
 0000:0000  Abs  KEY__10jul99_1214_OF_Files
 0000:0000  Abs  KEY__10jul99_1214_OF_GList
 0000:0000  Abs  KEY__10jul99_1214_OF_FlagAnal
 0000:0000  Abs  KEY__10jul99_1214_OF_EventsMng
 0000:0000  Abs  KEY__10jul99_1214_OF_ErrorMess
 0000:0000  Abs  KEY__10jul99_1214_OF_FCBS
 0000:0000  Abs  KEY__10jul99_1217_OF_G_CntProce
 0000:0000  Abs  KEY__10jul99_1214_OF_FIO
 0000:0000  Abs  KEY__12aug87_1620_OF_RTSMain
 0000:0000  Abs  KEY__21aug96_1223_OF_XMS
 0000:0000  Abs  KEY__10jul99_1217_OF_PG
 0000:0000  Abs  KEY__10jul99_1214_OF_MMMouse
 0000:0000  Abs  KEY__10jul99_1214_OF_M_PGPIB
 0000:0000  Abs  KEY__10jul99_1214_OF_Marks
 0000:0000  Abs  KEY__10jul99_1214_OF_Math
 0000:0000  Abs  KEY__10jul99_1214_OF_DGHInterfa
 0000:0000  Abs  KEY__10jul99_1214_OF_Mapa
 0000:0000  Abs  KEY__10jul99_1214_OF_DGH_utils
 0000:0000  Abs  KEY__10jul99_1214_OF_GPS_nov
 0000:0000  Abs  KEY__10jul99_1214_OF_Kl_FGenera
 0000:0000  Abs  KEY__10jul99_1214_OF_DataCollec
 0000:0000  Abs  KEY__10jul99_1214_OF_DigiRS
 0000:0000  Abs  KEY__10jul99_1214_OF_Dialog
 0000:0000  Abs  KEY__10jul99_1217_OF_G_Print
 0000:0000  Abs  KEY__10jul99_1217_OF_G_results
 0000:0000  Abs  KEY__10jul99_1217_OF_G_CP_Contr
 0000:0000  Abs  KEY__10jul99_1214_OF_MANAGER
 0000:0000  Abs  KEY__10jul99_1214_OF_DOSEntry
 0000:0000  Abs  KEY__10jul99_1214_OF_PI_Qcheck
 0000:0000  Abs  KEY__10jul99_1214_OF_TheodolitR
 0000:0000  Abs  KEY__10jul99_1214_OF_Ini
 0000:0000  Abs  KEY__10jul99_1214_OF_Timer
 0000:0000  Abs  KEY__00xxx00_0000_OF_RTSError
 0000:0000  Abs  KEY__10jul99_1214_OF_InpLine
 0000:0000  Abs  KEY__00xxx00_0000_OF_RTSRealErr
 0000:0000  Abs  KEY__00xxx00_0000_OF_RTSCorouti
 0000:0000  Abs  KEY__10aug87_2030_OF_ASCII
 0000:0000  Abs  KEY__00xxx00_0000_OF_RTS87
 0000:0000  Abs  KEY__10jul99_1214_OF_Tune
 0000:0000  Abs  KEY__10jul99_1214_OF_Print
 0000:0000  Abs  KEY__10jul99_1214_OF_Pomiar
 0000:0000  Abs  KEY__05feb87_1233_OF_Longs
 0000:0000  Abs  KEY__10jul99_1214_OF_HRD_Clock
 0000:0000  Abs  KEY__10jul99_1214_OF_Graphics
 0000:0000  Abs  KEY__10jul99_1214_OF_StdIO
 0000:0000  Abs  KEY__00xxx00_0000_OF_RTSLanguag
 0000:0000  Abs  KEY__10jul99_1214_OF_PrintCntro
 0000:0000  Abs  KEY__00xxx00_0000_OF_RTSMain
 0000:0000  Abs  KEY__10jul99_1214_OF_ScannerI
 0000:0000  Abs  KEY__00xxx00_0000_OF_RTSPriorit
 0000:0000  Abs  KEY__00xxx00_0000_OF_RTSInterru
 0000:0000  Abs  KEY__10jul99_1214_OF_SwitchCntr
 0000:0000  Abs  KEY__10jul99_1214_OF_Screen
 0000:0000  Abs  KEY__10jul99_1214_OF_SpecConv
 0000:0000  Abs  KEY__10jul99_1214_OF_ScreenCTyp
 0000:0000  Abs  KEY__10jul99_1214_OF_WorseBecau
 0000:0000  Abs  KEY__10jul99_1216_OF_L_CommonTy
 0000:0000  Abs  KEY__10jul99_1214_OF_Slupek
 0000:0000  Abs  KEY__10jul99_1214_OF_Polozenie
 0000:0000  Abs  KEY__10aug87_2031_OF_Devices
 0000:0000  Abs  KEY__10jul99_1214_OF_HiLevGraf
 0000:0000  Abs  KEY__10aug87_2031_OF_DebugPMD
 0000:0000  Abs  KEY__10jul99_1214_OF_ShortCuts
 0000:0000  Abs  KEY__10aug87_2031_OF_DynMem
 0000:0000  Abs  KEY__10jul99_1214_OF_PI_ScrUtil
 0000:0000  Abs  KEY__10aug87_2031_OF_Keyboard
 0000:0000  Abs  KEY__10jul99_1216_OF_ILS_ZoneMn
 0000:0000  Abs  KEY__10jul99_1214_OF_PiszEventy
 0000:0000  Abs  KEY__10jul99_1214_OF_SoftIntHan
 0000:0000  Abs  KEY__10aug87_2031_OF_Display
 0000:0000  Abs  KEY__10jul99_1214_OF_XMSService
 0000:0000  Abs  KEY__10jul99_1214_OF_XMSTable
 0000:0000  Abs  KEY__10jul99_1216_OF_ILS_EvalPr
 0000:0000  Abs  KEY__10aug87_2030_OF_BitByteOps
 0000:0000  Abs  KEY__10aug87_2030_OF_BlockOps
 0000:0000  Abs  KEY__10jul99_1214_OF_Wykres
 0000:0000  Abs  KEY__10jul99_1214_OF_Semafory
 0000:0000  Abs  KEY__10aug87_2031_OF_DOSMemory
 0000:0000  Abs  KEY__00xxx00_0000_OF_DebugPMD
 0001:0000       $BM__PG
 0001:0002       $BODY__PG
 0001:0354       StartModula
 0001:0409       $EM__PG
 0042:0000       $BM__MANAGER
 0042:0002       S__ASSERT__MANAGER
 0042:002D       S__InsertReady__MANAGER
 0042:0236       S__RemoveReady__MANAGER
 0042:04D7       S__ClearQueue__MANAGER
 0042:05E2       S__INSERT__MANAGER
 0042:07D2       S__REMOVE__MANAGER
 0042:0892       L__SEND__Scheduler__MANAGER
 0042:0892       L__SEND__MANAGER
 0042:0A58       L__Notify__Scheduler__MANAGER
 0042:0A58       L__Notify__MANAGER
 0042:0AAF       L__Broadcast__Scheduler__MANAGE
 0042:0AAF       L__Broadcast__MANAGER
 0042:0AFD       L__WAITS__Scheduler__MANAGER
 0042:0AFD       L__WAITS__MANAGER
 0042:0BEF       L__WAITC__Scheduler__MANAGER
 0042:0BEF       L__WAITC__MANAGER
 0042:0CE1       L__DOIO__MANAGER
 0042:0CE1       L__DOIO__Scheduler__MANAGER
 0042:0FB4       L__AWAITEDS__Scheduler__MANAGER
 0042:0FB4       L__AWAITEDS__MANAGER
 0042:0FEF       L__AWAITEDC__Scheduler__MANAGER
 0042:0FEF       L__AWAITEDC__MANAGER
 0042:102A       S__STOPPROCESS__Scheduler__MANA
 0042:1144       S__StopAError__Scheduler__MANAG
 0042:11B5       S__ActivateProcess__Scheduler__
 0042:12EF       L__Assert__MANAGER
 0042:12EF       L__Assert__Scheduler__MANAGER
 0042:1357       $BODY__Scheduler__MANAGER
 0042:137C       L__STARTPROCESS__MANAGER
 0042:1629       L__PriorityDecrease__MANAGER
 0042:176C       L__InitC__MANAGER
 0042:1782       L__InitS__MANAGER
 0042:1798       L__Release__MANAGER
 0042:17CC       L__StartTimeSlicing__MANAGER
 0042:17E6       L__RecoveryTime__MANAGER
 0042:17F9       L__CurrentProcess__MANAGER
 0042:1815       L__InstallTermProc__MANAGER
 0042:188B       L__RemoveTermProc__MANAGER
 0042:18E5       L__EnterProtectedOp__MANAGER
 0042:18ED       L__ExitProtectedOp__MANAGER
 0042:18F5       S__CallTerminatingProcedures__M
 0042:1973       L__Terminator__MANAGER
 0042:1A6A       S__InstallTerminator__MANAGER
 0042:1A90       L__DUMMYPRO__MANAGER
 0042:1B1A       $BODY__MANAGER
 0042:1DCE       $INIT__MANAGER
 0042:1E0C       $EM__MANAGER
 0223:0000       $BM__DOSEntry
 0223:0002       L__onEntryHandler__DOSEntry
 0223:004F       L__onExitHandler__DOSEntry
 0223:009C       L__TerminalProcedure__DOSEntry
 0223:00C2       $BODY__DOSEntry
 0223:0150       $INIT__DOSEntry
 0223:017A       $EM__DOSEntry
 023B:0000       $BM__ErrorMess
 023B:0029       L__MyErrorHand__ErrorMess
 023B:00E1       $BODY__ErrorMess
 023B:010C       $INIT__ErrorMess
 023B:0145       $EM__ErrorMess
 0250:0000       $BM__PI_PA
 0250:0002       $BODY__PI_PA
 0250:0012       $INIT__PI_PA
 0250:002D       $EM__PI_PA
 0253:0000       $BM__Tune
 0253:0007       S__Send__Tune
 0253:009C       L__TurnOffADF__Tune
 0253:00F4       L__TurnOffVOR_ILS__Tune
 0253:014C       L__TuneADF__Tune
 0253:0303       N__TuneGS__TuneILS__Tune
 0253:0409       L__TuneILS__Tune
 0253:049F       S__SendDMECntrlWrd__Tune
 0253:052E       N__ConvertFrqTOControlWord__Tun
 0253:05D9       L__TuneDMEforVOR__Tune
 0253:061B       L__TuneDMEforILS__Tune
 0253:065D       L__TuneVOR__Tune
 0253:0697       S__TuneVOR_ILS__Tune
 0253:07EE       L__ILSfrqString__Tune
 0253:0849       L__ILSIncFch__Tune
 0253:0881       L__ILSDecFch__Tune
 0253:08B9       L__VORIncFch__Tune
 0253:08FF       L__VORDecFch__Tune
 0253:093F       L__IncADFFch__Tune
 0253:0966       L__DecADFFch__Tune
 0253:0998       L__SetCPFlags__Tune
 0253:0A08       $BODY__Tune
 0253:0C0B       $INIT__Tune
 0253:0C49       $EM__Tune
 0318:0000       $BM__PI_Qcheck
 0318:0131       N__Tlo__Sprawdz__PI_Qcheck
 0318:019A       N__WrStr__Sprawdz__PI_Qcheck
 0318:0203       N__WrInt__Sprawdz__PI_Qcheck
 0318:027E       N__WrPrc__Sprawdz__PI_Qcheck
 0318:037A       L__Sprawdz__PI_Qcheck
 0318:092F       S__Init__PI_Qcheck
 0318:09A9       $BODY__PI_Qcheck
 0318:09B2       $INIT__PI_Qcheck
 0318:0A27       $EM__PI_Qcheck
 03BB:0000       $BM__ScannerI
 03BB:0104       S__DistR2C__ScannerI
 03BB:01B8       L__GetGPS__ScannerI
 03BB:0377       L__GetGPSSpread__ScannerI
 03BB:069A       L__GetAndCountTEODummy__Scanner
 03BB:06AF       N__GetTeo__GetAndCountTEO__Scan
 03BB:0894       L__GetAndCountTEO__ScannerI
 03BB:098F       L__Sim_Dis__ScannerI
 03BB:0AA9       L__AssSim_Dis__ScannerI
 03BB:0ACE       L__Sim_Alfa__ScannerI
 03BB:0B3C       L__AssSim_Alfa__ScannerI
 03BB:0B61       S__InitDataSimul__ScannerI
 03BB:0C27       N__TurnDGH_ON__SIMDATA__Scanner
 03BB:0C76       N__ReadDME__SIMDATA__ScannerI
 03BB:0DD2       N__ReadALT__SIMDATA__ScannerI
 03BB:0E64       N__OdlegWgPredk__SIMDATA__Scann
 03BB:0F36       L__SIMDATA__ScannerI
 03BB:13C4       N__FindIt__SetEvalPROC__Scanner
 03BB:1450       N__FindFree__SetEvalPROC__Scann
 03BB:14C3       L__SetEvalPROC__ScannerI
 03BB:155E       L__NewDataAvailable__ScannerI
 03BB:1588       L__Start__ScannerI
 03BB:1725       L__LocationsTogether__ScannerI
 03BB:1754       L__CurrGPSAlfaOffset__ScannerI
 03BB:1783       L__Stop__ScannerI
 03BB:17B0       L__InitPilotEventId__ScannerI
 03BB:17D3       L__GetPilotEvent__ScannerI
 03BB:1827       S__Chksimul__ScannerI
 03BB:1886       $BODY__ScannerI
 03BB:1954       $INIT__ScannerI
 03BB:19D3       $EM__ScannerI
 0559:0000       $BM__CommonTypes
 0559:0010       L__GetRecName__CommonTypes
 0559:0055       L__GetTranName__CommonTypes
 0559:0098       L__InitSignalDsc__CommonTypes
 0559:00B7       L__Init_flgTab__CommonTypes
 0559:00F4       $BODY__CommonTypes
 0559:00FA       $INIT__CommonTypes
 0559:011F       $EM__CommonTypes
 056C:0000       $BM__TheodolitRead
 056C:0107       N__Angle360__TheodolitView__The
 056C:01B7       L__TheodolitView__TheodolitRead
 056C:05AE       L__GetCurrDataSign__TheodolitRe
 056C:05DD       L__InitTeoEventId__TheodolitRea
 056C:0600       L__GetTeoEvent__TheodolitRead
 056C:0654       L__GetTheoR__TheodolitRead
 056C:0700       L__GetTheoI__TheodolitRead
 056C:0852       S__signalError__TheodolitRead
 056C:086F       N__AssignRes__Analizer__Theodol
 056C:0915       N__Rd__Analizer__TheodolitRead
 056C:097D       N__CountCrc__Analizer__Theodoli
 056C:09A8       N__GetNum__Analizer__TheodolitR
 056C:0A73       S__Analizer__TheodolitRead
 056C:0DF1       L__WatchDog__TheodolitRead
 056C:0ECB       L__NicNieRob__TheodolitRead
 056C:0EE0       $BODY__TheodolitRead
 056C:1039       $INIT__TheodolitRead
 056C:1095       $EM__TheodolitRead
 0676:0000       $BM__GPSRead
 0676:001A       L__Read_Nic__GPSRead
 0676:002D       L__Read_Nov__GPSRead
 0676:0177       L__Read_Trimble__GPSRead
 0676:0225       L__GPSReceive__GPSRead
 0676:029B       L__GetDirection__GPSRead
 0676:02DA       L__GetCurrDataSign__GPSRead
 0676:0309       L__WatchDog__GPSRead
 0676:05FA       $BODY__GPSRead
 0676:0670       $INIT__GPSRead
 0676:06B3       $EM__GPSRead
 06E2:0000       $BM__DGHIni
 06E2:03D8       S__InitTableOfNames__DGHIni
 06E2:08D1       S__FillSignalTable__DGHIni
 06E2:0CDC       S__ReadDGHIniFile__DGHIni
 06E2:0D08       $BODY__DGHIni
 06E2:0D49       $INIT__DGHIni
 06E2:0D73       $EM__DGHIni
 07BA:0000       $BM__G_Files
 07BA:00B5       S__StartFiles__G_Files
 07BA:022C       L__CreateFiles__G_Files
 07BA:0248       L__OpenFiles__G_Files
 07BA:02EA       L__SaveData__G_Files
 07BA:0511       N__Rd__LoadData__G_Files
 07BA:0552       L__LoadData__G_Files
 07BA:075B       L__CloseFiles__G_Files
 07BA:07EC       L__OpenSignalFiles__G_Files
 07BA:0887       L__ReadAllSignals__G_Files
 07BA:0982       L__CloseSignalFiles__G_Files
 07BA:099C       L__KopiujWszystkiePliki__G_File
 07BA:0B1F       L__GetSigFileName__G_Files
 07BA:0B92       L__OpenFileRes__G_Files
 07BA:0D0F       L__WriteFileRes__G_Files
 07BA:0D79       L__CloseFileRes__G_Files
 07BA:0DF7       L__GetResFileName__G_Files
 07BA:0E6A       N__AssignName__InitLocals__G_Fi
 07BA:0F16       S__InitLocals__G_Files
 07BA:110F       $BODY__G_Files
 07BA:1118       $INIT__G_Files
 07BA:1197       $EM__G_Files
 08D4:0000       $BM__PI_Glowny
 08D4:0002       L__GlownyEP__PI_Glowny
 08D4:009B       $BODY__PI_Glowny
 08D4:00A1       $INIT__PI_Glowny
 08D4:00FD       $EM__PI_Glowny
 08E4:0000       $BM__G_Inspekcja
 08E4:02D1       S__Pokaz__G_Inspekcja
 08E4:033B       L__UsunOblot__G_Inspekcja
 08E4:03D6       L__UsunOblotP__G_Inspekcja
 08E4:043D       L__ProbujWstawicOblot__G_Inspek
 08E4:0453       L__ZmienOblot__G_Inspekcja
 08E4:0704       L__EnumObl__G_Inspekcja
 08E4:072E       L__WymienPasujaceObloty__G_Insp
 08E4:0790       L__DodajOblot__G_Inspekcja
 08E4:0D91       L__NowyOblot__G_Inspekcja
 08E4:0DF8       L__OblotOK__G_Inspekcja
 08E4:0EA4       N__SetDefInsp__InspekcjaEP__G_I
 08E4:0F4E       L__InspekcjaEP__G_Inspekcja
 08E4:12CC       $BODY__G_Inspekcja
 08E4:12FA       $INIT__G_Inspekcja
 08E4:13A1       $EM__G_Inspekcja
 0A1F:0000       $BM__G_Oblot
 0A1F:05A4       L__AlarmSciezki_A_G__G_Oblot
 0A1F:05C9       L__AlarmSciezki_A_D__G_Oblot
 0A1F:05EE       L__AlarmSciezki_B_G__G_Oblot
 0A1F:0613       L__AlarmSciezki_B_D__G_Oblot
 0A1F:0638       L__SzerSektora_pA_A_G__G_Oblot
 0A1F:065D       L__SzerSektora_pA_A_D__G_Oblot
 0A1F:0682       L__SzerSektora_pA_B_G__G_Oblot
 0A1F:06A7       L__SzerSektora_pA_B_D__G_Oblot
 0A1F:06CC       L__AlarmSzeroki_pA_A_G__G_Oblot
 0A1F:06F1       L__AlarmSzeroki_pA_A_D__G_Oblot
 0A1F:0716       L__AlarmSzeroki_pA_B_G__G_Oblot
 0A1F:073B       L__AlarmSzeroki_pA_B_D__G_Oblot
 0A1F:0760       L__AlarmWaski_pA_A_G__G_Oblot
 0A1F:0785       L__AlarmWaski_pA_A_D__G_Oblot
 0A1F:07AA       L__AlarmWaski_pA_B_G__G_Oblot
 0A1F:07CF       L__AlarmWaski_pA_B_D__G_Oblot
 0A1F:07F4       L__KatSciezki_A__G_Oblot
 0A1F:0813       L__KatSciezki_B__G_Oblot
 0A1F:0832       L__KatSciezki_Szer_pA_A__G_Oblo
 0A1F:0851       L__KatSciezki_Szer_pA_B__G_Oblo
 0A1F:0870       L__KatSciezki_Waski_pA_A__G_Obl
 0A1F:088F       L__KatSciezki_Waski_pA_B__G_Obl
 0A1F:08AE       L__Szer_i_Osi_pB_A__G_Oblot
 0A1F:08CD       L__Szer_i_Osi_pB_B__G_Oblot
 0A1F:08EC       L__AlarmSzer_pB_A__G_Oblot
 0A1F:090B       L__AlarmSzer_pB_B__G_Oblot
 0A1F:092A       L__AlarmWaski_pB_A__G_Oblot
 0A1F:0949       L__AlarmWaski_pB_B__G_Oblot
 0A1F:0968       L__RownowagaModulacji_A__G_Oblo
 0A1F:0987       L__RownowagaModulacji_B__G_Oblo
 0A1F:09A6       L__Fazowanie_A__G_Oblot
 0A1F:09C5       L__Fazowanie_B__G_Oblot
 0A1F:09E4       L__Zabezpieczenie_A__G_Oblot
 0A1F:0A03       L__Zabezpieczenie_B__G_Oblot
 0A1F:0A22       L__Pokrycie_w_osi_A__G_Oblot
 0A1F:0A41       L__Pokrycie_w_osi_B__G_Oblot
 0A1F:0A60       L__Pokrycie_8_st_P_A__G_Oblot
 0A1F:0A7F       L__Pokrycie_8_st_P_B__G_Oblot
 0A1F:0A9E       L__Pokrycie_8_st_L_A__G_Oblot
 0A1F:0ABD       L__Pokrycie_8_st_L_B__G_Oblot
 0A1F:0ADC       S__IdentPkt__G_Oblot
 0A1F:0C42       L__IdentPkt0__G_Oblot
 0A1F:0C56       L__IdentPkt1__G_Oblot
 0A1F:0C6A       L__IdentPkt2__G_Oblot
 0A1F:0C7E       L__TestUP_PROC__G_Oblot
 0A1F:0C9E       L__Raport_PROC__G_Oblot
 0A1F:0CBE       L__PlayP__G_Oblot
 0A1F:0CDE       L__RaportKoncowy__G_Oblot
 0A1F:0CFE       L__View_PROC__G_Oblot
 0A1F:0D1E       S__RealVal__G_Oblot
 0A1F:0D7B       S__Pokaz__G_Oblot
 0A1F:0DE5       L__ValidReal__G_Oblot
 0A1F:0EA8       L__ZakonczDlg__G_Oblot
 0A1F:0EBE       L__Szer_Sekt__G_Oblot
 0A1F:1251       L__PomiarP__G_Oblot
 0A1F:12CD       L__GlowOdbP__G_Oblot
 0A1F:137F       S__OdnOdlP__G_Oblot
 0A1F:147D       S__RealValid__G_Oblot
 0A1F:1546       L__RealCisnValid__G_Oblot
 0A1F:160F       S__StronaCH__G_Oblot
 0A1F:1631       S__NadajnikCH__G_Oblot
 0A1F:165C       N__InitDefault__InitLot__G_Oblo
 0A1F:1948       N__CzytajParametry__FillData__I
 0A1F:19BF       N__CzytajPrmtryABLP__FillData__
 0A1F:1B10       N__CzytajPrmtryAB__FillData__In
 0A1F:1BCB       N__FillData__InitLot__G_Oblot
 0A1F:1E47       N__SaveDefault__InitLot__G_Oblo
 0A1F:2037       N__Make2__AssignButt__InitLot__
 0A1F:2102       N__Make3__AssignButt__InitLot__
 0A1F:2276       N__Make4__AssignButt__InitLot__
 0A1F:23BC       N__AssignButt__InitLot__G_Oblot
 0A1F:2B76       L__InitLot__G_Oblot
 0A1F:2C6E       L__SciezkaDoKataloguOpisu__G_Ob
 0A1F:2DA4       S__Wlacz_Wylacz__G_Oblot
 0A1F:2E5B       N__ProcIdentifier__Zapisz__G_Ob
 0A1F:30A5       L__Zapisz__G_Oblot
 0A1F:32A8       $BODY__G_Oblot
 0A1F:32D7       $INIT__G_Oblot
 0A1F:33B5       $EM__G_Oblot
 0D5B:0000       $BM__SpecConv
 0D5B:009C       S__CheckINil__SpecConv
 0D5B:0163       S__CheckCNil__SpecConv
 0D5B:01ED       L__Int2Str__SpecConv
 0D5B:0225       L__Card2Str__SpecConv
 0D5B:025D       L__Int10Str__SpecConv
 0D5B:033A       L__Card10Str__SpecConv
 0D5B:0411       L__Int100Str__SpecConv
 0D5B:0535       L__Int100StrCalk__SpecConv
 0D5B:057F       L__Card100Str__SpecConv
 0D5B:06A4       L__Ang100Str36__SpecConv
 0D5B:0711       L__Ang100Str36Calk__SpecConv
 0D5B:078F       L__Int500Str__SpecConv
 0D5B:08C0       L__Feed500Str__SpecConv
 0D5B:0959       L__Card500Str__SpecConv
 0D5B:0A8D       L__Int1000Str__SpecConv
 0D5B:0BF8       L__Angle100__SpecConv
 0D5B:0C58       L__RAngle100__SpecConv
 0D5B:0D36       L__AngleDeg__SpecConv
 0D5B:0DA7       L__SubAngle100__SpecConv
 0D5B:0E7B       L__AddAngle100__SpecConv
 0D5B:0F4F       L__SubAng360__SpecConv
 0D5B:101A       L__AfterAngle100__SpecConv
 0D5B:10B3       L__SubNormal__SpecConv
 0D5B:10CE       L__AddNormal__SpecConv
 0D5B:10E9       L__GorszeBoDalszeR__SpecConv
 0D5B:1127       L__GorszeBoDalsze__SpecConv
 0D5B:1178       L__GorszeBoBlisze__SpecConv
 0D5B:11C9       L__GorszeBoMniejszePol__SpecCon
 0D5B:120A       L__GorszeBoMniejsze__SpecConv
 0D5B:1237       L__GorszeBoWieksze__SpecConv
 0D5B:1264       L__GorszeBoMniejszeM60__SpecCon
 0D5B:12A5       L__GorszeBoMniejsze400__SpecCon
 0D5B:12E6       L__GorszeBoMniejsze800__SpecCon
 0D5B:1327       L__GorszeBoMniejsze300__SpecCon
 0D5B:1368       L__GorszeBoMniejsze160__SpecCon
 0D5B:13A9       L__GorszeBoMniejsze5000__SpecCo
 0D5B:13EA       L__GorszeBoMniejsze500__SpecCon
 0D5B:142B       L__GorszeBoMniejsze1500__SpecCo
 0D5B:146C       L__GorszeBoMniejsze2000__SpecCo
 0D5B:14AD       L__GorszeBoDalszeOdZera__SpecCo
 0D5B:14EA       L__entierCheck__SpecConv
 0D5B:15A6       L__entier__SpecConv
 0D5B:165C       L__Int2StrCntr__SpecConv
 0D5B:1755       L__Div__SpecConv
 0D5B:1782       L__Mul__SpecConv
 0D5B:17AE       L__Add__SpecConv
 0D5B:17DA       L__Sub__SpecConv
 0D5B:180D       L__SubDis__SpecConv
 0D5B:1858       L__AddDis__SpecConv
 0D5B:189B       L__IncRound__SpecConv
 0D5B:18A9       L__SubWCheck__SpecConv
 0D5B:1948       L__Int2Card__SpecConv
 0D5B:197A       L__ZaokraglicDo500__SpecConv
 0D5B:19B9       $BODY__SpecConv
 0D5B:19BF       $INIT__SpecConv
 0D5B:19F8       $EM__SpecConv
 0EFB:0000       $BM__FlagAnal
 0EFB:0010       N__UsunNajmniejszy__FlagErr_Ana
 0EFB:01D6       L__FlagErr_Anal__FlagAnal
 0EFB:02B3       L__InitFlagErr__FlagAnal
 0EFB:0352       L__GetNextFrac__FlagAnal
 0EFB:044F       L__MinPoczKonSig__FlagAnal
 0EFB:0513       L__MinPoczKonDis__FlagAnal
 0EFB:05D7       L__SumaDlugosciSig__FlagAnal
 0EFB:06A0       $BODY__FlagAnal
 0EFB:06A6       $INIT__FlagAnal
 0EFB:06DA       $EM__FlagAnal
 0F69:0000       $BM__Czas
 0F69:003B       S__Write__BezPrzerwan__Czas
 0F69:00C0       L__GetTimeAndDate__BezPrzerwan_
 0F69:00C0       L__GetTimeAndDate__Czas
 0F69:00E8       S__SetTimeAndDate__BezPrzerwan_
 0F69:0128       L__WriteTime__Czas
 0F69:01DA       L__SetTime__Czas
 0F69:021B       L__SetDate__Czas
 0F69:024E       L__ConvertToStr__Czas
 0F69:02AF       L__Terminator__Czas
 0F69:02E0       $BODY__Czas
 0F69:0308       $INIT__Czas
 0F69:0369       $EM__Czas
 0FA0:0000       $BM__L_CommonTypes
 0FA0:0002       L__SuccNumPunktu__L_CommonTypes
 0FA0:0029       L__PrvNumPunktu__L_CommonTypes
 0FA0:0050       L__SuccNumStrefy__L_CommonTypes
 0FA0:0077       L__GetNumStrefy__L_CommonTypes
 0FA0:0094       L__GetNumStrefyEp__L_CommonType
 0FA0:00BB       L__GetZoneBoundPt__L_CommonType
 0FA0:00F7       L__CzyToJestPromien__L_CommonTy
 0FA0:0123       L__InitSignalDsc__L_CommonTypes
 0FA0:0141       $BODY__L_CommonTypes
 0FA0:0147       $INIT__L_CommonTypes
 0FA0:017B       $EM__L_CommonTypes
 0FB8:0000       $BM__G_CommonTypes
 0FB8:0002       $BODY__G_CommonTypes
 0FB8:0008       $INIT__G_CommonTypes
 0FB8:003C       $EM__G_CommonTypes
 0FBC:0000       $BM__ILS_ZoneMngmnt
 0FBC:0002       S__LookFNKP__ILS_ZoneMngmnt
 0FBC:0084       L__TraceZoneCont_Clear__ILS_Zon
 0FBC:00E1       L__TraceZone__ILS_ZoneMngmnt
 0FBC:0191       L__ZoneConClear__ILS_ZoneMngmnt
 0FBC:020C       N__LookForNextPnt__ZoneAnalyse_
 0FBC:02C7       N__CheckIfLost__ZoneAnalyse__IL
 0FBC:0381       N__CheckDis__ZoneAnalyse__ILS_Z
 0FBC:03F5       N__CheckPEv__ZoneAnalyse__ILS_Z
 0FBC:0448       N__CalculateDist__CheckMkr__Zon
 0FBC:048B       N__CheckMkr__ZoneAnalyse__ILS_Z
 0FBC:0567       L__ZoneAnalyse__ILS_ZoneMngmnt
 0FBC:083C       L__Fill_zoneBIdx__ILS_ZoneMngmn
 0FBC:088B       L__Fill_zoneBDisIdx__ILS_ZoneMn
 0FBC:08D2       L__Fill_IdPunktowArr_T__ILS_Zon
 0FBC:0910       L__ZoneBDisIdx_Init__ILS_ZoneMn
 0FBC:0A9F       L__L_LstPToBeTraced__ILS_ZoneMn
 0FBC:0AB3       L__G_LstPToBeTraced__ILS_ZoneMn
 0FBC:0AC1       L__L_LstZToBeTraced__ILS_ZoneMn
 0FBC:0AD5       L__G_LstZToBeTraced__ILS_ZoneMn
 0FBC:0AF1       L__SetLastPointToBeTraced__ILS_
 0FBC:0B3A       $BODY__ILS_ZoneMngmnt
 0FBC:0B4A       $INIT__ILS_ZoneMngmnt
 0FBC:0B88       $EM__ILS_ZoneMngmnt
 1075:0000       $BM__CommonData
 1075:0012       $BODY__CommonData
 1075:00A7       $INIT__CommonData
 1075:00CC       $EM__CommonData
 1082:0000       $BM__Files
 1082:016F       L__Kopiuj__Files
 1082:0240       L__ReadDef__Files
 1082:0273       L__CreateFiles__Files
 1082:0638       L__OpenFiles__Files
 1082:09FD       L__SaveData__Files
 1082:0CB2       L__LoadData__Files
 1082:0F3B       L__CloseFiles__Files
 1082:1096       L__OpenSignalFiles__Files
 1082:1685       L__ReadXref__Files
 1082:16EA       L__ReadFlgs__Files
 1082:1729       L__ReadAllSignals__Files
 1082:17EB       L__CloseSignalFiles__Files
 1082:1902       S__RemoveBSl__Files
 1082:1965       N__TworzK__KopiujWszystkiePliki
 1082:19D4       L__KopiujWszystkiePliki__Files
 1082:1BE4       L__LoadAResult__Files
 1082:1D15       L__SaveAResult__Files
 1082:1DB9       L__ExistDIR__Files
 1082:1E04       L__ChangeDir__Files
 1082:1E3D       L__GoHomeDir__Files
 1082:1E70       S__AssignName__Files
 1082:1F1C       L__SubstituteAngle100__Files
 1082:1F61       L__addAngle100__Files
 1082:1FCB       L__subNormal__Files
 1082:203F       L__addNormal__Files
 1082:20C9       L__FInterpolacja__Files
 1082:246E       L__SigInterpolacja__Files
 1082:264E       L__GetALfaRefFName__Files
 1082:26C2       L__GetDisRefFName__Files
 1082:2735       L__GetCommSigFName__Files
 1082:27A8       L__OpenCommSigFName__Files
 1082:2819       L__CloseCommSigFName__Files
 1082:2833       L__ReadCommSigFName__Files
 1082:2852       S__Init__Files
 1082:2B3D       $BODY__Files
 1082:2B56       $INIT__Files
 1082:2BCB       $EM__Files
 133F:0000       $BM__G_CP_ControlProc
 133F:0002       L__Radial__G_CP_ControlProc
 133F:0057       L__LOCDevErr__G_CP_ControlProc
 133F:008D       L__LOCAzErr__G_CP_ControlProc
 133F:00F7       L__GSDevErr__G_CP_ControlProc
 133F:0173       L__GSDevErrDis__G_CP_ControlPro
 133F:0234       L__ElDis__G_CP_ControlProc
 133F:0291       L__AzDis__G_CP_ControlProc
 133F:02EE       S__GsElErr__G_CP_ControlProc
 133F:033D       L__GSDevDumm__G_CP_ControlProc
 133F:034C       L__StartCPLoop__G_CP_ControlPro
 133F:0509       L__StopCPLoop__G_CP_ControlProc
 133F:055E       $BODY__G_CP_ControlProc
 133F:05AA       $INIT__G_CP_ControlProc
 133F:0624       $EM__G_CP_ControlProc
 13A2:0000       $BM__Pomiar
 13A2:00F4       L__StartBP__Pomiar
 13A2:0104       L__RestartBP__Pomiar
 13A2:0114       L__AbortBP__Pomiar
 13A2:0124       L__CallStopButton__Pomiar
 13A2:012E       L__StopBP__Pomiar
 13A2:013E       L__PrzelaczPomiaryBP__Pomiar
 13A2:014F       L__AkceptacjaBP__Pomiar
 13A2:015F       N__Sek2__PolaryzacjaBP__Pomiar
 13A2:01F6       L__PolaryzacjaBP__Pomiar
 13A2:03EF       L__InitPomiar__Pomiar
 13A2:05EF       N__PoprawnieUstawButtony__Pomia
 13A2:06EF       N__NastepnyStan__GetEvent__Pomi
 13A2:0767       N__GetEvent__PomiarEP__Pomiar
 13A2:08A5       N__InitButtony__PomiarEP__Pomia
 13A2:0B16       N__DisposeButtons__Done__Pomiar
 13A2:0B84       N__Done__PomiarEP__Pomiar
 13A2:0B92       N__AlfaRefInfo__PomiarEP__Pomia
 13A2:0BD2       N__DeltaRefInfo__PomiarEP__Pomi
 13A2:0C3F       N__DataLosInfo__PomiarEP__Pomia
 13A2:0C88       N__PrologAnalyse__PomiarEP__Pom
 13A2:0EC2       L__PomiarEP__Pomiar
 13A2:14E0       $BODY__Pomiar
 13A2:153F       $INIT__Pomiar
 13A2:15AF       $EM__Pomiar
 14FE:0000       $BM__Screen
 14FE:01D5       S__RectWykresy__Screen
 14FE:0259       S__UniversalEvent__Dialog__Scre
 14FE:02D8       L__RegionWykGEvent__Dialog__Scr
 14FE:0323       L__RegionWykGButton__Dialog__Sc
 14FE:037F       L__RegionWyk1Event__Dialog__Scr
 14FE:03CA       L__RegionWyk1Button__Dialog__Sc
 14FE:0419       L__RegionWyk2Event__Dialog__Scr
 14FE:0464       L__RegionWyk2Button__Dialog__Sc
 14FE:04B3       L__RegionWyk3Event__Dialog__Scr
 14FE:04FE       L__RegionWyk3Button__Dialog__Sc
 14FE:054D       S__PokazWgKursora__Dialog__Scre
 14FE:0B48       L__WykrEvent__Dialog__Screen
 14FE:0BC1       L__KursorLewoButton__Dialog__Sc
 14FE:0BDA       L__KursorPrawoPar__Dialog__Scre
 14FE:0BF3       N__RedrawRqs__Xchg__Dialog__Scr
 14FE:0C7D       S__Xchg__Dialog__Screen
 14FE:0CC9       S__ShowBarCursor__Dialog__Scree
 14FE:0D49       L__KursorOnOffBP__Dialog__Scree
 14FE:0D66       L__SkalaPlusBP__Dialog__Screen
 14FE:0E5D       L__SkalaMinusBP__Dialog__Screen
 14FE:0F54       L__KursorPrawoBP__Dialog__Scree
 14FE:0F7E       L__KursorLewoBP__Dialog__Screen
 14FE:0FA8       S__UpdateMap__Dialog__Screen
 14FE:0FD7       N__CurrCursorMode__RuszKursor__
 14FE:10CD       S__RuszKursor__Dialog__Screen
 14FE:1236       N__CurrDistance__OpisDla__InitW
 14FE:13D2       N__OpisDla__InitWykr__Dialog__S
 14FE:1749       S__InitWykr__Dialog__Screen
 14FE:17F1       S__InitDialog__Dialog__Screen
 14FE:1876       S__DisposeKursor__Dialog__Scree
 14FE:18A7       S__KursoffOff__Dialog__Screen
 14FE:18CD       S__KursoffOn__Dialog__Screen
 14FE:18F9       L__ConEventButton__Screen
 14FE:190A       L__SetButtons__Screen
 14FE:1983       S__InitButtony__Screen
 14FE:1AFD       N__ShowCurrDIB__InitSlupki__Scr
 14FE:1B5E       N__Define__InitSlupki__Screen
 14FE:1B9A       S__InitSlupki__Screen
 14FE:1D4C       S__InitKrokOpisuOsi__Screen
 14FE:1D6D       L__Init__Screen
 14FE:1F5F       N__WriteText__ShowMarks__Update
 14FE:20D1       N__DrawEvent__ShowMarks__Update
 14FE:2201       N__ZwKrokOpisuOsi__ShowMarks__U
 14FE:22B6       N__ShowMarks__UpdateWykr__Updat
 14FE:2485       N__UpdateWykr__Update__Screen
 14FE:2CA3       N__MarkDraw__WskazWykresy__Upda
 14FE:2D08       N__WskazWykresy__Update__Screen
 14FE:2D80       N__NapiszGPSFlg__NapiszGPS__Upd
 14FE:2DE6       N__NapiszGPS__UpdateNapisy__Upd
 14FE:30F6       N__NapiszTEO__UpdateNapisy__Upd
 14FE:3357       N__UpdateNapisy__Update__Screen
 14FE:34A4       L__Update__Screen
 14FE:35A5       L__ScreenStart__Screen
 14FE:35AE       N__KasujSlupki__Done__Screen
 14FE:3664       N__DisposeButtons__Done__Screen
 14FE:36CD       L__Done__Screen
 14FE:36D9       $BODY__Screen
 14FE:36F5       $INIT__Screen
 14FE:37A6       $EM__Screen
 1879:0000       $BM__PI_Analiza
 1879:0062       L__DrukujBP__MouseMonitor__PI_A
 1879:0091       L__ZapamietajBP__MouseMonitor__
 1879:00C0       L__PWyjscieZProgramuBP__MouseMo
 1879:00EF       L__PageUpBP__MouseMonitor__PI_A
 1879:011E       L__PrzelaczPomiaryBP__MouseMoni
 1879:014D       L__PageDownBP__MouseMonitor__PI
 1879:017C       S__InitButtony__MouseMonitor__P
 1879:036D       S__GetEvent__MouseMonitor__PI_A
 1879:042C       S__DisposeButtons__MouseMonitor
 1879:04A9       $BODY__MouseMonitor__PI_Analiza
 1879:0518       L__AnalizaEP__PI_Analiza
 1879:06BA       $BODY__PI_Analiza
 1879:06C3       $INIT__PI_Analiza
 1879:0742       $EM__PI_Analiza
 18EE:0000       $BM__PI_Pomiar
 18EE:000A       L__Analiza__PI_Pomiar
 18EE:0036       N__Ofset__InitPomiar__PI_Pomiar
 18EE:007A       L__InitPomiar__PI_Pomiar
 18EE:02AD       $BODY__PI_Pomiar
 18EE:02B3       $INIT__PI_Pomiar
 18EE:0328       $EM__PI_Pomiar
 1921:0000       $BM__PI_ArchDate
 1921:0002       L__LoadData__PI_ArchDate
 1921:0089       $BODY__PI_ArchDate
 1921:008F       $INIT__PI_ArchDate
 1921:00E6       $EM__PI_ArchDate
 1930:0000       $BM__PI_Drukuj
 1930:0002       L__Druk__PI_Drukuj
 1930:000F       $BODY__PI_Drukuj
 1930:0015       $INIT__PI_Drukuj
 1930:0053       $EM__PI_Drukuj
 1936:0000       $BM__L_DataBase
 1936:02B1       S__SignalError__L_DataBase
 1936:02C9       N__GetStr__OpisLotniska__L_Data
 1936:040F       N__CzytajPolozeniePunktowCharak
 1936:050C       N__CzytajPolozenieMarkerow__Opi
 1936:0647       N__CzytajPolozenieGeo__OpisLotn
 1936:0887       L__OpisLotniska__L_DataBase
 1936:0F7C       L__GsMoveDis__L_DataBase
 1936:0FCE       N__GetCardinal__LoadProgramPar_
 1936:103D       S__LoadProgramPar__L_DataBase
 1936:10F3       $BODY__L_DataBase
 1936:111E       $INIT__L_DataBase
 1936:1189       $EM__L_DataBase
 1A4F:0000       $BM__Storage
 1A4F:0002       L__ALLOCATE__Storage
 1A4F:01B9       L__DEALLOCATE__Storage
 1A4F:02D0       L__Available__Storage
 1A4F:03A3       L__InstallHeap__Storage
 1A4F:0422       L__RemoveHeap__Storage
 1A4F:04B3       S__SetStrategia__Storage
 1A4F:04CB       S__GetStrategia__Storage
 1A4F:04E7       S__SetChain__Storage
 1A4F:04FF       S__GetChain__Storage
 1A4F:051E       L__Terminator__Storage
 1A4F:0544       $BODY__Storage
 1A4F:058E       $INIT__Storage
 1A4F:05B8       $EM__Storage
 1AAB:0000       $BM__SoftIntHandlingManager
 1AAB:0002       L__SetEventHandler__SoftIntHand
 1AAB:0041       L__RestoreEventHandler__SoftInt
 1AAB:0067       L__checkBreak__SoftIntHandlingM
 1AAB:008A       L__BreakChain__SoftIntHandlingM
 1AAB:009A       L__InstPrologueHnd__Monitor__So
 1AAB:009A       L__InstPrologueHnd__SoftIntHand
 1AAB:0256       L__InstEpilogueHnd__Monitor__So
 1AAB:0256       L__InstEpilogueHnd__SoftIntHand
 1AAB:03FA       L__UnInstallHandler__SoftIntHan
 1AAB:03FA       L__UnInstallHandler__Monitor__S
 1AAB:0517       L__UnInstallAllHandlers__Monito
 1AAB:0590       $BODY__Monitor__SoftIntHandling
 1AAB:05BE       $BODY__SoftIntHandlingManager
 1AAB:05D1       $INIT__SoftIntHandlingManager
 1AAB:05F6       $EM__SoftIntHandlingManager
 1B0B:0000       $BM__Timer
 1B0B:0002       S__Insert__Monitor__Timer
 1B0B:0159       S__Remove__Monitor__Timer
 1B0B:0277       L__Wait__Monitor__Timer
 1B0B:0277       L__Wait__Timer
 1B0B:0309       L__WaitBefProtOper__Timer
 1B0B:0309       L__WaitBefProtOper__Monitor__Ti
 1B0B:03B8       L__WaitMetronomeBefProtOper__Mo
 1B0B:03B8       L__WaitMetronomeBefProtOper__Ti
 1B0B:043F       L__WaitMetronome__Timer
 1B0B:043F       L__WaitMetronome__Monitor__Time
 1B0B:04B5       L__DefinePeriod__Timer
 1B0B:04B5       L__DefinePeriod__Monitor__Timer
 1B0B:051F       L__CurrentPeriod__Monitor__Time
 1B0B:051F       L__CurrentPeriod__Timer
 1B0B:0559       L__AssignPeriodicProc__Monitor_
 1B0B:0559       L__AssignPeriodicProc__Timer
 1B0B:057E       N__Count__IBMIntHandler__Monito
 1B0B:06FC       L__IBMIntHandler__Monitor__Time
 1B0B:07F7       S__SetCount__Monitor__Timer
 1B0B:08B3       L__RestoreTimer__Monitor__Timer
 1B0B:08D4       $BODY__Monitor__Timer
 1B0B:092C       L__TInOneSecond__Timer
 1B0B:0940       L__NewMetronome__Timer
 1B0B:09B7       L__ResetMetronome__Timer
 1B0B:0A36       L__DisposeMetronome__Timer
 1B0B:0A94       L__NewWatchdog__Timer
 1B0B:0AE2       L__StartProtectedOperation__Tim
 1B0B:0B56       L__StopProtectedOperation__Time
 1B0B:0B9B       L__DisposeWatchdog__Timer
 1B0B:0BFF       L__Dummy__Timer
 1B0B:0C05       S__BreakKey__Timer
 1B0B:0C72       $BODY__Timer
 1B0B:0C8E       $INIT__Timer
 1B0B:0CBD       $EM__Timer
 1BD7:0000       $BM__Messages
 1BD7:0004       L__DisableDisplay__Messages
 1BD7:002E       L__EnableDisplay__Messages
 1BD7:0058       S__ACKMess__Messages
 1BD7:010B       L__NewMessage__Messages
 1BD7:0164       L__DisposeMessage__Messages
 1BD7:0181       L__Display__Messages
 1BD7:0265       L__ShowFirst__Messages
 1BD7:0312       L__AcknowledgeFirst__Messages
 1BD7:0337       L__Acknowledge__Messages
 1BD7:0358       S__OUTMessage__Messages
 1BD7:0382       S__Beep__Messages
 1BD7:03F9       L__KbdAck__Messages
 1BD7:0405       L__KbdDsp__Messages
 1BD7:0411       $BODY__Messages
 1BD7:046A       $INIT__Messages
 1BD7:04A8       $EM__Messages
 1C22:0000       $BM__StdIO
 1C22:0022       N__GetNum__sprintf__StdIO
 1C22:00C8       N__IntConv__sprintf__StdIO
 1C22:023F       N__StripSpaces__sprintf__StdIO
 1C22:031F       N__BuildNumber__sprintf__StdIO
 1C22:037B       L__sprintf__StdIO
 1C22:0D80       L__sprintf4__StdIO
 1C22:0F81       L__sprintf5__StdIO
 1C22:11F3       L__sprintf3__StdIO
 1C22:1383       L__sprintf2__StdIO
 1C22:149F       $BODY__StdIO
 1C22:14A5       $INIT__StdIO
 1C22:14D9       $EM__StdIO
 1D70:0000       $BM__DGHInterface
 1D70:002B       L__GetCurrDataSign__DGHInterfac
 1D70:005A       L__WaitForNewData__DGHInterface
 1D70:00A0       L__TurnOff__DGHInterface
 1D70:00F2       L__TurnOn__DGHInterface
 1D70:0187       L__GetAnalogVal__DGHInterface
 1D70:0226       L__GetBinaryVal__DGHInterface
 1D70:02BB       L__SetAnalogVal__DGHInterface
 1D70:0392       L__SetBinaryVal__DGHInterface
 1D70:04A0       L__SetMessage__DGHInterface
 1D70:065C       N__HexDigit__CHKSRight__Reader_
 1D70:06B0       N__CHKSRight__Reader__Writer__D
 1D70:07A4       N__Reader__Writer__DGHInterface
 1D70:0CCB       L__Writer__DGHInterface
 1D70:0F7B       $BODY__DGHInterface
 1D70:102C       $INIT__DGHInterface
 1D70:1079       $EM__DGHInterface
 1E78:0000       $BM__HiLevGraf
 1E78:0007       S__Max__HiLevGraf
 1E78:0027       S__Min__HiLevGraf
 1E78:0047       S__StdPalette__HiLevGraf
 1E78:0182       L__SetPaletteEntry__HiLevGraf
 1E78:0230       S__SetPalette__HiLevGraf
 1E78:030F       N__OpenF__LoadDIB__HiLevGraf
 1E78:03A5       L__LoadDIB__HiLevGraf
 1E78:06B5       L__DIBWidth__HiLevGraf
 1E78:06E9       L__DIBHeight__HiLevGraf
 1E78:071E       S__Swap__HiLevGraf
 1E78:0741       S__Norm__HiLevGraf
 1E78:0785       L__ShowDIB__HiLevGraf
 1E78:0A9F       L__CloseDIB__HiLevGraf
 1E78:0AE1       L__SetLineStyle__HiLevGraf
 1E78:0AF4       L__Line__HiLevGraf
 1E78:0B20       L__LineS__HiLevGraf
 1E78:0C85       L__Circle__HiLevGraf
 1E78:0F6C       L__FillRect__HiLevGraf
 1E78:1026       L__Clip__HiLevGraf
 1E78:10F4       L__NoClip__HiLevGraf
 1E78:115F       L__GetClip__HiLevGraf
 1E78:117A       L__Point__HiLevGraf
 1E78:121A       L__MoveTo__HiLevGraf
 1E78:1234       L__LineTo__HiLevGraf
 1E78:1268       L__FrameRect__HiLevGraf
 1E78:12D2       L__WrStr__HiLevGraf
 1E78:138A       L__WrStrXY__HiLevGraf
 1E78:144C       L__Wr2StrXY__HiLevGraf
 1E78:1504       L__Wr2fStrXY__HiLevGraf
 1E78:15BC       S__GetDir__HiLevGraf
 1E78:1630       $BODY__HiLevGraf
 1E78:1678       $INIT__HiLevGraf
 1E78:16E3       $EM__HiLevGraf
 1FE7:0000       $BM__GrafTypes
 1FE7:0002       L__IsIntersect__GrafTypes
 1FE7:0058       L__Intersection__GrafTypes
 1FE7:0100       L__MoveRect__GrafTypes
 1FE7:014B       L__IsEqual__GrafTypes
 1FE7:0187       L__AssignRect__GrafTypes
 1FE7:01AD       L__AssignPoint__GrafTypes
 1FE7:01C5       $BODY__GrafTypes
 1FE7:01CB       $INIT__GrafTypes
 1FE7:01E6       $EM__GrafTypes
 2006:0000       $BM__GrafUtil
 2006:0003       L__Info__GrafUtil
 2006:00BB       L__InfoBeep__GrafUtil
 2006:0112       L__DoBeep__GrafUtil
 2006:017A       $BODY__GrafUtil
 2006:01D3       $INIT__GrafUtil
 2006:0220       $EM__GrafUtil
 2029:0000       $BM__G_Odb
 2029:0072       L__DummyProc__G_Odb
 2029:0085       S__Dif_CP__G_Odb
 2029:013E       S__SS_CP__G_Odb
 2029:0164       L__ModG_CP__G_Odb
 2029:01E4       S__Dew_CP__G_Odb
 2029:0264       L__DewLoc_CP__G_Odb
 2029:02E4       L__AzOsiAv_CP__G_Odb
 2029:0496       L__DewOff_CP__G_Odb
 2029:0584       L__DifAv0_CP__G_Odb
 2029:0661       L__DifAZ_CP__G_Odb
 2029:072E       L__Az75_150_CP__G_Odb
 2029:080B       L__Az75_90_CP__G_Odb
 2029:08E8       L__Az0_CP__G_Odb
 2029:09DA       L__Ofset_CP__G_Odb
 2029:09ED       L__AzAv_CP__G_Odb
 2029:0BE5       L__Alt_CP__G_Odb
 2029:0C0C       S__Zone_CP__G_Odb
 2029:0C63       L__Elew_CP__G_Odb
 2029:0CD9       S__ClearContiners__G_Odb
 2029:0FC6       L__PoprawDane__G_Odb
 2029:10A6       N__ReadNAV__Oblicz__G_Odb
 2029:17BC       L__Oblicz__G_Odb
 2029:17E0       L__TurnOn__G_Odb
 2029:1C4E       L__Start__G_Odb
 2029:1C84       L__Zatrzymaj__G_Odb
 2029:1CA1       L__Wznow__G_Odb
 2029:1CBE       L__Sim_Dis__G_Odb
 2029:1D62       L__Sim_Alfa__G_Odb
 2029:1D91       L__IniData__G_Odb
 2029:2233       L__AktStrefa__G_Odb
 2029:2262       L__NastStrefa__G_Odb
 2029:22C6       $BODY__G_Odb
 2029:232C       $INIT__G_Odb
 2029:23B5       $EM__G_Odb
 2265:0000       $BM__ScreenCTypes
 2265:0002       S__Init__ScreenCTypes
 2265:016B       $BODY__ScreenCTypes
 2265:0174       $INIT__ScreenCTypes
 2265:019E       $EM__ScreenCTypes
 227F:0000       $BM__MsgBox
 227F:0017       L__Warn__MsgBox
 227F:0072       L__Info__MsgBox
 227F:00F2       L__AdvInfo__MsgBox
 227F:05C9       L__P0__MsgBox
 227F:05EA       L__P1__MsgBox
 227F:060B       L__P2__MsgBox
 227F:062C       L__P3__MsgBox
 227F:064D       S__Init__MsgBox
 227F:0680       $BODY__MsgBox
 227F:0689       $INIT__MsgBox
 227F:06DB       $EM__MsgBox
 22ED:0000       $BM__NAVGPIB
 22ED:01F5       S__ConvertTMStr__NAVGPIB
 22ED:0261       S__GetResponse__NAVGPIB
 22ED:0357       L__DoSimpleComm__NAVGPIB
 22ED:045A       L__DoCommandRealPar__NAVGPIB
 22ED:04FA       L__VOR_Default__NAVGPIB
 22ED:06B0       L__LOC_Default__NAVGPIB
 22ED:081B       L__GS_Default__NAVGPIB
 22ED:096C       L__MKR_Default__NAVGPIB
 22ED:0A79       $BODY__NAVGPIB
 22ED:0C8A       $INIT__NAVGPIB
 22ED:0CD7       $EM__NAVGPIB
 23BB:0000       $BM__AltInterface
 23BB:0012       L__SetPressure__AltInterface
 23BB:0032       L__ALTConvert__AltInterface
 23BB:0214       $BODY__AltInterface
 23BB:02DB       $INIT__AltInterface
 23BB:030F       $EM__AltInterface
 23ED:0000       $BM__Int_DME
 23ED:0002       L__DMEConvert__Int_DME
 23ED:00C8       $BODY__Int_DME
 23ED:00CE       $INIT__Int_DME
 23ED:00EE       $EM__Int_DME
 23FC:0000       $BM__FIltr1St
 23FC:0082       L__UstawOkresImpulsowania__FIlt
 23FC:00A2       L__InitCont__FIltr1St
 23FC:0199       L__Filtr__FIltr1St
 23FC:024F       L__InitCont2Filters__FIltr1St
 23FC:03DA       L__Filtr2Filters__FIltr1St
 23FC:050E       L__InitContB__FIltr1St
 23FC:053F       L__FiltrB__FIltr1St
 23FC:0598       L__InitContBCoun__FIltr1St
 23FC:05B7       L__BinaryCounter__FIltr1St
 23FC:0607       L__MemFiltr__FIltr1St
 23FC:0689       L__InitMemFiltr__FIltr1St
 23FC:06B5       L__MemFiltrInt__FIltr1St
 23FC:0712       L__InitMemFIntContiner__FIltr1S
 23FC:0737       $BODY__FIltr1St
 23FC:0757       $INIT__FIltr1St
 23FC:0786       $EM__FIltr1St
 2475:0000       $BM__GeoArithmetic
 2475:006A       S__DodajPolozenieGeo__GeoArithm
 2475:012E       S__Odwr__GeoArithmetic
 2475:01D4       S__OdejmijPolozenieGeo__GeoArit
 2475:02F0       S__SredniPolozenieGeo__GeoArith
 2475:03A9       S__Rad__GeoArithmetic
 2475:04C0       S__Odl2Geo__GeoArithmetic
 2475:0601       S__Mile__GeoArithmetic
 2475:0719       L__Geo2Kat__GeoArithmetic
 2475:0AEF       L__Kat2Geo__GeoArithmetic
 2475:0D1C       L__AssignOdniesienie__GeoArithm
 2475:0D90       $BODY__GeoArithmetic
 2475:0DA1       $INIT__GeoArithmetic
 2475:0DD5       $EM__GeoArithmetic
 2553:0000       $BM__DGH_utils
 2553:0002       L__TurnOffILSSig__DGH_utils
 2553:00D0       L__TurnOnLOCSig__DGH_utils
 2553:016E       L__TurnOnGSSig__DGH_utils
 2553:020C       L__TurnOnVORSig__DGH_utils
 2553:027A       L__TurnOffVORSig__DGH_utils
 2553:02E8       L__TurnOnDMESig__DGH_utils
 2553:0366       L__TurnOffDMESig__DGH_utils
 2553:03E4       L__TurnOnADFSig__DGH_utils
 2553:0432       L__TurnOffADFSig__DGH_utils
 2553:0480       N__ReadAnalog__ReadValue__DGH_u
 2553:04A8       L__ReadValue__DGH_utils
 2553:063C       L__ReadOmniber__DGH_utils
 2553:06BA       L__BinaryValSet__DGH_utils
 2553:0734       $BODY__DGH_utils
 2553:084D       $INIT__DGH_utils
 2553:08A4       $EM__DGH_utils
 25DE:0000       $BM__Kalibracja
 25DE:097E       L__GetErrReset__Kalibracja
 25DE:097E       L__GetErrReset__ErrorHand__Kali
 25DE:09B6       S__SetError__ErrorHand__Kalibra
 25DE:09DC       $BODY__ErrorHand__Kalibracja
 25DE:09FA       N__Lookup__OmnibearingV__Kalibr
 25DE:0E16       L__OmnibearingV__Kalibracja
 25DE:0F88       L__Lookup__Kalibracja
 25DE:143A       N__Status__Error__Kalibracja
 25DE:1489       S__Error__Kalibracja
 25DE:14D4       N__LoadValue__LoadSegmentTables
 25DE:15EC       N__LoadReal__LoadSegmentTables_
 25DE:1673       N__LoadTable__LoadSegmentTables
 25DE:1719       N__LoadSegment__LoadChannel__Lo
 25DE:17D7       N__LoadChannel__LoadSegmentTabl
 25DE:1E6D       S__LoadSegmentTables__Kalibracj
 25DE:219B       N__SaveValue__SaveSegmentTables
 25DE:2293       N__SaveReal__SaveSegmentTables_
 25DE:230E       N__SaveTable__SaveSegmentTables
 25DE:23A0       N__SaveSegment__SaveChannel__Sa
 25DE:243E       N__SaveChannel__SaveSegmentTabl
 25DE:2A2F       L__SaveSegmentTables__Kalibracj
 25DE:2C81       $BODY__Kalibracja
 25DE:2DA5       $INIT__Kalibracja
 25DE:2E15       $EM__Kalibracja
 28C0:0000       $BM__DigiRS
 28C0:0002       L__GetWrBufLength__DigiRS
 28C0:004E       S__MarkError__DigiRS
 28C0:007D       L__ReadString__DigiRS
 28C0:00F3       L__WriteString__DigiRS
 28C0:018F       L__SetBaudRate__DigiRS
 28C0:02D4       $BODY__DigiRS
 28C0:02F2       $INIT__DigiRS
 28C0:031C       $EM__DigiRS
 28F2:0000       $BM__RealConversions
 28F2:0052       L__StringToReal__RealConversion
 28F2:04DF       N__convDigit__RealToString__Rea
 28F2:0572       N__convertnumber__RealToString_
 28F2:05EA       N__exp10__RealToString__RealCon
 28F2:06AC       L__RealToString__RealConversion
 28F2:0AF9       $BODY__RealConversions
 28F2:0AFF       $INIT__RealConversions
 28F2:0B1F       $EM__RealConversions
 29A5:0000       $BM__Math
 29A5:002A       L__ACos__Math
 29A5:018D       L__Sqr__Math
 29A5:01BD       $BODY__Math
 29A5:01C3       $INIT__Math
 29A5:01E8       $EM__Math
 29C4:0000       $BM__GPS_nov
 29C4:014D       L__KopijZnakZTeo__GPS_nov
 29C4:0170       S__KopZnakDoKanaluMonitora__GPS
 29C4:0193       N__ConvertHexChar__ReadGPS__Get
 29C4:0200       N__ReadGPS__GetFrame__GPS_nov
 29C4:03B1       N__szukaniePola__GetFrame__GPS_
 29C4:0426       N__DekomozycjaRamki__GetFrame__
 29C4:04F0       N__GetReal__GetFrame__GPS_nov
 29C4:0538       N__GetCardinal__GetFrame__GPS_n
 29C4:058D       N__GetInteger__GetFrame__GPS_no
 29C4:05E2       N__An_Frame_DOPA__GetFrame__GPS
 29C4:06A2       N__Isolate__ConvertStrToWspGeo_
 29C4:0929       N__ConvertStrToWspGeo__GetWspGe
 29C4:09E3       N__GetWspGeo__An_Frame_GPGGA__G
 29C4:0A2D       N__An_Frame_GPGGA__GetFrame__GP
 29C4:0B25       N__An_Frame_GPVTG__GetFrame__GP
 29C4:0B90       N__Wydziel__An_Frame_GPZDA__Get
 29C4:0C2E       N__An_Frame_GPZDA__GetFrame__GP
 29C4:0CFB       L__GetFrame__GPS_nov
 29C4:0DCE       L__Inicjacja__GPS_nov
 29C4:109C       L__gpzdaOff__GPS_nov
 29C4:10EC       $BODY__GPS_nov
 29C4:11A6       $INIT__GPS_nov
 29C4:11FD       $EM__GPS_nov
 2AE4:0000       $BM__GPS_TRIMBLE
 2AE4:0021       N__ReadPacketHead__GetFrame__GP
 2AE4:006A       N__ReadEOL__GetFrame__GPS_TRIMB
 2AE4:00C9       N__ReadGPS__GetFrame__GPS_TRIMB
 2AE4:016D       N__WspGeoPoprawne__ReadG__GetFr
 2AE4:01D7       N__Isolate__ReadG__GetFrame__GP
 2AE4:0306       N__ReadG__GetFrame__GPS_TRIMBLE
 2AE4:03CB       N__TypGPS__GetFrame__GPS_TRIMBL
 2AE4:043F       N__Wydziel__GetFrame__GPS_TRIMB
 2AE4:0509       N__PodstawWyniki__GetFrame__GPS
 2AE4:05C7       L__GetFrame__GPS_TRIMBLE
 2AE4:082D       L__Inicjacja__GPS_TRIMBLE
 2AE4:084A       $BODY__GPS_TRIMBLE
 2AE4:08B5       $INIT__GPS_TRIMBLE
 2AE4:08F8       $EM__GPS_TRIMBLE
 2B74:0000       $BM__Ini
 2B74:0006       L__DefaultError__Ini
 2B74:001E       S__FormSectionString__Ini
 2B74:010A       S__LookForSection__Ini
 2B74:018F       N__ToEOL__LookForEntry__Ini
 2B74:020F       S__LookForEntry__Ini
 2B74:035E       L__GetPrivateProfileString__Ini
 2B74:050E       L__DeleteSection__Ini
 2B74:06C6       L__WritePrivateProfileString__I
 2B74:0BE2       S__Expand__Ini
 2B74:0E08       L__CloseBuffer__Ini
 2B74:0F29       S__AllocateBuffer__Ini
 2B74:1139       $BODY__Ini
 2B74:119F       $INIT__Ini
 2B74:11D8       $EM__Ini
 2C92:0000       $BM__FIO
 2C92:0002       L__Open__FIO
 2C92:00FA       L__Create__FIO
 2C92:01F2       L__Close__FIO
 2C92:026A       L__Seek__FIO
 2C92:02BC       L__Write__FIO
 2C92:0301       L__Read__FIO
 2C92:0346       L__ReadExt__FIO
 2C92:0389       L__Length__FIO
 2C92:040B       L__EOF__FIO
 2C92:046B       L__Delete__FIO
 2C92:04B4       L__CD__FIO
 2C92:0510       L__MkDir__FIO
 2C92:056C       L__RmDir__FIO
 2C92:05B5       L__GetDir__FIO
 2C92:0614       L__Rename__FIO
 2C92:0685       L__GetFileStamp__FIO
 2C92:0700       L__DirQuery__FIO
 2C92:08B1       L__CriticalErrorHandlerProc__FI
 2C92:08BA       L__Terminator__FIO
 2C92:097A       S__InitFiles__FIO
 2C92:09F0       $BODY__FIO
 2C92:0A16       $INIT__FIO
 2C92:0A45       $EM__FIO
 2D37:0000       $BM__ShortCuts
 2D37:0002       L__KeyPressed__ShortCuts
 2D37:0002       L__KeyPressed__monitor__ShortCu
 2D37:003B       L__PutKeyStrokeIntoBuffer__Shor
 2D37:003B       L__PutKeyStrokeIntoBuffer__moni
 2D37:006D       L__ClearBuffer__ShortCuts
 2D37:006D       L__ClearBuffer__monitor__ShortC
 2D37:008B       L__Read__ShortCuts
 2D37:008B       L__Read__monitor__ShortCuts
 2D37:0104       L__Rd__monitor__ShortCuts
 2D37:0104       L__Rd__ShortCuts
 2D37:013F       S__Insert__monitor__ShortCuts
 2D37:01A0       N__Remove__RemoveToKill__monito
 2D37:032C       S__RemoveToKill__monitor__Short
 2D37:0382       S__Find__monitor__ShortCuts
 2D37:0424       S__FindAMark__monitor__ShortCut
 2D37:04D2       S__Unmark__monitor__ShortCuts
 2D37:0532       $BODY__monitor__ShortCuts
 2D37:056C       N__GetChar__KbdScan__ShortCuts
 2D37:05B8       L__KbdScan__ShortCuts
 2D37:0612       L__DefineShortCut__ShortCuts
 2D37:0691       N__Kill__DeleteShortCut__ShortC
 2D37:06DD       L__DeleteShortCut__ShortCuts
 2D37:070A       $BODY__ShortCuts
 2D37:0762       $INIT__ShortCuts
 2D37:079B       $EM__ShortCuts
 2DB1:0000       $BM__Obloty
 2DB1:01EB       L__UstawHomeDir__Obloty
 2DB1:0242       L__Ile__Obloty
 2DB1:0266       S__IleInspekcji__Obloty
 2DB1:02DC       S__WymienWszystkie__Obloty
 2DB1:037F       L__Dopasuj__Obloty
 2DB1:041D       L__WymInspekcjeDlaUrz__Obloty
 2DB1:04E4       L__WymienWszystkiePasujace__Obl
 2DB1:051E       L__SzczegolowyPlikOpisu__Obloty
 2DB1:068A       L__Kasuj__Obloty
 2DB1:06B2       L__ZmienISkasuj__Obloty
 2DB1:0738       S__SkasujKartoteke__Obloty
 2DB1:078A       L__SkasujOblot__Obloty
 2DB1:09B5       N__KasujPlik__KasujPodkartoteke
 2DB1:0A4B       L__KasujPodkartoteke__Obloty
 2DB1:0B21       S__Kasuj_DelDir__Obloty
 2DB1:0B98       L__SkasujInspekcje__Obloty
 2DB1:0DD3       N__ExistDIR__FreeSlot__Obloty
 2DB1:0E1A       L__FreeSlot__Obloty
 2DB1:0EB9       S__ZnajdzNumInspekcji__Obloty
 2DB1:0FF8       L__ZnajdzInspekcje__Obloty
 2DB1:1042       L__InspekcjeNowyWpis__Obloty
 2DB1:11EB       N__KopiujPlik__KopiujPodkartote
 2DB1:13F8       L__KopiujPodkartoteke__Obloty
 2DB1:1564       S__KopiujKartoteke__Obloty
 2DB1:15DB       L__KopiujInspekcje__Obloty
 2DB1:171F       L__StartInspection__Obloty
 2DB1:1A87       L__InitListaUrzadzen__Obloty
 2DB1:1B83       L__Dum_Stat_Size_Monitor__Oblot
 2DB1:1B8B       L__Dum_Stat_File_Monitor__Oblot
 2DB1:1B9E       $BODY__Obloty
 2DB1:1C0F       $INIT__Obloty
 2DB1:1C75       $EM__Obloty
 2F79:0000       $BM__MMMouse
 2F79:0002       S__DefineStdCursor__MMMouse
 2F79:00D9       S__Init__MMMouse
 2F79:00DF       L__HideConditionally__MMMouse
 2F79:018A       L__IsHidden__MMMouse
 2F79:019E       L__RegisterRegion__MMMouse
 2F79:02C7       L__SetOnTop__MMMouse
 2F79:03E9       L__UnregisterRegion__MMMouse
 2F79:0623       S__Swap__MMMouse
 2F79:0639       S__SetShape__MMMouse
 2F79:0651       S__WrIdx__MMMouse
 2F79:066E       S__WrBit__MMMouse
 2F79:06C2       L__GetRegion__MMMouse
 2F79:0713       L__GetRegionRect__MMMouse
 2F79:0780       L__SetParent__MMMouse
 2F79:07F2       L__EventDispatcher__BezPrzerwan
 2F79:08F0       N__Button2Ev__GetEvent__BezPrze
 2F79:096B       S__GetEvent__BezPrzerwanOdMyszy
 2F79:0AC3       L__InsertEvent__BezPrzerwanOdMy
 2F79:0AC3       L__InsertEvent__MMMouse
 2F79:0B15       $BODY__BezPrzerwanOdMyszy__MMMo
 2F79:0B5F       S__RedrawAt__BezWyszeregowania_
 2F79:0BB2       L__ShowCursor__BezWyszeregowani
 2F79:0BB2       L__ShowCursor__MMMouse
 2F79:0BDE       L__HideCursor__BezWyszeregowani
 2F79:0BDE       L__HideCursor__MMMouse
 2F79:0C0A       S__RemoveCursor__BezWyszeregowa
 2F79:0C8E       S__DrawCursor__BezWyszeregowani
 2F79:1031       L__MouseLoop__MMMouse
 2F79:133C       L__Terminator__MMMouse
 2F79:134F       $BODY__MMMouse
 2F79:14AB       $INIT__MMMouse
 2F79:1502       $EM__MMMouse
 30CA:0000       $BM__GList
 30CA:0002       L__SetNotificationProc__GList
 30CA:0020       L__DummyNotification__GList
 30CA:0028       L__TworzListe__GList
 30CA:02FB       N__UsunStr__SkasujWszystko__GLi
 30CA:033D       L__SkasujWszystko__GList
 30CA:0387       L__Skasuj__GList
 30CA:04C1       L__UsunListe__GList
 30CA:06B6       L__DodajDoListy__GList
 30CA:08C9       L__WstawDoListy__GList
 30CA:0A11       L__Idx2Str__GList
 30CA:0AC4       L__ZmienListe__GList
 30CA:0B6F       L__LiczbaElementow__GList
 30CA:0B8E       L__kbHandler__GList
 30CA:0C76       L__RScrollUp__GList
 30CA:0D8F       L__RScrollDn__GList
 30CA:0E9F       L__RChoose__GList
 30CA:0FE8       S__CP__GList
 30CA:100F       L__Wybor__GList
 30CA:1046       S__Redraw__GList
 30CA:107D       N__WrStr__Draw__GList
 30CA:1181       S__Draw__GList
 30CA:128C       L__HandleEvent__GList
 30CA:1454       L__CanEnable__GList
 30CA:1470       L__Disable__GList
 30CA:14F4       L__GetSelection__GList
 30CA:1513       L__Enable__GList
 30CA:1608       L__GetRegion__GList
 30CA:1698       L__Sortowana__GList
 30CA:16B4       S__SetSelectionInt__GList
 30CA:1754       L__SetSelectionNotf__GList
 30CA:1772       L__SetSelection__GList
 30CA:1790       S__SetPositions__GList
 30CA:1819       L__GetRect__GList
 30CA:1839       L__GetContents__GList
 30CA:1860       L__SetContents__GList
 30CA:18E1       L__KillContents__GList
 30CA:18FD       $BODY__GList
 30CA:1920       $INIT__GList
 30CA:197C       $EM__GList
 3262:0000       $BM__Buttons
 3262:0002       S__Insert__MONITOR__Buttons
 3262:0052       N__Remove__RemoveToKill__MONITO
 3262:01B5       S__RemoveToKill__MONITOR__Butto
 3262:0205       S__FindAMark__MONITOR__Buttons
 3262:0318       S__MarkBut__MONITOR__Buttons
 3262:03BB       S__Unmark__MONITOR__Buttons
 3262:041B       $BODY__MONITOR__Buttons
 3262:043F       N__Dec__DrawInter__Buttons
 3262:047D       S__DrawInter__Buttons
 3262:0790       L__UniversalKBD__Buttons
 3262:07E1       L__MouseHandler__Buttons
 3262:0959       L__ChangeButton__Buttons
 3262:09D0       L__ChangeButtonText__Buttons
 3262:0A36       N__KillButton__DisposeButton__B
 3262:0AAB       L__DisposeButton__Buttons
 3262:0AE2       L__PressRadio__Buttons
 3262:0B27       L__Nic__Buttons
 3262:0B2D       L__CreateButton__Buttons
 3262:0C3C       L__CreateRadioButton__Buttons
 3262:0CC0       L__EnableButton__Buttons
 3262:0D0E       L__GetRegion__Buttons
 3262:0D35       L__CallProc__Buttons
 3262:0D4E       L__EnableDisableAllButtons__But
 3262:0D61       $BODY__Buttons
 3262:0D80       $INIT__Buttons
 3262:0DD7       $EM__Buttons
 3340:0000       $BM__Dialog
 3340:0006       L__GetDialogDIBHandle__Dialog
 3340:002D       L__WstawButton__Dialog
 3340:0156       L__WstawRadioButton__Dialog
 3340:02EB       L__RadioBProc__Dialog
 3340:03EC       L__WstawInpLine__Dialog
 3340:0518       L__WstawListe__Dialog
 3340:0663       L__TworzDialog__Dialog
 3340:0A79       N__UsunPola__UsunDialog__Dialog
 3340:0B28       L__UsunDialog__Dialog
 3340:0D8A       L__KlawiszSpacji__Dialog
 3340:0E12       L__KlawiszTab__Dialog
 3340:0E94       L__KlawiszShiftTab__Dialog
 3340:0F3F       N__Expand__Aktywizuj__Dialog
 3340:0FCA       S__Aktywizuj__Dialog
 3340:1185       S__CzyMoznaSkonczyc__Dialog
 3340:123F       L__Go__Dialog
 3340:1488       L__DialogMouseHandle__Dialog
 3340:15B1       S__ChwilowoZablokujDialog__Dial
 3340:15E7       L__EndDialog__Dialog
 3340:1666       L__AltF4__Dialog
 3340:167B       L__EnableDlg__Dialog
 3340:17AC       L__IsBusy__Dialog
 3340:17EF       L__Redraw__Dialog
 3340:18C2       $BODY__Dialog
 3340:18EB       $INIT__Dialog
 3340:195B       $EM__Dialog
 34D6:0000       $BM__InpLine
 34D6:0002       L__CreateInpLine__InpLine
 34D6:0183       L__Enable__InpLine
 34D6:01CA       L__DeleteInpLine__InpLine
 34D6:02C9       L__SetText__InpLine
 34D6:0388       L__GetText__InpLine
 34D6:03DC       L__Key__InpLine
 34D6:07B4       L__DoNothing__InpLine
 34D6:07C4       L__KillFocus__InpLine
 34D6:0827       S__Draw__InpLine
 34D6:09E5       L__SetCursor__InpLine
 34D6:0B2F       L__SetActive__InpLine
 34D6:0C4D       L__GetRegion__InpLine
 34D6:0C9E       $BODY__InpLine
 34D6:0CB5       $INIT__InpLine
 34D6:0D16       $EM__InpLine
 35A8:0000       $BM__Mapa
 35A8:008A       S__RedefineMaxDist__Mapa
 35A8:0151       N__GetGPS__resolveSituation__Ma
 35A8:0260       N__CountMaxDist__resolveSituati
 35A8:037D       S__resolveSituation__Mapa
 35A8:0419       S__MakeMAP__Mapa
 35A8:0545       L__PokazKatyLotu__Mapa
 35A8:0696       N__Min__Promienie__Mapa
 35A8:06B6       L__Promienie__Mapa
 35A8:07B3       L__GdzieJest__Mapa
 35A8:0922       S__Stop__monitor__Mapa
 35A8:0951       L__StartProcess__Mapa
 35A8:0951       L__StartProcess__monitor__Mapa
 35A8:098B       L__CancelProcess__Mapa
 35A8:098B       L__CancelProcess__monitor__Mapa
 35A8:09BA       $BODY__monitor__Mapa
 35A8:09DC       S__FillPromieie__Mapa
 35A8:0A4F       $BODY__Mapa
 35A8:0AF4       $INIT__Mapa
 35A8:0B50       $EM__Mapa
 365E:0000       $BM__Polozenie
 365E:005A       N__FlipY__InitMarkers__Polozeni
 365E:0120       N__FlipX__InitMarkers__Polozeni
 365E:0226       N__Rot90__InitMarkers__Polozeni
 365E:032E       S__InitMarkers__Polozenie
 365E:044A       S__DrawMarker__Polozenie
 365E:0855       S__EraseMarker__Polozenie
 365E:08FE       L__Start_Polozenie__Polozenie
 365E:0959       N__XY__LL__DrawNCO__Polozenie
 365E:0A88       N__LL__DrawNCO__Polozenie
 365E:0BA8       S__DrawNCO__Polozenie
 365E:0C2C       L__UpdateM__Polozenie
 365E:0DD7       L__Stop_Polozenie__Polozenie
 365E:0E09       L__RresetCzesciOkregu__Polozeni
 365E:0E6A       L__NoweCzesciOkregu__Polozenie
 365E:0EEE       N__Rysuj__Promienie__Polozenie
 365E:1084       L__Promienie__Polozenie
 365E:1164       $BODY__Polozenie
 365E:11C4       $INIT__Polozenie
 365E:1225       $EM__Polozenie
 3781:0000       $BM__SwitchCntrl
 3781:0002       L__SwitchTo__SwitchCntrl
 3781:00D4       $BODY__SwitchCntrl
 3781:0109       $INIT__SwitchCntrl
 3781:012E       $EM__SwitchCntrl
 3794:0000       $BM__WorseBecause
 3794:0002       L__WorseBLess__WorseBecause
 3794:003E       L__WorseBLessDis__WorseBecause
 3794:0069       L__WorseBGreater__WorseBecause
 3794:00A5       $BODY__WorseBecause
 3794:00AB       $INIT__WorseBecause
 3794:00D0       $EM__WorseBecause
 37A2:0000       $BM__Graphics
 37A2:000B       L__MaxHor__Graphics
 37A2:0014       L__MaxVer__Graphics
 37A2:001D       L__Tryb__Graphics
 37A2:008B       S__HugeMemCpy__Graphics
 37A2:0136       L__SetBank__Graphics
 37A2:0136       L__SetBank__InternalMonitor__Gr
 37A2:0191       L__GetBank__InternalMonitor__Gr
 37A2:0191       L__GetBank__Graphics
 37A2:01B2       L__DP__Graphics
 37A2:01B2       L__DP__InternalMonitor__Graphic
 37A2:025A       L__FillRect__Graphics
 37A2:025A       L__FillRect__InternalMonitor__G
 37A2:03B5       L__GetWindow__Graphics
 37A2:03B5       L__GetWindow__InternalMonitor__
 37A2:0593       L__InvertW__Graphics
 37A2:0593       L__InvertW__InternalMonitor__Gr
 37A2:0703       L__SetWindow__Graphics
 37A2:0703       L__SetWindow__InternalMonitor__
 37A2:08E1       L___WrStrXY__Graphics
 37A2:08E1       L___WrStrXY__InternalMonitor__G
 37A2:09BB       S__GetFontPtr__InternalMonitor_
 37A2:0CF3       L___Wr16StrXY__InternalMonitor_
 37A2:0CF3       L___Wr16StrXY__Graphics
 37A2:0DC9       L___Wr2StrXY__InternalMonitor__
 37A2:0DC9       L___Wr2StrXY__Graphics
 37A2:0F13       L___Wr2fStrXY__InternalMonitor_
 37A2:0F13       L___Wr2fStrXY__Graphics
 37A2:1059       L__Terminator__Graphics
 37A2:1064       S__FindROMFontAddr__Graphics
 37A2:108B       S__LoadPLFonts__Graphics
 37A2:10C2       $BODY__Graphics
 37A2:10F2       $INIT__Graphics
 37A2:1121       $EM__Graphics
 38B5:0000       L__XmsInstalled__XMS
 38B5:0000       $BM__XMS
 38B5:0011       L__QueryFreeExtMem__XMS
 38B5:003C       L__AllocateExtMem__XMS
 38B5:0068       L__FreeExtMem__XMS
 38B5:008B       L__MoveExtMemBlock__XMS
 38B5:00B2       L__ResizeExtMemBlock__XMS
 38B5:00D8       L__AllocUpperMemBlock__XMS
 38B5:0107       L__FreeUpperMemBlock__XMS
 38B5:012A       $EM__XMS
 38C8:0000       $INIT__XMS
 38CC:0000       $BM__XMSService
 38CC:004E       L__Allocate__XMSService
 38CC:00EE       L__Deallocate__XMSService
 38CC:0110       L__Copy__XMSService
 38CC:01F3       S__Free__XMSService
 38CC:02F4       L__Terminator__XMSService
 38CC:03C4       S__Blad__XMSService
 38CC:0412       S__WrWarning__XMSService
 38CC:0450       $BODY__XMSService
 38CC:0485       $INIT__XMSService
 38CC:04BE       $EM__XMSService
 3918:0000       $BM__HRD_Clock
 3918:0002       S__BCD__HRD_Clock
 3918:003A       S__CheckUpdateCycle__HRD_Clock
 3918:006D       S__GetGodzina__HRD_Clock
 3918:00A1       L__Godzina__HRD_Clock
 3918:011E       L__Data__HRD_Clock
 3918:0242       $BODY__HRD_Clock
 3918:0248       $INIT__HRD_Clock
 3918:026D       $EM__HRD_Clock
 393F:0000       $BM__FCBS
 393F:0002       L__Set__FCBS
 393F:001A       S__CtrlBreakProc__FCBS
 393F:0037       $BODY__FCBS
 393F:004C       $INIT__FCBS
 393F:0071       $EM__FCBS
 3947:0000       $BM__CocpDsp
 3947:0002       L__UstawFormat__CocpDsp
 3947:02E6       L__PodajFormat__CocpDsp
 3947:0315       L__UstawZmienne__CocpDsp
 3947:058F       L__SetIdleMsg__CocpDsp
 3947:05AF       N__SendMsg__ControlLoop__CocpDs
 3947:077A       N__PozWskazowki__SetLOC_G_SCP__
 3947:0823       N__SetLOC_G_SCP__ControlLoop__C
 3947:090E       N__pozycjaStrzalki__ControlLoop
 3947:0A5E       L__ControlLoop__CocpDsp
 3947:0C01       L__WatchDogProcess__CocpDsp
 3947:0C4D       $BODY__CocpDsp
 3947:0D49       $INIT__CocpDsp
 3947:0D8C       $EM__CocpDsp
 3A20:0000       $BM__DataCollect
 3A20:0002       L__SampleNr__DataCollect
 3A20:0002       L__SampleNr__tablice__DataColle
 3A20:004E       L__RedrawReq__tablice__DataColl
 3A20:004E       L__RedrawReq__DataCollect
 3A20:0152       N__UpdateNR__Tablice800__tablic
 3A20:0219       N__Shrink__Tablice800__tablice_
 3A20:034B       N__ShrinkX__Tablice800__tablice
 3A20:0422       S__Tablice800__tablice__DataCol
 3A20:15DF       S__InitTab__tablice__DataCollec
 3A20:1867       L__Samp2Dis__DataCollect
 3A20:1867       L__Samp2Dis__tablice__DataColle
 3A20:1968       L__Samp2Kat__tablice__DataColle
 3A20:1968       L__Samp2Kat__DataCollect
 3A20:1A69       L__ResetMarks_A__DataCollect
 3A20:1A86       L__ResetMarks_D__DataCollect
 3A20:1AA3       L__GetNextDMark__DataCollect
 3A20:1B29       L__GetNextAMark__DataCollect
 3A20:1BBB       S__Start__DataCollect
 3A20:2002       L__ResetDataCollect__DataCollec
 3A20:2092       N__UpdateDistMarks__UpdTab800__
 3A20:20FA       N__UpdateAlfaMarks__UpdTab800__
 3A20:2171       L__UpdTab800__DataCollect
 3A20:21D7       L__NilProc__DataCollect
 3A20:21DF       $BODY__DataCollect
 3A20:2221       $INIT__DataCollect
 3A20:226E       $EM__DataCollect
 3C47:0000       $BM__Wykres
 3C47:009B       S__Log10__Wykres
 3C47:0101       N__SkalY__Draw__Wykres
 3C47:03D7       L__Draw__Wykres
 3C47:052F       N__SkalY__PokazWykres__Wykres
 3C47:062B       N__SkalX__PokazWykres__Wykres
 3C47:0758       L__PokazWykres__Wykres
 3C47:0853       N__SkalY__PokazWykres1__Wykres
 3C47:09B4       L__PokazWykres1__Wykres
 3C47:0B0C       L__Opis__Wykres
 3C47:0B8B       N__AutoFormat__OpisLog__Wykres
 3C47:0C63       N__LineV__OpisLog__Wykres
 3C47:1024       N__LineH__OpisLog__Wykres
 3C47:1330       L__OpisLog__Wykres
 3C47:14E2       L__PokazWykresNS__Wykres
 3C47:1546       N__SkalY__PokazWykresNSLog__Wyk
 3C47:17B3       N__SkalX__PokazWykresNSLog__Wyk
 3C47:1B1F       L__PokazWykresNSLog__Wykres
 3C47:1DFD       S__LogPos__Wykres
 3C47:1EE5       L__LessInt__Wykres
 3C47:1F01       L__LessCard__Wykres
 3C47:1F1D       L__Card2Real__Wykres
 3C47:1F64       L__Int2Real__Wykres
 3C47:1FA0       N__GetX__PokazWykresZXms__Wykre
 3C47:1FC9       N__GetY__PokazWykresZXms__Wykre
 3C47:1FF2       N__SkalY__PokazWykresZXms__Wykr
 3C47:222D       N__SkalX__PokazWykresZXms__Wykr
 3C47:256B       L__PokazWykresZXms__Wykres
 3C47:270A       $BODY__Wykres
 3C47:2710       $INIT__Wykres
 3C47:2762       $EM__Wykres
 3EBE:0000       $BM__XMSTable
 3EBE:0002       L__AssignNil__XMSTable
 3EBE:0018       L__Size__XMSTable
 3EBE:0039       L__IsValid__XMSTable
 3EBE:005D       L__Allocate__XMSTable
 3EBE:00F2       L__Deallocate__XMSTable
 3EBE:0142       L__PutElem__XMSTable
 3EBE:01B7       L__GetElem__XMSTable
 3EBE:0245       S__Map__XMSTable
 3EBE:0325       $BODY__XMSTable
 3EBE:032B       $INIT__XMSTable
 3EBE:035A       $EM__XMSTable
 3EF4:0000       $BM__EventsMng
 3EF4:0037       L__NewEvent__EventsMng
 3EF4:014C       L__NewTeoEvent__EventsMng
 3EF4:01CF       L__NewPilotEvent__EventsMng
 3EF4:0252       L__NewConsoleEvent__EventsMng
 3EF4:02D5       L__FindNextEvent__EventsMng
 3EF4:0366       L__GetUpdNextEvent__EventsMng
 3EF4:041A       L__GetEventInfo__EventsMng
 3EF4:04AA       L__SaveDistEvents__EventsMng
 3EF4:04F4       S__InitEvents__EventsMng
 3EF4:0519       L__LoadDistEvents__EventsMng
 3EF4:055C       L__EventsMngInit__EventsMng
 3EF4:060A       L__UpdateStrefa__EventsMng
 3EF4:087E       L__Terminator__EventsMng
 3EF4:09B8       $BODY__EventsMng
 3EF4:09EE       $INIT__EventsMng
 3EF4:0A4A       $EM__EventsMng
 3F99:0000       $BM__PI_ScrUtility
 3F99:0002       L__ShowScreenDIB__PI_ScrUtility
 3F99:0035       L__ShowCursorDIB__PI_ScrUtility
 3F99:0063       S__UniversalAB__PI_ScrUtility
 3F99:0113       L__UniversalSAF__PI_ScrUtility
 3F99:013B       S__UniversalLBF__PI_ScrUtility
 3F99:0163       L__UniversalSBF__PI_ScrUtility
 3F99:018B       S__UniversalLAB__PI_ScrUtility
 3F99:01B3       S__UniversalPAB__PI_ScrUtility
 3F99:01DB       S__UniversalSBB__PI_ScrUtility
 3F99:0203       S__NowySlup__PI_ScrUtility
 3F99:0263       N__WykSlupF__WykSlup__PI_ScrUti
 3F99:0305       L__WykSlup__PI_ScrUtility
 3F99:03FE       L__UpdateSlupki__PI_ScrUtility
 3F99:0465       L__DisposeSlupki__PI_ScrUtility
 3F99:04CC       L__NapiszSygnaly__PI_ScrUtility
 3F99:04D9       L__Init_ScrUtility__PI_ScrUtili
 3F99:053E       L__IniSkale__PI_ScrUtility
 3F99:0558       L__GetRegionWykG__PI_ScrUtility
 3F99:0578       L__GetRegionWyk1__PI_ScrUtility
 3F99:0598       L__GetRegionWyk2__PI_ScrUtility
 3F99:05B8       L__GetRegionWyk3__PI_ScrUtility
 3F99:05D8       $BODY__PI_ScrUtility
 3F99:05DE       $INIT__PI_ScrUtility
 3F99:063F       $EM__PI_ScrUtility
 3FFE:0000       $BM__Slupek
 3FFE:0002       L__WykresSlupkowy__Slupek
 3FFE:0229       N__Skala__Update__Slupek
 3FFE:02EE       N__Kolor__Update__Slupek
 3FFE:0317       N__FillR__Odswiez__Update__Slup
 3FFE:036C       N__Odswiez__Update__Slupek
 3FFE:058F       L__Update__Slupek
 3FFE:0647       L__Dispose__Slupek
 3FFE:065C       L__Nothing__Slupek
 3FFE:0666       L__GetSlupRect__Slupek
 3FFE:0695       L__Nil__Slupek
 3FFE:06A7       $BODY__Slupek
 3FFE:06AD       $INIT__Slupek
 3FFE:06E6       $EM__Slupek
 406D:0000       $BM__G_DisResults
 406D:0329       L__WriteTab__G_DisResults
 406D:04C7       N__WriteZoneDist__DispResults__
 406D:0623       N__Wr_SignalsRecDsc__DispResult
 406D:06C1       N__Wr_SignalsRecDsc_WL__DispRes
 406D:078C       N__Wr_DevValueTab__DispResults_
 406D:07C8       N__Wr_DevValueTab_WL__DispResul
 406D:0835       N__Wr_Integer_WL__DispResults__
 406D:08A0       N__Wr_SignalInSecDsc_WL__DispRe
 406D:096C       N__An_AnalizaDsc__DispResults__
 406D:0A24       N__An_MkrLength__An_OpisOsi__Di
 406D:0AB7       N__An_OpisOsi__DispResults__G_D
 406D:0BC4       N__An_OpisSektora__DispResults_
 406D:0C81       N__An_OpisProfilB__DispResults_
 406D:0D89       N__An_OpisBadDod__DispResults__
 406D:0DC5       N__An_OpisZabezpieczenie__DispR
 406D:0E06       N__An_OpisPokrycia__DispResults
 406D:0E3A       L__DispResults__G_DisResults
 406D:0EE9       $BODY__G_DisResults
 406D:0F00       $INIT__G_DisResults
 406D:0F66       $EM__G_DisResults
 4164:0000       $BM__DisResUtilities
 4164:000A       L__WriteTab__DisResUtilities
 4164:00BE       L__WrS__DisResUtilities
 4164:00F4       L__WrSPlus__DisResUtilities
 4164:014A       L__INCLine__DisResUtilities
 4164:0170       L__WrFlagsTableWHeading__DisRes
 4164:023C       L__WrFlagsTable__DisResUtilitie
 4164:02AF       L__WrF_TablicaOdci__DisResUtili
 4164:0340       $BODY__DisResUtilities
 4164:0346       $INIT__DisResUtilities
 4164:0389       $EM__DisResUtilities
 419D:0000       $BM__PiszEventy
 419D:038B       N__Znacznik__Decode__PiszEventy
 419D:0786       S__Decode__PiszEventy
 419D:0A31       L__IleEventow__PiszEventy
 419D:0A53       L__TworzEventy__PiszEventy
 419D:0AA6       N__WrStr__PiszNaEkranie__PiszEv
 419D:0B99       L__PiszNaEkranie__PiszEventy
 419D:0D48       S__min__PiszEventy
 419D:0D6B       L__PiszNaDrukarce__PiszEventy
 419D:0F04       L__EnumEv__PiszEventy
 419D:10B0       S__WrStrLn__PiszEventy
 419D:10DC       S__WrStr__PiszEventy
 419D:1163       S__WrLn__PiszEventy
 419D:117D       S__WrP__PiszEventy
 419D:1199       $BODY__PiszEventy
 419D:11AA       $INIT__PiszEventy
 419D:1233       $EM__PiszEventy
 42C1:0000       $BM__G_results
 42C1:001A       L__SaveAnRes__G_results
 42C1:004C       L__GetAnRes__G_results
 42C1:00CC       N__InitFlagErrForARec__Init__G_
 42C1:011D       N__InitMkrLength__Init__G_resul
 42C1:0286       N__Init_an_OpisOsi__Init__G_res
 42C1:05E0       N__Init_an_OpisSektora__Init__G
 42C1:07AE       N__Init_an_OpisProfilB__Init__G
 42C1:0956       N__Init_an_OpisBadDod__Init__G_
 42C1:09AE       N__Init_an_OpisZabezpieczenie__
 42C1:0A6C       N__Init_an_OpisPokrycia__Init__
 42C1:0A91       N__InitAnalizaDsc__Init__G_resu
 42C1:0B6F       L__Init__G_results
 42C1:0CF1       L__AktualnyKatProcedury__G_resu
 42C1:0DE8       L__Count_ChiLoc__G_results
 42C1:0E23       L__Count_PhiLoc__G_results
 42C1:0F2E       $BODY__G_results
 42C1:132B       $INIT__G_results
 42C1:137D       $EM__G_results
 43F9:0000       $BM__G_DAcquizition
 43F9:0002       L__PolV__G_DAcquizition
 43F9:008B       S__CommReq__Monitor__G_DAcquizi
 43F9:00BD       L__Stop__Monitor__G_DAcquizitio
 43F9:00BD       L__Stop__G_DAcquizition
 43F9:00EC       L__ConsoleEv__Monitor__G_DAcqui
 43F9:00EC       L__ConsoleEv__G_DAcquizition
 43F9:011B       L__Restart__G_DAcquizition
 43F9:011B       L__Restart__Monitor__G_DAcquizi
 43F9:014A       S__GetEvent__Monitor__G_DAcquiz
 43F9:01A4       $BODY__Monitor__G_DAcquizition
 43F9:01CB       N__ZnacznikiPol__Acquire__G_DAc
 43F9:0250       N__AssignPilotEvBlock__Acquire_
 43F9:02AA       L__Acquire__G_DAcquizition
 43F9:06BA       L__RedrawReq__G_DAcquizition
 43F9:0709       L__RedrawMarksReq__G_DAcquiziti
 43F9:0736       L__UpdateMarksOrbit__G_DAcquizi
 43F9:07D0       L__UpdateMarksRadial__G_DAcquiz
 43F9:086A       S__IniData__G_DAcquizition
 43F9:0947       L__IniDataOrbit__G_DAcquizition
 43F9:095F       L__IniDataRadial__G_DAcquizitio
 43F9:0977       L__Start__G_DAcquizition
 43F9:09E8       L__Abort__G_DAcquizition
 43F9:0A10       $BODY__G_DAcquizition
 43F9:0A33       $INIT__G_DAcquizition
 43F9:0AD0       $EM__G_DAcquizition
 44A7:0000       $BM__L_Count
 44A7:00F0       N__Interpolacja__Analiza__L_Cou
 44A7:0123       N__GetEvent__Do_Analiza__Analiz
 44A7:01CE       N__AnalyseZoneLa__Do_Analiza__A
 44A7:03A2       N__CheckZone__AnalizeMain__Do_A
 44A7:03FC       N__AnalizeMain__Do_Analiza__Ana
 44A7:061D       N__Do_StructAnalyse__Do_Analiza
 44A7:06E8       N__Do_Analiza__Analiza__L_Count
 44A7:0827       L__Analiza__L_Count
 44A7:087B       $BODY__L_Count
 44A7:0898       $INIT__L_Count
 44A7:0908       $EM__L_Count
 4538:0000       $BM__G_Print
 4538:0648       L__NazwaProcedury__G_Print
 4538:088F       S__MakeHeader__G_Print
 4538:09A1       N__PrintStdValues__OpisPomiaru_
 4538:0A54       N__WrSignDesc1__OpisPomiaru__G_
 4538:0B13       N__WrSignDesc__OpisPomiaru__G_P
 4538:0B8B       N__LstZToBeTraced__OpisPomiaru_
 4538:0B99       N__WrSectSignDesc__OpisPomiaru_
 4538:0C7F       N__WrSignDesc1__MarkerLength__O
 4538:0D57       N__MarkerLength__OpisPomiaru__G
 4538:0E8D       N__OpisOsiP__OpisPomiaru__G_Pri
 4538:127E       N__OpisSektoraP__OpisPomiaru__G
 4538:13B7       N__OpisProfB_P__OpisPomiaru__G_
 4538:1581       N__OpisBadDod_P__OpisPomiaru__G
 4538:1609       N__OpisZabezpieczenia_P__OpisPo
 4538:168E       N__Pokrycie_P__OpisPomiaru__G_P
 4538:172D       S__OpisPomiaru__G_Print
 4538:1831       N__KatSciezki_P__Print__G_Print
 4538:2555       N__ProfB__Print__G_Print
 4538:2D26       N__SzSekt__Print__G_Print
 4538:3424       N__RownowagaModulacji__Print__G
 4538:38EA       N__Pokrycie__Print__G_Print
 4538:3E7B       S__Print__G_Print
 4538:4448       L__MakeRaport__G_Print
 4538:478E       $BODY__G_Print
 4538:479F       $INIT__G_Print
 4538:4841       $EM__G_Print
 49BD:0000       $BM__Semafory
 49BD:0002       L__Set__Semafory
 49BD:00AA       L__Free__Semafory
 49BD:0120       L__Register__Semafory
 49BD:01B0       L__Init__Semafory
 49BD:01FC       L__Unregister__Semafory
 49BD:02B0       S__ExceptionHandler__Semafory
 49BD:03BE       S__InitTbl__Semafory
 49BD:041D       $BODY__Semafory
 49BD:0433       $INIT__Semafory
 49BD:0453       $EM__Semafory
 4A03:0000       $BM__ILS_EvalProcedures
 4A03:0142       L__CountAzym0R__ILS_EvalProcedu
 4A03:01D2       S__CountAzymR__ILS_EvalProcedur
 4A03:028B       L__CountDif__ILS_EvalProcedures
 4A03:0378       L__AV_Addsmpl__ILS_EvalProcedur
 4A03:04C6       L__AV_Clear__ILS_EvalProcedures
 4A03:04F5       L__Az0Av_Addsmpl__ILS_EvalProce
 4A03:069B       L__Az0Av_Clear__ILS_EvalProcedu
 4A03:06F0       L__CountDelAzym__ILS_EvalProced
 4A03:083C       S__Check__ILS_EvalProcedures
 4A03:0890       L__Azym_Addsmpl__ILS_EvalProced
 4A03:0D17       L__Azym_Clear__ILS_EvalProcedur
 4A03:0E0C       L__CountDif0R__ILS_EvalProcedur
 4A03:0EC6       L__AzDif0_Addsmpl__ILS_EvalProc
 4A03:1318       L__Dif0_Clear__ILS_EvalProcedur
 4A03:136F       L__Az0_Clear__ILS_EvalProcedure
 4A03:13D6       N__Check__Clearence_Addsmpl__IL
 4A03:1428       L__Clearence_Addsmpl__ILS_EvalP
 4A03:16B7       L__Clearence_Clear__ILS_EvalPro
 4A03:16EC       L__AzymAV_Addsmpl__ILS_EvalProc
 4A03:1850       L__AzymAV_Clear__ILS_EvalProced
 4A03:18CF       L__CountAzym__ILS_EvalProcedure
 4A03:19A9       L__CountAzymOsi__ILS_EvalProced
 4A03:1A78       L__MkrLnth_AddSmpl__ILS_EvalPro
 4A03:1B70       L__MkrLnth_Clear__ILS_EvalProce
 4A03:1B99       L__MkrALengthConClear__ILS_Eval
 4A03:1C15       N__CheckMkrState__MkrLength_Cou
 4A03:1C45       N__CheckMkrFlgs__MkrLength_Coun
 4A03:1CD0       L__MkrLength_Count__ILS_EvalPro
 4A03:1F14       L__Bend_ClearContainer__ILS_Eva
 4A03:1FB6       N__Count__Bend_AddSample__ILS_E
 4A03:210C       N__OutSide__Bend_AddSample__ILS
 4A03:231A       L__Bend_AddSample__ILS_EvalProc
 4A03:2630       L__SetPathAngle__ILS_EvalProced
 4A03:264A       $BODY__ILS_EvalProcedures
 4A03:265B       $INIT__ILS_EvalProcedures
 4A03:269E       $EM__ILS_EvalProcedures
 4C6D:0000       $BM__Random
 4C6D:002A       S__Next__Random
 4C6D:00DE       L__RandomInit__Random
 4C6D:01A8       L__RandomCard__Random
 4C6D:0245       L__RandomInt__Random
 4C6D:026A       L__RandomReal__Random
 4C6D:0385       L__Randomize__Random
 4C6D:03DC       $BODY__Random
 4C6D:03E6       $INIT__Random
 4C6D:0410       $EM__Random
 4CAF:0000       $BM__M_PGPIB
 4CAF:0017       L__IOCheck__M_PGPIB
 4CAF:0036       L__GPIBPresent__M_PGPIB
 4CAF:006B       L__ieinit__M_PGPIB
 4CAF:007C       L__ieoutput__M_PGPIB
 4CAF:008D       L__ieenter__M_PGPIB
 4CAF:009E       L__ieabort__M_PGPIB
 4CAF:00AD       L__ieeol__M_PGPIB
 4CAF:00BE       L__iedevclr__M_PGPIB
 4CAF:00CF       L__iello__M_PGPIB
 4CAF:00DE       L__ielocal__M_PGPIB
 4CAF:00EF       L__ieppoll__M_PGPIB
 4CAF:0100       L__ieppollc__M_PGPIB
 4CAF:0111       L__ieppollu__M_PGPIB
 4CAF:0122       L__ieremote__M_PGPIB
 4CAF:0133       L__iesend__M_PGPIB
 4CAF:0144       L__iespoll__M_PGPIB
 4CAF:0155       L__iestatus__M_PGPIB
 4CAF:0166       L__ietimout__M_PGPIB
 4CAF:0177       L__ietrig__M_PGPIB
 4CAF:0188       L__ieentera__M_PGPIB
 4CAF:0199       L__ieouta__M_PGPIB
 4CAF:01AA       L__iedevice__M_PGPIB
 4CAF:01BB       $BODY__M_PGPIB
 4CAF:01C1       $INIT__M_PGPIB
 4CAF:01E1       $EM__M_PGPIB
 4CCE:0000       $BM__NAVInterface
 4CCE:0022       L__GetOmnibearing__NAVInterface
 4CCE:0190       L__GetLocDev__NAVInterface
 4CCE:0241       L__GetGSDev__NAVInterface
 4CCE:02F2       $BODY__NAVInterface
 4CCE:0322       $INIT__NAVInterface
 4CCE:0351       $EM__NAVInterface
 4D04:0000       $BM__ARINC
 4D04:0002       S__INByte__ARINC
 4D04:0062       S__OUTByte__ARINC
 4D04:00BF       L__ReInitialize__ARINC
 4D04:00FF       L__WriteTXParity__ARINC
 4D04:0173       L__WriteTXChannel__ARINC
 4D04:01F1       L__WriteTXLabel__ARINC
 4D04:026F       L__WriteTXData__ARINC
 4D04:032A       L__WriteTXRate__ARINC
 4D04:03F4       L__WriteKillTime__ARINC
 4D04:04B2       L__WriteCardMode__ARINC
 4D04:051B       L__ReadConfiguration__ARINC
 4D04:0637       L__ReadTXSlot__ARINC
 4D04:079E       L__ReadRXSlot__ARINC
 4D04:093D       $BODY__ARINC
 4D04:0954       $INIT__ARINC
 4D04:096F       $EM__ARINC
 4D9C:0000       $BM__Kl_FGenerators
 4D9C:0002       L__LookupM__Kl_FGenerators
 4D9C:04D9       $BODY__Kl_FGenerators
 4D9C:04DF       $INIT__Kl_FGenerators
 4D9C:04FF       $EM__Kl_FGenerators
 4DED:0000       $BM__Marks
 4DED:0032       L__AngResetContiner__Marks
 4DED:0041       L__DisResetContiner__Marks
 4DED:0050       N__findidx__AngAddSample__Marks
 4DED:010A       N__Side__AngAddSample__Marks
 4DED:015E       L__AngAddSample__Marks
 4DED:037F       N__findidx__DisAddSample__Marks
 4DED:0423       N__Side__DisAddSample__Marks
 4DED:0453       L__DisAddSample__Marks
 4DED:0636       L__InicjujOpisStanuLuku__Marks
 4DED:0670       N__findidx__SegZakonczony__Mark
 4DED:0806       L__SegZakonczony__Marks
 4DED:08FD       $BODY__Marks
 4DED:0903       $INIT__Marks
 4DED:0937       $EM__Marks
 4E81:0000       $BM__L_Slupek
 4E81:00BE       L__WrStrXYDummy__L_Slupek
 4E81:00D1       L__GorszeBoDummy__L_Slupek
 4E81:00D9       L__ShowScreenDIB__L_Slupek
 4E81:0125       L__ShowCursorDIB__L_Slupek
 4E81:0163       L__UnverslVal__L_Slupek
 4E81:01F5       L__NapiszSygnaly__L_Slupek
 4E81:034A       S__AssGorszeBoProc__L_Slupek
 4E81:03C3       L__ModL_SWP__L_Slupek
 4E81:0476       L__DewDif_SWP__L_Slupek
 4E81:054F       L__Az_SWP__L_Slupek
 4E81:061E       L__Dew100_SWP__L_Slupek
 4E81:06F7       L__SS_SWP__L_Slupek
 4E81:07AA       L__Alt_SWP__L_Slupek
 4E81:085D       L__D_SWP__L_Slupek
 4E81:0865       N__Activate__InitSlupek__L_Slup
 4E81:09F5       N__regionyWykActv__InitSlupek__
 4E81:0AB0       N__regionyWykActvABS__InitSlupe
 4E81:0B14       N__regionyWykInit__InitSlupek__
 4E81:0B66       N__WykProcInit__InitSlupek__L_S
 4E81:0BA0       L__InitSlupek__L_Slupek
 4E81:1313       L__DoneSlupek__L_Slupek
 4E81:133F       S__Init__L_Slupek
 4E81:1392       L__IniSkale__L_Slupek
 4E81:13F0       L__GetRegionWykG__L_Slupek
 4E81:1434       L__GetRegionWyk1__L_Slupek
 4E81:1478       L__GetRegionWyk2__L_Slupek
 4E81:14BC       L__GetRegionWyk3__L_Slupek
 4E81:1500       $BODY__L_Slupek
 4E81:1509       $INIT__L_Slupek
 4E81:156F       $EM__L_Slupek
 4FD9:0000       $BM__DrawEpson
 4FD9:00A5       S__UstawTrybTekstowy__DrawEpson
 4FD9:00E9       L__MaxX__DrawEpson
 4FD9:00F8       L__MaxY__DrawEpson
 4FD9:0107       S__Map__DrawEpson
 4FD9:01C6       L__Point__DrawEpson
 4FD9:0322       L__IsDrawn__DrawEpson
 4FD9:03D3       L__Out__DrawEpson
 4FD9:0670       L__Open__DrawEpson
 4FD9:06E2       L__Close__DrawEpson
 4FD9:06FE       L__Line__DrawEpson
 4FD9:0849       L__SetTextMode__DrawEpson
 4FD9:085C       L__SetFont__DrawEpson
 4FD9:0942       S__Conv2PL__DrawEpson
 4FD9:0ABD       S__DrawChar0__DrawEpson
 4FD9:0DA0       S__DrawText0__DrawEpson
 4FD9:0E1D       S__DrawChar90__DrawEpson
 4FD9:10A7       S__DrawText90__DrawEpson
 4FD9:1124       L__DrawText__DrawEpson
 4FD9:1193       L__SetDir__DrawEpson
 4FD9:11A6       L__Mnoznik__DrawEpson
 4FD9:11C0       L__InitPort__DrawEpson
 4FD9:120D       L__IsAborted__DrawEpson
 4FD9:1253       L__WrProc__DrawEpson
 4FD9:138C       $BODY__DrawEpson
 4FD9:1415       $INIT__DrawEpson
 4FD9:1462       $EM__DrawEpson
 5120:0000       $BM__Print
 5120:0159       L__GorszeBoMniejsze__Print
 5120:0186       L__DalszeOdZera__Print
 5120:01C3       L__MaxY__Print
 5120:01DE       L__log__Print
 5120:0232       L__Wr__Print
 5120:02A2       L__WrPrn__Print
 5120:0360       L__WrLn__Print
 5120:0390       L__WrPrnLn__Print
 5120:03D2       L__InitA__Print
 5120:0821       L__InitB__Print
 5120:0886       S__PointA__Print
 5120:0ADD       S__PointB__Print
 5120:0CBF       L__Point__Print
 5120:0CF3       L__Opis__Print
 5120:0E2F       L__CloseAll__Print
 5120:0EC8       L__InitAll__Print
 5120:0FE0       L__EvProc__Print
 5120:12D3       L__ZnacznikiOdleglosci__Print
 5120:15A6       L__WrFlagsTableWHeading__Print
 5120:16BA       L__WrFlagsTable__Print
 5120:1799       L__WrF_TablicaOdci__Print
 5120:183C       L__WypiszStrefy__Print
 5120:1998       L__PrintScreenProc__Print
 5120:19A5       $BODY__Print
 5120:19F2       $INIT__Print
 5120:1A80       $EM__Print
 52C9:0000       $BM__G_CntProcedures
 52C9:0082       L__DummyProc__G_CntProcedures
 52C9:0088       S__Common_CP__G_CntProcedures
 52C9:0266       S__DewMniejsz__G_CntProcedures
 52C9:02A2       L__ProfBComm_CP__G_CntProcedure
 52C9:0652       L__An_OpisOsi_CP__G_CntProcedur
 52C9:0B14       L__An_OpisSektora_CP__G_CntProc
 52C9:0D65       L__An_OpisBadDod_CP__G_CntProce
 52C9:0E21       L__An_OpisZasiegSzer_CP__G_CntP
 52C9:0F19       L__An_OpisZabezpieczenie_CP__G_
 52C9:100E       N__ClearProcTable__CntProcedure
 52C9:1063       N__ClearAllCont__CntProcedures_
 52C9:1598       N__TurnOn__AssignEvalProc__CntP
 52C9:15ED       N__AssignEvalProc__CntProcedure
 52C9:1688       L__CntProcedures_Prolog__G_CntP
 52C9:16E7       L__InZoneAnalyse__G_CntProcedur
 52C9:171B       L__DoCountProcedures__G_CntProc
 52C9:1853       L__KapaFun1__G_CntProcedures
 52C9:18CF       L__KapaFun2__G_CntProcedures
 52C9:193E       L__KapaFun3__G_CntProcedures
 52C9:19BA       L__KapaFunDumm__G_CntProcedures
 52C9:19CB       N__Count_ChiLoc__CntProcedures_
 52C9:1B27       N__Count_PhiLoc__CntProcedures_
 52C9:1DC5       N__AssignAz__CntProcedures_Epil
 52C9:1E33       N__alig_ContinerClear__CntProce
 52C9:1E7C       N__FillBound__InitCon__CntProce
 52C9:1F84       N__InitCon__CntProcedures_Epilo
 52C9:20F5       L__CntProcedures_Epilog__G_CntP
 52C9:26B2       N__RoughErr_An__DoBendAnalyse__
 52C9:26F0       L__DoBendAnalyse__G_CntProcedur
 52C9:28BF       L__Close_CntProcedures__G_CntPr
 52C9:2B43       $BODY__G_CntProcedures
 52C9:2B49       $INIT__G_CntProcedures
 52C9:2BB4       $EM__G_CntProcedures
 5585:0000       $BM__PrintCntroll
 5585:00D5       L__CoKtoraPUp__PrintCntroll
 5585:013A       L__CoKtoraPDn__PrintCntroll
 5585:01BC       S__UstawStrony__PrintCntroll
 5585:01FC       S__UstawLiczbe__PrintCntroll
 5585:0232       L__OkP__PrintCntroll
 5585:0248       L__ValidPodz__PrintCntroll
 5585:037E       L__Odn__PrintCntroll
 5585:03D5       L__P1__PrintCntroll
 5585:03F6       L__P2__PrintCntroll
 5585:0417       L__UstalSkalowanie__PrintCntrol
 5585:085B       $BODY__PrintCntroll
 5585:0861       $INIT__PrintCntroll
 5585:08E0       $EM__PrintCntroll
 5614:0000       NMIServer
 5614:003E       AT87Server
 561A:0000       $INIT__RTS87
 5620:0000       CaseError__RTSError
 5620:000A       FctRetError__RTSError
 5620:0014       AddrOvf__RTSError
 5620:001E       CardOvf__RTSError
 5620:0028       IntegerOvf__RTSError
 5620:0032       LongIntegerOvf__RTSError
 5620:003C       RangeError__RTSError
 5620:0046       DivZero__RTSError
 562D:0000       $INIT__RTSError
 5630:0000       $BM__RTSMain
 5630:0001       L__InstallTermProc__RTSMain
 5630:007B       L__InstallInitProc__RTSMain
 5630:00EF       L__CallInitProc__RTSMain
 5630:00FD       L__CallTermProc__RTSMain
 5630:0147       L__GetMessage__RTSMain
 5630:0526       L__Execute__RTSMain
 5630:0636       Error__RTSMain
 5630:0673       StackCheck__RTSMain
 5630:067C       StackOvf__RTSMain
 5630:0683       M2Halt__RTSMain
 5630:068A       L__Terminate__RTSMain
 5630:0731       $INIT__RTSMain
 5630:0743       $BODY__RTSMain
 5630:076F       $EM__RTSMain
 5630:0770       $INIT__RTSMonExit
 56A8:0000       SpecialCASE__RTSLanguage
 56A8:004D       ParCopy__RTSLanguage
 56A8:0069       DynParCopy__RTSLanguage
 56B4:0000       $INIT__RTSLanguage
 56B5:0000       L__InstallHandler__RTSDevice
 56B5:0000       $BM__RTSDevice
 56B5:0058       L__UninstallHandler__RTSDevice
 56B5:009B       L__GetDeviceStatus__RTSDevice
 56B5:00BE       L__SetDeviceStatus__RTSDevice
 56B5:00F6       L__SaveInterruptVector__RTSDevi
 56B5:00FB       L__RestoreInterruptVector__RTSD
 56B5:0100       L__GetPrioMask__RTSDevice
 56B5:011F       L__SetPrioMask__RTSDevice
 56B5:0140       $EM__RTSDevice
 56CA:0000       $INIT__RTSDevice
 56CB:0000       MonEntry__RTSPriority
 56CB:0043       MonExit__RTSPriority
 56CB:006F       Listen__RTSPriority
 56D6:0000       $INIT__RTSPriority
 56D7:0000       NewProcess__RTSCoroutine
 56D7:0000       $BM__RTSCoroutine
 56D7:0143       Transfer__RTSCoroutine
 56D7:01A7       $EM__RTSCoroutine
 56F2:0000       $INIT__RTSCoroutine
 56F3:011E       IOTransfer__RTSInterrupt
 5718:0000       $INIT__RTSInterrupt
 571D:0000       RealError__RTSRealError
 571E:0000       $INIT__RTSRealError
 571F:0000       L__Length__Strings
 571F:001D       L__ConstAssign__Strings
 571F:005F       L__Assign__Strings
 571F:0096       L__Insert__Strings
 571F:014C       L__Delete__Strings
 571F:0188       L__Pos__Strings
 571F:01E9       L__Copy__Strings
 571F:025B       L__Concat__Strings
 571F:02B2       L__CompareStr__Strings
 571F:0303       $INIT__Strings
 5750:0000       L__InstallDynMem__DynMem
 5750:0000       $BM__DynMem
 5750:0059       L__Alloc__DynMem
 5750:0102       L__DeAlloc__DynMem
 5750:01BF       L__Avail__DynMem
 5750:0203       $INIT__DynMem
 5750:0204       $EM__DynMem
 5771:0002       L__AssignRead__Termbase
 5771:0088       L__Read__Termbase
 5771:00D7       L__KeyPressed__Termbase
 5771:0127       L__UnAssignRead__Termbase
 5771:0184       L__AssignWrite__Termbase
 5771:01F1       L__Write__Termbase
 5771:023E       L__UnAssignWrite__Termbase
 5771:03BB       $INIT__Termbase
 5771:03E5       $EM__Termbase
 57B0:0000       $BM__BlockOps
 57B0:0000       L__BlockMoveForward__BlockOps
 57B0:001A       L__BlockMoveBackward__BlockOps
 57B0:003B       L__BlockMove__BlockOps
 57B0:007D       L__BlockClear__BlockOps
 57B0:0096       L__BlockSet__BlockOps
 57B0:00B8       L__BlockEqual__BlockOps
 57B0:00D9       L__BlockPosition__BlockOps
 57B0:0107       $INIT__BlockOps
 57B0:0108       $EM__BlockOps
 57C1:01B9       L__IntToString__NumberConversio
 57C1:01FE       L__LongIntToString__NumberConve
 57C1:0259       L__CardToString__NumberConversi
 57C1:028D       L__NumToString__NumberConversio
 57C1:04BA       L__StringToInt__NumberConversio
 57C1:0522       L__StringToCard__NumberConversi
 57C1:0587       L__StringToLongInt__NumberConve
 57C1:05B5       L__StringToNum__NumberConversio
 57C1:0620       $INIT__NumberConversion
 57C1:063B       $EM__NumberConversion
 5825:0009       $INIT__ASCII
 5825:0024       $EM__ASCII
 5828:0000       L__GetBits__BitByteOps
 5828:0000       $BM__BitByteOps
 5828:0018       L__SetBits__BitByteOps
 5828:0046       L__ByteAnd__BitByteOps
 5828:0055       L__ByteOr__BitByteOps
 5828:0064       L__ByteXor__BitByteOps
 5828:0073       L__ByteNot__BitByteOps
 5828:0081       L__ByteShr__BitByteOps
 5828:0092       L__ByteSar__BitByteOps
 5828:00A3       L__ByteShl__BitByteOps
 5828:00B4       L__ByteRor__BitByteOps
 5828:00C5       L__ByteRol__BitByteOps
 5828:00D6       L__HighNibble__BitByteOps
 5828:00E6       L__LowNibble__BitByteOps
 5828:00F4       L__Swap__BitByteOps
 5828:0108       $INIT__BitByteOps
 5828:0109       $EM__BitByteOps
 5839:0002       L__Sound__Sounds
 5839:0032       L__NoSound__Sounds
 5839:0046       $INIT__Sounds
 5839:0061       $EM__Sounds
 5840:0002       L__GetDeviceStatus__Devices
 5840:0018       L__SetDeviceStatus__Devices
 5840:002C       L__SaveInterruptVector__Devices
 5840:004D       L__RestoreInterruptVector__Devi
 5840:006A       L__InstallHandler__Devices
 5840:0080       L__UninstallHandler__Devices
 5840:009A       $INIT__Devices
 5840:00BA       $EM__Devices
 584C:0000       pushLSet__Longs
 584C:001E       areSetsEQ__Longs
 584C:0036       superSet__Longs
 584C:005E       subSet__Longs
 584C:0086       union__Longs
 584C:009D       intersection__Longs
 584C:00B4       complement__Longs
 584C:00CF       unionCompl__Longs
 584C:00E6       LMult__Longs
 584C:018D       LMultU__Longs
 584C:01F7       LDiv__Longs
 584C:02DE       $INIT__Longs
 587A:0002       L__DOSAlloc__DOSMemory
 587A:00E3       L__DOSDeAlloc__DOSMemory
 587A:01B0       L__DOSAvail__DOSMemory
 587A:01F0       L__DOSSetSize__DOSMemory
 587A:0241       L__DOSGetMaxSize__DOSMemory
 587A:0298       $INIT__DOSMemory
 587A:02B8       $EM__DOSMemory
 58A6:0002       L__FlagReset__Mouse
 58A6:001F       L__ShowCursor__Mouse
 58A6:002B       L__HideCursor__Mouse
 58A6:0037       L__GetPosBut__Mouse
 58A6:005A       L__SetCursorPos__Mouse
 58A6:006E       L__GetButPres__Mouse
 58A6:00A0       L__GetButRel__Mouse
 58A6:00D2       L__SetHorizontalLimits__Mouse
 58A6:00E6       L__SetVerticalLimits__Mouse
 58A6:00FA       L__SetGraphicCursor__Mouse
 58A6:0127       L__SetTextCursor__Mouse
 58A6:013E       L__ReadMotionCounters__Mouse
 58A6:0157       L__SetEventHandler__Mouse
 58A6:0188       L__LightPenOn__Mouse
 58A6:0194       L__LightPenOff__Mouse
 58A6:01A0       L__SetMickeysPerPixel__Mouse
 58A6:01B4       L__ConditionalOff__Mouse
 58A6:01CE       L__SetSpeedThreshold__Mouse
 58A6:0296       $INIT__Mouse
 58A6:02B1       $EM__Mouse
 58D2:0002       L__KeyPressed__Keyboard
 58D2:0033       L__Read__Keyboard
 58D2:0142       $INIT__Keyboard
 58D2:0167       $EM__Keyboard
 58E9:0002       L__KeyPressed__Terminal
 58E9:000E       L__Read__Terminal
 58E9:0089       L__ReadString__Terminal
 58E9:010A       L__ReadAgain__Terminal
 58E9:011B       L__Write__Terminal
 58E9:012C       L__WriteLn__Terminal
 58E9:013B       L__WriteString__Terminal
 58E9:01A1       $INIT__Terminal
 58E9:01C6       $EM__Terminal
 594F:0000       $INIT__DebugPMD
 5959:0002       L__Write__Display
 5959:007C       $INIT__Display
 5959:009C       $EM__Display
 5963:0000       $BM__MathLib0
 5963:002A       L__sqrt__MathLib0
 5963:0098       L__exp__MathLib0
 5963:0209       L__ln__MathLib0
 5963:0251       L__sin__MathLib0
 5963:03A5       L__cos__MathLib0
 5963:04CA       L__arctan__MathLib0
 5963:05AC       L__real__MathLib0
 5963:05BE       L__entier__MathLib0
 5963:06AF       $INIT__MathLib0
 5963:06C4       $EM__MathLib0
 59D0:0000       $OK__10jul99_1217_OF_PG
 59D0:0000       $DD
 59D0:0000       $MN__PG
 59D0:008E       $OK__10jul99_1214_OF_MANAGER
 59D0:0094       $OK__10jul99_1214_OF_DOSEntry
 59D0:009A       $OK__10jul99_1214_OF_ErrorMess
 59D0:00A0       $OK__10jul99_1217_OF_PI_PA
 59D0:00A6       $OK__10jul99_1214_OF_Tune
 59D0:00AC       $OK__10jul99_1217_OF_PI_Qcheck
 59D0:00B2       $OK__10jul99_1215_OF_ScannerI
 59D0:00B8       $OK__10jul99_1214_OF_CommonType
 59D0:00BE       $OK__10jul99_1214_OF_TheodolitR
 59D0:00C4       $OK__10jul99_1215_OF_GPSRead
 59D0:00CA       $OK__10jul99_1214_OF_DGHIni
 59D0:00D0       $OK__10jul99_1217_OF_G_Files
 59D0:00D6       $OK__10jul99_1217_OF_PI_Glowny
 59D0:00DC       $OK__10jul99_1217_OF_G_Inspekcj
 59D0:00E2       $OK__10jul99_1217_OF_G_Oblot
 59D0:00E8       $OK__10jul99_1214_OF_SpecConv
 59D0:00EE       $OK__10jul99_1214_OF_FlagAnal
 59D0:00F4       $OK__10jul99_1214_OF_Czas
 59D0:00FA       $OK__10jul99_1216_OF_L_CommonTy
 59D0:0100       $OK__10jul99_1217_OF_G_CommonTy
 59D0:0106       $OK__10jul99_1216_OF_ILS_ZoneMn
 59D0:010C       $OK__10jul99_1214_OF_CommonData
 59D0:0112       $OK__10jul99_1215_OF_Files
 59D0:0118       $OK__10jul99_1217_OF_G_CP_Contr
 59D0:011E       $OK__10jul99_1215_OF_Pomiar
 59D0:0124       $OK__10jul99_1215_OF_Screen
 59D0:012A       $OK__10jul99_1217_OF_PI_Analiza
 59D0:0130       $OK__10jul99_1217_OF_PI_Pomiar
 59D0:0136       $OK__10jul99_1217_OF_PI_ArchDat
 59D0:013C       $OK__10jul99_1217_OF_PI_Drukuj
 59D0:0142       $OK__10jul99_1216_OF_L_DataBase
 59D0:0148       $OK__10jul99_1214_OF_Storage
 59D0:014E       $OK__10jul99_1214_OF_SoftIntHan
 59D0:0154       $OK__10jul99_1214_OF_Timer
 59D0:015A       $OK__10jul99_1214_OF_Messages
 59D0:0160       $OK__10jul99_1214_OF_StdIO
 59D0:0166       $OK__10jul99_1214_OF_DGHInterfa
 59D0:016C       $OK__10jul99_1214_OF_HiLevGraf
 59D0:0172       $OK__10jul99_1214_OF_GrafTypes
 59D0:0178       $OK__10jul99_1214_OF_GrafUtil
 59D0:017E       $OK__10jul99_1217_OF_G_Odb
 59D0:0184       $OK__10jul99_1215_OF_ScreenCTyp
 59D0:018A       $OK__10jul99_1214_OF_MsgBox
 59D0:0190       $OK__10jul99_1214_OF_NAVGPIB
 59D0:0196       $OK__10jul99_1214_OF_AltInterfa
 59D0:019C       $OK__10jul99_1214_OF_Int_DME
 59D0:01A2       $OK__10jul99_1214_OF_FIltr1St
 59D0:01A8       $OK__10jul99_1215_OF_GeoArithme
 59D0:01AE       $OK__10jul99_1214_OF_DGH_utils
 59D0:01B4       $OK__10jul99_1214_OF_Kalibracja
 59D0:01BA       $OK__10jul99_1214_OF_DigiRS
 59D0:01C0       $OK__10jul99_1214_OF_RealConver
 59D0:01C6       $OK__10jul99_1214_OF_Math
 59D0:01CC       $OK__10jul99_1214_OF_GPS_nov
 59D0:01D2       $OK__10jul99_1214_OF_GPS_TRIMBL
 59D0:01D8       $OK__10jul99_1214_OF_Ini
 59D0:01DE       $OK__10jul99_1214_OF_FIO
 59D0:01E4       $OK__10jul99_1214_OF_ShortCuts
 59D0:01EA       $OK__10jul99_1214_OF_Obloty
 59D0:01F0       $OK__10jul99_1214_OF_MMMouse
 59D0:01F6       $OK__10jul99_1214_OF_GList
 59D0:01FC       $OK__10jul99_1214_OF_Buttons
 59D0:0202       $OK__10jul99_1214_OF_Dialog
 59D0:0208       $OK__10jul99_1214_OF_InpLine
 59D0:020E       $OK__10jul99_1215_OF_Mapa
 59D0:0214       $OK__10jul99_1215_OF_Polozenie
 59D0:021A       $OK__10jul99_1214_OF_SwitchCntr
 59D0:0220       $OK__10jul99_1214_OF_WorseBecau
 59D0:0226       $OK__10jul99_1214_OF_Graphics
 59D0:022C       $OK__10jul99_1214_OF_XMSService
 59D0:0232       $OK__10jul99_1214_OF_HRD_Clock
 59D0:0238       $OK__10jul99_1214_OF_FCBS
 59D0:023E       $OK__10jul99_1214_OF_CocpDsp
 59D0:0244       $OK__10jul99_1215_OF_DataCollec
 59D0:024A       $OK__10jul99_1214_OF_Wykres
 59D0:0250       $OK__10jul99_1214_OF_XMSTable
 59D0:0256       $OK__10jul99_1215_OF_EventsMng
 59D0:025C       $OK__10jul99_1217_OF_PI_ScrUtil
 59D0:0262       $OK__10jul99_1215_OF_Slupek
 59D0:0268       $OK__10jul99_1217_OF_G_DisResul
 59D0:026E       $OK__10jul99_1215_OF_DisResUtil
 59D0:0274       $OK__10jul99_1215_OF_PiszEventy
 59D0:027A       $OK__10jul99_1217_OF_G_results
 59D0:0280       $OK__10jul99_1217_OF_G_DAcquizi
 59D0:0286       $OK__10jul99_1217_OF_L_Count
 59D0:028C       $OK__10jul99_1217_OF_G_Print
 59D0:0292       $OK__10jul99_1214_OF_Semafory
 59D0:0298       $OK__10jul99_1216_OF_ILS_EvalPr
 59D0:029E       $OK__10jul99_1215_OF_Random
 59D0:02A4       $OK__10jul99_1214_OF_M_PGPIB
 59D0:02AA       $OK__10jul99_1214_OF_NAVInterfa
 59D0:02B0       $OK__10jul99_1214_OF_ARINC
 59D0:02B6       $OK__10jul99_1214_OF_Kl_FGenera
 59D0:02BC       $OK__10jul99_1215_OF_Marks
 59D0:02C2       $OK__10jul99_1217_OF_L_Slupek
 59D0:02C8       $OK__10jul99_1215_OF_DrawEpson
 59D0:02CE       $OK__10jul99_1215_OF_Print
 59D0:02D4       $OK__10jul99_1217_OF_G_CntProce
 59D0:02DA       $OK__10jul99_1215_OF_PrintCntro
 59D0:02E0       $OK__10jul87_1403_OF_RTS87
 59D0:02E6       $OK__10jul87_1400_OF_RTSError
 59D0:02EC       $OK__19aug87_1403_OF_RTSMain
 59D0:02F2       $OK__10jul87_1401_OF_RTSLanguag
 59D0:02F8       $OK__15jun87_0924_OF_RTSDevice
 59D0:02FE       $OK__10jul87_1404_OF_RTSPriorit
 59D0:0304       $OK__15jun87_0924_OF_RTSCorouti
 59D0:030A       $OK__10jul87_1402_OF_RTSInterru
 59D0:0310       $OK__10jul87_1400_OF_RTSRealErr
 59D0:0316       $OK__31jul87_1000_OF_Strings
 59D0:031C       $OK__16jun87_1952_OF_DynMem
 59D0:0322       $OK__01mar90_1621_OF_Termbase
 59D0:0328       $OK__31jul87_1300_OF_BlockOps
 59D0:032E       $OK__01mar90_1621_OF_NumberConv
 59D0:0334       $OK__01mar90_1621_OF_ASCII
 59D0:033A       $OK__31jul87_1100_OF_BitByteOps
 59D0:0340       $OK__01mar90_1622_OF_Sounds
 59D0:0346       $OK__01mar90_1622_OF_Devices
 59D0:034C       $OK__05feb87_1233_OF_Longs
 59D0:0352       $OK__01mar90_1621_OF_DOSMemory
 59D0:0358       $OK__01mar90_1622_OF_Mouse
 59D0:035E       $OK__01mar90_1621_OF_Keyboard
 59D0:0364       $OK__01mar90_1621_OF_Terminal
 59D0:036A       $OK__16jun87_2059_OF_DebugPMD
 59D0:0370       $OK__01mar90_1621_OF_Display
 5A17:0000       errorCode__RTSMain
 5A17:0000       $BD__RTSMain
 5A17:0002       PSPAddress__RTSMain
 5A17:0006       blockList__RTSMain
 5A17:000A       overlayList__RTSMain
 5A17:000E       overlayInitProc__RTSMain
 5A17:0012       overlayTermProc__RTSMain
 5A17:0016       curProcess__RTSMain
 5A17:001A       activProcess__RTSMain
 5A17:001E       debuggerRecord__RTSMain
 5A17:0030       deviceMask__RTSMain
 5A17:0032       dyingOverlay__RTSMain
 5A17:0036       MonitorExitProc__RTSMonExit
 5A17:003E       programSize
 5A17:0046       priorityMasks__RTSMain
 5A17:0058       DescInt0__RTSMain
 5A17:0128       freeList__RTSMain
 5A17:01CE       oldNMIvector
 5A17:01DD       $ED__RTSMain
 5A36:0000       $BD__RTSCoroutine
 5A36:0000       addProcess__RTSCoroutine
 5A36:0003       $ED__RTSCoroutine
 5AA3:0000       mainState__PG
 5AA3:0000       $BD__PG
 5AA3:0001       podzielnik__PG
 5AA3:0003       switchAble__PG
 5AA3:0004       polaryzacjaOK__PG
 5AA3:0005       synResult__PG
 5AA3:0007       dataOk__PG
 5AA3:0009       archData__PG
 5AA3:000A       offset__PG
 5AA3:000C       $ED__PG
 5AA4:0000       $BD__MANAGER
 5AA4:0000       ErrorQueue__MANAGER
 5AA4:0004       ReadyFirst__MANAGER
 5AA4:0008       NuOfErrorProc__MANAGER
 5AA4:000A       MaxNumOfReady__MANAGER
 5AA4:000C       MaxRunTime__MANAGER
 5AA4:000E       LongestProcess__MANAGER
 5AA4:0012       ErrorHandler__MANAGER
 5AA4:0016       LastCreated__MANAGER
 5AA4:001A       NumberOfProc__MANAGER
 5AA4:001C       Statistic__MANAGER
 5AA4:0114       CP__MANAGER
 5AA4:0118       ReadyLast__MANAGER
 5AA4:011C       DUMMY__MANAGER
 5AA4:0120       NuOfReady__MANAGER
 5AA4:0122       WaitForInt__MANAGER
 5AA4:0124       TSSInterval__MANAGER
 5AA4:0126       MaxRecTime__MANAGER
 5AA4:0128       TimeIntNum__MANAGER
 5AA4:012A       spTab__MANAGER
 5AA4:01F6       expInter__Scheduler__MANAGER
 5AA4:0208       VarDR__MANAGER
 5AA4:021A       Count__MANAGER
 5AA4:021C       LastMask__MANAGER
 5AA4:021E       $ED__MANAGER
 5AC6:0000       $BD__DOSEntry
 5AC6:0000       entryTmp__DOSEntry
 5AC6:003D       exitTmp__DOSEntry
 5AC6:007A       entryTmpPtr__DOSEntry
 5AC6:007E       exitTmpPtr__DOSEntry
 5AC6:0082       insideFlag__DOSEntry
 5AC6:0084       DOSEmpty__DOSEntry
 5AC6:0088       $ED__DOSEntry
 5ACF:0000       $ED__ErrorMess
 5ACF:0000       $BD__ErrorMess
 5AD0:0000       PomiarANieArchiwum__PI_PA
 5AD0:0000       $BD__PI_PA
 5AD0:0001       $ED__PI_PA
 5AD1:0000       $BD__Tune
 5AD1:0000       VORfreqCRT__Tune
 5AD1:0050       GSfreqCRT__Tune
 5AD1:00A0       lastCPFlags__Tune
 5AD1:00A2       lastDMEfrqBits__Tune
 5AD1:00A6       $ED__Tune
 5ADC:0000       $BD__PI_Qcheck
 5ADC:0000       ST__PI_Qcheck
 5ADC:0048       $ED__PI_Qcheck
 5AE1:0000       flg__ScannerI
 5AE1:0000       $BD__ScannerI
 5AE1:0002       Alfa__ScannerI
 5AE1:0006       AlfaF__ScannerI
 5AE1:000A       RefAlfa__ScannerI
 5AE1:000C       TeoAlfaF__ScannerI
 5AE1:000E       Delta__ScannerI
 5AE1:0016       DeltaDME__ScannerI
 5AE1:001A       DeltaF__ScannerI
 5AE1:0022       RefDis__ScannerI
 5AE1:0024       ABOVESL__ScannerI
 5AE1:0026       pilErr__ScannerI
 5AE1:0028       TEO_A__ScannerI
 5AE1:0030       TEO_E__ScannerI
 5AE1:0038       TEO_OK__ScannerI
 5AE1:003A       TEO_DGPSpoprawki__ScannerI
 5AE1:003B       GPS_A__ScannerI
 5AE1:0043       GPS_R__ScannerI
 5AE1:004B       GPS_OK__ScannerI
 5AE1:004C       GPS_SAT__ScannerI
 5AE1:004E       GPS_GDOP__ScannerI
 5AE1:0050       GPS_DIFFMODE__ScannerI
 5AE1:0051       GPS_PREC__ScannerI
 5AE1:0053       Simul__ScannerI
 5AE1:0054       AcqQ__ScannerI
 5AE1:0058       RUN__ScannerI
 5AE1:0059       AlfaSigma__ScannerI
 5AE1:0061       DisSigma__ScannerI
 5AE1:0069       EvalPROC__ScannerI
 5AE1:0079       pilotEvNrCOn__ScannerI
 5AE1:007C       pilotEvNr__ScannerI
 5AE1:007E       pilEvCon__ScannerI
 5AE1:0082       pilEvBit__ScannerI
 5AE1:0083       Sim_Dis_CP__ScannerI
 5AE1:0087       Sim_Alfa_CP__ScannerI
 5AE1:008B       GPSEcounting__ScannerI
 5AE1:008F       TEOEcounting__ScannerI
 5AE1:0093       locTogether__ScannerI
 5AE1:0094       AlfaGPSWatcDog__ScannerI
 5AE1:0096       AlfaTeoWatcDog__ScannerI
 5AE1:0098       currOdnDlaPomOdl__ScannerI
 5AE1:0099       currOdnDlaPomBledu__ScannerI
 5AE1:009A       currPredkosc__ScannerI
 5AE1:00A2       currPromien__ScannerI
 5AE1:00A4       currAlfaOff__ScannerI
 5AE1:00A6       azymANieElew__ScannerI
 5AE1:00A7       TEO_dtaSign__ScannerI
 5AE1:00AB       GPS_dtaSign__ScannerI
 5AE1:00AD       ix__ScannerI
 5AE1:00AF       $ED__ScannerI
 5AEC:0000       $ED__CommonTypes
 5AEC:0000       $BD__CommonTypes
 5AED:0000       $BD__TheodolitRead
 5AED:0000       PolozenieTeodolitu__TheodolitRe
 5AED:0010       Kopiowanie__TheodolitRead
 5AED:0014       Azymut__TheodolitRead
 5AED:001C       Elewacja__TheodolitRead
 5AED:0024       lstAzymuth__TheodolitRead
 5AED:002C       lstElevation__TheodolitRead
 5AED:0034       currentSign__TheodolitRead
 5AED:0036       TeoEvNr__TheodolitRead
 5AED:0038       wd_dgps_currSign__TheodolitRead
 5AED:003A       lstEvent__TheodolitRead
 5AED:003B       lstTracking__TheodolitRead
 5AED:003C       teoEvBit__TheodolitRead
 5AED:003D       State__TheodolitRead
 5AED:003F       currState__TheodolitRead
 5AED:0040       lastNum__TheodolitRead
 5AED:0046       lastCrc__TheodolitRead
 5AED:0048       numPos__TheodolitRead
 5AED:004A       CheckSumIdx__TheodolitRead
 5AED:004C       teoEvCon__TheodolitRead
 5AED:0050       teoEvNrCOn__TheodolitRead
 5AED:0053       Nie_mozna_uruchomic_kanalu_Teod
 5AED:0057       $ED__TheodolitRead
 5AF3:0000       $BD__GPSRead
 5AF3:0000       ObecnyStan__GPSRead
 5AF3:0001       currentSign__GPSRead
 5AF3:0003       Last_Gdop__GPSRead
 5AF3:0005       Last_NumberOfSattelites__GPSRea
 5AF3:0007       Last_polGeo__GPSRead
 5AF3:0013       Last_Diffmode__GPSRead
 5AF3:0014       Last_tog__GPSRead
 5AF3:001C       Last_EPE__GPSRead
 5AF3:001E       CurrGPSAnalizer__GPSRead
 5AF3:0022       $ED__GPSRead
 5AF6:0000       signals__DGHIni
 5AF6:0000       $BD__DGHIni
 5AF6:08E8       TableOfNames__DGHIni
 5AF6:0F70       SignalDescr__DGHIni
 5AF6:0F8E       $ED__DGHIni
 5BEF:0000       FileErr__G_Files
 5BEF:0000       $BD__G_Files
 5BEF:0004       NamesSig__G_Files
 5BEF:0090       FileSig__G_Files
 5BEF:00A4       NameRes__G_Files
 5BEF:0130       FileRes__G_Files
 5BEF:0144       FileResCreated__G_Files
 5BEF:0149       $ED__G_Files
 5C04:0000       $BD__PI_Glowny
 5C04:0000       $ED__PI_Glowny
 5C05:0000       $BD__G_Inspekcja
 5C05:0000       hDlg__G_Inspekcja
 5C05:0004       RedrawScr__G_Inspekcja
 5C05:0005       ListaOblotow__G_Inspekcja
 5C05:0009       ListaOblotowBAK__G_Inspekcja
 5C05:000D       ListaLokalizacji__G_Inspekcja
 5C05:0011       ListaLokalizacjiBAK__G_Inspekcj
 5C05:0015       OstatniOblot__G_Inspekcja
 5C05:0017       $ED__G_Inspekcja
 5C07:0000       $BD__G_Oblot
 5C07:0000       CoRobimy__G_Oblot
 5C07:0001       hDlg__G_Oblot
 5C07:0005       bAlarmSciezki__G_Oblot
 5C07:0015       bSzerSektora_pA__G_Oblot
 5C07:0025       bAlarmSzeroki_pA__G_Oblot
 5C07:0035       bAlarmWaski_pA__G_Oblot
 5C07:0045       bKatSciezki__G_Oblot
 5C07:004D       bKatSciezki_Szer_pA__G_Oblot
 5C07:0055       bKatSciezki_Waski_pA__G_Oblot
 5C07:005D       bSzer_i_Osi_pB__G_Oblot
 5C07:0065       bAlarmSzer_pB__G_Oblot
 5C07:006D       bAlarmWaski_pB__G_Oblot
 5C07:0075       bRownowagaModulacji__G_Oblot
 5C07:007D       bFazowanie__G_Oblot
 5C07:0085       bZabezpieczenie__G_Oblot
 5C07:008D       bPokrycieWOsi__G_Oblot
 5C07:0095       bPokrycie8stP__G_Oblot
 5C07:009D       bPokrycie8stL__G_Oblot
 5C07:00A5       GlowOdb__G_Oblot
 5C07:00A9       OdnAzymut__G_Oblot
 5C07:00AD       OdnOdl__G_Oblot
 5C07:00B1       bIdentPunktow__G_Oblot
 5C07:00C5       Szer_sekt_kier_AS__G_Oblot
 5C07:00C7       Szer_sekt_kier_AW__G_Oblot
 5C07:00C9       Szer_sekt_kier_N__G_Oblot
 5C07:00CB       CisnienieOdn_L__G_Oblot
 5C07:00CF       TestUP__G_Oblot
 5C07:00D3       Raport__G_Oblot
 5C07:00D7       Pomiar__G_Oblot
 5C07:00DB       RedrawScr__G_Oblot
 5C07:00DC       $ED__G_Oblot
 5C15:0000       $ED__SpecConv
 5C15:0000       $BD__SpecConv
 5C16:0000       $BD__FlagAnal
 5C16:0000       $ED__FlagAnal
 5C17:0000       StringRect__BezPrzerwan__Czas
 5C17:0000       $BD__Czas
 5C17:0008       SystemTime__BezPrzerwan__Czas
 5C17:0014       $ED__Czas
 5C19:0000       Procedura__L_CommonTypes
 5C19:0000       $BD__L_CommonTypes
 5C19:0001       Strona__L_CommonTypes
 5C19:0002       Odl_dla_pom_pB__L_CommonTypes
 5C19:0004       Szer_sekt_kier__L_CommonTypes
 5C19:0006       $ED__L_CommonTypes
 5C1A:0000       $BD__G_CommonTypes
 5C1A:0000       Procedura__G_CommonTypes
 5C1A:0001       Strona__G_CommonTypes
 5C1A:0002       Szer_sekt_kier__G_CommonTypes
 5C1A:0004       $ED__G_CommonTypes
 5C1B:0000       IdentPunktow__ILS_ZoneMngmnt
 5C1B:0000       $BD__ILS_ZoneMngmnt
 5C1B:0005       lstPToBeTraced__ILS_ZoneMngmnt
 5C1B:0006       lstZone__ILS_ZoneMngmnt
 5C1B:0007       $ED__ILS_ZoneMngmnt
 5C1C:0000       NazwaUrzadz1__CommonData
 5C1C:0000       $BD__CommonData
 5C1C:0029       NazwaUrzadz2__CommonData
 5C1C:0052       NazwaOblotu__CommonData
 5C1C:007B       NazwaPlikuOpisu__CommonData
 5C1C:00FB       DME__CommonData
 5C1C:00FC       SciezkaOpisuPomiaru__CommonData
 5C1C:013D       OdnDlaPomBledu__CommonData
 5C1C:013E       OdnDlaPomOdl__CommonData
 5C1C:013F       Nadajnik1__CommonData
 5C1C:0140       Nadajnik2__CommonData
 5C1C:0141       GlownyOdbiornik__CommonData
 5C1C:0142       Promien__CommonData
 5C1C:0144       Orbita__CommonData
 5C1C:0146       Predkosc__CommonData
 5C1C:014E       CisnienieOdniesienia__CommonDat
 5C1C:0156       $ED__CommonData
 5C32:0000       FileErr__Files
 5C32:0000       $BD__Files
 5C32:0004       DirErr__Files
 5C32:0008       NamesAn__Files
 5C32:0040       NamesDist__Files
 5C32:00B0       NamesAlfa__Files
 5C32:00E8       NamesComm__Files
 5C32:0190       filesDist__Files
 5C32:01A0       filesAlfa__Files
 5C32:01A8       filesComm__Files
 5C32:01C0       xRefFile__Files
 5C32:01C4       xRefDefV__Files
 5C32:01C8       homeDir__Files
 5C32:0219       $ED__Files
 5C54:0000       myOffset__G_CP_ControlProc
 5C54:0000       $BD__G_CP_ControlProc
 5C54:0002       Running__G_CP_ControlProc
 5C54:0003       currRec__G_CP_ControlProc
 5C54:0004       currProc__G_CP_ControlProc
 5C54:0008       GSPilErr__G_CP_ControlProc
 5C54:000C       LOCPilErr__G_CP_ControlProc
 5C54:0010       PilErrDis__G_CP_ControlProc
 5C54:0014       $ED__G_CP_ControlProc
 5C56:0000       ProcPom__Pomiar
 5C56:0000       $BD__Pomiar
 5C56:0050       EtapPolaryzacji__Pomiar
 5C56:0054       StanButtonow__Pomiar
 5C56:0058       currButtonSet__Pomiar
 5C56:005A       B_01__Pomiar
 5C56:005E       B_02__Pomiar
 5C56:0062       B_03__Pomiar
 5C56:0066       B_04__Pomiar
 5C56:006A       B_05__Pomiar
 5C56:006E       NapisB_01__Pomiar
 5C56:0075       StanZestawu__Pomiar
 5C56:0077       frstBut__Pomiar
 5C56:0079       katPromien__Pomiar
 5C56:007B       promien__Pomiar
 5C56:007C       format360__Pomiar
 5C56:007E       distOff__Pomiar
 5C56:0082       alfaOff__Pomiar
 5C56:0092       currZestaw__Pomiar
 5C56:0093       dataInBuff__Pomiar
 5C56:0095       $ED__Pomiar
 5C60:0000       $BD__Screen
 5C60:0000       VAL1__Screen
 5C60:0004       VAL2__Screen
 5C60:0008       VAL3__Screen
 5C60:000C       VAL4__Screen
 5C60:0010       Zestaw__Screen
 5C60:0011       aktPromien__Screen
 5C60:0013       aktPromienOdAnt__Screen
 5C60:001B       pomPromieniowy__Screen
 5C60:001C       aktFormat360__Screen
 5C60:001D       devDistR__Screen
 5C60:0025       by23__Screen
 5C60:0027       LastDTidx__Screen
 5C60:0029       ThisDTidx__Screen
 5C60:002B       samplediv__Screen
 5C60:002D       NextRedraw__Screen
 5C60:002E       LastEventIDX__Screen
 5C60:0030       KrokOpisuOsi__Screen
 5C60:0032       Predrawmarksreq__Screen
 5C60:0036       Predrawreq__Screen
 5C60:003A       currConsoleEv__Screen
 5C60:003E       RegionWykG__Screen
 5C60:0042       RegionWykGCreated__Screen
 5C60:0043       RegionWyk1__Screen
 5C60:0047       RegionWyk1Created__Screen
 5C60:0048       RegionWyk2__Screen
 5C60:004C       RegionWyk2Created__Screen
 5C60:004D       RegionWyk3__Screen
 5C60:0051       RegionWyk3Created__Screen
 5C60:0052       RegionWykresow__Screen
 5C60:0056       B_CURSOR__Screen
 5C60:005A       B_LEFT__Screen
 5C60:005E       B_RIGHT__Screen
 5C60:0062       B_UP__Screen
 5C60:0066       B_DOWN__Screen
 5C60:006A       screenDIB__Screen
 5C60:006E       RysSytMaxDis__Dialog__Screen
 5C60:0076       CursorMode__Dialog__Screen
 5C60:0077       JakijedenWykres__Dialog__Screen
 5C60:0078       JedenWykres__Dialog__Screen
 5C60:0079       JakieWykr__Dialog__Screen
 5C60:007A       popJakieWykr__Dialog__Screen
 5C60:007B       CursorPos__Dialog__Screen
 5C60:007D       OileKursor__Dialog__Screen
 5C60:007F       ZmianaSkaliWpionie__Dialog__Scr
 5C60:0080       BarOnScreen__Dialog__Screen
 5C60:0082       skalaWpionie__Dialog__Screen
 5C60:012C       ChangeKursorMode__Dialog__Scree
 5C60:012D       $ED__Screen
 5C73:0000       $BD__PI_Analiza
 5C73:0000       dispResults__PI_Analiza
 5C73:0004       currButtonSet__MouseMonitor__PI
 5C73:0005       B_Drukuj__MouseMonitor__PI_Anal
 5C73:0009       B_Akceptuj__MouseMonitor__PI_An
 5C73:000D       B_Abort__MouseMonitor__PI_Anali
 5C73:0011       B_UP__MouseMonitor__PI_Analiza
 5C73:0015       B_DOWN__MouseMonitor__PI_Analiz
 5C73:0019       B_XCHG__MouseMonitor__PI_Analiz
 5C73:001D       sthPressed__MouseMonitor__PI_An
 5C73:0021       $ED__PI_Analiza
 5C76:0000       $BD__PI_Pomiar
 5C76:0000       $ED__PI_Pomiar
 5C77:0000       $BD__PI_ArchDate
 5C77:0000       $ED__PI_ArchDate
 5C78:0000       $ED__PI_Drukuj
 5C78:0000       $BD__PI_Drukuj
 5C79:0000       $BD__L_DataBase
 5C79:0000       Lotnisko__L_DataBase
 5C79:0086       LOC_O_czuloscWP__L_DataBase
 5C79:0088       LOC_O_czuloscCP__L_DataBase
 5C79:008A       LOC_R_czuloscWP__L_DataBase
 5C79:008C       LOC_R_czuloscCP__L_DataBase
 5C79:008E       LOC_Az_czuloscWP__L_DataBase
 5C79:0090       LOC_Az_czuloscCP__L_DataBase
 5C79:0092       GS_El_czuloscCP__L_DataBase
 5C79:0094       Blad_podczas_wczytywania_Lotnis
 5C79:0098       $ED__L_DataBase
 5C83:0000       $BD__Storage
 5C83:0000       OCCUPED__Storage
 5C83:0001       heapList__Storage
 5C83:0021       prevHeap__Storage
 5C83:0023       StaraStrategia__Storage
 5C83:0025       StaryCh__Storage
 5C83:0027       $ED__Storage
 5C86:0000       break__SoftIntHandlingManager
 5C86:0000       $BD__SoftIntHandlingManager
 5C86:0001       firstISRDescriptorPtr__Monitor_
 5C86:0005       $ED__SoftIntHandlingManager
 5C87:0000       $BD__Timer
 5C87:0000       TimeCounter__Timer
 5C87:0002       TIOS__Timer
 5C87:0004       ClockPer__Timer
 5C87:0006       TOQueue__Monitor__Timer
 5C87:000A       Period__Monitor__Timer
 5C87:000C       PeriodCount__Monitor__Timer
 5C87:000E       PeriodicProcedure__Monitor__Tim
 5C87:0012       Dumm__Monitor__Timer
 5C87:0014       $ED__Timer
 5C89:0000       $BD__Messages
 5C89:0000       MList__Messages
 5C89:0004       MDispl__Messages
 5C89:0008       MessageSound__Messages
 5C89:000A       TurnBeepOn__Messages
 5C89:000E       $ED__Messages
 5C8A:0000       $ED__StdIO
 5C8A:0000       $BD__StdIO
 5C8B:0000       $BD__DGHInterface
 5C8B:0000       BufferFull__DGHInterface
 5C8B:0004       currentSign__DGHInterface
 5C8B:0006       binaryDtaSign__DGHInterface
 5C8B:0008       csErrorCnt__DGHInterface
 5C8B:000A       nvErrorCndF__DGHInterface
 5C8B:000C       nvErrorCndS__DGHInterface
 5C8B:000E       maxClicks__DGHInterface
 5C8B:0010       activated__DGHInterface
 5C8B:0014       Ostrzezenie_ze_za_dlugo__DGHInt
 5C8B:0018       $ED__DGHInterface
 5C8D:0000       ClipRect__HiLevGraf
 5C8D:0000       $BD__HiLevGraf
 5C8D:0008       Style__HiLevGraf
 5C8D:000A       LastPosition__HiLevGraf
 5C8D:000C       semafor__HiLevGraf
 5C8D:0018       Path__HiLevGraf
 5C8D:0059       XS__HiLevGraf
 5C8D:005B       YS__HiLevGraf
 5C8D:005D       $ED__HiLevGraf
 5C93:0000       $ED__GrafTypes
 5C93:0000       $BD__GrafTypes
 5C94:0000       StatusR__GrafUtil
 5C94:0000       $BD__GrafUtil
 5C94:0008       str__GrafUtil
 5C94:006C       WaitTime__GrafUtil
 5C94:006E       Tone__GrafUtil
 5C94:0070       $ED__GrafUtil
 5C9C:0000       navFlg__G_Odb
 5C9C:0000       $BD__G_Odb
 5C9C:0002       gsFlg__G_Odb
 5C9C:0004       iMkrFlg__G_Odb
 5C9C:0006       mMkrFlg__G_Odb
 5C9C:0008       oMkrFlg__G_Odb
 5C9C:000A       audio_L__G_Odb
 5C9C:000C       audio_V__G_Odb
 5C9C:000E       devL__G_Odb
 5C9C:0012       devG__G_Odb
 5C9C:0016       mod__G_Odb
 5C9C:001A       agc__G_Odb
 5C9C:001E       agcM__G_Odb
 5C9C:0022       navOdbFlg__G_Odb
 5C9C:0024       EvalVal__G_Odb
 5C9C:007C       WykMainVal__G_Odb
 5C9C:0080       Wyk1Val__G_Odb
 5C9C:0084       Wyk2Val__G_Odb
 5C9C:0088       Wyk3Val__G_Odb
 5C9C:008C       RefDisTT__G_Odb
 5C9C:008E       RefDis__G_Odb
 5C9C:0090       CollectData__G_Odb
 5C9C:0091       displSens__G_Odb
 5C9C:0099       pathAng__G_Odb
 5C9C:00A1       secWith__G_Odb
 5C9C:00A9       currOffR__G_Odb
 5C9C:00B1       currOffI__G_Odb
 5C9C:00B3       currZone__G_Odb
 5C9C:00B4       procTable__G_Odb
 5C9C:00E8       procIdx__G_Odb
 5C9C:00EA       covSecMin__G_Odb
 5C9C:00EC       covSecMax__G_Odb
 5C9C:00EE       Az75_150_Con__G_Odb
 5C9C:0146       Az75_90_Con__G_Odb
 5C9C:019E       Az0_Con__G_Odb
 5C9C:01CE       Dif0_Con__G_Odb
 5C9C:01FE       AzymAV_Con__G_Odb
 5C9C:0232       oMkrL_Con__G_Odb
 5C9C:0242       mMkrL_Con__G_Odb
 5C9C:0252       iMkrL_Con__G_Odb
 5C9C:0262       DifAv_Con__G_Odb
 5C9C:0276       AzOsiAv_Con__G_Odb
 5C9C:028A       sigNilVal__G_Odb
 5C9C:028E       newZone__G_Odb
 5C9C:028F       myDistTT__G_Odb
 5C9C:0291       DisSigma__G_Odb
 5C9C:0299       currPredkosc__G_Odb
 5C9C:02A1       simEl__G_Odb
 5C9C:02A3       rec__G_Odb
 5C9C:02A4       $ED__G_Odb
 5CC7:0000       slL_rec__ScreenCTypes
 5CC7:0000       $BD__ScreenCTypes
 5CC7:0008       slL_pnt__ScreenCTypes
 5CC7:000C       slLReg_rec__ScreenCTypes
 5CC7:0014       slLDib_rec__ScreenCTypes
 5CC7:001C       slS_rec__ScreenCTypes
 5CC7:0024       slS_pnt__ScreenCTypes
 5CC7:0028       slSReg_rec__ScreenCTypes
 5CC7:0030       slSDib_rec__ScreenCTypes
 5CC7:0038       slP_rec__ScreenCTypes
 5CC7:0040       slP_pnt__ScreenCTypes
 5CC7:0044       slPReg_rec__ScreenCTypes
 5CC7:004C       slPDib_rec__ScreenCTypes
 5CC7:0054       $ED__ScreenCTypes
 5CCD:0000       $BD__MsgBox
 5CCD:0000       hDlg__MsgBox
 5CCD:0004       ret__MsgBox
 5CCD:0006       P_A__MsgBox
 5CCD:0016       $ED__MsgBox
 5CCF:0000       $BD__NAVGPIB
 5CCF:0000       lastGPIBError__NAVGPIB
 5CCF:0001       simpleComm__NAVGPIB
 5CCF:0221       realComm__NAVGPIB
 5CCF:0353       lastGPIBCommand__NAVGPIB
 5CCF:0374       lastGPIBResponse__NAVGPIB
 5CCF:0395       status__NAVGPIB
 5CCF:0397       FirstLocal__NAVGPIB
 5CCF:0398       CommCount__NAVGPIB
 5CCF:039A       loopCount__NAVGPIB
 5CCF:039C       loopCountmax__NAVGPIB
 5CCF:039E       Line__NAVGPIB
 5CCF:03A0       $ED__NAVGPIB
 5D0A:0000       $BD__AltInterface
 5D0A:0000       ALT_Conver_Tab__AltInterface
 5D0A:0020       ALT_Conver_TabC__AltInterface
 5D0A:0040       refPress__AltInterface
 5D0A:0048       $ED__AltInterface
 5D0F:0000       $ED__Int_DME
 5D0F:0000       $BD__Int_DME
 5D10:0000       $BD__FIltr1St
 5D10:0000       okresImp__FIltr1St
 5D10:0008       $ED__FIltr1St
 5D11:0000       Deklinacja__GeoArithmetic
 5D11:0000       $BD__GeoArithmetic
 5D11:0008       OdniesienieMtx__GeoArithmetic
 5D11:0020       IloscOdniesien__GeoArithmetic
 5D11:0022       $ED__GeoArithmetic
 5D14:0000       address__DGH_utils
 5D14:0000       $BD__DGH_utils
 5D14:0020       binAddress__DGH_utils
 5D14:0036       $ED__DGH_utils
 5D18:0000       TabKalib2P__Kalibracja
 5D18:0000       $BD__Kalibracja
 5D18:0800       AGCwartosciProgow__Kalibracja
 5D18:0870       AGCwartosciProgowM__Kalibracja
 5D18:08C0       AGCwartosciProgowD__Kalibracja
 5D18:0910       LocDev_delay__Kalibracja
 5D18:0918       GsDev_delay__Kalibracja
 5D18:0920       LocPrcMod_delay__Kalibracja
 5D18:0928       GsPrcMod_delay__Kalibracja
 5D18:0930       VorRefPrcMod_delay__Kalibracja
 5D18:0938       VorVarPrcMod_delay__Kalibracja
 5D18:0940       SubcarPrcMod_delay__Kalibracja
 5D18:0948       Omnibearing_delay__Kalibracja
 5D18:0950       VorAgc_delay__Kalibracja
 5D18:0958       GsAgc_delay__Kalibracja
 5D18:0960       MkrAgc_delay__Kalibracja
 5D18:0968       OmnibearingProgi__Kalibracja
 5D18:0A88       LOC_DEVPuntyKal__Kalibracja
 5D18:0AC0       GS_DEVPuntyKal__Kalibracja
 5D18:0AF8       Par__Kalibracja
 5D18:13B8       errDetected__Kalibracja
 5D18:13BC       inputCoeff__Kalibracja
 5D18:13EC       DataOstatniejKalibracji__Kalibr
 5D18:13F8       WystapilBlad__Kalibracja
 5D18:13F9       lastError__ErrorHand__Kalibracj
 5D18:13FB       for_counter__Kalibracja
 5D18:13FD       void__Kalibracja
 5D18:13FF       f__Kalibracja
 5D18:1401       $ED__Kalibracja
 5E59:0000       $BD__DigiRS
 5E59:0000       minWrBufLength__DigiRS
 5E59:0002       $ED__DigiRS
 5E5A:0000       $ED__RealConversions
 5E5A:0000       $BD__RealConversions
 5E5B:0000       $ED__Math
 5E5B:0000       $BD__Math
 5E5C:0000       framesWError__GPS_nov
 5E5C:0000       $BD__GPS_nov
 5E5C:0002       chrCount__GPS_nov
 5E5C:0004       frmCount__GPS_nov
 5E5C:0006       actPart__GPS_nov
 5E5C:0007       sumaModC__GPS_nov
 5E5C:0008       sumaModF__GPS_nov
 5E5C:000A       posInRecBuf__GPS_nov
 5E5C:000C       bufor__GPS_nov
 5E5C:007B       eos__GPS_nov
 5E5C:007E       err_unrec_cnt__GPS_nov
 5E5C:0080       BladKanaluGPS__GPS_nov
 5E5C:0084       $ED__GPS_nov
 5E65:0000       $BD__GPS_TRIMBLE
 5E65:0000       framesWError__GPS_TRIMBLE
 5E65:0002       chrCount__GPS_TRIMBLE
 5E65:0004       frmCount__GPS_TRIMBLE
 5E65:0006       actPart__GPS_TRIMBLE
 5E65:0007       posInRecBuf__GPS_TRIMBLE
 5E65:0009       bufor__GPS_TRIMBLE
 5E65:0049       L_epe__GPS_TRIMBLE
 5E65:004B       L_WspSzerokosc__GPS_TRIMBLE
 5E65:0051       L_WspDlugosc__GPS_TRIMBLE
 5E65:0057       L_Kierunek__GPS_TRIMBLE
 5E65:005F       L_FixNotAvailable__GPS_TRIMBLE
 5E65:0060       L_month__GPS_TRIMBLE
 5E65:0062       L_day__GPS_TRIMBLE
 5E65:0064       L_year__GPS_TRIMBLE
 5E65:0066       L_hour__GPS_TRIMBLE
 5E65:0068       L_min__GPS_TRIMBLE
 5E65:006A       L_sec__GPS_TRIMBLE
 5E65:006C       L_NumberOfSattelites__GPS_TRIMB
 5E65:006E       BladKanaluGPS__GPS_TRIMBLE
 5E65:0072       $ED__GPS_TRIMBLE
 5E6D:0000       ErrorProc__Ini
 5E6D:0000       $BD__Ini
 5E6D:0004       ini__Ini
 5E6D:0010       currfile__Ini
 5E6D:0012       BuffP__Ini
 5E6D:0016       Bufor__Ini
 5E6D:5017       charsInBuffer__Ini
 5E6D:5019       SavedFileName__Ini
 5E6D:507D       LastDir__Ini
 5E6D:50E1       Modified__Ini
 5E6D:50E2       check__Ini
 5E6D:50E4       $ED__Ini
 637C:0000       $BD__FIO
 637C:0000       lastErr__FIO
 637C:0002       numErr__FIO
 637C:0004       opened__FIO
 637C:0006       maxOpened__FIO
 637C:0008       Files__FIO
 637C:0C08       CriticalErrorRec__FIO
 637C:0C12       $ED__FIO
 643E:0000       $BD__ShortCuts
 643E:0000       Kill__ShortCuts
 643E:0001       ShortCutList__monitor__ShortCut
 643E:0005       SavedChar__monitor__ShortCuts
 643E:0007       FreeKey__monitor__ShortCuts
 643E:000B       NumEl__monitor__ShortCuts
 643E:000D       done__ShortCuts
 643E:000E       $ED__ShortCuts
 643F:0000       $BD__Obloty
 643F:0000       NazwaPlikuIni__Obloty
 643F:0040       Stat_Size_Monitor__Obloty
 643F:0044       Stat_File_Monitor__Obloty
 643F:0048       HomeDir__Obloty
 643F:0058       HomeDirNazwaPlikuIni__Obloty
 643F:0099       bd_NazwaPliku__Obloty
 643F:00AA       bd_Sekcja__Obloty
 643F:00B5       bd_WpisNazwa__Obloty
 643F:00C0       insp_DirTmp__Obloty
 643F:00CB       stat_Size__Obloty
 643F:00D3       stat_Files__Obloty
 643F:00D5       NUrzadzDlaDopasuj__Obloty
 643F:0116       HomeDirDlaDopasuj__Obloty
 643F:0157       CallBackDlaDopasuj__Obloty
 643F:015B       NazwaPlikuZOpisem__Obloty
 643F:019C       DelDir__Obloty
 643F:01DD       SrcDir__Obloty
 643F:021E       DstDir__Obloty
 643F:025F       $ED__Obloty
 6465:0000       Regiony__MMMouse
 6465:0000       $BD__MMMouse
 6465:0004       LastX__MMMouse
 6465:0006       LastY__MMMouse
 6465:0008       CursorShapePtr__MMMouse
 6465:000C       DefaultShape__MMMouse
 6465:0050       maxX__MMMouse
 6465:0052       maxY__MMMouse
 6465:0054       PrevReg__MMMouse
 6465:0058       MonitoCheck__BezPrzerwanOdMyszy
 6465:005A       MouseEvent__BezPrzerwanOdMyszy_
 6465:005E       OldButtons__BezPrzerwanOdMyszy_
 6465:005F       EVF__BezPrzerwanOdMyszy__MMMous
 6465:0061       EVL__BezPrzerwanOdMyszy__MMMous
 6465:0063       EVC__BezPrzerwanOdMyszy__MMMous
 6465:0065       EventBuff__BezPrzerwanOdMyszy__
 6465:01E5       Stored__BezPrzerwanOdMyszy__MMM
 6465:01EC       lx__BezWyszeregowania__MMMouse
 6465:01EE       ly__BezWyszeregowania__MMMouse
 6465:01F0       rx__BezWyszeregowania__MMMouse
 6465:01F2       ry__BezWyszeregowania__MMMouse
 6465:01F4       CursorBuf__BezWyszeregowania__M
 6465:02F4       Hidden__BezWyszeregowania__MMMo
 6465:02F5       CursorB__BezWyszeregowania__MMM
 6465:03F5       MSemafor__MMMouse
 6465:0401       $ED__MMMouse
 64A6:0000       CurH__GList
 64A6:0000       $BD__GList
 64A6:0004       Lista__GList
 64A6:0008       $ED__GList
 64A7:0000       KbdButton__Buttons
 64A7:0000       $BD__Buttons
 64A7:0004       AllEnabled__Buttons
 64A7:0005       ButtonList__MONITOR__Buttons
 64A7:0009       $ED__Buttons
 64A8:0000       ListaDlg__Dialog
 64A8:0000       $BD__Dialog
 64A8:0004       FocusChanged__Dialog
 64A8:0008       $ED__Dialog
 64A9:0000       Active__InpLine
 64A9:0000       $BD__InpLine
 64A9:0004       $ED__InpLine
 64AA:0000       doZrobienia__Mapa
 64AA:0000       $BD__Mapa
 64AA:0020       zrobione__Mapa
 64AA:0040       aktualny__Mapa
 64AA:0042       mapRct__Mapa
 64AA:004A       distRect__Mapa
 64AA:0052       PokazywacPolozenie__Mapa
 64AA:0053       RysSytMaxDis__Mapa
 64AA:005B       myPoint__Mapa
 64AA:005F       redraw__Mapa
 64AA:0060       noActive__monitor__Mapa
 64AA:0064       $ED__Mapa
 64B1:0000       StalyKat__Polozenie
 64B1:0000       $BD__Polozenie
 64B1:0002       Srodek__Polozenie
 64B1:0006       Promien__Polozenie
 64B1:0008       MaxVal__Polozenie
 64B1:0010       AktOdleglosc__Polozenie
 64B1:0018       AktKat__Polozenie
 64B1:0020       Narysowany__Polozenie
 64B1:0022       Bufor__Polozenie
 64B1:0112       Rect__Polozenie
 64B1:011A       ProcesAktywny__Polozenie
 64B1:011B       NCO__Polozenie
 64B1:011C       angContiner__Polozenie
 64B1:011F       MarkerShapes__Polozenie
 64B1:020F       Dir__Polozenie
 64B1:0211       CzesciOkregu__Polozenie
 64B1:0235       $ED__Polozenie
 64D5:0000       $BD__SwitchCntrl
 64D5:0000       ControlWords__SwitchCntrl
 64D5:000E       $ED__SwitchCntrl
 64D6:0000       $ED__WorseBecause
 64D6:0000       $BD__WorseBecause
 64D7:0000       FontPtr__Graphics
 64D7:0000       $BD__Graphics
 64D7:0004       bank__InternalMonitor__Graphics
 64D7:0006       bankstart__InternalMonitor__Gra
 64D7:000A       BKSizeL__InternalMonitor__Graph
 64D7:000E       BK64Inc__InternalMonitor__Graph
 64D7:0010       FntTable__Graphics
 64D7:0130       $ED__Graphics
 64EB:0000       $BD__XMS
 64EB:0004       $ED__XMS
 64EC:0000       $BD__XMSService
 64EC:0000       GarbageList__XMSService
 64EC:0004       $ED__XMSService
 64ED:0000       $ED__HRD_Clock
 64ED:0000       $BD__HRD_Clock
 64EE:0000       Code__FCBS
 64EE:0000       $BD__FCBS
 64EE:003D       $ED__FCBS
 64F2:0000       $BD__CocpDsp
 64F2:0000       currGSflg__CocpDsp
 64F2:0001       currNAVflg__CocpDsp
 64F2:0002       currFROMflg__CocpDsp
 64F2:0003       currTOflg__CocpDsp
 64F2:0004       dirCP__CocpDsp
 64F2:0006       dirWP__CocpDsp
 64F2:0008       SkalaCP__CocpDsp
 64F2:000A       Skala__CocpDsp
 64F2:000C       SkalaCPMax__CocpDsp
 64F2:000E       SkalaWPMax__CocpDsp
 64F2:0010       srodekSkali__CocpDsp
 64F2:0012       iloscStrzal__CocpDsp
 64F2:0014       currState__CocpDsp
 64F2:0015       currLNumber__CocpDsp
 64F2:0017       currRNumber__CocpDsp
 64F2:0019       currErrorCP__CocpDsp
 64F2:001B       currErrorWP__CocpDsp
 64F2:001D       currErrorGS__CocpDsp
 64F2:001F       newState__CocpDsp
 64F2:0023       dtaSign__CocpDsp
 64F2:0025       force__CocpDsp
 64F2:0026       currMsg__CocpDsp
 64F2:0028       $ED__CocpDsp
 64F5:0000       $BD__DataCollect
 64F5:0000       VAL1__DataCollect
 64F5:3210       VAL2__DataCollect
 64F5:6420       VAL3__DataCollect
 64F5:9630       VAL4__DataCollect
 64F5:C840       Idx__DataCollect
 64F5:C844       angContiner__DataCollect
 64F5:C84C       disContiner__DataCollect
 64F5:C854       marks_Con_D__DataCollect
 64F5:C857       marks_Con_A__DataCollect
 64F5:C85A       samplediv__tablice__DataCollect
 64F5:C85E       curr23__tablice__DataCollect
 64F5:C862       IDX3__tablice__DataCollect
 64F5:C866       IDX2__tablice__DataCollect
 64F5:C86A       Div3T__tablice__DataCollect
 64F5:C86E       Div2T__tablice__DataCollect
 64F5:C872       div2n__tablice__DataCollect
 64F5:C876       div3n__tablice__DataCollect
 64F5:C87A       ix2__tablice__DataCollect
 64F5:C87E       ix3__tablice__DataCollect
 64F5:C882       procVAL1__tablice__DataCollect
 64F5:C88A       procVAL2__tablice__DataCollect
 64F5:C892       procVAL3__tablice__DataCollect
 64F5:C89A       procVAL4__tablice__DataCollect
 64F5:C8A2       samples__tablice__DataCollect
 64F5:C8A6       VALX__tablice__DataCollect
 64F5:E1AE       $ED__DataCollect
 7310:0000       $BD__Wykres
 7310:0000       $ED__Wykres
 7311:0000       $BD__XMSTable
 7311:0000       $ED__XMSTable
 7312:0000       $BD__EventsMng
 7312:0000       Events__EventsMng
 7312:0B44       pilEnr__EventsMng
 7312:0B48       conEnr__EventsMng
 7312:0B4C       teoEnr__EventsMng
 7312:0B50       $ED__EventsMng
 73C8:0000       $BD__PI_ScrUtility
 73C8:0000       slupki__PI_ScrUtility
 73C8:000C       slupkiAktywne__PI_ScrUtility
 73C8:000D       $ED__PI_ScrUtility
 73C9:0000       $BD__Slupek
 73C9:0000       $ED__Slupek
 73CA:0000       $BD__G_DisResults
 73CA:0000       colPos__G_DisResults
 73CA:0004       $ED__G_DisResults
 73CB:0000       $ED__DisResUtilities
 73CB:0000       $BD__DisResUtilities
 73CC:0000       PoczatekStrony__PiszEventy
 73CC:0000       $BD__PiszEventy
 73CC:0002       EvPtr__PiszEventy
 73CC:0006       $ED__PiszEventy
 73CD:0000       $BD__G_results
 73CD:0000       lastAzAv_A__G_results
 73CD:0010       lastEta_G_A__G_results
 73CD:0020       lastEta_D_A__G_results
 73CD:0030       lastAzAv_ANr__G_results
 73CD:0040       lastEta_G_ANr__G_results
 73CD:0050       lastEta_D_ANr__G_results
 73CD:0060       lastAzAv_AWd__G_results
 73CD:0070       lastEta_G_AWd__G_results
 73CD:0080       lastEta_D_AWd__G_results
 73CD:0090       lastSecWith__G_results
 73CD:0092       lastUstawOsi__G_results
 73CD:0094       anRes__G_results
 73CD:0478       currDT__G_results
 73CD:0484       idPnkt__G_results
 73CD:0489       rec__G_results
 73CD:048A       trn__G_results
 73CD:048B       $ED__G_results
 7416:0000       $BD__G_DAcquizition
 7416:0000       ImportantDiv__G_DAcquizition
 7416:0002       redraw__G_DAcquizition
 7416:0003       redrawM__G_DAcquizition
 7416:0004       pilotEvId__G_DAcquizition
 7416:0008       currUpdMarks__G_DAcquizition
 7416:000C       currGlownyOdbiornik__G_DAcquizi
 7416:000D       TrwaPomiarPolaryzacji__G_DAcqui
 7416:000E       polvfaza__G_DAcquizition
 7416:0010       pom2sek__G_DAcquizition
 7416:0012       filesNotEmpty__G_DAcquizition
 7416:0013       notify__Monitor__G_DAcquizition
 7416:0017       lastComm__Monitor__G_DAcquiziti
 7416:0018       $ED__G_DAcquizition
 7418:0000       $BD__L_Count
 7418:0000       PolVLewoC__L_Count
 7418:0002       PolVZeroC__L_Count
 7418:0004       PolVPrawoC__L_Count
 7418:0006       $ED__L_Count
 7419:0000       $BD__G_Print
 7419:0000       SigNam__G_Print
 7419:0050       Zestaw__G_Print
 7419:0052       header__G_Print
 7419:00B7       NazwaPliku__G_Print
 7419:00D6       GSG_flg__G_Print
 7419:00D8       GSZ_flg__G_Print
 7419:00DA       Zew_Marker_G__G_Print
 7419:00DC       Srd_Marker_G__G_Print
 7419:00DE       Wew_Marker_G__G_Print
 7419:00E0       Zew_Marker_Z__G_Print
 7419:00E2       Srd_Marker_Z__G_Print
 7419:00E4       Wew_Marker_Z__G_Print
 7419:00E6       gOdb__G_Print
 7419:00E7       zOdb__G_Print
 7419:00E8       $ED__G_Print
 7428:0000       $BD__Semafory
 7428:0000       TablicaSemaforow__Semafory
 7428:0054       $ED__Semafory
 742E:0000       $BD__ILS_EvalProcedures
 742E:0000       pathAng__ILS_EvalProcedures
 742E:0002       znakKata__ILS_EvalProcedures
 742E:0004       $ED__ILS_EvalProcedures
 742F:0000       a__Random
 742F:0000       $BD__Random
 742F:006E       j__Random
 742F:0070       k__Random
 742F:0072       $ED__Random
 7437:0000       $BD__M_PGPIB
 7437:0000       $ED__M_PGPIB
 7438:0000       disableMask__NAVInterface
 7438:0000       $BD__NAVInterface
 7438:0002       speedMask__NAVInterface
 7438:0004       fineMode__NAVInterface
 7438:0005       killTime__NAVInterface
 7438:0007       $ED__NAVInterface
 7439:0000       $BD__ARINC
 7439:0000       maxCountW__ARINC
 7439:0002       maxCountR__ARINC
 7439:0004       $ED__ARINC
 743A:0000       $ED__Kl_FGenerators
 743A:0000       $BD__Kl_FGenerators
 743B:0000       $BD__Marks
 743B:0000       $ED__Marks
 743C:0000       $BD__L_Slupek
 743C:0000       WykMainProc__L_Slupek
 743C:0004       Wyk1Proc__L_Slupek
 743C:0008       Wyk2Proc__L_Slupek
 743C:000C       Wyk3Proc__L_Slupek
 743C:0010       parSlupkow__L_Slupek
 743C:0028       regionyWyk__L_Slupek
 743C:005A       screeenDIB__L_Slupek
 743C:005E       cursorDIB__L_Slupek
 743C:0062       PosTable__L_Slupek
 743C:013A       currSkalaWpionie__L_Slupek
 743C:01E4       $ED__L_Slupek
 745B:0000       $BD__DrawEpson
 745B:0000       PrnPort__DrawEpson
 745B:0002       xh__DrawEpson
 745B:0004       Bufor__DrawEpson
 745B:0784       LastPosition__DrawEpson
 745B:0786       Masks__DrawEpson
 745B:078E       Adr1__DrawEpson
 745B:0792       Adr2__DrawEpson
 745B:0796       PrevPage__DrawEpson
 745B:0798       CurMode__DrawEpson
 745B:0799       FontAdrN__DrawEpson
 745B:079D       FontAdrA__DrawEpson
 745B:07A1       FontHeight__DrawEpson
 745B:07A3       Rotation__DrawEpson
 745B:07A4       MnX__DrawEpson
 745B:07A6       MnY__DrawEpson
 745B:07A8       JuzNarysowane__DrawEpson
 745B:07A9       $ED__DrawEpson
 74D6:0000       PrnX__Print
 74D6:0000       $BD__Print
 74D6:0002       PrnY__Print
 74D6:0004       PolozenieNapisu__Print
 74D6:0006       TextModeOutProc__Print
 74D6:000A       PrevIdx__Print
 74D6:000C       Flagi__Print
 74D6:000E       flgEOF__Print
 74D6:000F       scaleDiv__Print
 74D6:0011       CoKtoraProbka__Print
 74D6:0013       ZestawProbekBinDoWyboru__Print
 74D6:00D5       Tmpl__Print
 74D6:0112       $ED__Print
 74E8:0000       $BD__G_CntProcedures
 74E8:0000       procTable__G_CntProcedures
 74E8:002C       procIdx__G_CntProcedures
 74E8:002E       newZone__G_CntProcedures
 74E8:002F       zoneNr__G_CntProcedures
 74E8:0030       signalsCV__G_CntProcedures
 74E8:0044       wysokoscCV__G_CntProcedures
 74E8:0046       refEl__G_CntProcedures
 74E8:0048       flgs__G_CntProcedures
 74E8:004A       refDisCV__G_CntProcedures
 74E8:004C       oMkrFlg__G_CntProcedures
 74E8:004E       mMkrFlg__G_CntProcedures
 74E8:0050       iMkrFlg__G_CntProcedures
 74E8:0052       Az75_G_PB_Con__G_CntProcedures
 74E8:00AA       Az75_D_PB_Con__G_CntProcedures
 74E8:0102       Az150_G_PB_Con__G_CntProcedures
 74E8:015A       Az190_D_PB_Con__G_CntProcedures
 74E8:01B2       Az0_PB_Con__G_CntProcedures
 74E8:01E2       Dif0_Con__G_CntProcedures
 74E8:0212       AzymAV_Con__G_CntProcedures
 74E8:0246       azAv_PO_Con__G_CntProcedures
 74E8:025A       difAv_PO_Con__G_CntProcedures
 74E8:026E       DifAvTotal_Con__G_CntProcedures
 74E8:0282       alig_Con__G_CntProcedures
 74E8:0296       odcinki150_PS__G_CntProcedures
 74E8:0298       odcinki180_PS__G_CntProcedures
 74E8:029A       oMkrL_Con__G_CntProcedures
 74E8:02AA       mMkrL_Con__G_CntProcedures
 74E8:02BA       iMkrL_Con__G_CntProcedures
 74E8:02CA       mkrLengthCon__G_CntProcedures
 74E8:031A       modAv_Con__G_CntProcedures
 74E8:032E       dewAv_BD_Cont__G_CntProcedures
 74E8:0342       currNavState__G_CntProcedures
 74E8:0344       flag_20uV_OP_Con__G_CntProcedur
 74E8:0346       WysokoscAv_PB_Con__G_CntProcedu
 74E8:0350       KapaFun1_Con__G_CntProcedures
 74E8:0374       KapaFun3_Con__G_CntProcedures
 74E8:0398       Bend_con__G_CntProcedures
 74E8:159C       bendState__G_CntProcedures
 74E8:159E       aligSec_Con__G_CntProcedures
 74E8:15A2       displSens__G_CntProcedures
 74E8:15AA       pathAng__G_CntProcedures
 74E8:15B2       $ED__G_CntProcedures
 7644:0000       $BD__PrintCntroll
 7644:0000       hDlg__PrintCntroll
 7644:0004       Zestaw__PrintCntroll
 7644:0006       Odniesienie__PrintCntroll
 7644:0007       OdnB__PrintCntroll
 7644:000B       CoKtoraProbka__PrintCntroll
 7644:000D       IleStron__PrintCntroll
 7644:000F       IloscProbek__PrintCntroll
 7644:0011       lPodz__PrintCntroll
 7644:0015       $ED__PrintCntroll
 7655:0000       DriverInstalled__Mouse

Program entry point at 5630:03C9
