
 Start  Stop   Length Name                   Class
 00010H 003AEH 0039FH PH_TEXT                CODE
 003B0H 021BCH 01E0DH MANAGER_TEXT           CODE
 021C0H 021EDH 0002EH PI_PA_TEXT             CODE
 021F0H 0236AH 0017BH DOSENTRY_TEXT          CODE
 02370H 024B5H 00146H ERRORMESS_TEXT         CODE
 024C0H 03109H 00C4AH TUNE_TEXT              CODE
 03110H 03A25H 00916H PI_QCHECK_TEXT         CODE
 03A30H 05403H 019D4H SCANNERI_TEXT          CODE
 05410H 0552FH 00120H COMMONTYPES_TEXT       CODE
 05540H 065D5H 01096H THEODOLITREAD_TEXT     CODE
 065E0H 06C93H 006B4H GPSREAD_TEXT           CODE
 06CA0H 07A13H 00D74H DGHINI_TEXT            CODE
 07A20H 0803EH 0061FH H_FILES_TEXT           CODE
 08040H 08063H 00024H H_COMMONTYPES_TEXT     CODE
 08070H 0814FH 000E0H PI_GLOWNY_TEXT         CODE
 08160H 092AEH 0114FH H_INSPEKCJA_TEXT       CODE
 092B0H 0B4A8H 021F9H H_OBLOT_TEXT           CODE
 0B4B0H 0B57CH 000CDH COMMONDATA_TEXT        CODE
 0B580H 0E14BH 02BCCH FILES_TEXT             CODE
 0E150H 0ECF0H 00BA1H H_CP_CONTROLPROC_TEXT  CODE
 0ED00H 102AFH 015B0H POMIAR_TEXT            CODE
 102C0H 13A66H 037A7H SCREEN_TEXT            CODE
 13A70H 141AFH 00740H PI_ANALIZA_TEXT        CODE
 141C0H 14447H 00288H PI_POMIAR_TEXT         CODE
 14450H 14522H 000D3H PI_ARCHDATE_TEXT       CODE
 14530H 14565H 00036H PI_DRUKUJ_TEXT         CODE
 14570H 14BACH 0063DH H_DATABASE_TEXT        CODE
 14BB0H 165A8H 019F9H SPECCONV_TEXT          CODE
 165B0H 16B68H 005B9H STORAGE_TEXT           CODE
 16B70H 17166H 005F7H SOFTINTHANDLINGMANAGER_TEXT CODE
 17170H 17E2DH 00CBEH TIMER_TEXT             CODE
 17E30H 182D8H 004A9H MESSAGES_TEXT          CODE
 182E0H 197B9H 014DAH STDIO_TEXT             CODE
 197C0H 1A839H 0107AH DGHINTERFACE_TEXT      CODE
 1A840H 1BF23H 016E4H HILEVGRAF_TEXT         CODE
 1BF30H 1C116H 001E7H GRAFTYPES_TEXT         CODE
 1C120H 1C340H 00221H GRAFUTIL_TEXT          CODE
 1C350H 1C516H 001C7H H_ODB_TEXT             CODE
 1C520H 1C82FH 00310H ALTINTERFACE_TEXT      CODE
 1C840H 1C92EH 000EFH INT_DME_TEXT           CODE
 1C930H 1D0B6H 00787H FILTR1ST_TEXT          CODE
 1D0C0H 1DE95H 00DD6H GEOARITHMETIC_TEXT     CODE
 1DEA0H 1E744H 008A5H DGH_UTILS_TEXT         CODE
 1E750H 1EAB9H 0036AH CZAS_TEXT              CODE
 1EAC0H 218D5H 02E16H KALIBRACJA_TEXT        CODE
 218E0H 21BFCH 0031DH DIGIRS_TEXT            CODE
 21C00H 2271FH 00B20H REALCONVERSIONS_TEXT   CODE
 22730H 22918H 001E9H MATH_TEXT              CODE
 22920H 23B1DH 011FEH GPS_NOV_TEXT           CODE
 23B20H 24418H 008F9H GPS_TRIMBLE_TEXT       CODE
 24420H 255F8H 011D9H INI_TEXT               CODE
 25600H 26045H 00A46H FIO_TEXT               CODE
 26050H 267EBH 0079CH SHORTCUTS_TEXT         CODE
 267F0H 26ECBH 006DCH MSGBOX_TEXT            CODE
 26ED0H 28B45H 01C76H OBLOTY_TEXT            CODE
 28B50H 2A052H 01503H MMMOUSE_TEXT           CODE
 2A060H 2B9DCH 0197DH GLIST_TEXT             CODE
 2B9E0H 2C7B7H 00DD8H BUTTONS_TEXT           CODE
 2C7C0H 2E11BH 0195CH DIALOG_TEXT            CODE
 2E120H 2EE36H 00D17H INPLINE_TEXT           CODE
 2EE40H 2EEB1H 00072H FCBS_TEXT              CODE
 2EEC0H 2FC4CH 00D8DH COCPDSP_TEXT           CODE
 2FC50H 31EBEH 0226FH DATACOLLECT_TEXT       CODE
 31EC0H 32A10H 00B51H MAPA_TEXT              CODE
 32A20H 35182H 02763H WYKRES_TEXT            CODE
 35190H 354EAH 0035BH XMSTABLE_TEXT          CODE
 354F0H 36611H 01122H GRAPHICS_TEXT          CODE
 36620H 36749H 0012AH XMS_TEXT               CODE
 36750H 3678EH 0003FH XMS_INIT_TEXT          CODE
 36790H 36C4EH 004BFH XMSSERVICE_TEXT        CODE
 36C50H 3769AH 00A4BH EVENTSMNG_TEXT         CODE
 376A0H 377CFH 00130H PI_SCRUTILITY_TEXT     CODE
 377E0H 37EC6H 006E7H SLUPEK_TEXT            CODE
 37ED0H 3806EH 0019FH SCREENCTYPES_TEXT      CODE
 38070H 3849AH 0042BH H_DISRESULTS_TEXT      CODE
 384A0H 38B7AH 006DBH FLAGANAL_TEXT          CODE
 38B80H 38F09H 0038AH DISRESUTILITIES_TEXT   CODE
 38F10H 3A143H 01234H PISZEVENTY_TEXT        CODE
 3A150H 3A3C1H 00272H H_RESULTS_TEXT         CODE
 3A3D0H 3AA07H 00638H H_DACQUIZITION_TEXT    CODE
 3AA10H 3AECDH 004BEH H_COUNT_TEXT           CODE
 3AED0H 3B8F9H 00A2AH H_PRINT_TEXT           CODE
 3B900H 3BD53H 00454H SEMAFORY_TEXT          CODE
 3BD60H 3C170H 00411H RANDOM_TEXT            CODE
 3C180H 3C4D1H 00352H NAVINTERFACE_TEXT      CODE
 3C4E0H 3CE4FH 00970H ARINC_TEXT             CODE
 3CE60H 3D0CDH 0026EH HRD_CLOCK_TEXT         CODE
 3D0D0H 3D5CFH 00500H KL_FGENERATORS_TEXT    CODE
 3D5E0H 3DF17H 00938H MARKS_TEXT             CODE
 3DF20H 3F145H 01226H POLOZENIE_TEXT         CODE
 3F150H 3F453H 00304H H_SLUPEK_TEXT          CODE
 3F460H 3F530H 000D1H WORSEBECAUSE_TEXT      CODE
 3F540H 409A2H 01463H DRAWEPSON_TEXT         CODE
 409B0H 42430H 01A81H PRINT_TEXT             CODE
 42440H 42D20H 008E1H PRINTCNTROLL_TEXT      CODE
 42D30H 42D8DH 0005EH RTS87_TEXT             CODE
 42D90H 42DE9H 0005AH RTS87_INIT_TEXT        CODE
 42DF0H 42EB6H 000C7H RTSError_TEXT          CODE
 42EC0H 42EEEH 0002FH RTSError_INIT_TEXT     CODE
 42EF0H 43660H 00771H RTSMain_TEXT           CODE
 43670H 43722H 000B3H RTSLanguage_TEXT       CODE
 43730H 43730H 00001H RTSLanguage_INIT_TEXT  CODE
 43740H 43880H 00141H RTSDevice_TEXT         CODE
 43890H 43890H 00001H RTSDevice_INIT_TEXT    CODE
 438A0H 4394EH 000AFH RTSPriority_TEXT       CODE
 43950H 43950H 00001H RTSPriority_INIT_TEXT  CODE
 43960H 43B07H 001A8H RTSCoroutine_TEXT      CODE
 43B10H 43B10H 00001H RTSCoroutine_INIT_TEXT CODE
 43B20H 43D68H 00249H RTSInterrupt_TEXT      CODE
 43D70H 43DBCH 0004DH RTSInterrupt_INIT_TEXT CODE
 43DC0H 43DC9H 0000AH RTSRealError_TEXT      CODE
 43DD0H 43DD0H 00001H RTSRealError_INIT_TEXT CODE
 43DE0H 440E3H 00304H Strings_TEXT           CODE
 440F0H 4472BH 0063CH NUMBERCONVERSION_TEXT  CODE
 44730H 44791H 00062H SOUNDS_TEXT            CODE
 447A0H 44C2CH 0048DH DebugPMD_TEXT          CODE
 44C30H 44CC8H 00099H DebugPMD_INIT_TEXT     CODE
 44CD0H 44D8AH 000BBH DEVICES_TEXT           CODE
 44D90H 44F93H 00204H DynMem_TEXT            CODE
 44FA0H 450A7H 00108H BlockOps_TEXT          CODE
 450B0H 45361H 002B2H MOUSE_TEXT             CODE
 45370H 4564EH 002DFH Longs_TEXT             CODE
 45650H 45816H 001C7H TERMINAL_TEXT          CODE
 45820H 45C05H 003E6H TERMBASE_TEXT          CODE
 45C10H 45D18H 00109H BitByteOps_TEXT        CODE
 45D20H 45D44H 00025H ASCII_TEXT             CODE
 45D50H 45DECH 0009DH DISPLAY_TEXT           CODE
 45DF0H 45F57H 00168H KEYBOARD_TEXT          CODE
 45F60H 46218H 002B9H DOSMEMORY_TEXT         CODE
 46220H 468E3H 006C4H MathLib0_TEXT          CODE
 468F0H 46C3BH 0034CH MODULE_TABLE_DATA      FAR_DATA
 46C40H 46D18H 000D9H INIT_FLAG_DATA         FAR_DATA
 46D20H 46EFDH 001DEH RTSMain_DATA           FAR_DATA
 46F00H 46F05H 00006H RTS87_DATA             FAR_DATA
 46F10H 46F13H 00004H RTSCoroutine_DATA      FAR_DATA
 46F20H 475C1H 006A2H DebugPMD_DATA          FAR_DATA
 475D0H 475D0H 00000H MathLib0_DATA          FAR_DATA
 475E0H 475EBH 0000CH PH_DATA                FAR_BSS
 475F0H 4780DH 0021EH MANAGER_DATA           FAR_BSS
 47810H 47810H 00001H PI_PA_DATA             FAR_BSS
 47820H 478A7H 00088H DOSENTRY_DATA          FAR_BSS
 478B0H 478B0H 00000H ERRORMESS_DATA         FAR_BSS
 478C0H 47965H 000A6H TUNE_DATA              FAR_BSS
 47970H 47987H 00018H PI_QCHECK_DATA         FAR_BSS
 47990H 47A3EH 000AFH SCANNERI_DATA          FAR_BSS
 47A40H 47A40H 00000H COMMONTYPES_DATA       FAR_BSS
 47A50H 47AA6H 00057H THEODOLITREAD_DATA     FAR_BSS
 47AB0H 47AD1H 00022H GPSREAD_DATA           FAR_BSS
 47AE0H 48A6DH 00F8EH DGHINI_DATA            FAR_BSS
 48A70H 48A88H 00019H H_FILES_DATA           FAR_BSS
 48A90H 48A90H 00001H H_COMMONTYPES_DATA     FAR_BSS
 48AA0H 48AA0H 00000H PI_GLOWNY_DATA         FAR_BSS
 48AB0H 48AC6H 00017H H_INSPEKCJA_DATA       FAR_BSS
 48AD0H 48B0BH 0003CH H_OBLOT_DATA           FAR_BSS
 48B10H 48C65H 00156H COMMONDATA_DATA        FAR_BSS
 48C70H 48E88H 00219H FILES_DATA             FAR_BSS
 48E90H 49025H 00196H H_CP_CONTROLPROC_DATA  FAR_BSS
 49030H 490C4H 00095H POMIAR_DATA            FAR_BSS
 490D0H 491FCH 0012DH SCREEN_DATA            FAR_BSS
 49200H 49220H 00021H PI_ANALIZA_DATA        FAR_BSS
 49230H 49230H 00000H PI_POMIAR_DATA         FAR_BSS
 49240H 49240H 00000H PI_ARCHDATE_DATA       FAR_BSS
 49250H 49250H 00000H PI_DRUKUJ_DATA         FAR_BSS
 49260H 492A3H 00044H H_DATABASE_DATA        FAR_BSS
 492B0H 492B0H 00000H SPECCONV_DATA          FAR_BSS
 492C0H 492E6H 00027H STORAGE_DATA           FAR_BSS
 492F0H 492F4H 00005H SOFTINTHANDLINGMANAGER_DATA FAR_BSS
 49300H 49313H 00014H TIMER_DATA             FAR_BSS
 49320H 4932DH 0000EH MESSAGES_DATA          FAR_BSS
 49330H 49330H 00000H STDIO_DATA             FAR_BSS
 49340H 49357H 00018H DGHINTERFACE_DATA      FAR_BSS
 49360H 493BCH 0005DH HILEVGRAF_DATA         FAR_BSS
 493C0H 493C0H 00000H GRAFTYPES_DATA         FAR_BSS
 493D0H 4943FH 00070H GRAFUTIL_DATA          FAR_BSS
 49450H 49454H 00005H H_ODB_DATA             FAR_BSS
 49460H 494A7H 00048H ALTINTERFACE_DATA      FAR_BSS
 494B0H 494B0H 00000H INT_DME_DATA           FAR_BSS
 494C0H 494C7H 00008H FILTR1ST_DATA          FAR_BSS
 494D0H 494F1H 00022H GEOARITHMETIC_DATA     FAR_BSS
 49500H 49535H 00036H DGH_UTILS_DATA         FAR_BSS
 49540H 49553H 00014H CZAS_DATA              FAR_BSS
 49560H 4A960H 01401H KALIBRACJA_DATA        FAR_BSS
 4A970H 4A971H 00002H DIGIRS_DATA            FAR_BSS
 4A980H 4A980H 00000H REALCONVERSIONS_DATA   FAR_BSS
 4A990H 4A990H 00000H MATH_DATA              FAR_BSS
 4A9A0H 4AA23H 00084H GPS_NOV_DATA           FAR_BSS
 4AA30H 4AAA1H 00072H GPS_TRIMBLE_DATA       FAR_BSS
 4AAB0H 4FB93H 050E4H INI_DATA               FAR_BSS
 4FBA0H 507B1H 00C12H FIO_DATA               FAR_BSS
 507C0H 507CDH 0000EH SHORTCUTS_DATA         FAR_BSS
 507D0H 507E5H 00016H MSGBOX_DATA            FAR_BSS
 507F0H 50A4EH 0025FH OBLOTY_DATA            FAR_BSS
 50A50H 50E50H 00401H MMMOUSE_DATA           FAR_BSS
 50E60H 50E67H 00008H GLIST_DATA             FAR_BSS
 50E70H 50E78H 00009H BUTTONS_DATA           FAR_BSS
 50E80H 50E87H 00008H DIALOG_DATA            FAR_BSS
 50E90H 50E93H 00004H INPLINE_DATA           FAR_BSS
 50EA0H 50EDCH 0003DH FCBS_DATA              FAR_BSS
 50EE0H 50F07H 00028H COCPDSP_DATA           FAR_BSS
 50F10H 5F0BDH 0E1AEH DATACOLLECT_DATA       FAR_BSS
 5F0C0H 5F123H 00064H MAPA_DATA              FAR_BSS
 5F130H 5F130H 00000H WYKRES_DATA            FAR_BSS
 5F140H 5F140H 00000H XMSTABLE_DATA          FAR_BSS
 5F150H 5F27FH 00130H GRAPHICS_DATA          FAR_BSS
 5F290H 5F293H 00004H XMS_DATA               FAR_BSS
 5F2A0H 5F2A3H 00004H XMSSERVICE_DATA        FAR_BSS
 5F2B0H 5FDFFH 00B50H EVENTSMNG_DATA         FAR_BSS
 5FE10H 5FE10H 00000H PI_SCRUTILITY_DATA     FAR_BSS
 5FE20H 5FE20H 00000H SLUPEK_DATA            FAR_BSS
 5FE30H 5FE83H 00054H SCREENCTYPES_DATA      FAR_BSS
 5FE90H 5FE90H 00000H H_DISRESULTS_DATA      FAR_BSS
 5FEA0H 5FEA0H 00000H FLAGANAL_DATA          FAR_BSS
 5FEB0H 5FEB0H 00000H DISRESUTILITIES_DATA   FAR_BSS
 5FEC0H 5FEC5H 00006H PISZEVENTY_DATA        FAR_BSS
 5FED0H 60029H 0015AH H_RESULTS_DATA         FAR_BSS
 60030H 60049H 0001AH H_DACQUIZITION_DATA    FAR_BSS
 60050H 60050H 00000H H_COUNT_DATA           FAR_BSS
 60060H 600E2H 00083H H_PRINT_DATA           FAR_BSS
 600F0H 60143H 00054H SEMAFORY_DATA          FAR_BSS
 60150H 601C1H 00072H RANDOM_DATA            FAR_BSS
 601D0H 601D6H 00007H NAVINTERFACE_DATA      FAR_BSS
 601E0H 601E3H 00004H ARINC_DATA             FAR_BSS
 601F0H 601F0H 00000H HRD_CLOCK_DATA         FAR_BSS
 60200H 60200H 00000H KL_FGENERATORS_DATA    FAR_BSS
 60210H 60210H 00000H MARKS_DATA             FAR_BSS
 60220H 60454H 00235H POLOZENIE_DATA         FAR_BSS
 60460H 6047FH 00020H H_SLUPEK_DATA          FAR_BSS
 60490H 60490H 00000H WORSEBECAUSE_DATA      FAR_BSS
 604A0H 60C48H 007A9H DRAWEPSON_DATA         FAR_BSS
 60C50H 60D61H 00112H PRINT_DATA             FAR_BSS
 60D70H 60D84H 00015H PRINTCNTROLL_DATA      FAR_BSS
 60D90H 60D90H 00000H NUMBERCONVERSION_DATA  FAR_BSS
 60DA0H 60DA0H 00000H SOUNDS_DATA            FAR_BSS
 60DB0H 60DB0H 00000H DEVICES_DATA           FAR_BSS
 60DC0H 60DCEH 0000FH MOUSE_DATA             FAR_BSS
 60DD0H 60DD1H 00002H TERMINAL_DATA          FAR_BSS
 60DE0H 60E72H 00093H TERMBASE_DATA          FAR_BSS
 60E80H 60E80H 00000H ASCII_DATA             FAR_BSS
 60E90H 60E90H 00000H DISPLAY_DATA           FAR_BSS
 60EA0H 60F27H 00088H KEYBOARD_DATA          FAR_BSS
 60F30H 60F30H 00000H DOSMEMORY_DATA         FAR_BSS
 60F40H 649D7H 03A98H STACK                  STACK
 649E0H 649E0H 00000H FREE                   FREE_BSS

 Origin   Group
 475E:0   DGROUP

  Address         Publics by Name

 601E:0000       $BD__ARINC
 4946:0000       $BD__AltInterface
 50E7:0000       $BD__Buttons
 50EE:0000       $BD__CocpDsp
 48B1:0000       $BD__CommonData
 47A4:0000       $BD__CommonTypes
 4954:0000       $BD__Czas
 47AE:0000       $BD__DGHIni
 4934:0000       $BD__DGHInterface
 4950:0000       $BD__DGH_utils
 4782:0000       $BD__DOSEntry
 50F1:0000       $BD__DataCollect
 50E8:0000       $BD__Dialog
 4A97:0000       $BD__DigiRS
 5FEB:0000       $BD__DisResUtilities
 604A:0000       $BD__DrawEpson
 478B:0000       $BD__ErrorMess
 5F2B:0000       $BD__EventsMng
 50EA:0000       $BD__FCBS
 4FBA:0000       $BD__FIO
 494C:0000       $BD__FIltr1St
 48C7:0000       $BD__Files
 5FEA:0000       $BD__FlagAnal
 50E6:0000       $BD__GList
 47AB:0000       $BD__GPSRead
 4AA3:0000       $BD__GPS_TRIMBLE
 4A9A:0000       $BD__GPS_nov
 494D:0000       $BD__GeoArithmetic
 493C:0000       $BD__GrafTypes
 493D:0000       $BD__GrafUtil
 5F15:0000       $BD__Graphics
 601F:0000       $BD__HRD_Clock
 48E9:0000       $BD__H_CP_ControlProc
 48A9:0000       $BD__H_CommonTypes
 6005:0000       $BD__H_Count
 6003:0000       $BD__H_DAcquizition
 4926:0000       $BD__H_DataBase
 5FE9:0000       $BD__H_DisResults
 48A7:0000       $BD__H_Files
 48AB:0000       $BD__H_Inspekcja
 48AD:0000       $BD__H_Oblot
 4945:0000       $BD__H_Odb
 6006:0000       $BD__H_Print
 6046:0000       $BD__H_Slupek
 5FED:0000       $BD__H_results
 4936:0000       $BD__HiLevGraf
 4AAB:0000       $BD__Ini
 50E9:0000       $BD__InpLine
 494B:0000       $BD__Int_DME
 4956:0000       $BD__Kalibracja
 6020:0000       $BD__Kl_FGenerators
 475F:0000       $BD__MANAGER
 50A5:0000       $BD__MMMouse
 5F0C:0000       $BD__Mapa
 6021:0000       $BD__Marks
 4A99:0000       $BD__Math
 4932:0000       $BD__Messages
 507D:0000       $BD__MsgBox
 601D:0000       $BD__NAVInterface
 507F:0000       $BD__Obloty
 475E:0000       $BD__PH
 4920:0000       $BD__PI_Analiza
 4924:0000       $BD__PI_ArchDate
 4925:0000       $BD__PI_Drukuj
 48AA:0000       $BD__PI_Glowny
 4781:0000       $BD__PI_PA
 4923:0000       $BD__PI_Pomiar
 4797:0000       $BD__PI_Qcheck
 5FE1:0000       $BD__PI_ScrUtility
 5FEC:0000       $BD__PiszEventy
 6022:0000       $BD__Polozenie
 4903:0000       $BD__Pomiar
 60C5:0000       $BD__Print
 60D7:0000       $BD__PrintCntroll
 46F1:0000       $BD__RTSCoroutine
 46D2:0000       $BD__RTSMain
 6015:0000       $BD__Random
 4A98:0000       $BD__RealConversions
 4799:0000       $BD__ScannerI
 490D:0000       $BD__Screen
 5FE3:0000       $BD__ScreenCTypes
 600F:0000       $BD__Semafory
 507C:0000       $BD__ShortCuts
 5FE2:0000       $BD__Slupek
 492F:0000       $BD__SoftIntHandlingManager
 492B:0000       $BD__SpecConv
 4933:0000       $BD__StdIO
 492C:0000       $BD__Storage
 47A5:0000       $BD__TheodolitRead
 4930:0000       $BD__Timer
 478C:0000       $BD__Tune
 6049:0000       $BD__WorseBecause
 5F13:0000       $BD__Wykres
 5F29:0000       $BD__XMS
 5F2A:0000       $BD__XMSService
 5F14:0000       $BD__XMSTable
 3C4E:0000       $BM__ARINC
 1C52:0000       $BM__AltInterface
 45C1:0000       $BM__BitByteOps
 44FA:0000       $BM__BlockOps
 2B9E:0000       $BM__Buttons
 2EEC:0000       $BM__CocpDsp
 0B4B:0000       $BM__CommonData
 0541:0000       $BM__CommonTypes
 1E75:0000       $BM__Czas
 06CA:0000       $BM__DGHIni
 197C:0000       $BM__DGHInterface
 1DEA:0000       $BM__DGH_utils
 021F:0000       $BM__DOSEntry
 2FC5:0000       $BM__DataCollect
 2C7C:0000       $BM__Dialog
 218E:0000       $BM__DigiRS
 38B8:0000       $BM__DisResUtilities
 3F54:0000       $BM__DrawEpson
 44D9:0000       $BM__DynMem
 0237:0000       $BM__ErrorMess
 36C5:0000       $BM__EventsMng
 2EE4:0000       $BM__FCBS
 2560:0000       $BM__FIO
 1C93:0000       $BM__FIltr1St
 0B58:0000       $BM__Files
 384A:0000       $BM__FlagAnal
 2A06:0000       $BM__GList
 065E:0000       $BM__GPSRead
 23B2:0000       $BM__GPS_TRIMBLE
 2292:0000       $BM__GPS_nov
 1D0C:0000       $BM__GeoArithmetic
 1BF3:0000       $BM__GrafTypes
 1C12:0000       $BM__GrafUtil
 354F:0000       $BM__Graphics
 3CE6:0000       $BM__HRD_Clock
 0E15:0000       $BM__H_CP_ControlProc
 0804:0000       $BM__H_CommonTypes
 3AA1:0000       $BM__H_Count
 3A3D:0000       $BM__H_DAcquizition
 1457:0000       $BM__H_DataBase
 3807:0000       $BM__H_DisResults
 07A2:0000       $BM__H_Files
 0816:0000       $BM__H_Inspekcja
 092B:0000       $BM__H_Oblot
 1C35:0000       $BM__H_Odb
 3AED:0000       $BM__H_Print
 3F15:0000       $BM__H_Slupek
 3A15:0000       $BM__H_results
 1A84:0000       $BM__HiLevGraf
 2442:0000       $BM__Ini
 2E12:0000       $BM__InpLine
 1C84:0000       $BM__Int_DME
 1EAC:0000       $BM__Kalibracja
 3D0D:0000       $BM__Kl_FGenerators
 003B:0000       $BM__MANAGER
 28B5:0000       $BM__MMMouse
 31EC:0000       $BM__Mapa
 3D5E:0000       $BM__Marks
 2273:0000       $BM__Math
 4622:0000       $BM__MathLib0
 17E3:0000       $BM__Messages
 267F:0000       $BM__MsgBox
 3C18:0000       $BM__NAVInterface
 26ED:0000       $BM__Obloty
 0001:0000       $BM__PH
 13A7:0000       $BM__PI_Analiza
 1445:0000       $BM__PI_ArchDate
 1453:0000       $BM__PI_Drukuj
 0807:0000       $BM__PI_Glowny
 021C:0000       $BM__PI_PA
 141C:0000       $BM__PI_Pomiar
 0311:0000       $BM__PI_Qcheck
 376A:0000       $BM__PI_ScrUtility
 38F1:0000       $BM__PiszEventy
 3DF2:0000       $BM__Polozenie
 0ED0:0000       $BM__Pomiar
 409B:0000       $BM__Print
 4244:0000       $BM__PrintCntroll
 4396:0000       $BM__RTSCoroutine
 4374:0000       $BM__RTSDevice
 42EF:0000       $BM__RTSMain
 3BD6:0000       $BM__Random
 21C0:0000       $BM__RealConversions
 03A3:0000       $BM__ScannerI
 102C:0000       $BM__Screen
 37ED:0000       $BM__ScreenCTypes
 3B90:0000       $BM__Semafory
 2605:0000       $BM__ShortCuts
 377E:0000       $BM__Slupek
 16B7:0000       $BM__SoftIntHandlingManager
 14BB:0000       $BM__SpecConv
 182E:0000       $BM__StdIO
 165B:0000       $BM__Storage
 0554:0000       $BM__TheodolitRead
 1717:0000       $BM__Timer
 024C:0000       $BM__Tune
 3F46:0000       $BM__WorseBecause
 32A2:0000       $BM__Wykres
 3662:0000       $BM__XMS
 3679:0000       $BM__XMSService
 3519:0000       $BM__XMSTable
 3C4E:093D       $BODY__ARINC
 1C52:0214       $BODY__AltInterface
 28B5:0B15       $BODY__BezPrzerwanOdMyszy__MMMo
 2B9E:0D61       $BODY__Buttons
 2EEC:0C4D       $BODY__CocpDsp
 0B4B:0012       $BODY__CommonData
 0541:00F4       $BODY__CommonTypes
 1E75:02E0       $BODY__Czas
 06CA:0D08       $BODY__DGHIni
 197C:0F7B       $BODY__DGHInterface
 1DEA:0734       $BODY__DGH_utils
 021F:00C2       $BODY__DOSEntry
 2FC5:21DF       $BODY__DataCollect
 2C7C:18C2       $BODY__Dialog
 218E:02D4       $BODY__DigiRS
 38B8:0340       $BODY__DisResUtilities
 3F54:138C       $BODY__DrawEpson
 1EAC:09DC       $BODY__ErrorHand__Kalibracja
 0237:00E1       $BODY__ErrorMess
 36C5:09B8       $BODY__EventsMng
 2EE4:0037       $BODY__FCBS
 2560:09F0       $BODY__FIO
 1C93:0737       $BODY__FIltr1St
 0B58:2B3D       $BODY__Files
 384A:06A0       $BODY__FlagAnal
 2A06:18FD       $BODY__GList
 065E:05FA       $BODY__GPSRead
 23B2:084A       $BODY__GPS_TRIMBLE
 2292:10EC       $BODY__GPS_nov
 1D0C:0D90       $BODY__GeoArithmetic
 1BF3:01C5       $BODY__GrafTypes
 1C12:017A       $BODY__GrafUtil
 354F:10C2       $BODY__Graphics
 3CE6:0242       $BODY__HRD_Clock
 0E15:0AEF       $BODY__H_CP_ControlProc
 0804:0002       $BODY__H_CommonTypes
 3AA1:045B       $BODY__H_Count
 3A3D:0582       $BODY__H_DAcquizition
 1457:05A6       $BODY__H_DataBase
 3807:03D7       $BODY__H_DisResults
 07A2:0588       $BODY__H_Files
 0816:1083       $BODY__H_Inspekcja
 092B:2109       $BODY__H_Oblot
 1C35:0158       $BODY__H_Odb
 3AED:0995       $BODY__H_Print
 3F15:02B2       $BODY__H_Slupek
 3A15:01ED       $BODY__H_results
 1A84:1630       $BODY__HiLevGraf
 2442:1139       $BODY__Ini
 2E12:0C9E       $BODY__InpLine
 1C84:00C8       $BODY__Int_DME
 1EAC:2C81       $BODY__Kalibracja
 3D0D:04D9       $BODY__Kl_FGenerators
 003B:1B1A       $BODY__MANAGER
 28B5:134F       $BODY__MMMouse
 2B9E:041B       $BODY__MONITOR__Buttons
 31EC:0A4F       $BODY__Mapa
 3D5E:08FD       $BODY__Marks
 2273:01BD       $BODY__Math
 17E3:0411       $BODY__Messages
 3A3D:011B       $BODY__Monitor__H_DAcquizition
 16B7:0590       $BODY__Monitor__SoftIntHandling
 1717:08D4       $BODY__Monitor__Timer
 13A7:04A9       $BODY__MouseMonitor__PI_Analiza
 267F:0680       $BODY__MsgBox
 3C18:02F2       $BODY__NAVInterface
 26ED:1B9E       $BODY__Obloty
 0001:0002       $BODY__PH
 13A7:06C6       $BODY__PI_Analiza
 1445:0089       $BODY__PI_ArchDate
 1453:000F       $BODY__PI_Drukuj
 0807:009B       $BODY__PI_Glowny
 021C:0002       $BODY__PI_PA
 141C:0220       $BODY__PI_Pomiar
 0311:08B5       $BODY__PI_Qcheck
 376A:00E6       $BODY__PI_ScrUtility
 38F1:1199       $BODY__PiszEventy
 3DF2:1164       $BODY__Polozenie
 0ED0:14E0       $BODY__Pomiar
 409B:19A5       $BODY__Print
 4244:085B       $BODY__PrintCntroll
 42EF:0743       $BODY__RTSMain
 3BD6:03DC       $BODY__Random
 21C0:0AF9       $BODY__RealConversions
 03A3:1886       $BODY__ScannerI
 003B:1357       $BODY__Scheduler__MANAGER
 102C:36D9       $BODY__Screen
 37ED:016B       $BODY__ScreenCTypes
 3B90:041D       $BODY__Semafory
 2605:070A       $BODY__ShortCuts
 377E:06A7       $BODY__Slupek
 16B7:05BE       $BODY__SoftIntHandlingManager
 14BB:19B9       $BODY__SpecConv
 182E:149F       $BODY__StdIO
 165B:0544       $BODY__Storage
 0554:0EE0       $BODY__TheodolitRead
 1717:0C72       $BODY__Timer
 024C:0A08       $BODY__Tune
 3F46:00A5       $BODY__WorseBecause
 32A2:270A       $BODY__Wykres
 3679:0450       $BODY__XMSService
 3519:0325       $BODY__XMSTable
 31EC:09BA       $BODY__monitor__Mapa
 2605:0532       $BODY__monitor__ShortCuts
 468F:0000       $DD
 601E:0004       $ED__ARINC
 4946:0048       $ED__AltInterface
 50E7:0009       $ED__Buttons
 50EE:0028       $ED__CocpDsp
 48B1:0156       $ED__CommonData
 47A4:0000       $ED__CommonTypes
 4954:0014       $ED__Czas
 47AE:0F8E       $ED__DGHIni
 4934:0018       $ED__DGHInterface
 4950:0036       $ED__DGH_utils
 4782:0088       $ED__DOSEntry
 50F1:E1AE       $ED__DataCollect
 50E8:0008       $ED__Dialog
 4A97:0002       $ED__DigiRS
 5FEB:0000       $ED__DisResUtilities
 604A:07A9       $ED__DrawEpson
 478B:0000       $ED__ErrorMess
 5F2B:0B50       $ED__EventsMng
 50EA:003D       $ED__FCBS
 4FBA:0C12       $ED__FIO
 494C:0008       $ED__FIltr1St
 48C7:0219       $ED__Files
 5FEA:0000       $ED__FlagAnal
 50E6:0008       $ED__GList
 47AB:0022       $ED__GPSRead
 4AA3:0072       $ED__GPS_TRIMBLE
 4A9A:0084       $ED__GPS_nov
 494D:0022       $ED__GeoArithmetic
 493C:0000       $ED__GrafTypes
 493D:0070       $ED__GrafUtil
 5F15:0130       $ED__Graphics
 601F:0000       $ED__HRD_Clock
 48E9:0196       $ED__H_CP_ControlProc
 48A9:0001       $ED__H_CommonTypes
 6005:0000       $ED__H_Count
 6003:001A       $ED__H_DAcquizition
 4926:0044       $ED__H_DataBase
 5FE9:0000       $ED__H_DisResults
 48A7:0019       $ED__H_Files
 48AB:0017       $ED__H_Inspekcja
 48AD:003C       $ED__H_Oblot
 4945:0005       $ED__H_Odb
 6006:0083       $ED__H_Print
 6046:0020       $ED__H_Slupek
 5FED:015A       $ED__H_results
 4936:005D       $ED__HiLevGraf
 4AAB:50E4       $ED__Ini
 50E9:0004       $ED__InpLine
 494B:0000       $ED__Int_DME
 4956:1401       $ED__Kalibracja
 6020:0000       $ED__Kl_FGenerators
 475F:021E       $ED__MANAGER
 50A5:0401       $ED__MMMouse
 5F0C:0064       $ED__Mapa
 6021:0000       $ED__Marks
 4A99:0000       $ED__Math
 4932:000E       $ED__Messages
 507D:0016       $ED__MsgBox
 601D:0007       $ED__NAVInterface
 507F:025F       $ED__Obloty
 475E:000C       $ED__PH
 4920:0021       $ED__PI_Analiza
 4924:0000       $ED__PI_ArchDate
 4925:0000       $ED__PI_Drukuj
 48AA:0000       $ED__PI_Glowny
 4781:0001       $ED__PI_PA
 4923:0000       $ED__PI_Pomiar
 4797:0018       $ED__PI_Qcheck
 5FE1:0000       $ED__PI_ScrUtility
 5FEC:0006       $ED__PiszEventy
 6022:0235       $ED__Polozenie
 4903:0095       $ED__Pomiar
 60C5:0112       $ED__Print
 60D7:0015       $ED__PrintCntroll
 46F1:0003       $ED__RTSCoroutine
 46D2:01DD       $ED__RTSMain
 6015:0072       $ED__Random
 4A98:0000       $ED__RealConversions
 4799:00AF       $ED__ScannerI
 490D:012D       $ED__Screen
 5FE3:0054       $ED__ScreenCTypes
 600F:0054       $ED__Semafory
 507C:000E       $ED__ShortCuts
 5FE2:0000       $ED__Slupek
 492F:0005       $ED__SoftIntHandlingManager
 492B:0000       $ED__SpecConv
 4933:0000       $ED__StdIO
 492C:0027       $ED__Storage
 47A5:0057       $ED__TheodolitRead
 4930:0014       $ED__Timer
 478C:00A6       $ED__Tune
 6049:0000       $ED__WorseBecause
 5F13:0000       $ED__Wykres
 5F29:0004       $ED__XMS
 5F2A:0004       $ED__XMSService
 5F14:0000       $ED__XMSTable
 3C4E:096F       $EM__ARINC
 45D2:0024       $EM__ASCII
 1C52:030F       $EM__AltInterface
 45C1:0109       $EM__BitByteOps
 44FA:0108       $EM__BlockOps
 2B9E:0DD7       $EM__Buttons
 2EEC:0D8C       $EM__CocpDsp
 0B4B:00CC       $EM__CommonData
 0541:011F       $EM__CommonTypes
 1E75:0369       $EM__Czas
 06CA:0D73       $EM__DGHIni
 197C:1079       $EM__DGHInterface
 1DEA:08A4       $EM__DGH_utils
 021F:017A       $EM__DOSEntry
 45F6:02B8       $EM__DOSMemory
 2FC5:226E       $EM__DataCollect
 44CD:00BA       $EM__Devices
 2C7C:195B       $EM__Dialog
 218E:031C       $EM__DigiRS
 38B8:0389       $EM__DisResUtilities
 45D5:009C       $EM__Display
 3F54:1462       $EM__DrawEpson
 44D9:0204       $EM__DynMem
 0237:0145       $EM__ErrorMess
 36C5:0A4A       $EM__EventsMng
 2EE4:0071       $EM__FCBS
 2560:0A45       $EM__FIO
 1C93:0786       $EM__FIltr1St
 0B58:2BCB       $EM__Files
 384A:06DA       $EM__FlagAnal
 2A06:197C       $EM__GList
 065E:06B3       $EM__GPSRead
 23B2:08F8       $EM__GPS_TRIMBLE
 2292:11FD       $EM__GPS_nov
 1D0C:0DD5       $EM__GeoArithmetic
 1BF3:01E6       $EM__GrafTypes
 1C12:0220       $EM__GrafUtil
 354F:1121       $EM__Graphics
 3CE6:026D       $EM__HRD_Clock
 0E15:0BA0       $EM__H_CP_ControlProc
 0804:0023       $EM__H_CommonTypes
 3AA1:04BD       $EM__H_Count
 3A3D:0637       $EM__H_DAcquizition
 1457:063C       $EM__H_DataBase
 3807:042A       $EM__H_DisResults
 07A2:061E       $EM__H_Files
 0816:114E       $EM__H_Inspekcja
 092B:21F8       $EM__H_Oblot
 1C35:01C6       $EM__H_Odb
 3AED:0A29       $EM__H_Print
 3F15:0303       $EM__H_Slupek
 3A15:0271       $EM__H_results
 1A84:16E3       $EM__HiLevGraf
 2442:11D8       $EM__Ini
 2E12:0D16       $EM__InpLine
 1C84:00EE       $EM__Int_DME
 1EAC:2E15       $EM__Kalibracja
 45DF:0167       $EM__Keyboard
 3D0D:04FF       $EM__Kl_FGenerators
 003B:1E0C       $EM__MANAGER
 28B5:1502       $EM__MMMouse
 31EC:0B50       $EM__Mapa
 3D5E:0937       $EM__Marks
 2273:01E8       $EM__Math
 4622:06C4       $EM__MathLib0
 17E3:04A8       $EM__Messages
 450B:02B1       $EM__Mouse
 267F:06DB       $EM__MsgBox
 3C18:0351       $EM__NAVInterface
 440F:063B       $EM__NumberConversion
 26ED:1C75       $EM__Obloty
 0001:039E       $EM__PH
 13A7:073F       $EM__PI_Analiza
 1445:00D2       $EM__PI_ArchDate
 1453:0035       $EM__PI_Drukuj
 0807:00DF       $EM__PI_Glowny
 021C:002D       $EM__PI_PA
 141C:0287       $EM__PI_Pomiar
 0311:0915       $EM__PI_Qcheck
 376A:012F       $EM__PI_ScrUtility
 38F1:1233       $EM__PiszEventy
 3DF2:1225       $EM__Polozenie
 0ED0:15AF       $EM__Pomiar
 409B:1A80       $EM__Print
 4244:08E0       $EM__PrintCntroll
 4396:01A7       $EM__RTSCoroutine
 4374:0140       $EM__RTSDevice
 42EF:076F       $EM__RTSMain
 3BD6:0410       $EM__Random
 21C0:0B1F       $EM__RealConversions
 03A3:19D3       $EM__ScannerI
 102C:37A6       $EM__Screen
 37ED:019E       $EM__ScreenCTypes
 3B90:0453       $EM__Semafory
 2605:079B       $EM__ShortCuts
 377E:06E6       $EM__Slupek
 16B7:05F6       $EM__SoftIntHandlingManager
 4473:0061       $EM__Sounds
 14BB:19F8       $EM__SpecConv
 182E:14D9       $EM__StdIO
 165B:05B8       $EM__Storage
 4582:03E5       $EM__Termbase
 4565:01C6       $EM__Terminal
 0554:1095       $EM__TheodolitRead
 1717:0CBD       $EM__Timer
 024C:0C49       $EM__Tune
 3F46:00D0       $EM__WorseBecause
 32A2:2762       $EM__Wykres
 3662:012A       $EM__XMS
 3679:04BE       $EM__XMSService
 3519:035A       $EM__XMSTable
 3C4E:0954       $INIT__ARINC
 45D2:0009       $INIT__ASCII
 1C52:02DB       $INIT__AltInterface
 45C1:0108       $INIT__BitByteOps
 44FA:0107       $INIT__BlockOps
 2B9E:0D80       $INIT__Buttons
 2EEC:0D49       $INIT__CocpDsp
 0B4B:00A7       $INIT__CommonData
 0541:00FA       $INIT__CommonTypes
 1E75:0308       $INIT__Czas
 06CA:0D49       $INIT__DGHIni
 197C:102C       $INIT__DGHInterface
 1DEA:084D       $INIT__DGH_utils
 021F:0150       $INIT__DOSEntry
 45F6:0298       $INIT__DOSMemory
 2FC5:2221       $INIT__DataCollect
 44C3:0000       $INIT__DebugPMD
 44CD:009A       $INIT__Devices
 2C7C:18EB       $INIT__Dialog
 218E:02F2       $INIT__DigiRS
 38B8:0346       $INIT__DisResUtilities
 45D5:007C       $INIT__Display
 3F54:1415       $INIT__DrawEpson
 44D9:0203       $INIT__DynMem
 0237:010C       $INIT__ErrorMess
 36C5:09EE       $INIT__EventsMng
 2EE4:004C       $INIT__FCBS
 2560:0A16       $INIT__FIO
 1C93:0757       $INIT__FIltr1St
 0B58:2B56       $INIT__Files
 384A:06A6       $INIT__FlagAnal
 2A06:1920       $INIT__GList
 065E:0670       $INIT__GPSRead
 23B2:08B5       $INIT__GPS_TRIMBLE
 2292:11A6       $INIT__GPS_nov
 1D0C:0DA1       $INIT__GeoArithmetic
 1BF3:01CB       $INIT__GrafTypes
 1C12:01D3       $INIT__GrafUtil
 354F:10F2       $INIT__Graphics
 3CE6:0248       $INIT__HRD_Clock
 0E15:0B44       $INIT__H_CP_ControlProc
 0804:0008       $INIT__H_CommonTypes
 3AA1:0461       $INIT__H_Count
 3A3D:05BD       $INIT__H_DAcquizition
 1457:05D1       $INIT__H_DataBase
 3807:03DD       $INIT__H_DisResults
 07A2:05A4       $INIT__H_Files
 0816:10B1       $INIT__H_Inspekcja
 092B:213D       $INIT__H_Oblot
 1C35:016F       $INIT__H_Odb
 3AED:099B       $INIT__H_Print
 3F15:02BB       $INIT__H_Slupek
 3A15:0233       $INIT__H_results
 1A84:1678       $INIT__HiLevGraf
 2442:119F       $INIT__Ini
 2E12:0CB5       $INIT__InpLine
 1C84:00CE       $INIT__Int_DME
 1EAC:2DA5       $INIT__Kalibracja
 45DF:0142       $INIT__Keyboard
 3D0D:04DF       $INIT__Kl_FGenerators
 4537:02DE       $INIT__Longs
 003B:1DCE       $INIT__MANAGER
 28B5:14AB       $INIT__MMMouse
 31EC:0AF4       $INIT__Mapa
 3D5E:0903       $INIT__Marks
 2273:01C3       $INIT__Math
 4622:06AF       $INIT__MathLib0
 17E3:046A       $INIT__Messages
 450B:0296       $INIT__Mouse
 267F:0689       $INIT__MsgBox
 3C18:0322       $INIT__NAVInterface
 440F:0620       $INIT__NumberConversion
 26ED:1C0F       $INIT__Obloty
 13A7:06CF       $INIT__PI_Analiza
 1445:008F       $INIT__PI_ArchDate
 1453:0015       $INIT__PI_Drukuj
 0807:00A1       $INIT__PI_Glowny
 021C:0012       $INIT__PI_PA
 141C:0226       $INIT__PI_Pomiar
 0311:08BE       $INIT__PI_Qcheck
 376A:00EC       $INIT__PI_ScrUtility
 38F1:11AA       $INIT__PiszEventy
 3DF2:11C4       $INIT__Polozenie
 0ED0:153F       $INIT__Pomiar
 409B:19F2       $INIT__Print
 4244:0861       $INIT__PrintCntroll
 42D9:0000       $INIT__RTS87
 43B1:0000       $INIT__RTSCoroutine
 4389:0000       $INIT__RTSDevice
 42EC:0000       $INIT__RTSError
 43D7:0000       $INIT__RTSInterrupt
 4373:0000       $INIT__RTSLanguage
 42EF:0731       $INIT__RTSMain
 42EF:0770       $INIT__RTSMonExit
 4395:0000       $INIT__RTSPriority
 43DD:0000       $INIT__RTSRealError
 3BD6:03E6       $INIT__Random
 21C0:0AFF       $INIT__RealConversions
 03A3:1954       $INIT__ScannerI
 102C:36F5       $INIT__Screen
 37ED:0174       $INIT__ScreenCTypes
 3B90:0433       $INIT__Semafory
 2605:0762       $INIT__ShortCuts
 377E:06AD       $INIT__Slupek
 16B7:05D1       $INIT__SoftIntHandlingManager
 4473:0046       $INIT__Sounds
 14BB:19BF       $INIT__SpecConv
 182E:14A5       $INIT__StdIO
 165B:058E       $INIT__Storage
 43DE:0303       $INIT__Strings
 4582:03BB       $INIT__Termbase
 4565:01A1       $INIT__Terminal
 0554:1039       $INIT__TheodolitRead
 1717:0C8E       $INIT__Timer
 024C:0C0B       $INIT__Tune
 3F46:00AB       $INIT__WorseBecause
 32A2:2710       $INIT__Wykres
 3675:0000       $INIT__XMS
 3679:0485       $INIT__XMSService
 3519:032B       $INIT__XMSTable
 468F:0000       $MN__PH
 468F:0334       $OK__01mar90_1621_OF_ASCII
 468F:0346       $OK__01mar90_1621_OF_DOSMemory
 468F:033A       $OK__01mar90_1621_OF_Display
 468F:0340       $OK__01mar90_1621_OF_Keyboard
 468F:02F2       $OK__01mar90_1621_OF_NumberConv
 468F:0328       $OK__01mar90_1621_OF_Termbase
 468F:0322       $OK__01mar90_1621_OF_Terminal
 468F:0304       $OK__01mar90_1622_OF_Devices
 468F:0316       $OK__01mar90_1622_OF_Mouse
 468F:02F8       $OK__01mar90_1622_OF_Sounds
 468F:031C       $OK__05feb87_1233_OF_Longs
 468F:02BC       $OK__10jul87_1400_OF_RTSError
 468F:02E6       $OK__10jul87_1400_OF_RTSRealErr
 468F:02C8       $OK__10jul87_1401_OF_RTSLanguag
 468F:02E0       $OK__10jul87_1402_OF_RTSInterru
 468F:02B6       $OK__10jul87_1403_OF_RTS87
 468F:02D4       $OK__10jul87_1404_OF_RTSPriorit
 468F:027A       $OK__10jul99_1214_OF_ARINC
 468F:016C       $OK__10jul99_1214_OF_AltInterfa
 468F:01DE       $OK__10jul99_1214_OF_Buttons
 468F:01F6       $OK__10jul99_1214_OF_CocpDsp
 468F:00EE       $OK__10jul99_1214_OF_CommonData
 468F:00B8       $OK__10jul99_1214_OF_CommonType
 468F:018A       $OK__10jul99_1214_OF_Czas
 468F:00CA       $OK__10jul99_1214_OF_DGHIni
 468F:014E       $OK__10jul99_1214_OF_DGHInterfa
 468F:0184       $OK__10jul99_1214_OF_DGH_utils
 468F:009A       $OK__10jul99_1214_OF_DOSEntry
 468F:01E4       $OK__10jul99_1214_OF_Dialog
 468F:0196       $OK__10jul99_1214_OF_DigiRS
 468F:00A0       $OK__10jul99_1214_OF_ErrorMess
 468F:01F0       $OK__10jul99_1214_OF_FCBS
 468F:01BA       $OK__10jul99_1214_OF_FIO
 468F:0178       $OK__10jul99_1214_OF_FIltr1St
 468F:023E       $OK__10jul99_1214_OF_FlagAnal
 468F:01D8       $OK__10jul99_1214_OF_GList
 468F:01AE       $OK__10jul99_1214_OF_GPS_TRIMBL
 468F:01A8       $OK__10jul99_1214_OF_GPS_nov
 468F:015A       $OK__10jul99_1214_OF_GrafTypes
 468F:0160       $OK__10jul99_1214_OF_GrafUtil
 468F:0214       $OK__10jul99_1214_OF_Graphics
 468F:0280       $OK__10jul99_1214_OF_HRD_Clock
 468F:0154       $OK__10jul99_1214_OF_HiLevGraf
 468F:01B4       $OK__10jul99_1214_OF_Ini
 468F:01EA       $OK__10jul99_1214_OF_InpLine
 468F:0172       $OK__10jul99_1214_OF_Int_DME
 468F:0190       $OK__10jul99_1214_OF_Kalibracja
 468F:0286       $OK__10jul99_1214_OF_Kl_FGenera
 468F:008E       $OK__10jul99_1214_OF_MANAGER
 468F:01D2       $OK__10jul99_1214_OF_MMMouse
 468F:01A2       $OK__10jul99_1214_OF_Math
 468F:0142       $OK__10jul99_1214_OF_Messages
 468F:01C6       $OK__10jul99_1214_OF_MsgBox
 468F:0274       $OK__10jul99_1214_OF_NAVInterfa
 468F:01CC       $OK__10jul99_1214_OF_Obloty
 468F:019C       $OK__10jul99_1214_OF_RealConver
 468F:0268       $OK__10jul99_1214_OF_Semafory
 468F:01C0       $OK__10jul99_1214_OF_ShortCuts
 468F:0136       $OK__10jul99_1214_OF_SoftIntHan
 468F:012A       $OK__10jul99_1214_OF_SpecConv
 468F:0148       $OK__10jul99_1214_OF_StdIO
 468F:0130       $OK__10jul99_1214_OF_Storage
 468F:00BE       $OK__10jul99_1214_OF_TheodolitR
 468F:013C       $OK__10jul99_1214_OF_Timer
 468F:00A6       $OK__10jul99_1214_OF_Tune
 468F:029E       $OK__10jul99_1214_OF_WorseBecau
 468F:0208       $OK__10jul99_1214_OF_Wykres
 468F:021A       $OK__10jul99_1214_OF_XMSService
 468F:020E       $OK__10jul99_1214_OF_XMSTable
 468F:01FC       $OK__10jul99_1215_OF_DataCollec
 468F:0244       $OK__10jul99_1215_OF_DisResUtil
 468F:02A4       $OK__10jul99_1215_OF_DrawEpson
 468F:0220       $OK__10jul99_1215_OF_EventsMng
 468F:00F4       $OK__10jul99_1215_OF_Files
 468F:00C4       $OK__10jul99_1215_OF_GPSRead
 468F:017E       $OK__10jul99_1215_OF_GeoArithme
 468F:0202       $OK__10jul99_1215_OF_Mapa
 468F:028C       $OK__10jul99_1215_OF_Marks
 468F:0094       $OK__10jul99_1215_OF_PI_PA
 468F:024A       $OK__10jul99_1215_OF_PiszEventy
 468F:0292       $OK__10jul99_1215_OF_Polozenie
 468F:0100       $OK__10jul99_1215_OF_Pomiar
 468F:02AA       $OK__10jul99_1215_OF_Print
 468F:02B0       $OK__10jul99_1215_OF_PrintCntro
 468F:026E       $OK__10jul99_1215_OF_Random
 468F:00B2       $OK__10jul99_1215_OF_ScannerI
 468F:0106       $OK__10jul99_1215_OF_Screen
 468F:0232       $OK__10jul99_1215_OF_ScreenCTyp
 468F:022C       $OK__10jul99_1215_OF_Slupek
 468F:00FA       $OK__10jul99_1218_OF_H_CP_Contr
 468F:00D6       $OK__10jul99_1218_OF_H_CommonTy
 468F:025C       $OK__10jul99_1218_OF_H_Count
 468F:0256       $OK__10jul99_1218_OF_H_DAcquizi
 468F:0124       $OK__10jul99_1218_OF_H_DataBase
 468F:0238       $OK__10jul99_1218_OF_H_DisResul
 468F:00D0       $OK__10jul99_1218_OF_H_Files
 468F:00E2       $OK__10jul99_1218_OF_H_Inspekcj
 468F:00E8       $OK__10jul99_1218_OF_H_Oblot
 468F:0166       $OK__10jul99_1218_OF_H_Odb
 468F:0262       $OK__10jul99_1218_OF_H_Print
 468F:0298       $OK__10jul99_1218_OF_H_Slupek
 468F:0250       $OK__10jul99_1218_OF_H_results
 468F:0000       $OK__10jul99_1218_OF_PH
 468F:010C       $OK__10jul99_1218_OF_PI_Analiza
 468F:0118       $OK__10jul99_1218_OF_PI_ArchDat
 468F:011E       $OK__10jul99_1218_OF_PI_Drukuj
 468F:00DC       $OK__10jul99_1218_OF_PI_Glowny
 468F:0112       $OK__10jul99_1218_OF_PI_Pomiar
 468F:00AC       $OK__10jul99_1218_OF_PI_Qcheck
 468F:0226       $OK__10jul99_1218_OF_PI_ScrUtil
 468F:02DA       $OK__15jun87_0924_OF_RTSCorouti
 468F:02CE       $OK__15jun87_0924_OF_RTSDevice
 468F:030A       $OK__16jun87_1952_OF_DynMem
 468F:02FE       $OK__16jun87_2059_OF_DebugPMD
 468F:02C2       $OK__19aug87_1403_OF_RTSMain
 468F:02EC       $OK__31jul87_1000_OF_Strings
 468F:032E       $OK__31jul87_1100_OF_BitByteOps
 468F:0310       $OK__31jul87_1300_OF_BlockOps
 4799:0024       ABOVESL__ScannerI
 4956:08C0       AGCwartosciProgowD__Kalibracja
 4956:0870       AGCwartosciProgowM__Kalibracja
 4956:0800       AGCwartosciProgow__Kalibracja
 4946:0020       ALT_Conver_TabC__AltInterface
 4946:0000       ALT_Conver_Tab__AltInterface
 42D3:003E       AT87Server
 4799:0054       AcqQ__ScannerI
 50E9:0000       Active__InpLine
 42DF:0014       AddrOvf__RTSError
 604A:078E       Adr1__DrawEpson
 604A:0792       Adr2__DrawEpson
 6022:0018       AktKat__Polozenie
 6022:0010       AktOdleglosc__Polozenie
 4799:0006       AlfaF__ScannerI
 4799:0094       AlfaGPSWatcDog__ScannerI
 4799:0059       AlfaSigma__ScannerI
 4799:0096       AlfaTeoWatcDog__ScannerI
 4799:0002       Alfa__ScannerI
 50E7:0004       AllEnabled__Buttons
 47A5:0014       Azymut__TheodolitRead
 5F15:000E       BK64Inc__InternalMonitor__Graph
 5F15:000A       BKSizeL__InternalMonitor__Graph
 4903:005A       B_01__Pomiar
 4903:005E       B_02__Pomiar
 4903:0062       B_03__Pomiar
 4903:0066       B_04__Pomiar
 4903:006A       B_05__Pomiar
 4920:000D       B_Abort__MouseMonitor__PI_Anali
 4920:0009       B_Akceptuj__MouseMonitor__PI_An
 490D:0056       B_CURSOR__Screen
 4920:0015       B_DOWN__MouseMonitor__PI_Analiz
 490D:0066       B_DOWN__Screen
 4920:0005       B_Drukuj__MouseMonitor__PI_Anal
 490D:005A       B_LEFT__Screen
 490D:005E       B_RIGHT__Screen
 4920:0011       B_UP__MouseMonitor__PI_Analiza
 490D:0062       B_UP__Screen
 4920:0019       B_XCHG__MouseMonitor__PI_Analiz
 490D:0080       BarOnScreen__Dialog__Screen
 4AA3:006E       BladKanaluGPS__GPS_TRIMBLE
 4A9A:0080       BladKanaluGPS__GPS_nov
 4926:0040       Blad_podczas_wczytywania_Lotnis
 4AAB:0012       BuffP__Ini
 4934:0000       BufferFull__DGHInterface
 604A:0004       Bufor__DrawEpson
 4AAB:0016       Bufor__Ini
 6022:0022       Bufor__Polozenie
 50E7:0005       ButtonList__MONITOR__Buttons
 475F:0114       CP__MANAGER
 507F:0157       CallBackDlaDopasuj__Obloty
 42DF:001E       CardOvf__RTSError
 42DF:0000       CaseError__RTSError
 490D:012C       ChangeKursorMode__Dialog__Scree
 47A5:004A       CheckSumIdx__TheodolitRead
 48AD:0017       CisnienieOdn__H_Oblot
 48B1:014E       CisnienieOdniesienia__CommonDat
 4936:0000       ClipRect__HiLevGraf
 4930:0004       ClockPer__Timer
 48AD:0023       CoKtoraProbkaL__H_Oblot
 48AD:0001       CoKtoraProbka__H_Oblot
 60C5:0011       CoKtoraProbka__Print
 60D7:000B       CoKtoraProbka__PrintCntroll
 48AD:0000       CoRobimy__H_Oblot
 50EA:0000       Code__FCBS
 475F:021A       Count__MANAGER
 4FBA:0C08       CriticalErrorRec__FIO
 50E6:0000       CurH__GList
 604A:0798       CurMode__DrawEpson
 47AB:001E       CurrGPSAnalizer__GPSRead
 50A5:02F5       CursorB__BezWyszeregowania__MMM
 50A5:01F4       CursorBuf__BezWyszeregowania__M
 490D:0076       CursorMode__Dialog__Screen
 490D:007B       CursorPos__Dialog__Screen
 50A5:0008       CursorShapePtr__MMMouse
 6022:0211       CzesciOkregu__Polozenie
 48B1:00FB       DME__CommonData
 4782:0084       DOSEmpty__DOSEntry
 475F:011C       DUMMY__MANAGER
 4956:13EC       DataOstatniejKalibracji__Kalibr
 50A5:000C       DefaultShape__MMMouse
 494D:0000       Deklinacja__GeoArithmetic
 507F:019C       DelDir__Obloty
 4799:0016       DeltaDME__ScannerI
 4799:001A       DeltaF__ScannerI
 4799:000E       Delta__ScannerI
 46D2:0058       DescInt0__RTSMain
 48C7:0004       DirErr__Files
 6022:020F       Dir__Polozenie
 4799:0061       DisSigma__ScannerI
 50F1:C86E       Div2T__tablice__DataCollect
 50F1:C86A       Div3T__tablice__DataCollect
 42DF:0046       DivZero__RTSError
 60DC:0000       DriverInstalled__Mouse
 507F:021E       DstDir__Obloty
 4930:0012       Dumm__Monitor__Timer
 4367:0069       DynParCopy__RTSLanguage
 50A5:0063       EVC__BezPrzerwanOdMyszy__MMMous
 50A5:005F       EVF__BezPrzerwanOdMyszy__MMMous
 50A5:0061       EVL__BezPrzerwanOdMyszy__MMMous
 47A5:001C       Elewacja__TheodolitRead
 475F:0012       ErrorHandler__MANAGER
 4AAB:0000       ErrorProc__Ini
 475F:0000       ErrorQueue__MANAGER
 42EF:0636       Error__RTSMain
 4903:0050       EtapPolaryzacji__Pomiar
 5FEC:0002       EvPtr__PiszEventy
 4799:0069       EvalPROC__ScannerI
 50A5:0065       EventBuff__BezPrzerwanOdMyszy__
 5F2B:0000       Events__EventsMng
 42DF:000A       FctRetError__RTSError
 48C7:0000       FileErr__Files
 48A7:0000       FileErr__H_Files
 48A7:0011       FileSig__H_Files
 4FBA:0008       Files__FIO
 60C5:000C       Flagi__Print
 5F15:0010       FntTable__Graphics
 50E8:0004       FocusChanged__Dialog
 604A:079D       FontAdrA__DrawEpson
 604A:0799       FontAdrN__DrawEpson
 604A:07A1       FontHeight__DrawEpson
 5F15:0000       FontPtr__Graphics
 507C:0007       FreeKey__monitor__ShortCuts
 48A7:0017       GPSDtaSign__H_Files
 4799:008B       GPSEcounting__ScannerI
 4799:003B       GPS_A__ScannerI
 4799:0050       GPS_DIFFMODE__ScannerI
 4799:004E       GPS_GDOP__ScannerI
 4799:004B       GPS_OK__ScannerI
 4799:0051       GPS_PREC__ScannerI
 4799:0043       GPS_R__ScannerI
 4799:004C       GPS_SAT__ScannerI
 4799:00AB       GPS_dtaSign__ScannerI
 4956:0AC0       GS_DEVPuntyKal__Kalibracja
 478C:0050       GSfreqCRT__Tune
 5F2A:0000       GarbageList__XMSService
 48B1:0141       GlownyOdbiornik__CommonData
 4956:0958       GsAgc_delay__Kalibracja
 4956:0918       GsDev_delay__Kalibracja
 4956:0928       GsPrcMod_delay__Kalibracja
 50A5:02F4       Hidden__BezWyszeregowania__MMMo
 507F:0116       HomeDirDlaDopasuj__Obloty
 507F:0058       HomeDirNazwaPlikuIni__Obloty
 507F:0048       HomeDir__Obloty
 50F1:C866       IDX2__tablice__DataCollect
 50F1:C862       IDX3__tablice__DataCollect
 43B2:011E       IOTransfer__RTSInterrupt
 50F1:C840       Idx__DataCollect
 60D7:000D       IleStron__PrintCntroll
 494D:0020       IloscOdniesien__GeoArithmetic
 60D7:000F       IloscProbek__PrintCntroll
 6003:0000       ImportantDiv__H_DAcquizition
 42DF:0028       IntegerOvf__RTSError
 490D:0079       JakieWykr__Dialog__Screen
 490D:0077       JakijedenWykres__Dialog__Screen
 490D:0078       JedenWykres__Dialog__Screen
 604A:07A8       JuzNarysowane__DrawEpson
 0000:0000  Abs  KEY__00xxx00_0000_OF_DebugPMD
 0000:0000  Abs  KEY__00xxx00_0000_OF_RTS87
 0000:0000  Abs  KEY__00xxx00_0000_OF_RTSCorouti
 0000:0000  Abs  KEY__00xxx00_0000_OF_RTSError
 0000:0000  Abs  KEY__00xxx00_0000_OF_RTSInterru
 0000:0000  Abs  KEY__00xxx00_0000_OF_RTSLanguag
 0000:0000  Abs  KEY__00xxx00_0000_OF_RTSMain
 0000:0000  Abs  KEY__00xxx00_0000_OF_RTSPriorit
 0000:0000  Abs  KEY__00xxx00_0000_OF_RTSRealErr
 0000:0000  Abs  KEY__05feb87_1233_OF_Longs
 0000:0000  Abs  KEY__10aug87_2030_OF_ASCII
 0000:0000  Abs  KEY__10aug87_2030_OF_BitByteOps
 0000:0000  Abs  KEY__10aug87_2030_OF_BlockOps
 0000:0000  Abs  KEY__10aug87_2031_OF_DOSMemory
 0000:0000  Abs  KEY__10aug87_2031_OF_DebugPMD
 0000:0000  Abs  KEY__10aug87_2031_OF_Devices
 0000:0000  Abs  KEY__10aug87_2031_OF_Display
 0000:0000  Abs  KEY__10aug87_2031_OF_DynMem
 0000:0000  Abs  KEY__10aug87_2031_OF_Keyboard
 0000:0000  Abs  KEY__10aug87_2031_OF_NumberConv
 0000:0000  Abs  KEY__10aug87_2031_OF_RTSDevice
 0000:0000  Abs  KEY__10aug87_2031_OF_Storage
 0000:0000  Abs  KEY__10aug87_2031_OF_Strings
 0000:0000  Abs  KEY__10aug87_2031_OF_Termbase
 0000:0000  Abs  KEY__10aug87_2031_OF_Terminal
 0000:0000  Abs  KEY__10aug87_2032_OF_MathLib0
 0000:0000  Abs  KEY__10aug87_2033_OF_Mouse
 0000:0000  Abs  KEY__10aug87_2033_OF_RTSCorouti
 0000:0000  Abs  KEY__10aug87_2033_OF_Random
 0000:0000  Abs  KEY__10aug87_2033_OF_RealConver
 0000:0000  Abs  KEY__10aug87_2033_OF_Sounds
 0000:0000  Abs  KEY__10jul87_1035_OF_RTSMonExit
 0000:0000  Abs  KEY__10jul99_1214_OF_ARINC
 0000:0000  Abs  KEY__10jul99_1214_OF_AltInterfa
 0000:0000  Abs  KEY__10jul99_1214_OF_Buttons
 0000:0000  Abs  KEY__10jul99_1214_OF_CocpDsp
 0000:0000  Abs  KEY__10jul99_1214_OF_CommonData
 0000:0000  Abs  KEY__10jul99_1214_OF_CommonType
 0000:0000  Abs  KEY__10jul99_1214_OF_Czas
 0000:0000  Abs  KEY__10jul99_1214_OF_DGHIni
 0000:0000  Abs  KEY__10jul99_1214_OF_DGHInterfa
 0000:0000  Abs  KEY__10jul99_1214_OF_DGH_utils
 0000:0000  Abs  KEY__10jul99_1214_OF_DOSEntry
 0000:0000  Abs  KEY__10jul99_1214_OF_DataCollec
 0000:0000  Abs  KEY__10jul99_1214_OF_Dialog
 0000:0000  Abs  KEY__10jul99_1214_OF_DigiRS
 0000:0000  Abs  KEY__10jul99_1214_OF_DisResUtil
 0000:0000  Abs  KEY__10jul99_1214_OF_DrawEpson
 0000:0000  Abs  KEY__10jul99_1214_OF_ErrorMess
 0000:0000  Abs  KEY__10jul99_1214_OF_EventsMng
 0000:0000  Abs  KEY__10jul99_1214_OF_FCBS
 0000:0000  Abs  KEY__10jul99_1214_OF_FIO
 0000:0000  Abs  KEY__10jul99_1214_OF_FIltr1St
 0000:0000  Abs  KEY__10jul99_1214_OF_Files
 0000:0000  Abs  KEY__10jul99_1214_OF_FlagAnal
 0000:0000  Abs  KEY__10jul99_1214_OF_GList
 0000:0000  Abs  KEY__10jul99_1214_OF_GPSRead
 0000:0000  Abs  KEY__10jul99_1214_OF_GPS_TRIMBL
 0000:0000  Abs  KEY__10jul99_1214_OF_GPS_nov
 0000:0000  Abs  KEY__10jul99_1214_OF_GeoArithme
 0000:0000  Abs  KEY__10jul99_1214_OF_GrafTypes
 0000:0000  Abs  KEY__10jul99_1214_OF_GrafUtil
 0000:0000  Abs  KEY__10jul99_1214_OF_Graphics
 0000:0000  Abs  KEY__10jul99_1214_OF_HRD_Clock
 0000:0000  Abs  KEY__10jul99_1214_OF_HiLevGraf
 0000:0000  Abs  KEY__10jul99_1214_OF_Ini
 0000:0000  Abs  KEY__10jul99_1214_OF_InpLine
 0000:0000  Abs  KEY__10jul99_1214_OF_Int_DME
 0000:0000  Abs  KEY__10jul99_1214_OF_Kalibracja
 0000:0000  Abs  KEY__10jul99_1214_OF_Kl_FGenera
 0000:0000  Abs  KEY__10jul99_1214_OF_MANAGER
 0000:0000  Abs  KEY__10jul99_1214_OF_MMMouse
 0000:0000  Abs  KEY__10jul99_1214_OF_Mapa
 0000:0000  Abs  KEY__10jul99_1214_OF_Marks
 0000:0000  Abs  KEY__10jul99_1214_OF_Math
 0000:0000  Abs  KEY__10jul99_1214_OF_Messages
 0000:0000  Abs  KEY__10jul99_1214_OF_MsgBox
 0000:0000  Abs  KEY__10jul99_1214_OF_NAVInterfa
 0000:0000  Abs  KEY__10jul99_1214_OF_Obloty
 0000:0000  Abs  KEY__10jul99_1214_OF_PI_Analiza
 0000:0000  Abs  KEY__10jul99_1214_OF_PI_ArchDat
 0000:0000  Abs  KEY__10jul99_1214_OF_PI_Drukuj
 0000:0000  Abs  KEY__10jul99_1214_OF_PI_Glowny
 0000:0000  Abs  KEY__10jul99_1214_OF_PI_PA
 0000:0000  Abs  KEY__10jul99_1214_OF_PI_Pomiar
 0000:0000  Abs  KEY__10jul99_1214_OF_PI_Qcheck
 0000:0000  Abs  KEY__10jul99_1214_OF_PI_ScrUtil
 0000:0000  Abs  KEY__10jul99_1214_OF_PiszEventy
 0000:0000  Abs  KEY__10jul99_1214_OF_Polozenie
 0000:0000  Abs  KEY__10jul99_1214_OF_Pomiar
 0000:0000  Abs  KEY__10jul99_1214_OF_Print
 0000:0000  Abs  KEY__10jul99_1214_OF_PrintCntro
 0000:0000  Abs  KEY__10jul99_1214_OF_ScannerI
 0000:0000  Abs  KEY__10jul99_1214_OF_Screen
 0000:0000  Abs  KEY__10jul99_1214_OF_ScreenCTyp
 0000:0000  Abs  KEY__10jul99_1214_OF_Semafory
 0000:0000  Abs  KEY__10jul99_1214_OF_ShortCuts
 0000:0000  Abs  KEY__10jul99_1214_OF_Slupek
 0000:0000  Abs  KEY__10jul99_1214_OF_SoftIntHan
 0000:0000  Abs  KEY__10jul99_1214_OF_SpecConv
 0000:0000  Abs  KEY__10jul99_1214_OF_StdIO
 0000:0000  Abs  KEY__10jul99_1214_OF_TheodolitR
 0000:0000  Abs  KEY__10jul99_1214_OF_Timer
 0000:0000  Abs  KEY__10jul99_1214_OF_Tune
 0000:0000  Abs  KEY__10jul99_1214_OF_WorseBecau
 0000:0000  Abs  KEY__10jul99_1214_OF_Wykres
 0000:0000  Abs  KEY__10jul99_1214_OF_XMSService
 0000:0000  Abs  KEY__10jul99_1214_OF_XMSTable
 0000:0000  Abs  KEY__10jul99_1218_OF_H_CP_Contr
 0000:0000  Abs  KEY__10jul99_1218_OF_H_CommonTy
 0000:0000  Abs  KEY__10jul99_1218_OF_H_Count
 0000:0000  Abs  KEY__10jul99_1218_OF_H_DAcquizi
 0000:0000  Abs  KEY__10jul99_1218_OF_H_DataBase
 0000:0000  Abs  KEY__10jul99_1218_OF_H_DisResul
 0000:0000  Abs  KEY__10jul99_1218_OF_H_Files
 0000:0000  Abs  KEY__10jul99_1218_OF_H_Inspekcj
 0000:0000  Abs  KEY__10jul99_1218_OF_H_Oblot
 0000:0000  Abs  KEY__10jul99_1218_OF_H_Odb
 0000:0000  Abs  KEY__10jul99_1218_OF_H_Print
 0000:0000  Abs  KEY__10jul99_1218_OF_H_Slupek
 0000:0000  Abs  KEY__10jul99_1218_OF_H_results
 0000:0000  Abs  KEY__10jul99_1218_OF_PH
 0000:0000  Abs  KEY__12aug87_1620_OF_RTSMain
 0000:0000  Abs  KEY__21aug96_1223_OF_XMS
 50E7:0000       KbdButton__Buttons
 507C:0000       Kill__ShortCuts
 47A5:0010       Kopiowanie__TheodolitRead
 490D:0030       KrokOpisuOsi__Screen
 4537:01F7       LDiv__Longs
 4537:018D       LMultU__Longs
 4537:00E6       LMult__Longs
 4956:0A88       LOC_DEVPuntyKal__Kalibracja
 4AA3:005F       L_FixNotAvailable__GPS_TRIMBLE
 4AA3:0057       L_Kierunek__GPS_TRIMBLE
 4AA3:006C       L_NumberOfSattelites__GPS_TRIMB
 4AA3:0051       L_WspDlugosc__GPS_TRIMBLE
 4AA3:004B       L_WspSzerokosc__GPS_TRIMBLE
 2273:002A       L__ACos__Math
 165B:0002       L__ALLOCATE__Storage
 1C52:0032       L__ALTConvert__AltInterface
 003B:0FEF       L__AWAITEDC__MANAGER
 003B:0FEF       L__AWAITEDC__Scheduler__MANAGER
 003B:0FB4       L__AWAITEDS__MANAGER
 003B:0FB4       L__AWAITEDS__Scheduler__MANAGER
 0ED0:0114       L__AbortBP__Pomiar
 3A3D:0552       L__Abort__H_DAcquizition
 17E3:0312       L__AcknowledgeFirst__Messages
 17E3:0337       L__Acknowledge__Messages
 3A3D:0142       L__Acquire__H_DAcquizition
 14BB:0E7B       L__AddAngle100__SpecConv
 14BB:1858       L__AddDis__SpecConv
 14BB:10CE       L__AddNormal__SpecConv
 14BB:17AE       L__Add__SpecConv
 267F:00F2       L__AdvInfo__MsgBox
 14BB:101A       L__AfterAngle100__SpecConv
 0ED0:014F       L__AkceptacjaBP__Pomiar
 3662:00D8       L__AllocUpperMemBlock__XMS
 44D9:0059       L__Alloc__DynMem
 3662:003C       L__AllocateExtMem__XMS
 3679:004E       L__Allocate__XMSService
 3519:005D       L__Allocate__XMSTable
 2C7C:1666       L__AltF4__Dialog
 13A7:0518       L__AnalizaEP__PI_Analiza
 3AA1:037B       L__Analiza__H_Count
 141C:0012       L__Analiza__PI_Pomiar
 14BB:0711       L__Ang100Str36Calk__SpecConv
 14BB:06A4       L__Ang100Str36__SpecConv
 3D5E:015E       L__AngAddSample__Marks
 3D5E:0032       L__AngResetContiner__Marks
 14BB:0BF8       L__Angle100__SpecConv
 14BB:0D36       L__AngleDeg__SpecConv
 03A3:0B3C       L__AssSim_Alfa__ScannerI
 03A3:0AA9       L__AssSim_Dis__ScannerI
 003B:12EF       L__Assert__MANAGER
 003B:12EF       L__Assert__Scheduler__MANAGER
 3519:0002       L__AssignNil__XMSTable
 1D0C:0D1C       L__AssignOdniesienie__GeoArithm
 1717:0559       L__AssignPeriodicProc__Monitor_
 1717:0559       L__AssignPeriodicProc__Timer
 1BF3:01AD       L__AssignPoint__GrafTypes
 4582:0002       L__AssignRead__Termbase
 1BF3:0187       L__AssignRect__GrafTypes
 4582:0184       L__AssignWrite__Termbase
 43DE:005F       L__Assign__Strings
 44D9:01BF       L__Avail__DynMem
 165B:02D0       L__Available__Storage
 1C93:05B7       L__BinaryCounter__FIltr1St
 1DEA:06BA       L__BinaryValSet__DGH_utils
 44FA:007D       L__BlockClear__BlockOps
 44FA:00B8       L__BlockEqual__BlockOps
 44FA:001A       L__BlockMoveBackward__BlockOps
 44FA:0000       L__BlockMoveForward__BlockOps
 44FA:003B       L__BlockMove__BlockOps
 44FA:00D9       L__BlockPosition__BlockOps
 44FA:0096       L__BlockSet__BlockOps
 16B7:008A       L__BreakChain__SoftIntHandlingM
 003B:0AAF       L__Broadcast__MANAGER
 003B:0AAF       L__Broadcast__Scheduler__MANAGE
 45C1:0046       L__ByteAnd__BitByteOps
 45C1:0073       L__ByteNot__BitByteOps
 45C1:0055       L__ByteOr__BitByteOps
 45C1:00C5       L__ByteRol__BitByteOps
 45C1:00B4       L__ByteRor__BitByteOps
 45C1:0092       L__ByteSar__BitByteOps
 45C1:00A3       L__ByteShl__BitByteOps
 45C1:0081       L__ByteShr__BitByteOps
 45C1:0064       L__ByteXor__BitByteOps
 2560:04B4       L__CD__FIO
 42EF:00EF       L__CallInitProc__RTSMain
 2B9E:0D35       L__CallProc__Buttons
 0ED0:0124       L__CallStopButton__Pomiar
 42EF:00FD       L__CallTermProc__RTSMain
 2A06:1454       L__CanEnable__GList
 31EC:098B       L__CancelProcess__Mapa
 31EC:098B       L__CancelProcess__monitor__Mapa
 14BB:057F       L__Card100Str__SpecConv
 14BB:033A       L__Card10Str__SpecConv
 32A2:1F1D       L__Card2Real__Wykres
 14BB:0225       L__Card2Str__SpecConv
 14BB:0959       L__Card500Str__SpecConv
 440F:0259       L__CardToString__NumberConversi
 2B9E:09D0       L__ChangeButtonText__Buttons
 2B9E:0959       L__ChangeButton__Buttons
 0B58:1E04       L__ChangeDir__Files
 1A84:0C85       L__Circle__HiLevGraf
 2605:006D       L__ClearBuffer__ShortCuts
 2605:006D       L__ClearBuffer__monitor__ShortC
 1A84:1026       L__Clip__HiLevGraf
 409B:0E2F       L__CloseAll__Print
 2442:0E08       L__CloseBuffer__Ini
 0B58:2819       L__CloseCommSigFName__Files
 1A84:0A9F       L__CloseDIB__HiLevGraf
 0B58:0F3B       L__CloseFiles__Files
 07A2:03AB       L__CloseFiles__H_Files
 0B58:17EB       L__CloseSignalFiles__Files
 07A2:04A8       L__CloseSignalFiles__H_Files
 3F54:06E2       L__Close__DrawEpson
 2560:01F2       L__Close__FIO
 4244:013A       L__CoKtoraPDn__PrintCntroll
 4244:00D5       L__CoKtoraPUp__PrintCntroll
 43DE:02B2       L__CompareStr__Strings
 102C:18F9       L__ConEventButton__Screen
 43DE:025B       L__Concat__Strings
 450B:01B4       L__ConditionalOff__Mouse
 3A3D:0063       L__ConsoleEv__H_DAcquizition
 3A3D:0063       L__ConsoleEv__Monitor__H_DAcqui
 43DE:001D       L__ConstAssign__Strings
 2EEC:0A5E       L__ControlLoop__CocpDsp
 1E75:024E       L__ConvertToStr__Czas
 43DE:01E9       L__Copy__Strings
 3679:0110       L__Copy__XMSService
 2B9E:0B2D       L__CreateButton__Buttons
 0B58:0273       L__CreateFiles__Files
 07A2:00FD       L__CreateFiles__H_Files
 2E12:0002       L__CreateInpLine__InpLine
 2B9E:0C3C       L__CreateRadioButton__Buttons
 2560:00FA       L__Create__FIO
 2560:08B1       L__CriticalErrorHandlerProc__FI
 03A3:1754       L__CurrGPSAlfaOffset__ScannerI
 1717:051F       L__CurrentPeriod__Monitor__Time
 1717:051F       L__CurrentPeriod__Timer
 003B:17F9       L__CurrentProcess__MANAGER
 092B:0649       L__CzyDobraOrbita__H_Oblot
 092B:076E       L__CzyDobryPromien__H_Oblot
 165B:01B9       L__DEALLOCATE__Storage
 1A84:06E9       L__DIBHeight__HiLevGraf
 1A84:06B5       L__DIBWidth__HiLevGraf
 1C84:0002       L__DMEConvert__Int_DME
 003B:0CE1       L__DOIO__MANAGER
 003B:0CE1       L__DOIO__Scheduler__MANAGER
 45F6:0002       L__DOSAlloc__DOSMemory
 45F6:01B0       L__DOSAvail__DOSMemory
 45F6:00E3       L__DOSDeAlloc__DOSMemory
 45F6:0241       L__DOSGetMaxSize__DOSMemory
 45F6:01F0       L__DOSSetSize__DOSMemory
 354F:01B2       L__DP__Graphics
 354F:01B2       L__DP__InternalMonitor__Graphic
 003B:1A90       L__DUMMYPRO__MANAGER
 409B:0186       L__DalszeOdZera__Print
 3CE6:011E       L__Data__HRD_Clock
 44D9:0102       L__DeAlloc__DynMem
 3679:00EE       L__Deallocate__XMSService
 3519:00F2       L__Deallocate__XMSTable
 024C:0966       L__DecADFFch__Tune
 2442:0006       L__DefaultError__Ini
 1717:04B5       L__DefinePeriod__Monitor__Timer
 1717:04B5       L__DefinePeriod__Timer
 2605:0612       L__DefineShortCut__ShortCuts
 2E12:01CA       L__DeleteInpLine__InpLine
 2442:050E       L__DeleteSection__Ini
 2605:06DD       L__DeleteShortCut__ShortCuts
 2560:046B       L__Delete__FIO
 43DE:014C       L__Delete__Strings
 2C7C:1488       L__DialogMouseHandle__Dialog
 2560:0700       L__DirQuery__FIO
 3D5E:0453       L__DisAddSample__Marks
 3D5E:0041       L__DisResetContiner__Marks
 17E3:0004       L__DisableDisplay__Messages
 2A06:1470       L__Disable__GList
 3807:036A       L__DispResults__H_DisResults
 17E3:0181       L__Display__Messages
 2B9E:0AAB       L__DisposeButton__Buttons
 17E3:0164       L__DisposeMessage__Messages
 1717:0A36       L__DisposeMetronome__Timer
 376A:0071       L__DisposeSlupki__PI_ScrUtility
 1717:0B9B       L__DisposeWatchdog__Timer
 377E:0647       L__Dispose__Slupek
 14BB:1755       L__Div__SpecConv
 1C12:0112       L__DoBeep__GrafUtil
 2E12:07B4       L__DoNothing__InpLine
 2A06:06B6       L__DodajDoListy__GList
 0816:0739       L__DodajOblot__H_Inspekcja
 3F15:0286       L__DoneSlupek__H_Slupek
 102C:36CD       L__Done__Screen
 26ED:037F       L__Dopasuj__Obloty
 3F54:1124       L__DrawText__DrawEpson
 32A2:03D7       L__Draw__Wykres
 1453:0002       L__Druk__PI_Drukuj
 13A7:0062       L__DrukujBP__MouseMonitor__PI_A
 26ED:1B8B       L__Dum_Stat_File_Monitor__Oblot
 26ED:1B83       L__Dum_Stat_Size_Monitor__Oblot
 2A06:0020       L__DummyNotification__GList
 1717:0BFF       L__Dummy__Timer
 2560:040B       L__EOF__FIO
 2B9E:0CC0       L__EnableButton__Buttons
 2B9E:0D4E       L__EnableDisableAllButtons__But
 17E3:002E       L__EnableDisplay__Messages
 2C7C:167B       L__EnableDlg__Dialog
 2A06:1513       L__Enable__GList
 2E12:0183       L__Enable__InpLine
 2C7C:15E7       L__EndDialog__Dialog
 003B:18E5       L__EnterProtectedOp__MANAGER
 38F1:0F04       L__EnumEv__PiszEventy
 0816:06AD       L__EnumObl__H_Inspekcja
 409B:0FE0       L__EvProc__Print
 28B5:07F2       L__EventDispatcher__BezPrzerwan
 36C5:055C       L__EventsMngInit__EventsMng
 42EF:0526       L__Execute__RTSMain
 0B58:1DB9       L__ExistDIR__Files
 003B:18ED       L__ExitProtectedOp__MANAGER
 0B58:20C9       L__FInterpolacja__Files
 14BB:08C0       L__Feed500Str__SpecConv
 354F:025A       L__FillRect__Graphics
 1A84:0F6C       L__FillRect__HiLevGraf
 354F:025A       L__FillRect__InternalMonitor__G
 1C93:03DA       L__Filtr2Filters__FIltr1St
 1C93:053F       L__FiltrB__FIltr1St
 1C93:0199       L__Filtr__FIltr1St
 36C5:02D5       L__FindNextEvent__EventsMng
 384A:01D6       L__FlagErr_Anal__FlagAnal
 450B:0002       L__FlagReset__Mouse
 1A84:1268       L__FrameRect__HiLevGraf
 3662:0068       L__FreeExtMem__XMS
 26ED:0E1A       L__FreeSlot__Obloty
 3662:0107       L__FreeUpperMemBlock__XMS
 3B90:00AA       L__Free__Semafory
 065E:0225       L__GPSReceive__GPSRead
 31EC:07B3       L__GdzieJest__Mapa
 1D0C:0719       L__Geo2Kat__GeoArithmetic
 0B58:264E       L__GetALfaRefFName__Files
 3A15:0034       L__GetAnRes__H_results
 197C:0187       L__GetAnalogVal__DGHInterface
 03A3:069A       L__GetAndCountTEODummy__Scanner
 03A3:0894       L__GetAndCountTEO__ScannerI
 354F:0191       L__GetBank__Graphics
 354F:0191       L__GetBank__InternalMonitor__Gr
 197C:0226       L__GetBinaryVal__DGHInterface
 45C1:0000       L__GetBits__BitByteOps
 450B:006E       L__GetButPres__Mouse
 450B:00A0       L__GetButRel__Mouse
 1A84:115F       L__GetClip__HiLevGraf
 0B58:2735       L__GetCommSigFName__Files
 2A06:1839       L__GetContents__GList
 197C:002B       L__GetCurrDataSign__DGHInterfac
 065E:02DA       L__GetCurrDataSign__GPSRead
 0554:05AE       L__GetCurrDataSign__TheodolitRe
 44CD:0002       L__GetDeviceStatus__Devices
 4374:009B       L__GetDeviceStatus__RTSDevice
 2C7C:0006       L__GetDialogDIBHandle__Dialog
 2560:05B5       L__GetDir__FIO
 065E:029B       L__GetDirection__GPSRead
 0B58:26C2       L__GetDisRefFName__Files
 3519:01B7       L__GetElem__XMSTable
 1EAC:097E       L__GetErrReset__ErrorHand__Kali
 1EAC:097E       L__GetErrReset__Kalibracja
 36C5:041A       L__GetEventInfo__EventsMng
 2560:0685       L__GetFileStamp__FIO
 23B2:05C7       L__GetFrame__GPS_TRIMBLE
 2292:0CFB       L__GetFrame__GPS_nov
 03A3:0377       L__GetGPSSpread__ScannerI
 03A3:01B8       L__GetGPS__ScannerI
 3C18:0241       L__GetGSDev__NAVInterface
 3C18:0190       L__GetLocDev__NAVInterface
 42EF:0147       L__GetMessage__RTSMain
 2FC5:1B29       L__GetNextAMark__DataCollect
 2FC5:1AA3       L__GetNextDMark__DataCollect
 384A:0352       L__GetNextFrac__FlagAnal
 3C18:0022       L__GetOmnibearing__NAVInterface
 03A3:17D3       L__GetPilotEvent__ScannerI
 450B:0037       L__GetPosBut__Mouse
 4374:0100       L__GetPrioMask__RTSDevice
 2442:035E       L__GetPrivateProfileString__Ini
 0541:0010       L__GetRecName__CommonTypes
 2A06:1819       L__GetRect__GList
 28B5:0713       L__GetRegionRect__MMMouse
 376A:00B6       L__GetRegionWyk1__PI_ScrUtility
 376A:00C6       L__GetRegionWyk2__PI_ScrUtility
 376A:00D6       L__GetRegionWyk3__PI_ScrUtility
 376A:00A6       L__GetRegionWykG__PI_ScrUtility
 2B9E:0D0E       L__GetRegion__Buttons
 2A06:1608       L__GetRegion__GList
 2E12:0C4D       L__GetRegion__InpLine
 28B5:06C2       L__GetRegion__MMMouse
 2A06:14F4       L__GetSelection__GList
 07A2:0511       L__GetSigFileName__H_Files
 377E:0666       L__GetSlupRect__Slupek
 0554:0600       L__GetTeoEvent__TheodolitRead
 2E12:0388       L__GetText__InpLine
 0554:0700       L__GetTheoI__TheodolitRead
 0554:0654       L__GetTheoR__TheodolitRead
 1E75:00C0       L__GetTimeAndDate__BezPrzerwan_
 1E75:00C0       L__GetTimeAndDate__Czas
 0541:0055       L__GetTranName__CommonTypes
 36C5:0366       L__GetUpdNextEvent__EventsMng
 354F:03B5       L__GetWindow__Graphics
 354F:03B5       L__GetWindow__InternalMonitor__
 218E:0002       L__GetWrBufLength__DigiRS
 0807:0002       L__GlownyEP__PI_Glowny
 0B58:1E3D       L__GoHomeDir__Files
 2C7C:123F       L__Go__Dialog
 3CE6:00A1       L__Godzina__HRD_Clock
 14BB:1178       L__GorszeBoBlisze__SpecConv
 14BB:14AD       L__GorszeBoDalszeOdZera__SpecCo
 14BB:10E9       L__GorszeBoDalszeR__SpecConv
 14BB:1127       L__GorszeBoDalsze__SpecConv
 14BB:142B       L__GorszeBoMniejsze1500__SpecCo
 14BB:1368       L__GorszeBoMniejsze160__SpecCon
 14BB:146C       L__GorszeBoMniejsze2000__SpecCo
 14BB:1327       L__GorszeBoMniejsze300__SpecCon
 14BB:12A5       L__GorszeBoMniejsze400__SpecCon
 14BB:13A9       L__GorszeBoMniejsze5000__SpecCo
 14BB:13EA       L__GorszeBoMniejsze500__SpecCon
 14BB:12E6       L__GorszeBoMniejsze800__SpecCon
 14BB:1264       L__GorszeBoMniejszeM60__SpecCon
 14BB:11C9       L__GorszeBoMniejszePol__SpecCon
 409B:0159       L__GorszeBoMniejsze__Print
 14BB:120A       L__GorszeBoMniejsze__SpecConv
 14BB:1237       L__GorszeBoWieksze__SpecConv
 2A06:128C       L__HandleEvent__GList
 28B5:00DF       L__HideConditionally__MMMouse
 28B5:0BDE       L__HideCursor__BezWyszeregowani
 28B5:0BDE       L__HideCursor__MMMouse
 450B:002B       L__HideCursor__Mouse
 45C1:00D6       L__HighNibble__BitByteOps
 1717:06FC       L__IBMIntHandler__Monitor__Time
 024C:0881       L__ILSDecFch__Tune
 024C:0849       L__ILSIncFch__Tune
 024C:07EE       L__ILSfrqString__Tune
 38B8:014A       L__INCLine__DisResUtilities
 2A06:0A11       L__Idx2Str__GList
 38F1:0A31       L__IleEventow__PiszEventy
 26ED:0242       L__Ile__Obloty
 024C:093F       L__IncADFFch__Tune
 14BB:189B       L__IncRound__SpecConv
 1C12:00BB       L__InfoBeep__GrafUtil
 1C12:0003       L__Info__GrafUtil
 267F:0072       L__Info__MsgBox
 3A3D:04C7       L__IniDataOrbit__H_DAcquizition
 3A3D:04DF       L__IniDataRadial__H_DAcquizitio
 1C35:00FC       L__IniData__H_Odb
 3F15:01C5       L__IniSkale__H_Slupek
 376A:008C       L__IniSkale__PI_ScrUtility
 23B2:082D       L__Inicjacja__GPS_TRIMBLE
 2292:0DCE       L__Inicjacja__GPS_nov
 3D5E:0636       L__InicjujOpisStanuLuku__Marks
 409B:03D2       L__InitA__Print
 409B:0EC8       L__InitAll__Print
 409B:0821       L__InitB__Print
 003B:176C       L__InitC__MANAGER
 1C93:024F       L__InitCont2Filters__FIltr1St
 1C93:0598       L__InitContBCoun__FIltr1St
 1C93:050E       L__InitContB__FIltr1St
 1C93:00A2       L__InitCont__FIltr1St
 384A:02B3       L__InitFlagErr__FlagAnal
 26ED:1A87       L__InitListaUrzadzen__Obloty
 092B:1A20       L__InitLot__H_Oblot
 1C93:0712       L__InitMemFIntContiner__FIltr1S
 1C93:0689       L__InitMemFiltr__FIltr1St
 03A3:17B0       L__InitPilotEventId__ScannerI
 141C:003E       L__InitPomiar__PI_Pomiar
 0ED0:03EF       L__InitPomiar__Pomiar
 3F54:11C0       L__InitPort__DrawEpson
 003B:1782       L__InitS__MANAGER
 0541:0098       L__InitSignalDsc__CommonTypes
 3F15:0246       L__InitSlupek__H_Slupek
 0554:05DD       L__InitTeoEventId__TheodolitRea
 376A:0084       L__Init_ScrUtility__PI_ScrUtili
 3A15:00D2       L__Init__H_results
 102C:1D6D       L__Init__Screen
 3B90:01B0       L__Init__Semafory
 0541:00B7       L__Init_flgTab__CommonTypes
 28B5:0AC3       L__InsertEvent__BezPrzerwanOdMy
 28B5:0AC3       L__InsertEvent__MMMouse
 43DE:0096       L__Insert__Strings
 0816:0D05       L__InspekcjaEP__H_Inspekcja
 26ED:1042       L__InspekcjeNowyWpis__Obloty
 16B7:0256       L__InstEpilogueHnd__Monitor__So
 16B7:0256       L__InstEpilogueHnd__SoftIntHand
 16B7:009A       L__InstPrologueHnd__Monitor__So
 16B7:009A       L__InstPrologueHnd__SoftIntHand
 44D9:0000       L__InstallDynMem__DynMem
 44CD:006A       L__InstallHandler__Devices
 4374:0000       L__InstallHandler__RTSDevice
 165B:03A3       L__InstallHeap__Storage
 42EF:007B       L__InstallInitProc__RTSMain
 003B:1815       L__InstallTermProc__MANAGER
 42EF:0001       L__InstallTermProc__RTSMain
 14BB:0A8D       L__Int1000Str__SpecConv
 14BB:0535       L__Int100StrCalk__SpecConv
 14BB:0411       L__Int100Str__SpecConv
 14BB:025D       L__Int10Str__SpecConv
 14BB:1948       L__Int2Card__SpecConv
 32A2:1F64       L__Int2Real__Wykres
 14BB:165C       L__Int2StrCntr__SpecConv
 14BB:01ED       L__Int2Str__SpecConv
 14BB:078F       L__Int500Str__SpecConv
 440F:01B9       L__IntToString__NumberConversio
 1BF3:0058       L__Intersection__GrafTypes
 354F:0593       L__InvertW__Graphics
 354F:0593       L__InvertW__InternalMonitor__Gr
 3F54:120D       L__IsAborted__DrawEpson
 2C7C:17AC       L__IsBusy__Dialog
 3F54:0322       L__IsDrawn__DrawEpson
 1BF3:014B       L__IsEqual__GrafTypes
 28B5:018A       L__IsHidden__MMMouse
 1BF3:0002       L__IsIntersect__GrafTypes
 3519:0039       L__IsValid__XMSTable
 26ED:0A4B       L__KasujPodkartoteke__Obloty
 26ED:068A       L__Kasuj__Obloty
 1D0C:0AEF       L__Kat2Geo__GeoArithmetic
 17E3:03F9       L__KbdAck__Messages
 17E3:0405       L__KbdDsp__Messages
 2605:05B8       L__KbdScan__ShortCuts
 45DF:0002       L__KeyPressed__Keyboard
 2605:0002       L__KeyPressed__ShortCuts
 4582:00D7       L__KeyPressed__Termbase
 4565:0002       L__KeyPressed__Terminal
 2605:0002       L__KeyPressed__monitor__ShortCu
 2E12:03DC       L__Key__InpLine
 2A06:18E1       L__KillContents__GList
 2E12:07C4       L__KillFocus__InpLine
 2C7C:0E94       L__KlawiszShiftTab__Dialog
 2C7C:0D8A       L__KlawiszSpacji__Dialog
 2C7C:0E12       L__KlawiszTab__Dialog
 2292:014D       L__KopijZnakZTeo__GPS_nov
 26ED:15DB       L__KopiujInspekcje__Obloty
 26ED:13F8       L__KopiujPodkartoteke__Obloty
 0B58:19D4       L__KopiujWszystkiePliki__Files
 07A2:04C2       L__KopiujWszystkiePliki__H_File
 0B58:016F       L__Kopiuj__Files
 102C:0F7E       L__KursorLewoBP__Dialog__Screen
 102C:0BC1       L__KursorLewoButton__Dialog__Sc
 102C:0D49       L__KursorOnOffBP__Dialog__Scree
 102C:0F54       L__KursorPrawoBP__Dialog__Scree
 102C:0BDA       L__KursorPrawoPar__Dialog__Scre
 2560:0389       L__Length__FIO
 43DE:0000       L__Length__Strings
 32A2:1F01       L__LessCard__Wykres
 32A2:1EE5       L__LessInt__Wykres
 2A06:0B6F       L__LiczbaElementow__GList
 450B:0194       L__LightPenOff__Mouse
 450B:0188       L__LightPenOn__Mouse
 1A84:0B20       L__LineS__HiLevGraf
 1A84:1234       L__LineTo__HiLevGraf
 3F54:06FE       L__Line__DrawEpson
 1A84:0AF4       L__Line__HiLevGraf
 0B58:1BE4       L__LoadAResult__Files
 1A84:03A5       L__LoadDIB__HiLevGraf
 0B58:0CB2       L__LoadData__Files
 07A2:0362       L__LoadData__H_Files
 1445:0002       L__LoadData__PI_ArchDate
 36C5:0519       L__LoadDistEvents__EventsMng
 03A3:1725       L__LocationsTogether__ScannerI
 440F:01FE       L__LongIntToString__NumberConve
 3D0D:0002       L__LookupM__Kl_FGenerators
 1EAC:0F88       L__Lookup__Kalibracja
 45C1:00E6       L__LowNibble__BitByteOps
 3AED:0944       L__MakeRaport__H_Print
 354F:000B       L__MaxHor__Graphics
 354F:0014       L__MaxVer__Graphics
 3F54:00E9       L__MaxX__DrawEpson
 3F54:00F8       L__MaxY__DrawEpson
 409B:01C3       L__MaxY__Print
 1C93:06B5       L__MemFiltrInt__FIltr1St
 1C93:0607       L__MemFiltr__FIltr1St
 384A:0513       L__MinPoczKonDis__FlagAnal
 384A:044F       L__MinPoczKonSig__FlagAnal
 2560:0510       L__MkDir__FIO
 3F54:11A6       L__Mnoznik__DrawEpson
 2B9E:07E1       L__MouseHandler__Buttons
 28B5:1031       L__MouseLoop__MMMouse
 3662:008B       L__MoveExtMemBlock__XMS
 1BF3:0100       L__MoveRect__GrafTypes
 1A84:121A       L__MoveTo__HiLevGraf
 14BB:1782       L__Mul__SpecConv
 0237:0029       L__MyErrorHand__ErrorMess
 3F15:0142       L__NapiszSygnaly__H_Slupek
 376A:0077       L__NapiszSygnaly__PI_ScrUtility
 36C5:0252       L__NewConsoleEvent__EventsMng
 03A3:155E       L__NewDataAvailable__ScannerI
 36C5:0037       L__NewEvent__EventsMng
 17E3:010B       L__NewMessage__Messages
 1717:0940       L__NewMetronome__Timer
 36C5:01CF       L__NewPilotEvent__EventsMng
 36C5:014C       L__NewTeoEvent__EventsMng
 1717:0A94       L__NewWatchdog__Timer
 0554:0ECB       L__NicNieRob__TheodolitRead
 2B9E:0B27       L__Nic__Buttons
 2FC5:21D7       L__NilProc__DataCollect
 377E:0695       L__Nil__Slupek
 1A84:10F4       L__NoClip__HiLevGraf
 4473:0032       L__NoSound__Sounds
 377E:065C       L__Nothing__Slupek
 003B:0A58       L__Notify__MANAGER
 003B:0A58       L__Notify__Scheduler__MANAGER
 3DF2:0E6A       L__NoweCzesciOkregu__Polozenie
 0816:0B63       L__NowyOblot__H_Inspekcja
 440F:028D       L__NumToString__NumberConversio
 1C35:0090       L__Oblicz__H_Odb
 0816:0BB2       L__OblotOK__H_Inspekcja
 4244:037E       L__Odn__PrintCntroll
 4244:0232       L__OkP__PrintCntroll
 092B:0466       L__Okrag_A__H_Oblot
 092B:0485       L__Okrag_B__H_Oblot
 1EAC:0E16       L__OmnibearingV__Kalibracja
 0B58:27A8       L__OpenCommSigFName__Files
 0B58:0638       L__OpenFiles__Files
 07A2:0119       L__OpenFiles__H_Files
 0B58:1096       L__OpenSignalFiles__Files
 07A2:03DF       L__OpenSignalFiles__H_Files
 3F54:0670       L__Open__DrawEpson
 2560:0002       L__Open__FIO
 32A2:1330       L__OpisLog__Wykres
 1457:0273       L__OpisNadajnika__H_DataBase
 409B:0CF3       L__Opis__Print
 32A2:0B0C       L__Opis__Wykres
 0E15:07B7       L__Orbit__H_CP_ControlProc
 3F54:03D3       L__Out__DrawEpson
 267F:05C9       L__P0__MsgBox
 267F:05EA       L__P1__MsgBox
 4244:03D5       L__P1__PrintCntroll
 267F:060B       L__P2__MsgBox
 4244:03F6       L__P2__PrintCntroll
 267F:062C       L__P3__MsgBox
 13A7:00C0       L__PWyjscieZProgramuBP__MouseMo
 13A7:014D       L__PageDownBP__MouseMonitor__PI
 13A7:00EF       L__PageUpBP__MouseMonitor__PI_A
 38F1:0D6B       L__PiszNaDrukarce__PiszEventy
 38F1:0B99       L__PiszNaEkranie__PiszEventy
 092B:0542       L__PlayP__H_Oblot
 2EEC:02E6       L__PodajFormat__CocpDsp
 3F54:01C6       L__Point__DrawEpson
 1A84:117A       L__Point__HiLevGraf
 409B:0CBF       L__Point__Print
 31EC:0545       L__PokazKatyLotu__Mapa
 32A2:09B4       L__PokazWykres1__Wykres
 32A2:1B1F       L__PokazWykresNSLog__Wykres
 32A2:14E2       L__PokazWykresNS__Wykres
 32A2:256B       L__PokazWykresZXms__Wykres
 32A2:0758       L__PokazWykres__Wykres
 3A3D:057A       L__PolV__H_DAcquizition
 0ED0:01F6       L__PolaryzacjaBP__Pomiar
 0ED0:0EC2       L__PomiarEP__Pomiar
 092B:082D       L__PomiarP__H_Oblot
 1C35:0145       L__PoprawDane__H_Odb
 092B:0A61       L__PoprawPromienA__H_Oblot
 092B:0A84       L__PoprawPromienB__H_Oblot
 43DE:0188       L__Pos__Strings
 2B9E:0AE2       L__PressRadio__Buttons
 409B:1998       L__PrintScreenProc__Print
 003B:1629       L__PriorityDecrease__MANAGER
 0816:03FA       L__ProbujWstawicOblot__H_Inspek
 092B:04A4       L__Promien_A__H_Oblot
 092B:04C3       L__Promien_B__H_Oblot
 31EC:06B6       L__Promienie__Mapa
 3DF2:1084       L__Promienie__Polozenie
 13A7:011E       L__PrzelaczPomiaryBP__MouseMoni
 0ED0:013E       L__PrzelaczPomiaryBP__Pomiar
 3519:0142       L__PutElem__XMSTable
 2605:003B       L__PutKeyStrokeIntoBuffer__Shor
 2605:003B       L__PutKeyStrokeIntoBuffer__moni
 3662:0011       L__QueryFreeExtMem__XMS
 14BB:0C58       L__RAngle100__SpecConv
 2A06:0E9F       L__RChoose__GList
 2A06:0D8F       L__RScrollDn__GList
 2A06:0C76       L__RScrollUp__GList
 0E15:0329       L__Radial__H_CP_ControlProc
 2C7C:02EB       L__RadioBProc__Dialog
 3BD6:01A8       L__RandomCard__Random
 3BD6:00DE       L__RandomInit__Random
 3BD6:0245       L__RandomInt__Random
 3BD6:026A       L__RandomReal__Random
 3BD6:0385       L__Randomize__Random
 092B:0522       L__RaportKoncowy__H_Oblot
 092B:0502       L__Raport_PROC__H_Oblot
 2605:0104       L__Rd__ShortCuts
 2605:0104       L__Rd__monitor__ShortCuts
 3C4E:00BF       L__ReInitialize__ARINC
 4565:010A       L__ReadAgain__Terminal
 0B58:1729       L__ReadAllSignals__Files
 07A2:046B       L__ReadAllSignals__H_Files
 0B58:2833       L__ReadCommSigFName__Files
 3C4E:051B       L__ReadConfiguration__ARINC
 0B58:0240       L__ReadDef__Files
 2560:0346       L__ReadExt__FIO
 0B58:16EA       L__ReadFlgs__Files
 450B:013E       L__ReadMotionCounters__Mouse
 1DEA:063C       L__ReadOmniber__DGH_utils
 3C4E:079E       L__ReadRXSlot__ARINC
 218E:007D       L__ReadString__DigiRS
 4565:0089       L__ReadString__Terminal
 3C4E:0637       L__ReadTXSlot__ARINC
 1DEA:04A8       L__ReadValue__DGH_utils
 0B58:1685       L__ReadXref__Files
 065E:001A       L__Read_Nic__GPSRead
 065E:002D       L__Read_Nov__GPSRead
 065E:0177       L__Read_Trimble__GPSRead
 2560:0301       L__Read__FIO
 45DF:0033       L__Read__Keyboard
 2605:008B       L__Read__ShortCuts
 4582:0088       L__Read__Termbase
 4565:000E       L__Read__Terminal
 2605:008B       L__Read__monitor__ShortCuts
 092B:0910       L__RealCisnValid__H_Oblot
 21C0:06AC       L__RealToString__RealConversion
 092B:084D       L__RealValid__H_Oblot
 003B:17E6       L__RecoveryTime__MANAGER
 3A3D:034D       L__RedrawMarksReq__H_DAcquiziti
 2FC5:004E       L__RedrawReq__DataCollect
 3A3D:02FE       L__RedrawReq__H_DAcquizition
 2FC5:004E       L__RedrawReq__tablice__DataColl
 2C7C:17EF       L__Redraw__Dialog
 102C:03CA       L__RegionWyk1Button__Dialog__Sc
 102C:037F       L__RegionWyk1Event__Dialog__Scr
 102C:0464       L__RegionWyk2Button__Dialog__Sc
 102C:0419       L__RegionWyk2Event__Dialog__Scr
 102C:04FE       L__RegionWyk3Button__Dialog__Sc
 102C:04B3       L__RegionWyk3Event__Dialog__Scr
 102C:0323       L__RegionWykGButton__Dialog__Sc
 102C:02D8       L__RegionWykGEvent__Dialog__Scr
 28B5:019E       L__RegisterRegion__MMMouse
 3B90:0120       L__Register__Semafory
 003B:1798       L__Release__MANAGER
 165B:0422       L__RemoveHeap__Storage
 003B:188B       L__RemoveTermProc__MANAGER
 2560:0614       L__Rename__FIO
 2FC5:2002       L__ResetDataCollect__DataCollec
 2FC5:1A69       L__ResetMarks_A__DataCollect
 2FC5:1A86       L__ResetMarks_D__DataCollect
 1717:09B7       L__ResetMetronome__Timer
 3662:00B2       L__ResizeExtMemBlock__XMS
 0ED0:0104       L__RestartBP__Pomiar
 3A3D:0092       L__Restart__H_DAcquizition
 3A3D:0092       L__Restart__Monitor__H_DAcquizi
 16B7:0041       L__RestoreEventHandler__SoftInt
 44CD:004D       L__RestoreInterruptVector__Devi
 4374:00FB       L__RestoreInterruptVector__RTSD
 1717:08B3       L__RestoreTimer__Monitor__Timer
 2560:056C       L__RmDir__FIO
 3DF2:0E09       L__RresetCzesciOkregu__Polozeni
 003B:0892       L__SEND__MANAGER
 003B:0892       L__SEND__Scheduler__MANAGER
 03A3:0F36       L__SIMDATA__ScannerI
 003B:137C       L__STARTPROCESS__MANAGER
 2FC5:1867       L__Samp2Dis__DataCollect
 2FC5:1867       L__Samp2Dis__tablice__DataColle
 2FC5:1968       L__Samp2Kat__DataCollect
 2FC5:1968       L__Samp2Kat__tablice__DataColle
 2FC5:0002       L__SampleNr__DataCollect
 2FC5:0002       L__SampleNr__tablice__DataColle
 0B58:1D15       L__SaveAResult__Files
 3A15:0002       L__SaveAnRes__H_results
 0B58:09FD       L__SaveData__Files
 07A2:02BE       L__SaveData__H_Files
 36C5:04AA       L__SaveDistEvents__EventsMng
 44CD:002C       L__SaveInterruptVector__Devices
 4374:00F6       L__SaveInterruptVector__RTSDevi
 1EAC:2A2F       L__SaveSegmentTables__Kalibracj
 092B:1B6F       L__SciezkaDoKataloguOpisu__H_Ob
 102C:35A5       L__ScreenStart__Screen
 2560:026A       L__Seek__FIO
 3D5E:0806       L__SegZakonczony__Marks
 2E12:0B2F       L__SetActive__InpLine
 197C:02BB       L__SetAnalogVal__DGHInterface
 354F:0136       L__SetBank__Graphics
 354F:0136       L__SetBank__InternalMonitor__Gr
 218E:018F       L__SetBaudRate__DigiRS
 197C:0392       L__SetBinaryVal__DGHInterface
 45C1:0018       L__SetBits__BitByteOps
 102C:190A       L__SetButtons__Screen
 024C:0998       L__SetCPFlags__Tune
 2A06:1860       L__SetContents__GList
 450B:005A       L__SetCursorPos__Mouse
 2E12:09E5       L__SetCursor__InpLine
 1E75:021B       L__SetDate__Czas
 44CD:0018       L__SetDeviceStatus__Devices
 4374:00BE       L__SetDeviceStatus__RTSDevice
 3F54:1193       L__SetDir__DrawEpson
 03A3:14C3       L__SetEvalPROC__ScannerI
 450B:0157       L__SetEventHandler__Mouse
 16B7:0002       L__SetEventHandler__SoftIntHand
 3F54:085C       L__SetFont__DrawEpson
 450B:00FA       L__SetGraphicCursor__Mouse
 450B:00D2       L__SetHorizontalLimits__Mouse
 2EEC:058F       L__SetIdleMsg__CocpDsp
 1A84:0AE1       L__SetLineStyle__HiLevGraf
 197C:04A0       L__SetMessage__DGHInterface
 450B:01A0       L__SetMickeysPerPixel__Mouse
 2A06:0002       L__SetNotificationProc__GList
 28B5:02C7       L__SetOnTop__MMMouse
 1A84:0182       L__SetPaletteEntry__HiLevGraf
 28B5:0780       L__SetParent__MMMouse
 1C52:0012       L__SetPressure__AltInterface
 4374:011F       L__SetPrioMask__RTSDevice
 2A06:1754       L__SetSelectionNotf__GList
 2A06:1772       L__SetSelection__GList
 450B:01CE       L__SetSpeedThreshold__Mouse
 450B:0127       L__SetTextCursor__Mouse
 3F54:0849       L__SetTextMode__DrawEpson
 2E12:02C9       L__SetText__InpLine
 1E75:01DA       L__SetTime__Czas
 450B:00E6       L__SetVerticalLimits__Mouse
 354F:0703       L__SetWindow__Graphics
 354F:0703       L__SetWindow__InternalMonitor__
 2EE4:0002       L__Set__FCBS
 3B90:0002       L__Set__Semafory
 3F15:0084       L__ShowCursorDIB__H_Slupek
 376A:0035       L__ShowCursorDIB__PI_ScrUtility
 28B5:0BB2       L__ShowCursor__BezWyszeregowani
 28B5:0BB2       L__ShowCursor__MMMouse
 450B:001F       L__ShowCursor__Mouse
 1A84:0785       L__ShowDIB__HiLevGraf
 17E3:0265       L__ShowFirst__Messages
 3F15:0038       L__ShowScreenDIB__H_Slupek
 376A:0002       L__ShowScreenDIB__PI_ScrUtility
 0B58:246E       L__SigInterpolacja__Files
 03A3:0ACE       L__Sim_Alfa__ScannerI
 03A3:098F       L__Sim_Dis__ScannerI
 3519:0018       L__Size__XMSTable
 102C:0E5D       L__SkalaMinusBP__Dialog__Screen
 102C:0D66       L__SkalaPlusBP__Dialog__Screen
 26ED:0B98       L__SkasujInspekcje__Obloty
 26ED:078A       L__SkasujOblot__Obloty
 2A06:033D       L__SkasujWszystko__GList
 2A06:0387       L__Skasuj__GList
 2A06:1698       L__Sortowana__GList
 4473:0002       L__Sound__Sounds
 0311:0337       L__Sprawdz__PI_Qcheck
 2273:018D       L__Sqr__Math
 0ED0:00F4       L__StartBP__Pomiar
 0E15:09BD       L__StartCPLoop__H_CP_ControlPro
 26ED:171F       L__StartInspection__Obloty
 31EC:0951       L__StartProcess__Mapa
 31EC:0951       L__StartProcess__monitor__Mapa
 1717:0AE2       L__StartProtectedOperation__Tim
 003B:17CC       L__StartTimeSlicing__MANAGER
 3DF2:08FE       L__Start_Polozenie__Polozenie
 3A3D:04F7       L__Start__H_DAcquizition
 1C35:00C3       L__Start__H_Odb
 03A3:1588       L__Start__ScannerI
 0ED0:012E       L__StopBP__Pomiar
 0E15:0A86       L__StopCPLoop__H_CP_ControlProc
 1717:0B56       L__StopProtectedOperation__Time
 3DF2:0DD7       L__Stop_Polozenie__Polozenie
 3A3D:0034       L__Stop__H_DAcquizition
 3A3D:0034       L__Stop__Monitor__H_DAcquizitio
 03A3:1783       L__Stop__ScannerI
 440F:0522       L__StringToCard__NumberConversi
 440F:04BA       L__StringToInt__NumberConversio
 440F:0587       L__StringToLongInt__NumberConve
 440F:05B5       L__StringToNum__NumberConversio
 21C0:0052       L__StringToReal__RealConversion
 14BB:0F4F       L__SubAng360__SpecConv
 14BB:0DA7       L__SubAngle100__SpecConv
 14BB:180D       L__SubDis__SpecConv
 14BB:10B3       L__SubNormal__SpecConv
 14BB:18A9       L__SubWCheck__SpecConv
 14BB:17DA       L__Sub__SpecConv
 0B58:1F1C       L__SubstituteAngle100__Files
 384A:05D7       L__SumaDlugosciSig__FlagAnal
 45C1:00F4       L__Swap__BitByteOps
 26ED:051E       L__SzczegolowyPlikOpisu__Obloty
 1717:092C       L__TInOneSecond__Timer
 021F:009C       L__TerminalProcedure__DOSEntry
 42EF:068A       L__Terminate__RTSMain
 1E75:02AF       L__Terminator__Czas
 36C5:087E       L__Terminator__EventsMng
 2560:08BA       L__Terminator__FIO
 354F:1059       L__Terminator__Graphics
 003B:1973       L__Terminator__MANAGER
 28B5:133C       L__Terminator__MMMouse
 165B:051E       L__Terminator__Storage
 3679:02F4       L__Terminator__XMSService
 0554:01B7       L__TheodolitView__TheodolitRead
 354F:001D       L__Tryb__Graphics
 024C:014C       L__TuneADF__Tune
 024C:061B       L__TuneDMEforILS__Tune
 024C:05D9       L__TuneDMEforVOR__Tune
 024C:0409       L__TuneILS__Tune
 024C:065D       L__TuneVOR__Tune
 1DEA:0432       L__TurnOffADFSig__DGH_utils
 024C:009C       L__TurnOffADF__Tune
 1DEA:0366       L__TurnOffDMESig__DGH_utils
 1DEA:0002       L__TurnOffILSSig__DGH_utils
 1DEA:027A       L__TurnOffVORSig__DGH_utils
 024C:00F4       L__TurnOffVOR_ILS__Tune
 197C:00A0       L__TurnOff__DGHInterface
 1DEA:03E4       L__TurnOnADFSig__DGH_utils
 1DEA:02E8       L__TurnOnDMESig__DGH_utils
 1DEA:016E       L__TurnOnGSSig__DGH_utils
 1DEA:00D0       L__TurnOnLOCSig__DGH_utils
 1DEA:020C       L__TurnOnVORSig__DGH_utils
 197C:00F2       L__TurnOn__DGHInterface
 2C7C:0663       L__TworzDialog__Dialog
 38F1:0A53       L__TworzEventy__PiszEventy
 2A06:0028       L__TworzListe__GList
 4582:0127       L__UnAssignRead__Termbase
 4582:023E       L__UnAssignWrite__Termbase
 16B7:0517       L__UnInstallAllHandlers__Monito
 16B7:03FA       L__UnInstallHandler__Monitor__S
 16B7:03FA       L__UnInstallHandler__SoftIntHan
 44CD:0080       L__UninstallHandler__Devices
 4374:0058       L__UninstallHandler__RTSDevice
 2B9E:0790       L__UniversalKBD__Buttons
 28B5:03E9       L__UnregisterRegion__MMMouse
 3B90:01FC       L__Unregister__Semafory
 3F15:00C2       L__UnverslVal__H_Slupek
 2FC5:2171       L__UpdTab800__DataCollect
 3DF2:0C2C       L__UpdateM__Polozenie
 3A3D:037A       L__UpdateMarksOrbit__H_DAcquizi
 3A3D:03DD       L__UpdateMarksRadial__H_DAcquiz
 376A:006B       L__UpdateSlupki__PI_ScrUtility
 36C5:060A       L__UpdateStrefa__EventsMng
 102C:34A4       L__Update__Screen
 377E:058F       L__Update__Slupek
 4244:0417       L__UstalSkalowanie__PrintCntrol
 2EEC:0002       L__UstawFormat__CocpDsp
 26ED:01EB       L__UstawHomeDir__Obloty
 1C93:0082       L__UstawOkresImpulsowania__FIlt
 2EEC:0315       L__UstawZmienne__CocpDsp
 2C7C:0B28       L__UsunDialog__Dialog
 2A06:04C1       L__UsunListe__GList
 0816:03AB       L__UsunOblotP__H_Inspekcja
 0816:0310       L__UsunOblot__H_Inspekcja
 024C:08FF       L__VORDecFch__Tune
 024C:08B9       L__VORIncFch__Tune
 4244:0248       L__ValidPodz__PrintCntroll
 092B:0562       L__View_PROC__H_Oblot
 003B:0BEF       L__WAITC__MANAGER
 003B:0BEF       L__WAITC__Scheduler__MANAGER
 003B:0AFD       L__WAITS__MANAGER
 003B:0AFD       L__WAITS__Scheduler__MANAGER
 1717:0309       L__WaitBefProtOper__Monitor__Ti
 1717:0309       L__WaitBefProtOper__Timer
 197C:005A       L__WaitForNewData__DGHInterface
 1717:03B8       L__WaitMetronomeBefProtOper__Mo
 1717:03B8       L__WaitMetronomeBefProtOper__Ti
 1717:043F       L__WaitMetronome__Monitor__Time
 1717:043F       L__WaitMetronome__Timer
 1717:0277       L__Wait__Monitor__Timer
 1717:0277       L__Wait__Timer
 267F:0017       L__Warn__MsgBox
 2EEC:0C01       L__WatchDogProcess__CocpDsp
 065E:0309       L__WatchDog__GPSRead
 0554:0DF1       L__WatchDog__TheodolitRead
 3F46:0069       L__WorseBGreater__WorseBecause
 3F46:003E       L__WorseBLessDis__WorseBecause
 3F46:0002       L__WorseBLess__WorseBecause
 1A84:144C       L__Wr2StrXY__HiLevGraf
 1A84:1504       L__Wr2fStrXY__HiLevGraf
 38B8:02AF       L__WrF_TablicaOdci__DisResUtili
 409B:1799       L__WrF_TablicaOdci__Print
 38B8:0170       L__WrFlagsTableWHeading__DisRes
 409B:15A6       L__WrFlagsTableWHeading__Print
 38B8:023C       L__WrFlagsTable__DisResUtilitie
 409B:16BA       L__WrFlagsTable__Print
 409B:0360       L__WrLn__Print
 409B:0390       L__WrPrnLn__Print
 409B:02A2       L__WrPrn__Print
 3F54:1253       L__WrProc__DrawEpson
 38B8:00F4       L__WrSPlus__DisResUtilities
 38B8:00BE       L__WrS__DisResUtilities
 1A84:138A       L__WrStrXY__HiLevGraf
 1A84:12D2       L__WrStr__HiLevGraf
 409B:0232       L__Wr__Print
 3C4E:04B2       L__WriteCardMode__ARINC
 3C4E:03F4       L__WriteKillTime__ARINC
 4565:012C       L__WriteLn__Terminal
 2442:06C6       L__WritePrivateProfileString__I
 218E:00F3       L__WriteString__DigiRS
 4565:013B       L__WriteString__Terminal
 3C4E:0173       L__WriteTXChannel__ARINC
 3C4E:026F       L__WriteTXData__ARINC
 3C4E:01F1       L__WriteTXLabel__ARINC
 3C4E:00FF       L__WriteTXParity__ARINC
 3C4E:032A       L__WriteTXRate__ARINC
 38B8:000A       L__WriteTab__DisResUtilities
 3807:0071       L__WriteTab__H_DisResults
 1E75:0128       L__WriteTime__Czas
 45D5:0002       L__Write__Display
 2560:02BC       L__Write__FIO
 4582:01F1       L__Write__Termbase
 4565:011B       L__Write__Terminal
 197C:0CCB       L__Writer__DGHInterface
 2C7C:002D       L__WstawButton__Dialog
 2A06:08C9       L__WstawDoListy__GList
 2C7C:03EC       L__WstawInpLine__Dialog
 2C7C:0518       L__WstawListe__Dialog
 2C7C:0156       L__WstawRadioButton__Dialog
 2A06:100F       L__Wybor__GList
 376A:0063       L__WykSlup__PI_ScrUtility
 102C:0B48       L__WykrEvent__Dialog__Screen
 377E:0002       L__WykresSlupkowy__Slupek
 26ED:041D       L__WymInspekcjeDlaUrz__Obloty
 0816:06D7       L__WymienPasujaceObloty__H_Insp
 26ED:04E4       L__WymienWszystkiePasujace__Obl
 409B:183C       L__WypiszStrefy__Print
 1C35:00E9       L__Wznow__H_Odb
 3662:0000       L__XmsInstalled__XMS
 14BB:197A       L__ZaokraglicDo500__SpecConv
 13A7:0091       L__ZapamietajBP__MouseMonitor__
 092B:1FF0       L__Zapisz__H_Oblot
 1C35:00D6       L__Zatrzymaj__H_Odb
 26ED:06B2       L__ZmienISkasuj__Obloty
 2A06:0AC4       L__ZmienListe__GList
 0816:0410       L__ZmienOblot__H_Inspekcja
 409B:12D3       L__ZnacznikiOdleglosci__Print
 26ED:0FF8       L__ZnajdzInspekcje__Obloty
 354F:0CF3       L___Wr16StrXY__Graphics
 354F:0CF3       L___Wr16StrXY__InternalMonitor_
 354F:0DC9       L___Wr2StrXY__Graphics
 354F:0DC9       L___Wr2StrXY__InternalMonitor__
 354F:0F13       L___Wr2fStrXY__Graphics
 354F:0F13       L___Wr2fStrXY__InternalMonitor_
 354F:08E1       L___WrStrXY__Graphics
 354F:08E1       L___WrStrXY__InternalMonitor__G
 0B58:1F61       L__addAngle100__Files
 0B58:203F       L__addNormal__Files
 4622:04CA       L__arctan__MathLib0
 16B7:0067       L__checkBreak__SoftIntHandlingM
 4622:03A5       L__cos__MathLib0
 14BB:14EA       L__entierCheck__SpecConv
 4622:05BE       L__entier__MathLib0
 14BB:15A6       L__entier__SpecConv
 4622:0098       L__exp__MathLib0
 2292:109C       L__gpzdaOff__GPS_nov
 2A06:0B8E       L__kbHandler__GList
 4622:0209       L__ln__MathLib0
 409B:01DE       L__log__Print
 021F:0002       L__onEntryHandler__DOSEntry
 021F:004F       L__onExitHandler__DOSEntry
 4622:05AC       L__real__MathLib0
 4622:0251       L__sin__MathLib0
 182E:1383       L__sprintf2__StdIO
 182E:11F3       L__sprintf3__StdIO
 182E:0D80       L__sprintf4__StdIO
 182E:0F81       L__sprintf5__StdIO
 182E:037B       L__sprintf__StdIO
 4622:002A       L__sqrt__MathLib0
 0B58:1FCB       L__subNormal__Files
 4AA3:0062       L_day__GPS_TRIMBLE
 4AA3:0049       L_epe__GPS_TRIMBLE
 4AA3:0066       L_hour__GPS_TRIMBLE
 4AA3:0068       L_min__GPS_TRIMBLE
 4AA3:0060       L_month__GPS_TRIMBLE
 4AA3:006A       L_sec__GPS_TRIMBLE
 4AA3:0064       L_year__GPS_TRIMBLE
 475F:0016       LastCreated__MANAGER
 490D:0027       LastDTidx__Screen
 4AAB:507D       LastDir__Ini
 490D:002E       LastEventIDX__Screen
 475F:021C       LastMask__MANAGER
 604A:0784       LastPosition__DrawEpson
 4936:000A       LastPosition__HiLevGraf
 50A5:0004       LastX__MMMouse
 50A5:0006       LastY__MMMouse
 47AB:0013       Last_Diffmode__GPSRead
 47AB:001C       Last_EPE__GPSRead
 47AB:0003       Last_Gdop__GPSRead
 47AB:0005       Last_NumberOfSattelites__GPSRea
 47AB:0007       Last_polGeo__GPSRead
 47AB:0014       Last_tog__GPSRead
 48A7:0015       Licznik__H_Files
 50E8:0000       ListaDlg__Dialog
 48AB:0011       ListaLokalizacjiBAK__H_Inspekcj
 48AB:000D       ListaLokalizacji__H_Inspekcja
 48AB:0009       ListaOblotowBAK__H_Inspekcja
 48AB:0005       ListaOblotow__H_Inspekcja
 50E6:0004       Lista__GList
 48AD:0033       Lista__H_Oblot
 438A:006F       Listen__RTSPriority
 4956:0910       LocDev_delay__Kalibracja
 4956:0920       LocPrcMod_delay__Kalibracja
 42DF:0032       LongIntegerOvf__RTSError
 475F:000E       LongestProcess__MANAGER
 42EF:0683       M2Halt__RTSMain
 4932:0004       MDispl__Messages
 4932:0000       MList__Messages
 50A5:03F5       MSemafor__MMMouse
 6022:011F       MarkerShapes__Polozenie
 604A:0786       Masks__DrawEpson
 475F:000A       MaxNumOfReady__MANAGER
 475F:0126       MaxRecTime__MANAGER
 475F:000C       MaxRunTime__MANAGER
 6022:0008       MaxVal__Polozenie
 4932:0008       MessageSound__Messages
 4956:0960       MkrAgc_delay__Kalibracja
 604A:07A4       MnX__DrawEpson
 604A:07A6       MnY__DrawEpson
 4AAB:50E1       Modified__Ini
 438A:0000       MonEntry__RTSPriority
 438A:0043       MonExit__RTSPriority
 50A5:0058       MonitoCheck__BezPrzerwanOdMyszy
 46D2:0036       MonitorExitProc__RTSMonExit
 50A5:005A       MouseEvent__BezPrzerwanOdMyszy_
 6022:011B       NCO__Polozenie
 42D3:0000       NMIServer
 507F:00D5       NUrzadzDlaDopasuj__Obloty
 0ED0:0B92       N__AlfaRefInfo__PomiarEP__Pomia
 2292:05E2       N__An_Frame_DOPA__GetFrame__GPS
 2292:0A2D       N__An_Frame_GPGGA__GetFrame__GP
 2292:0B25       N__An_Frame_GPVTG__GetFrame__GP
 2292:0C2E       N__An_Frame_GPZDA__GetFrame__GP
 0554:0107       N__Angle360__TheodolitView__The
 092B:1316       N__AssignButt__InitLot__H_Oblot
 0554:086F       N__AssignRes__Analizer__Theodol
 32A2:0B8B       N__AutoFormat__OpisLog__Wykres
 182E:031F       N__BuildNumber__sprintf__StdIO
 28B5:08F0       N__Button2Ev__GetEvent__BezPrze
 197C:06B0       N__CHKSRight__Reader__Writer__D
 3AA1:011E       N__ClearAllCont__DoAnaliza__Ana
 024C:052E       N__ConvertFrqTOControlWord__Tun
 2292:0193       N__ConvertHexChar__ReadGPS__Get
 2292:0929       N__ConvertStrToWspGeo__GetWspGe
 0554:097D       N__CountCrc__Analizer__Theodoli
 31EC:0260       N__CountMaxDist__resolveSituati
 1717:057E       N__Count__IBMIntHandler__Monito
 102C:0FD7       N__CurrCursorMode__RuszKursor__
 102C:1236       N__CurrDistance__OpisDla__InitW
 0ED0:0C3F       N__DataLosInfo__PomiarEP__Pomia
 2B9E:043F       N__Dec__DrawInter__Buttons
 102C:1B5E       N__Define__InitSlupki__Screen
 2292:0426       N__DekomozycjaRamki__GetFrame__
 0ED0:0BD2       N__DeltaRefInfo__PomiarEP__Pomi
 0ED0:0B16       N__DisposeButtons__Done__Pomiar
 102C:3664       N__DisposeButtons__Done__Screen
 3AA1:014C       N__DoAnaliza__Analiza__H_Count
 0ED0:0B84       N__Done__PomiarEP__Pomiar
 102C:20D1       N__DrawEvent__ShowMarks__Update
 26ED:0DD3       N__ExistDIR__FreeSlot__Obloty
 2C7C:0F3F       N__Expand__Aktywizuj__Dialog
 092B:1994       N__FillData__InitLot__H_Oblot
 377E:0317       N__FillR__Odswiez__Update__Slup
 03A3:1450       N__FindFree__SetEvalPROC__Scann
 03A3:13C4       N__FindIt__SetEvalPROC__Scanner
 3DF2:0120       N__FlipX__InitMarkers__Polozeni
 3DF2:005A       N__FlipY__InitMarkers__Polozeni
 2292:0538       N__GetCardinal__GetFrame__GPS_n
 1457:04C9       N__GetCardinal__LoadProgramPar_
 2605:056C       N__GetChar__KbdScan__ShortCuts
 3AA1:008A       N__GetEvent__DoAnaliza__Analiza
 0ED0:0767       N__GetEvent__PomiarEP__Pomiar
 31EC:0151       N__GetGPS__resolveSituation__Ma
 2292:058D       N__GetInteger__GetFrame__GPS_no
 0554:09A8       N__GetNum__Analizer__TheodolitR
 182E:0022       N__GetNum__sprintf__StdIO
 2292:04F0       N__GetReal__GetFrame__GPS_nov
 1457:012C       N__GetStr__OpisNadajnika__H_Dat
 03A3:06AF       N__GetTeo__GetAndCountTEO__Scan
 2292:09E3       N__GetWspGeo__An_Frame_GPGGA__G
 32A2:1FA0       N__GetX__PokazWykresZXms__Wykre
 32A2:1FC9       N__GetY__PokazWykresZXms__Wykre
 197C:065C       N__HexDigit__CHKSRight__Reader_
 0ED0:08A5       N__InitButtony__PomiarEP__Pomia
 092B:0AD2       N__InitDefault__InitLot__H_Oblo
 3A15:0099       N__Init_A_OpisOdcinka__Init__H_
 182E:00C8       N__IntConv__sprintf__StdIO
 3AED:0255       N__IntFrac__WrSignalDesc__OpisP
 3AA1:034D       N__Interpolacja__Analiza__H_Cou
 2292:06A2       N__Isolate__ConvertStrToWspGeo_
 23B2:01D7       N__Isolate__ReadG__GetFrame__GP
 26ED:09B5       N__KasujPlik__KasujPodkartoteke
 102C:35AE       N__KasujSlupki__Done__Screen
 2B9E:0A36       N__KillButton__DisposeButton__B
 2605:0691       N__Kill__DeleteShortCut__ShortC
 377E:02EE       N__Kolor__Update__Slupek
 26ED:11EB       N__KopiujPlik__KopiujPodkartote
 3DF2:0A88       N__LL__DrawNCO__Polozenie
 092B:0E7C       N__LecianePromienie__InitLot__H
 32A2:1024       N__LineH__OpisLog__Wykres
 32A2:0C63       N__LineV__OpisLog__Wykres
 1EAC:17D7       N__LoadChannel__LoadSegmentTabl
 1EAC:15EC       N__LoadReal__LoadSegmentTables_
 1EAC:1719       N__LoadSegment__LoadChannel__Lo
 1EAC:1673       N__LoadTable__LoadSegmentTables
 1EAC:14D4       N__LoadValue__LoadSegmentTables
 1EAC:09FA       N__Lookup__OmnibearingV__Kalibr
 092B:1256       N__Make2__AssignButt__InitLot__
 102C:2CA3       N__MarkDraw__WskazWykresy__Upda
 31EC:0696       N__Min__Promienie__Mapa
 102C:2D80       N__NapiszGPSFlg__NapiszGPS__Upd
 102C:2DE6       N__NapiszGPS__UpdateNapisy__Upd
 102C:30F6       N__NapiszTEO__UpdateNapisy__Upd
 0ED0:06EF       N__NastepnyStan__GetEvent__Pomi
 03A3:0E64       N__OdlegWgPredk__SIMDATA__Scann
 377E:036C       N__Odswiez__Update__Slupek
 1A84:030F       N__OpenF__LoadDIB__HiLevGraf
 102C:13D2       N__OpisDla__InitWykr__Dialog__S
 092B:1908       N__Or__FillData__InitLot__H_Obl
 0E15:05DE       N__OrbitDirection__Orbit__H_CP_
 23B2:0509       N__PodstawWyniki__GetFrame__GPS
 0ED0:05EF       N__PoprawnieUstawButtony__Pomia
 2EEC:077A       N__PozWskazowki__SetLOC_G_SCP__
 092B:1859       N__Pr__FillData__InitLot__H_Obl
 092B:1D5F       N__ProcIdentifier__Zapisz__H_Ob
 0ED0:0C88       N__PrologAnalyse__PomiarEP__Pom
 0E15:0149       N__RadialDirection__Radial__H_C
 0554:0915       N__Rd__Analizer__TheodolitRead
 07A2:0321       N__Rd__LoadData__H_Files
 03A3:0DD2       N__ReadALT__SIMDATA__ScannerI
 1DEA:0480       N__ReadAnalog__ReadValue__DGH_u
 03A3:0C76       N__ReadDME__SIMDATA__ScannerI
 23B2:006A       N__ReadEOL__GetFrame__GPS_TRIMB
 23B2:00C9       N__ReadGPS__GetFrame__GPS_TRIMB
 2292:0200       N__ReadGPS__GetFrame__GPS_nov
 23B2:0306       N__ReadG__GetFrame__GPS_TRIMBLE
 23B2:0021       N__ReadPacketHead__GetFrame__GP
 1C35:000A       N__ReadRec__Oblicz__H_Odb
 197C:07A4       N__Reader__Writer__DGHInterface
 102C:0BF3       N__RedrawRqs__Xchg__Dialog__Scr
 2B9E:0052       N__Remove__RemoveToKill__MONITO
 2605:01A0       N__Remove__RemoveToKill__monito
 3DF2:0226       N__Rot90__InitMarkers__Polozeni
 3DF2:0EEE       N__Rysuj__Promienie__Polozenie
 1EAC:243E       N__SaveChannel__SaveSegmentTabl
 092B:1112       N__SaveDefault__InitLot__H_Oblo
 1EAC:2293       N__SaveReal__SaveSegmentTables_
 1EAC:23A0       N__SaveSegment__SaveChannel__Sa
 1EAC:230E       N__SaveTable__SaveSegmentTables
 1EAC:219B       N__SaveValue__SaveSegmentTables
 0ED0:015F       N__Sek2__PolaryzacjaBP__Pomiar
 2EEC:05AF       N__SendMsg__ControlLoop__CocpDs
 0816:0C5B       N__SetDefInsp__InspekcjaEP__H_I
 2EEC:0823       N__SetLOC_G_SCP__ControlLoop__C
 102C:1AFD       N__ShowCurrDIB__InitSlupki__Scr
 102C:22B6       N__ShowMarks__UpdateWykr__Updat
 2FC5:034B       N__ShrinkX__Tablice800__tablice
 2FC5:0219       N__Shrink__Tablice800__tablice_
 3D5E:010A       N__Side__AngAddSample__Marks
 3D5E:0423       N__Side__DisAddSample__Marks
 32A2:17B3       N__SkalX__PokazWykresNSLog__Wyk
 32A2:222D       N__SkalX__PokazWykresZXms__Wykr
 32A2:062B       N__SkalX__PokazWykres__Wykres
 32A2:0101       N__SkalY__Draw__Wykres
 32A2:0853       N__SkalY__PokazWykres1__Wykres
 32A2:1546       N__SkalY__PokazWykresNSLog__Wyk
 32A2:1FF2       N__SkalY__PokazWykresZXms__Wykr
 32A2:052F       N__SkalY__PokazWykres__Wykres
 377E:0229       N__Skala__Update__Slupek
 1EAC:143A       N__Status__Error__Kalibracja
 182E:023F       N__StripSpaces__sprintf__StdIO
 0311:00EE       N__Tlo__Sprawdz__PI_Qcheck
 2442:018F       N__ToEOL__LookForEntry__Ini
 024C:0303       N__TuneGS__TuneILS__Tune
 03A3:0C27       N__TurnDGH_ON__SIMDATA__Scanner
 0B58:1965       N__TworzK__KopiujWszystkiePliki
 23B2:03CB       N__TypGPS__GetFrame__GPS_TRIMBL
 2FC5:20FA       N__UpdateAlfaMarks__UpdTab800__
 2FC5:2092       N__UpdateDistMarks__UpdTab800__
 2FC5:0152       N__UpdateNR__Tablice800__tablic
 102C:3357       N__UpdateNapisy__Update__Screen
 102C:2485       N__UpdateWykr__Update__Screen
 384A:0010       N__UsunNajmniejszy__FlagErr_Ana
 2C7C:0A79       N__UsunPola__UsunDialog__Dialog
 2A06:02FB       N__UsunStr__SkasujWszystko__GLi
 0311:01C0       N__WrInt__Sprawdz__PI_Qcheck
 0311:023B       N__WrPrc__Sprawdz__PI_Qcheck
 3AED:0317       N__WrSignalDesc__OpisPomiaru__H
 2A06:107D       N__WrStr__Draw__GList
 38F1:0AA6       N__WrStr__PiszNaEkranie__PiszEv
 0311:0157       N__WrStr__Sprawdz__PI_Qcheck
 3807:01C9       N__WriteMod__DispResults__H_Dis
 102C:1F5F       N__WriteText__ShowMarks__Update
 102C:2D08       N__WskazWykresy__Update__Screen
 23B2:016D       N__WspGeoPoprawne__ReadG__GetFr
 2292:0B90       N__Wydziel__An_Frame_GPZDA__Get
 23B2:043F       N__Wydziel__GetFrame__GPS_TRIMB
 3DF2:0959       N__XY__LL__DrawNCO__Polozenie
 07A2:01BB       N__ZapiszPolozenie__SaveData__H
 092B:1DC7       N__Zaznacz__Zapisz__H_Oblot
 38F1:038B       N__Znacznik__Decode__PiszEventy
 102C:2201       N__ZwKrokOpisuOsi__ShowMarks__U
 0E15:0586       N__checkDir__OrbitDirection__Or
 0E15:009B       N__checkDir__RadialDirection__R
 21C0:04DF       N__convDigit__RealToString__Rea
 21C0:0572       N__convertnumber__RealToString_
 21C0:05EA       N__exp10__RealToString__RealCon
 3D5E:0050       N__findidx__AngAddSample__Marks
 3D5E:037F       N__findidx__DisAddSample__Marks
 3D5E:0670       N__findidx__SegZakonczony__Mark
 2EEC:090E       N__pozycjaStrzalki__ControlLoop
 0E15:0559       N__succ__OrbitDirection__Orbit_
 0E15:006E       N__succ__RadialDirection__Radia
 2292:03B1       N__szukaniePola__GetFrame__GPS_
 48B1:013F       Nadajnik1__CommonData
 48B1:0140       Nadajnik2__CommonData
 4926:0000       NadajnikVHF__H_DataBase
 48C7:00B0       NamesAlfa__Files
 48C7:0008       NamesAn__Files
 48C7:00E8       NamesComm__Files
 48C7:0040       NamesDist__Files
 48A7:0004       NamesSig__H_Files
 4903:006E       NapisB_01__Pomiar
 6022:0020       Narysowany__Polozenie
 48B1:0052       NazwaOblotu__CommonData
 507F:0000       NazwaPlikuIni__Obloty
 48B1:007B       NazwaPlikuOpisu__CommonData
 507F:015B       NazwaPlikuZOpisem__Obloty
 6006:0064       NazwaPliku__H_Print
 48B1:0000       NazwaUrzadz1__CommonData
 48B1:0029       NazwaUrzadz2__CommonData
 4396:0000       NewProcess__RTSCoroutine
 490D:002D       NextRedraw__Screen
 47A5:0053       Nie_mozna_uruchomic_kanalu_Teod
 475F:0008       NuOfErrorProc__MANAGER
 475F:0120       NuOfReady__MANAGER
 507C:000B       NumEl__monitor__ShortCuts
 475F:001A       NumberOfProc__MANAGER
 492C:0000       OCCUPED__Storage
 47AB:0000       ObecnyStan__GPSRead
 60D7:0007       OdnB__PrintCntroll
 48B1:013D       OdnDlaPomBledu__CommonData
 48B1:013E       OdnDlaPomOdl__CommonData
 494D:0008       OdniesienieMtx__GeoArithmetic
 60D7:0006       Odniesienie__PrintCntroll
 490D:007D       OileKursor__Dialog__Screen
 50A5:005E       OldButtons__BezPrzerwanOdMyszy_
 4956:0968       OmnibearingProgi__Kalibracja
 4956:0948       Omnibearing_delay__Kalibracja
 48AD:001B       OrbitaL__H_Oblot
 48B1:0144       Orbita__CommonData
 48AB:0015       OstatniOblot__H_Inspekcja
 4934:0014       Ostrzezenie_ze_za_dlugo__DGHInt
 46D2:0002       PSPAddress__RTSMain
 507D:0006       P_A__MsgBox
 4367:004D       ParCopy__RTSLanguage
 4956:0AF8       Par__Kalibracja
 4936:0018       Path__HiLevGraf
 4930:000C       PeriodCount__Monitor__Timer
 4930:000A       Period__Monitor__Timer
 4930:000E       PeriodicProcedure__Monitor__Tim
 5FEC:0000       PoczatekStrony__PiszEventy
 5F0C:0052       PokazywacPolozenie__Mapa
 48A7:0013       PolFile__H_Files
 60C5:0004       PolozenieNapisu__Print
 47A5:0000       PolozenieTeodolitu__TheodolitRe
 4781:0000       PomiarANieArchiwum__PI_PA
 48AD:002F       Pomiar__H_Oblot
 48B1:0146       Predkosc__CommonData
 490D:0032       Predrawmarksreq__Screen
 490D:0036       Predrawreq__Screen
 60C5:000A       PrevIdx__Print
 604A:0796       PrevPage__DrawEpson
 50A5:0054       PrevReg__MMMouse
 604A:0000       PrnPort__DrawEpson
 60C5:0000       PrnX__Print
 60C5:0002       PrnY__Print
 4903:0000       ProcPom__Pomiar
 48A9:0000       Procedura__H_CommonTypes
 6022:011A       ProcesAktywny__Polozenie
 48AD:001F       PromienL__H_Oblot
 48B1:0142       Promien__CommonData
 6022:0006       Promien__Polozenie
 4799:0058       RUN__ScannerI
 42DF:003C       RangeError__RTSError
 48AD:002B       Raport__H_Oblot
 475F:0004       ReadyFirst__MANAGER
 475F:0118       ReadyLast__MANAGER
 43DC:0000       RealError__RTSRealError
 6022:0112       Rect__Polozenie
 48AB:0004       RedrawScr__H_Inspekcja
 48AD:003B       RedrawScr__H_Oblot
 4799:000A       RefAlfa__ScannerI
 4799:0022       RefDis__ScannerI
 490D:0047       RegionWyk1Created__Screen
 490D:0043       RegionWyk1__Screen
 490D:004C       RegionWyk2Created__Screen
 490D:0048       RegionWyk2__Screen
 490D:0051       RegionWyk3Created__Screen
 490D:004D       RegionWyk3__Screen
 490D:0042       RegionWykGCreated__Screen
 490D:003E       RegionWykG__Screen
 490D:0052       RegionWykresow__Screen
 50A5:0000       Regiony__MMMouse
 604A:07A3       Rotation__DrawEpson
 48E9:0195       Running__H_CP_ControlProc
 490D:006E       RysSytMaxDis__Dialog__Screen
 5F0C:0053       RysSytMaxDis__Mapa
 4797:0000       ST__PI_Qcheck
 17E3:0058       S__ACKMess__Messages
 003B:0002       S__ASSERT__MANAGER
 003B:11B5       S__ActivateProcess__Scheduler__
 2C7C:0FCA       S__Aktywizuj__Dialog
 2442:0F29       S__AllocateBuffer__Ini
 0554:0A73       S__Analizer__TheodolitRead
 0B58:1E70       S__AssignName__Files
 3CE6:0002       S__BCD__HRD_Clock
 17E3:0382       S__Beep__Messages
 3679:03C4       S__Blad__XMSService
 1717:0C05       S__BreakKey__Timer
 2A06:0FE8       S__CP__GList
 003B:18F5       S__CallTerminatingProcedures__M
 14BB:0163       S__CheckCNil__SpecConv
 14BB:009C       S__CheckINil__SpecConv
 3CE6:003A       S__CheckUpdateCycle__HRD_Clock
 03A3:1827       S__Chksimul__ScannerI
 2C7C:15B1       S__ChwilowoZablokujDialog__Dial
 0E15:04FD       S__ClearAngVelContiner__H_CP_Co
 0E15:0012       S__ClearLinVelContiner__H_CP_Co
 003B:04D7       S__ClearQueue__MANAGER
 3A3D:0002       S__CommReq__Monitor__H_DAcquizi
 3F54:0942       S__Conv2PL__DrawEpson
 2EE4:001A       S__CtrlBreakProc__FCBS
 2C7C:1185       S__CzyMoznaSkonczyc__Dialog
 38F1:0786       S__Decode__PiszEventy
 28B5:0002       S__DefineStdCursor__MMMouse
 13A7:042C       S__DisposeButtons__MouseMonitor
 102C:1876       S__DisposeKursor__Dialog__Scree
 03A3:0104       S__DistR2C__ScannerI
 1D0C:006A       S__DodajPolozenieGeo__GeoArithm
 3F54:0ABD       S__DrawChar0__DrawEpson
 3F54:0E1D       S__DrawChar90__DrawEpson
 28B5:0C8E       S__DrawCursor__BezWyszeregowani
 2B9E:047D       S__DrawInter__Buttons
 3DF2:044A       S__DrawMarker__Polozenie
 3DF2:0BA8       S__DrawNCO__Polozenie
 3F54:0DA0       S__DrawText0__DrawEpson
 3F54:10A7       S__DrawText90__DrawEpson
 2A06:1181       S__Draw__GList
 2E12:0827       S__Draw__InpLine
 3DF2:0855       S__EraseMarker__Polozenie
 1EAC:1489       S__Error__Kalibracja
 3B90:02B0       S__ExceptionHandler__Semafory
 2442:0BE2       S__Expand__Ini
 31EC:09DC       S__FillPromieie__Mapa
 06CA:08D1       S__FillSignalTable__DGHIni
 2B9E:0205       S__FindAMark__MONITOR__Buttons
 2605:0424       S__FindAMark__monitor__ShortCut
 354F:1064       S__FindROMFontAddr__Graphics
 2605:0382       S__Find__monitor__ShortCuts
 2442:001E       S__FormSectionString__Ini
 3679:01F3       S__Free__XMSService
 165B:04FF       S__GetChain__Storage
 1A84:15BC       S__GetDir__HiLevGraf
 28B5:096B       S__GetEvent__BezPrzerwanOdMyszy
 3A3D:00C1       S__GetEvent__Monitor__H_DAcquiz
 13A7:036D       S__GetEvent__MouseMonitor__PI_A
 354F:09BB       S__GetFontPtr__InternalMonitor_
 3CE6:006D       S__GetGodzina__HRD_Clock
 165B:04CB       S__GetStrategia__Storage
 354F:008B       S__HugeMemCpy__Graphics
 3C4E:0002       S__INByte__ARINC
 003B:05E2       S__INSERT__MANAGER
 26ED:0266       S__IleInspekcji__Obloty
 3A3D:0440       S__IniData__H_DAcquizition
 13A7:017C       S__InitButtony__MouseMonitor__P
 102C:1983       S__InitButtony__Screen
 03A3:0B61       S__InitDataSimul__ScannerI
 102C:17F1       S__InitDialog__Dialog__Screen
 36C5:04F4       S__InitEvents__EventsMng
 2560:097A       S__InitFiles__FIO
 102C:1D4C       S__InitKrokOpisuOsi__Screen
 07A2:053B       S__InitLocals__H_Files
 3DF2:032E       S__InitMarkers__Polozenie
 102C:1B9A       S__InitSlupki__Screen
 2FC5:15DF       S__InitTab__tablice__DataCollec
 06CA:03D8       S__InitTableOfNames__DGHIni
 3B90:03BE       S__InitTbl__Semafory
 102C:1749       S__InitWykr__Dialog__Screen
 0B58:2852       S__Init__Files
 3F15:00EF       S__Init__H_Slupek
 28B5:00D9       S__Init__MMMouse
 267F:064D       S__Init__MsgBox
 0311:0884       S__Init__PI_Qcheck
 37ED:0002       S__Init__ScreenCTypes
 003B:002D       S__InsertReady__MANAGER
 2B9E:0002       S__Insert__MONITOR__Buttons
 1717:0002       S__Insert__Monitor__Timer
 2605:013F       S__Insert__monitor__ShortCuts
 003B:1A6A       S__InstallTerminator__MANAGER
 26ED:0B21       S__Kasuj_DelDir__Obloty
 2292:0170       S__KopZnakDoKanaluMonitora__GPS
 26ED:1564       S__KopiujKartoteke__Obloty
 102C:18A7       S__KursoffOff__Dialog__Screen
 102C:18CD       S__KursoffOn__Dialog__Screen
 354F:108B       S__LoadPLFonts__Graphics
 1457:0538       S__LoadProgramPar__H_DataBase
 1EAC:1E6D       S__LoadSegmentTables__Kalibracj
 32A2:009B       S__Log10__Wykres
 32A2:1DFD       S__LogPos__Wykres
 2442:020F       S__LookForEntry__Ini
 2442:010A       S__LookForSection__Ini
 3AED:0148       S__MakeHeader__H_Print
 31EC:0419       S__MakeMAP__Mapa
 3F54:0107       S__Map__DrawEpson
 3519:0245       S__Map__XMSTable
 2B9E:0318       S__MarkBut__MONITOR__Buttons
 218E:004E       S__MarkError__DigiRS
 1A84:0007       S__Max__HiLevGraf
 1D0C:0601       S__Mile__GeoArithmetic
 1A84:0027       S__Min__HiLevGraf
 092B:0AA7       S__NadajnikCH__H_Oblot
 3BD6:002A       S__Next__Random
 1A84:0741       S__Norm__HiLevGraf
 3C4E:0062       S__OUTByte__ARINC
 17E3:0358       S__OUTMessage__Messages
 1D0C:01D4       S__OdejmijPolozenieGeo__GeoArit
 1D0C:04C0       S__Odl2Geo__GeoArithmetic
 1D0C:012E       S__Odwr__GeoArithmetic
 3AED:03F3       S__OpisPomiaru__H_Print
 409B:0886       S__PointA__Print
 409B:0ADD       S__PointB__Print
 102C:054D       S__PokazWgKursora__Dialog__Scre
 0816:02A6       S__Pokaz__H_Inspekcja
 092B:05DF       S__Pokaz__H_Oblot
 092B:09C5       S__PoprawPromien__H_Oblot
 3AED:04C3       S__Print__H_Print
 3AED:0129       S__PromienANieOrbita__H_Print
 003B:07D2       S__REMOVE__MANAGER
 1D0C:03A9       S__Rad__GeoArithmetic
 06CA:0CDC       S__ReadDGHIniFile__DGHIni
 092B:0582       S__RealVal__H_Oblot
 102C:01D5       S__RectWykresy__Screen
 31EC:008A       S__RedefineMaxDist__Mapa
 28B5:0B5F       S__RedrawAt__BezWyszeregowania_
 2A06:1046       S__Redraw__GList
 0B58:1902       S__RemoveBSl__Files
 28B5:0C0A       S__RemoveCursor__BezWyszeregowa
 003B:0236       S__RemoveReady__MANAGER
 2B9E:01B5       S__RemoveToKill__MONITOR__Butto
 2605:032C       S__RemoveToKill__monitor__Short
 1717:0159       S__Remove__Monitor__Timer
 102C:10CD       S__RuszKursor__Dialog__Screen
 003B:102A       S__STOPPROCESS__Scheduler__MANA
 024C:049F       S__SendDMECntrlWrd__Tune
 024C:0007       S__Send__Tune
 165B:04E7       S__SetChain__Storage
 1717:07F7       S__SetCount__Monitor__Timer
 1EAC:09B6       S__SetError__ErrorHand__Kalibra
 1A84:0230       S__SetPalette__HiLevGraf
 2A06:1790       S__SetPositions__GList
 2A06:16B4       S__SetSelectionInt__GList
 28B5:0639       S__SetShape__MMMouse
 165B:04B3       S__SetStrategia__Storage
 1E75:00E8       S__SetTimeAndDate__BezPrzerwan_
 102C:0CC9       S__ShowBarCursor__Dialog__Scree
 1457:0114       S__SignalError__H_DataBase
 26ED:0738       S__SkasujKartoteke__Obloty
 1D0C:02F0       S__SredniPolozenieGeo__GeoArith
 07A2:0074       S__StartFiles__H_Files
 2FC5:1BBB       S__Start__DataCollect
 1A84:0047       S__StdPalette__HiLevGraf
 003B:1144       S__StopAError__Scheduler__MANAG
 31EC:0922       S__Stop__monitor__Mapa
 1A84:071E       S__Swap__HiLevGraf
 28B5:0623       S__Swap__MMMouse
 2FC5:0422       S__Tablice800__tablice__DataCol
 092B:04E2       S__TestUP_PROC__H_Oblot
 024C:0697       S__TuneVOR_ILS__Tune
 102C:0259       S__UniversalEvent__Dialog__Scre
 2B9E:03BB       S__Unmark__MONITOR__Buttons
 2605:04D2       S__Unmark__monitor__ShortCuts
 102C:0FA8       S__UpdateMap__Dialog__Screen
 4244:01FC       S__UstawLiczbe__PrintCntroll
 4244:01BC       S__UstawStrony__PrintCntroll
 3F54:00A5       S__UstawTrybTekstowy__DrawEpson
 092B:1CA8       S__Wlacz_Wylacz__H_Oblot
 28B5:066E       S__WrBit__MMMouse
 28B5:0651       S__WrIdx__MMMouse
 38F1:1163       S__WrLn__PiszEventy
 38F1:117D       S__WrP__PiszEventy
 38F1:10B0       S__WrStrLn__PiszEventy
 38F1:10DC       S__WrStr__PiszEventy
 3679:0412       S__WrWarning__XMSService
 1E75:003B       S__Write__BezPrzerwan__Czas
 26ED:02DC       S__WymienWszystkie__Obloty
 102C:0C7D       S__Xchg__Dialog__Screen
 092B:0817       S__ZakonczDlg__H_Oblot
 26ED:0EB9       S__ZnajdzNumInspekcji__Obloty
 38F1:0D48       S__min__PiszEventy
 31EC:037D       S__resolveSituation__Mapa
 0554:0852       S__signalError__TheodolitRead
 507C:0005       SavedChar__monitor__ShortCuts
 4AAB:5019       SavedFileName__Ini
 48B1:00FC       SciezkaOpisuPomiaru__CommonData
 507C:0001       ShortCutList__monitor__ShortCut
 47AE:0F70       SignalDescr__DGHIni
 4799:0087       Sim_Alfa_CP__ScannerI
 4799:0083       Sim_Dis_CP__ScannerI
 4799:0053       Simul__ScannerI
 50EE:000C       SkalaCPMax__CocpDsp
 50EE:0008       SkalaCP__CocpDsp
 50EE:000E       SkalaWPMax__CocpDsp
 50EE:000A       Skala__CocpDsp
 4367:0000       SpecialCASE__RTSLanguage
 507F:01DD       SrcDir__Obloty
 6022:0002       Srodek__Polozenie
 42EF:0673       StackCheck__RTSMain
 42EF:067C       StackOvf__RTSMain
 6022:0000       StalyKat__Polozenie
 4903:0054       StanButtonow__Pomiar
 4903:0075       StanZestawu__Pomiar
 492C:0023       StaraStrategia__Storage
 0001:02FD       StartModula
 492C:0025       StaryCh__Storage
 507F:0044       Stat_File_Monitor__Obloty
 507F:0040       Stat_Size_Monitor__Obloty
 47A5:003D       State__TheodolitRead
 475F:001C       Statistic__MANAGER
 493D:0000       StatusR__GrafUtil
 50A5:01E5       Stored__BezPrzerwanOdMyszy__MMM
 4954:0000       StringRect__BezPrzerwan__Czas
 4936:0008       Style__HiLevGraf
 4956:0940       SubcarPrcMod_delay__Kalibracja
 4954:0008       SystemTime__BezPrzerwan__Czas
 4799:008F       TEOEcounting__ScannerI
 4799:0028       TEO_A__ScannerI
 4799:003A       TEO_DGPSpoprawki__ScannerI
 4799:0030       TEO_E__ScannerI
 4799:0038       TEO_OK__ScannerI
 4799:00A7       TEO_dtaSign__ScannerI
 4930:0002       TIOS__Timer
 4930:0006       TOQueue__Monitor__Timer
 475F:0124       TSSInterval__MANAGER
 4956:0000       TabKalib2P__Kalibracja
 47AE:08E8       TableOfNames__DGHIni
 600F:0000       TablicaSemaforow__Semafory
 4799:000C       TeoAlfaF__ScannerI
 47A5:0036       TeoEvNr__TheodolitRead
 48AD:0027       TestUP__H_Oblot
 60C5:0006       TextModeOutProc__Print
 490D:0029       ThisDTidx__Screen
 4930:0000       TimeCounter__Timer
 475F:0128       TimeIntNum__MANAGER
 60C5:00D5       Tmpl__Print
 493D:006E       Tone__GrafUtil
 4396:0143       Transfer__RTSCoroutine
 4932:000A       TurnBeepOn__Messages
 50F1:0000       VAL1__DataCollect
 490D:0000       VAL1__Screen
 50F1:3210       VAL2__DataCollect
 490D:0004       VAL2__Screen
 50F1:6420       VAL3__DataCollect
 490D:0008       VAL3__Screen
 50F1:9630       VAL4__DataCollect
 490D:000C       VAL4__Screen
 50F1:C8A6       VALX__tablice__DataCollect
 4926:003A       VHF_O_czuloscCP__H_DataBase
 4926:0038       VHF_O_czuloscWP__H_DataBase
 4926:003E       VHF_R_czuloscCP__H_DataBase
 4926:003C       VHF_R_czuloscWP__H_DataBase
 478C:0000       VORfreqCRT__Tune
 475F:0208       VarDR__MANAGER
 4956:0950       VorAgc_delay__Kalibracja
 4956:0930       VorRefPrcMod_delay__Kalibracja
 4956:0938       VorVarPrcMod_delay__Kalibracja
 475F:0122       WaitForInt__MANAGER
 493D:006C       WaitTime__GrafUtil
 4956:13F8       WystapilBlad__Kalibracja
 4936:0059       XS__HiLevGraf
 4936:005B       YS__HiLevGraf
 60C5:0013       ZestawProbekBinDoWyboru__Print
 60D7:0004       Zestaw__PrintCntroll
 490D:0010       Zestaw__Screen
 490D:007F       ZmianaSkaliWpionie__Dialog__Scr
 6015:0000       a__Random
 4AA3:0006       actPart__GPS_TRIMBLE
 4A9A:0006       actPart__GPS_nov
 46D2:001A       activProcess__RTSMain
 4934:0010       activated__DGHInterface
 46F1:0000       addProcess__RTSCoroutine
 4950:0000       address__DGH_utils
 6003:0010       agcExt__H_DAcquizition
 4945:0001       agc__H_Odb
 490D:001C       aktFormat360__Screen
 48E9:0192       aktOrbita__H_CP_ControlProc
 490D:0013       aktPromienOdAnt__Screen
 490D:0011       aktPromien__Screen
 5F0C:0040       aktualny__Mapa
 4903:0082       alfaOff__Pomiar
 5FED:0000       anRes__H_results
 48E9:00CD       angCont__H_CP_ControlProc
 50F1:C844       angContiner__DataCollect
 6022:011C       angContiner__Polozenie
 475E:0009       archData__PH
 4537:001E       areSetsEQ__Longs
 4945:0000       audio_H__H_Odb
 4799:00A6       azymANieElew__ScannerI
 48AD:0007       bOkrag__H_Oblot
 48AD:000F       bPromien__H_Oblot
 5F15:0004       bank__InternalMonitor__Graphics
 5F15:0006       bankstart__InternalMonitor__Gra
 507F:0099       bd_NazwaPliku__Obloty
 507F:00AA       bd_Sekcja__Obloty
 507F:00B5       bd_WpisNazwa__Obloty
 4950:0020       binAddress__DGH_utils
 4934:0006       binaryDtaSign__DGHInterface
 46D2:0006       blockList__RTSMain
 492F:0000       break__SoftIntHandlingManager
 4AA3:0009       bufor__GPS_TRIMBLE
 4A9A:000C       bufor__GPS_nov
 490D:0025       by23__Screen
 4AAB:5017       charsInBuffer__Ini
 4AAB:50E2       check__Ini
 4AA3:0002       chrCount__GPS_TRIMBLE
 4A9A:0002       chrCount__GPS_nov
 4537:00B4       complement__Longs
 5F2B:0B48       conEnr__EventsMng
 4934:0008       csErrorCnt__DGHInterface
 46D2:0016       curProcess__RTSMain
 50F1:C85E       curr23__tablice__DataCollect
 4799:00A4       currAlfaOff__ScannerI
 4920:0004       currButtonSet__MouseMonitor__PI
 4903:0058       currButtonSet__Pomiar
 490D:003A       currConsoleEv__Screen
 5FED:014C       currDT__H_results
 50EE:0019       currErrorCP__CocpDsp
 50EE:001D       currErrorGS__CocpDsp
 50EE:001B       currErrorWP__CocpDsp
 50EE:0002       currFROMflg__CocpDsp
 50EE:0000       currGSflg__CocpDsp
 50EE:0015       currLNumber__CocpDsp
 50EE:0026       currMsg__CocpDsp
 50EE:0001       currNAVflg__CocpDsp
 4799:0099       currOdnDlaPomBledu__ScannerI
 4799:0098       currOdnDlaPomOdl__ScannerI
 4799:009A       currPredkosc__ScannerI
 4799:00A2       currPromien__ScannerI
 50EE:0017       currRNumber__CocpDsp
 50EE:0014       currState__CocpDsp
 47A5:003F       currState__TheodolitRead
 50EE:0003       currTOflg__CocpDsp
 6003:0008       currUpdMarks__H_DAcquizition
 4903:0092       currZestaw__Pomiar
 4934:0004       currentSign__DGHInterface
 47AB:0001       currentSign__GPSRead
 47A5:0034       currentSign__TheodolitRead
 4AAB:0010       currfile__Ini
 6046:001C       cursorDIB__H_Slupek
 4903:0093       dataInBuff__Pomiar
 475E:0007       dataOk__PH
 46D2:001E       debuggerRecord__RTSMain
 490D:001D       devDistR__Screen
 46D2:0030       deviceMask__RTSMain
 50EE:0004       dirCP__CocpDsp
 50EE:0006       dirWP__CocpDsp
 48E9:0000       disCont__H_CP_ControlProc
 50F1:C84C       disContiner__DataCollect
 601D:0000       disableMask__NAVInterface
 4920:0000       dispResults__PI_Analiza
 4903:007E       distOff__Pomiar
 5F0C:004A       distRect__Mapa
 50F1:C872       div2n__tablice__DataCollect
 50F1:C876       div3n__tablice__DataCollect
 5F0C:0000       doZrobienia__Mapa
 507C:000D       done__ShortCuts
 50EE:0023       dtaSign__CocpDsp
 46D2:0032       dyingOverlay__RTSMain
 4782:007A       entryTmpPtr__DOSEntry
 4782:0000       entryTmp__DOSEntry
 4A9A:007B       eos__GPS_nov
 4956:13B8       errDetected__Kalibracja
 4A9A:007E       err_unrec_cnt__GPS_nov
 46D2:0000       errorCode__RTSMain
 4782:007E       exitTmpPtr__DOSEntry
 4782:003D       exitTmp__DOSEntry
 475F:01F6       expInter__Scheduler__MANAGER
 4956:13FF       f__Kalibracja
 48C7:01A0       filesAlfa__Files
 48C7:01A8       filesComm__Files
 48C7:0190       filesDist__Files
 6003:0014       filesNotEmpty__H_DAcquizition
 601D:0004       fineMode__NAVInterface
 492F:0001       firstISRDescriptorPtr__Monitor_
 60C5:000E       flgEOF__Print
 4945:0003       flg__H_Odb
 4799:0000       flg__ScannerI
 4956:13FB       for_counter__Kalibracja
 50EE:0025       force__CocpDsp
 4903:007C       format360__Pomiar
 4AA3:0000       framesWError__GPS_TRIMBLE
 4A9A:0000       framesWError__GPS_nov
 46D2:0128       freeList__RTSMain
 4AA3:0004       frmCount__GPS_TRIMBLE
 4A9A:0004       frmCount__GPS_nov
 4903:0077       frstBut__Pomiar
 48AB:0000       hDlg__H_Inspekcja
 48AD:0003       hDlg__H_Oblot
 507D:0000       hDlg__MsgBox
 60D7:0000       hDlg__PrintCntroll
 6006:0000       header__H_Print
 492C:0001       heapList__Storage
 48C7:01C8       homeDir__Files
 50EE:0012       iloscStrzal__CocpDsp
 4AAB:0004       ini__Ini
 4956:13BC       inputCoeff__Kalibracja
 4782:0082       insideFlag__DOSEntry
 507F:00C0       insp_DirTmp__Obloty
 4537:009D       intersection__Longs
 50F1:C87A       ix2__tablice__DataCollect
 50F1:C87E       ix3__tablice__DataCollect
 4799:00AD       ix__ScannerI
 6015:006E       j__Random
 6015:0070       k__Random
 4903:0079       katPromien__Pomiar
 601D:0005       killTime__NAVInterface
 60D7:0011       lPodz__PrintCntroll
 478C:00A0       lastCPFlags__Tune
 6003:0019       lastComm__Monitor__H_DAcquiziti
 47A5:0046       lastCrc__TheodolitRead
 478C:00A2       lastDMEfrqBits__Tune
 4FBA:0000       lastErr__FIO
 4956:13F9       lastError__ErrorHand__Kalibracj
 47A5:0040       lastNum__TheodolitRead
 4799:0093       locTogether__ScannerI
 47A5:0024       lstAzymuth__TheodolitRead
 47A5:002C       lstElevation__TheodolitRead
 47A5:003A       lstEvent__TheodolitRead
 47A5:003B       lstTracking__TheodolitRead
 50A5:01EC       lx__BezWyszeregowania__MMMouse
 50A5:01EE       ly__BezWyszeregowania__MMMouse
 475E:0000       mainState__PH
 5F0C:0042       mapRct__Mapa
 50F1:C857       marks_Con_A__DataCollect
 50F1:C854       marks_Con_D__DataCollect
 4934:000E       maxClicks__DGHInterface
 601E:0002       maxCountR__ARINC
 601E:0000       maxCountW__ARINC
 4FBA:0006       maxOpened__FIO
 50A5:0050       maxX__MMMouse
 50A5:0052       maxY__MMMouse
 4A97:0000       minWrBufLength__DigiRS
 5F0C:005B       myPoint__Mapa
 48E9:0190       myRadial__H_CP_ControlProc
 50EE:001F       newState__CocpDsp
 5F0C:0060       noActive__monitor__Mapa
 6003:0015       notify__Monitor__H_DAcquizition
 4FBA:0002       numErr__FIO
 47A5:0048       numPos__TheodolitRead
 4934:000A       nvErrorCndF__DGHInterface
 4934:000C       nvErrorCndS__DGHInterface
 475E:000A       offset__PH
 494C:0000       okresImp__FIltr1St
 46D2:01CE       oldNMIvector
 4FBA:0004       opened__FIO
 46D2:000E       overlayInitProc__RTSMain
 46D2:000A       overlayList__RTSMain
 46D2:0012       overlayTermProc__RTSMain
 6046:0000       parSlupkow__H_Slupek
 5F2B:0B44       pilEnr__EventsMng
 4799:0026       pilErr__ScannerI
 4799:0082       pilEvBit__ScannerI
 4799:007E       pilEvCon__ScannerI
 6003:0004       pilotEvId__H_DAcquizition
 4799:0079       pilotEvNrCOn__ScannerI
 4799:007C       pilotEvNr__ScannerI
 475E:0002       podzielnik__PH
 475E:0004       polaryzacjaOK__PH
 490D:001B       pomPromieniowy__Screen
 490D:007A       popJakieWykr__Dialog__Screen
 4AA3:0007       posInRecBuf__GPS_TRIMBLE
 4A9A:000A       posInRecBuf__GPS_nov
 492C:0021       prevHeap__Storage
 46D2:0046       priorityMasks__RTSMain
 50F1:C882       procVAL1__tablice__DataCollect
 50F1:C88A       procVAL2__tablice__DataCollect
 50F1:C892       procVAL3__tablice__DataCollect
 50F1:C89A       procVAL4__tablice__DataCollect
 46D2:003E       programSize
 4903:007B       promien__Pomiar
 4537:0000       pushLSet__Longs
 48E9:0194       radial__H_CP_ControlProc
 6003:0003       redrawM__H_DAcquizition
 6003:0002       redraw__H_DAcquizition
 5F0C:005F       redraw__Mapa
 4946:0040       refPress__AltInterface
 507D:0004       ret__MsgBox
 50A5:01F0       rx__BezWyszeregowania__MMMouse
 50A5:01F2       ry__BezWyszeregowania__MMMouse
 5FED:0158       s__H_results
 490D:002B       samplediv__Screen
 50F1:C85A       samplediv__tablice__DataCollect
 50F1:C8A2       samples__tablice__DataCollect
 60C5:000F       scaleDiv__Print
 6046:0018       screeenDIB__H_Slupek
 490D:006A       screenDIB__Screen
 4936:000C       semafor__HiLevGraf
 6003:000C       signTabNil__H_DAcquizition
 47AE:0000       signals__DGHIni
 490D:0082       skalaWpionie__Dialog__Screen
 5FE3:0014       slLDib_rec__ScreenCTypes
 5FE3:000C       slLReg_rec__ScreenCTypes
 5FE3:0008       slL_pnt__ScreenCTypes
 5FE3:0000       slL_rec__ScreenCTypes
 5FE3:004C       slPDib_rec__ScreenCTypes
 5FE3:0044       slPReg_rec__ScreenCTypes
 5FE3:0040       slP_pnt__ScreenCTypes
 5FE3:0038       slP_rec__ScreenCTypes
 5FE3:0030       slSDib_rec__ScreenCTypes
 5FE3:0028       slSReg_rec__ScreenCTypes
 5FE3:0024       slS_pnt__ScreenCTypes
 5FE3:001C       slS_rec__ScreenCTypes
 475F:012A       spTab__MANAGER
 601D:0002       speedMask__NAVInterface
 50EE:0010       srodekSkali__CocpDsp
 507F:00D3       stat_Files__Obloty
 507F:00CB       stat_Size__Obloty
 4920:001D       sthPressed__MouseMonitor__PI_An
 493D:0008       str__GrafUtil
 4537:005E       subSet__Longs
 4A9A:0007       sumaModC__GPS_nov
 4A9A:0008       sumaModF__GPS_nov
 4537:0036       superSet__Longs
 475E:0001       switchAble__PH
 475E:0005       synResult__PH
 5F2B:0B4C       teoEnr__EventsMng
 47A5:003C       teoEvBit__TheodolitRead
 47A5:004C       teoEvCon__TheodolitRead
 47A5:0050       teoEvNrCOn__TheodolitRead
 4537:00CF       unionCompl__Longs
 4537:0086       union__Longs
 4956:13FD       void__Kalibracja
 47A5:0038       wd_dgps_currSign__TheodolitRead
 48C7:01C4       xRefDefV__Files
 48C7:01C0       xRefFile__Files
 604A:0002       xh__DrawEpson
 5F0C:0020       zrobione__Mapa

  Address         Publics by Value

 0000:0000  Abs  KEY__10jul99_1214_OF_Semafory
 0000:0000  Abs  KEY__10jul99_1214_OF_ShortCuts
 0000:0000  Abs  KEY__10jul99_1214_OF_Slupek
 0000:0000  Abs  KEY__10jul99_1214_OF_ScreenCTyp
 0000:0000  Abs  KEY__10jul99_1214_OF_PrintCntro
 0000:0000  Abs  KEY__10jul99_1214_OF_ScannerI
 0000:0000  Abs  KEY__10jul99_1214_OF_Screen
 0000:0000  Abs  KEY__10jul99_1214_OF_SoftIntHan
 0000:0000  Abs  KEY__10jul99_1214_OF_Tune
 0000:0000  Abs  KEY__10jul99_1214_OF_WorseBecau
 0000:0000  Abs  KEY__10jul99_1214_OF_Wykres
 0000:0000  Abs  KEY__10jul99_1214_OF_Timer
 0000:0000  Abs  KEY__10jul99_1214_OF_SpecConv
 0000:0000  Abs  KEY__10jul99_1214_OF_StdIO
 0000:0000  Abs  KEY__10jul99_1214_OF_TheodolitR
 0000:0000  Abs  KEY__10jul99_1214_OF_PI_ArchDat
 0000:0000  Abs  KEY__10jul99_1214_OF_PI_Drukuj
 0000:0000  Abs  KEY__10jul99_1214_OF_PI_Glowny
 0000:0000  Abs  KEY__10jul99_1214_OF_PI_Analiza
 0000:0000  Abs  KEY__10jul99_1214_OF_MsgBox
 0000:0000  Abs  KEY__10jul99_1214_OF_NAVInterfa
 0000:0000  Abs  KEY__10jul99_1214_OF_Obloty
 0000:0000  Abs  KEY__10jul99_1214_OF_PI_PA
 0000:0000  Abs  KEY__10jul99_1214_OF_Polozenie
 0000:0000  Abs  KEY__10jul99_1214_OF_Pomiar
 0000:0000  Abs  KEY__10jul99_1214_OF_Print
 0000:0000  Abs  KEY__10jul99_1214_OF_PiszEventy
 0000:0000  Abs  KEY__10jul99_1214_OF_PI_Pomiar
 0000:0000  Abs  KEY__10jul99_1214_OF_PI_Qcheck
 0000:0000  Abs  KEY__10jul99_1214_OF_PI_ScrUtil
 0000:0000  Abs  KEY__10aug87_2031_OF_DOSMemory
 0000:0000  Abs  KEY__10aug87_2030_OF_BlockOps
 0000:0000  Abs  KEY__10aug87_2030_OF_BitByteOps
 0000:0000  Abs  KEY__10aug87_2031_OF_DebugPMD
 0000:0000  Abs  KEY__10jul99_1218_OF_PH
 0000:0000  Abs  KEY__12aug87_1620_OF_RTSMain
 0000:0000  Abs  KEY__21aug96_1223_OF_XMS
 0000:0000  Abs  KEY__10aug87_2030_OF_ASCII
 0000:0000  Abs  KEY__00xxx00_0000_OF_RTSLanguag
 0000:0000  Abs  KEY__00xxx00_0000_OF_RTSInterru
 0000:0000  Abs  KEY__00xxx00_0000_OF_RTSError
 0000:0000  Abs  KEY__00xxx00_0000_OF_RTSMain
 0000:0000  Abs  KEY__05feb87_1233_OF_Longs
 0000:0000  Abs  KEY__00xxx00_0000_OF_RTSRealErr
 0000:0000  Abs  KEY__00xxx00_0000_OF_RTSPriorit
 0000:0000  Abs  KEY__10jul99_1218_OF_H_Count
 0000:0000  Abs  KEY__10jul99_1218_OF_H_DAcquizi
 0000:0000  Abs  KEY__10jul99_1218_OF_H_DataBase
 0000:0000  Abs  KEY__10jul99_1218_OF_H_CommonTy
 0000:0000  Abs  KEY__10jul99_1214_OF_XMSService
 0000:0000  Abs  KEY__10jul99_1214_OF_XMSTable
 0000:0000  Abs  KEY__10jul99_1218_OF_H_CP_Contr
 0000:0000  Abs  KEY__10jul99_1218_OF_H_DisResul
 0000:0000  Abs  KEY__10jul99_1218_OF_H_Print
 0000:0000  Abs  KEY__10jul99_1218_OF_H_Slupek
 0000:0000  Abs  KEY__10jul99_1218_OF_H_results
 0000:0000  Abs  KEY__10jul99_1218_OF_H_Odb
 0000:0000  Abs  KEY__10jul99_1218_OF_H_Files
 0000:0000  Abs  KEY__10jul99_1218_OF_H_Inspekcj
 0000:0000  Abs  KEY__10jul99_1218_OF_H_Oblot
 0000:0000  Abs  KEY__10jul99_1214_OF_Messages
 0000:0000  Abs  KEY__10jul99_1214_OF_CommonType
 0000:0000  Abs  KEY__10jul99_1214_OF_Czas
 0000:0000  Abs  KEY__10jul99_1214_OF_DGHIni
 0000:0000  Abs  KEY__10jul99_1214_OF_CommonData
 0000:0000  Abs  KEY__10jul99_1214_OF_AltInterfa
 0000:0000  Abs  KEY__10jul99_1214_OF_Buttons
 0000:0000  Abs  KEY__10jul99_1214_OF_CocpDsp
 0000:0000  Abs  KEY__10jul99_1214_OF_DGHInterfa
 0000:0000  Abs  KEY__10jul99_1214_OF_DigiRS
 0000:0000  Abs  KEY__10jul99_1214_OF_DisResUtil
 0000:0000  Abs  KEY__10jul99_1214_OF_DrawEpson
 0000:0000  Abs  KEY__10jul99_1214_OF_Dialog
 0000:0000  Abs  KEY__10jul99_1214_OF_DGH_utils
 0000:0000  Abs  KEY__10jul99_1214_OF_DOSEntry
 0000:0000  Abs  KEY__10jul99_1214_OF_DataCollec
 0000:0000  Abs  KEY__10aug87_2031_OF_Strings
 0000:0000  Abs  KEY__10aug87_2031_OF_Termbase
 0000:0000  Abs  KEY__10aug87_2031_OF_Terminal
 0000:0000  Abs  KEY__10aug87_2031_OF_Storage
 0000:0000  Abs  KEY__10aug87_2031_OF_Keyboard
 0000:0000  Abs  KEY__10aug87_2031_OF_NumberConv
 0000:0000  Abs  KEY__10aug87_2031_OF_RTSDevice
 0000:0000  Abs  KEY__10aug87_2032_OF_MathLib0
 0000:0000  Abs  KEY__10aug87_2033_OF_Sounds
 0000:0000  Abs  KEY__10jul87_1035_OF_RTSMonExit
 0000:0000  Abs  KEY__10jul99_1214_OF_ARINC
 0000:0000  Abs  KEY__10aug87_2033_OF_RealConver
 0000:0000  Abs  KEY__10aug87_2033_OF_Mouse
 0000:0000  Abs  KEY__10aug87_2033_OF_RTSCorouti
 0000:0000  Abs  KEY__10aug87_2033_OF_Random
 0000:0000  Abs  KEY__10aug87_2031_OF_Devices
 0000:0000  Abs  KEY__10jul99_1214_OF_Ini
 0000:0000  Abs  KEY__10jul99_1214_OF_InpLine
 0000:0000  Abs  KEY__10aug87_2031_OF_Display
 0000:0000  Abs  KEY__10jul99_1214_OF_HRD_Clock
 0000:0000  Abs  KEY__10jul99_1214_OF_HiLevGraf
 0000:0000  Abs  KEY__10aug87_2031_OF_DynMem
 0000:0000  Abs  KEY__10jul99_1214_OF_Int_DME
 0000:0000  Abs  KEY__10jul99_1214_OF_Mapa
 0000:0000  Abs  KEY__10jul99_1214_OF_Marks
 0000:0000  Abs  KEY__10jul99_1214_OF_Math
 0000:0000  Abs  KEY__10jul99_1214_OF_MMMouse
 0000:0000  Abs  KEY__10jul99_1214_OF_Kalibracja
 0000:0000  Abs  KEY__10jul99_1214_OF_Kl_FGenera
 0000:0000  Abs  KEY__10jul99_1214_OF_MANAGER
 0000:0000  Abs  KEY__10jul99_1214_OF_FIltr1St
 0000:0000  Abs  KEY__10jul99_1214_OF_Files
 0000:0000  Abs  KEY__10jul99_1214_OF_FlagAnal
 0000:0000  Abs  KEY__10jul99_1214_OF_FIO
 0000:0000  Abs  KEY__10jul99_1214_OF_ErrorMess
 0000:0000  Abs  KEY__10jul99_1214_OF_EventsMng
 0000:0000  Abs  KEY__10jul99_1214_OF_FCBS
 0000:0000  Abs  KEY__10jul99_1214_OF_GList
 0000:0000  Abs  KEY__10jul99_1214_OF_GrafTypes
 0000:0000  Abs  KEY__10jul99_1214_OF_GrafUtil
 0000:0000  Abs  KEY__10jul99_1214_OF_Graphics
 0000:0000  Abs  KEY__10jul99_1214_OF_GeoArithme
 0000:0000  Abs  KEY__10jul99_1214_OF_GPSRead
 0000:0000  Abs  KEY__10jul99_1214_OF_GPS_TRIMBL
 0000:0000  Abs  KEY__10jul99_1214_OF_GPS_nov
 0000:0000  Abs  KEY__00xxx00_0000_OF_DebugPMD
 0000:0000  Abs  KEY__00xxx00_0000_OF_RTSCorouti
 0000:0000  Abs  KEY__00xxx00_0000_OF_RTS87
 0001:0000       $BM__PH
 0001:0002       $BODY__PH
 0001:02FD       StartModula
 0001:039E       $EM__PH
 003B:0000       $BM__MANAGER
 003B:0002       S__ASSERT__MANAGER
 003B:002D       S__InsertReady__MANAGER
 003B:0236       S__RemoveReady__MANAGER
 003B:04D7       S__ClearQueue__MANAGER
 003B:05E2       S__INSERT__MANAGER
 003B:07D2       S__REMOVE__MANAGER
 003B:0892       L__SEND__Scheduler__MANAGER
 003B:0892       L__SEND__MANAGER
 003B:0A58       L__Notify__MANAGER
 003B:0A58       L__Notify__Scheduler__MANAGER
 003B:0AAF       L__Broadcast__Scheduler__MANAGE
 003B:0AAF       L__Broadcast__MANAGER
 003B:0AFD       L__WAITS__Scheduler__MANAGER
 003B:0AFD       L__WAITS__MANAGER
 003B:0BEF       L__WAITC__Scheduler__MANAGER
 003B:0BEF       L__WAITC__MANAGER
 003B:0CE1       L__DOIO__MANAGER
 003B:0CE1       L__DOIO__Scheduler__MANAGER
 003B:0FB4       L__AWAITEDS__Scheduler__MANAGER
 003B:0FB4       L__AWAITEDS__MANAGER
 003B:0FEF       L__AWAITEDC__MANAGER
 003B:0FEF       L__AWAITEDC__Scheduler__MANAGER
 003B:102A       S__STOPPROCESS__Scheduler__MANA
 003B:1144       S__StopAError__Scheduler__MANAG
 003B:11B5       S__ActivateProcess__Scheduler__
 003B:12EF       L__Assert__MANAGER
 003B:12EF       L__Assert__Scheduler__MANAGER
 003B:1357       $BODY__Scheduler__MANAGER
 003B:137C       L__STARTPROCESS__MANAGER
 003B:1629       L__PriorityDecrease__MANAGER
 003B:176C       L__InitC__MANAGER
 003B:1782       L__InitS__MANAGER
 003B:1798       L__Release__MANAGER
 003B:17CC       L__StartTimeSlicing__MANAGER
 003B:17E6       L__RecoveryTime__MANAGER
 003B:17F9       L__CurrentProcess__MANAGER
 003B:1815       L__InstallTermProc__MANAGER
 003B:188B       L__RemoveTermProc__MANAGER
 003B:18E5       L__EnterProtectedOp__MANAGER
 003B:18ED       L__ExitProtectedOp__MANAGER
 003B:18F5       S__CallTerminatingProcedures__M
 003B:1973       L__Terminator__MANAGER
 003B:1A6A       S__InstallTerminator__MANAGER
 003B:1A90       L__DUMMYPRO__MANAGER
 003B:1B1A       $BODY__MANAGER
 003B:1DCE       $INIT__MANAGER
 003B:1E0C       $EM__MANAGER
 021C:0000       $BM__PI_PA
 021C:0002       $BODY__PI_PA
 021C:0012       $INIT__PI_PA
 021C:002D       $EM__PI_PA
 021F:0000       $BM__DOSEntry
 021F:0002       L__onEntryHandler__DOSEntry
 021F:004F       L__onExitHandler__DOSEntry
 021F:009C       L__TerminalProcedure__DOSEntry
 021F:00C2       $BODY__DOSEntry
 021F:0150       $INIT__DOSEntry
 021F:017A       $EM__DOSEntry
 0237:0000       $BM__ErrorMess
 0237:0029       L__MyErrorHand__ErrorMess
 0237:00E1       $BODY__ErrorMess
 0237:010C       $INIT__ErrorMess
 0237:0145       $EM__ErrorMess
 024C:0000       $BM__Tune
 024C:0007       S__Send__Tune
 024C:009C       L__TurnOffADF__Tune
 024C:00F4       L__TurnOffVOR_ILS__Tune
 024C:014C       L__TuneADF__Tune
 024C:0303       N__TuneGS__TuneILS__Tune
 024C:0409       L__TuneILS__Tune
 024C:049F       S__SendDMECntrlWrd__Tune
 024C:052E       N__ConvertFrqTOControlWord__Tun
 024C:05D9       L__TuneDMEforVOR__Tune
 024C:061B       L__TuneDMEforILS__Tune
 024C:065D       L__TuneVOR__Tune
 024C:0697       S__TuneVOR_ILS__Tune
 024C:07EE       L__ILSfrqString__Tune
 024C:0849       L__ILSIncFch__Tune
 024C:0881       L__ILSDecFch__Tune
 024C:08B9       L__VORIncFch__Tune
 024C:08FF       L__VORDecFch__Tune
 024C:093F       L__IncADFFch__Tune
 024C:0966       L__DecADFFch__Tune
 024C:0998       L__SetCPFlags__Tune
 024C:0A08       $BODY__Tune
 024C:0C0B       $INIT__Tune
 024C:0C49       $EM__Tune
 0311:0000       $BM__PI_Qcheck
 0311:00EE       N__Tlo__Sprawdz__PI_Qcheck
 0311:0157       N__WrStr__Sprawdz__PI_Qcheck
 0311:01C0       N__WrInt__Sprawdz__PI_Qcheck
 0311:023B       N__WrPrc__Sprawdz__PI_Qcheck
 0311:0337       L__Sprawdz__PI_Qcheck
 0311:0884       S__Init__PI_Qcheck
 0311:08B5       $BODY__PI_Qcheck
 0311:08BE       $INIT__PI_Qcheck
 0311:0915       $EM__PI_Qcheck
 03A3:0000       $BM__ScannerI
 03A3:0104       S__DistR2C__ScannerI
 03A3:01B8       L__GetGPS__ScannerI
 03A3:0377       L__GetGPSSpread__ScannerI
 03A3:069A       L__GetAndCountTEODummy__Scanner
 03A3:06AF       N__GetTeo__GetAndCountTEO__Scan
 03A3:0894       L__GetAndCountTEO__ScannerI
 03A3:098F       L__Sim_Dis__ScannerI
 03A3:0AA9       L__AssSim_Dis__ScannerI
 03A3:0ACE       L__Sim_Alfa__ScannerI
 03A3:0B3C       L__AssSim_Alfa__ScannerI
 03A3:0B61       S__InitDataSimul__ScannerI
 03A3:0C27       N__TurnDGH_ON__SIMDATA__Scanner
 03A3:0C76       N__ReadDME__SIMDATA__ScannerI
 03A3:0DD2       N__ReadALT__SIMDATA__ScannerI
 03A3:0E64       N__OdlegWgPredk__SIMDATA__Scann
 03A3:0F36       L__SIMDATA__ScannerI
 03A3:13C4       N__FindIt__SetEvalPROC__Scanner
 03A3:1450       N__FindFree__SetEvalPROC__Scann
 03A3:14C3       L__SetEvalPROC__ScannerI
 03A3:155E       L__NewDataAvailable__ScannerI
 03A3:1588       L__Start__ScannerI
 03A3:1725       L__LocationsTogether__ScannerI
 03A3:1754       L__CurrGPSAlfaOffset__ScannerI
 03A3:1783       L__Stop__ScannerI
 03A3:17B0       L__InitPilotEventId__ScannerI
 03A3:17D3       L__GetPilotEvent__ScannerI
 03A3:1827       S__Chksimul__ScannerI
 03A3:1886       $BODY__ScannerI
 03A3:1954       $INIT__ScannerI
 03A3:19D3       $EM__ScannerI
 0541:0000       $BM__CommonTypes
 0541:0010       L__GetRecName__CommonTypes
 0541:0055       L__GetTranName__CommonTypes
 0541:0098       L__InitSignalDsc__CommonTypes
 0541:00B7       L__Init_flgTab__CommonTypes
 0541:00F4       $BODY__CommonTypes
 0541:00FA       $INIT__CommonTypes
 0541:011F       $EM__CommonTypes
 0554:0000       $BM__TheodolitRead
 0554:0107       N__Angle360__TheodolitView__The
 0554:01B7       L__TheodolitView__TheodolitRead
 0554:05AE       L__GetCurrDataSign__TheodolitRe
 0554:05DD       L__InitTeoEventId__TheodolitRea
 0554:0600       L__GetTeoEvent__TheodolitRead
 0554:0654       L__GetTheoR__TheodolitRead
 0554:0700       L__GetTheoI__TheodolitRead
 0554:0852       S__signalError__TheodolitRead
 0554:086F       N__AssignRes__Analizer__Theodol
 0554:0915       N__Rd__Analizer__TheodolitRead
 0554:097D       N__CountCrc__Analizer__Theodoli
 0554:09A8       N__GetNum__Analizer__TheodolitR
 0554:0A73       S__Analizer__TheodolitRead
 0554:0DF1       L__WatchDog__TheodolitRead
 0554:0ECB       L__NicNieRob__TheodolitRead
 0554:0EE0       $BODY__TheodolitRead
 0554:1039       $INIT__TheodolitRead
 0554:1095       $EM__TheodolitRead
 065E:0000       $BM__GPSRead
 065E:001A       L__Read_Nic__GPSRead
 065E:002D       L__Read_Nov__GPSRead
 065E:0177       L__Read_Trimble__GPSRead
 065E:0225       L__GPSReceive__GPSRead
 065E:029B       L__GetDirection__GPSRead
 065E:02DA       L__GetCurrDataSign__GPSRead
 065E:0309       L__WatchDog__GPSRead
 065E:05FA       $BODY__GPSRead
 065E:0670       $INIT__GPSRead
 065E:06B3       $EM__GPSRead
 06CA:0000       $BM__DGHIni
 06CA:03D8       S__InitTableOfNames__DGHIni
 06CA:08D1       S__FillSignalTable__DGHIni
 06CA:0CDC       S__ReadDGHIniFile__DGHIni
 06CA:0D08       $BODY__DGHIni
 06CA:0D49       $INIT__DGHIni
 06CA:0D73       $EM__DGHIni
 07A2:0000       $BM__H_Files
 07A2:0074       S__StartFiles__H_Files
 07A2:00FD       L__CreateFiles__H_Files
 07A2:0119       L__OpenFiles__H_Files
 07A2:01BB       N__ZapiszPolozenie__SaveData__H
 07A2:02BE       L__SaveData__H_Files
 07A2:0321       N__Rd__LoadData__H_Files
 07A2:0362       L__LoadData__H_Files
 07A2:03AB       L__CloseFiles__H_Files
 07A2:03DF       L__OpenSignalFiles__H_Files
 07A2:046B       L__ReadAllSignals__H_Files
 07A2:04A8       L__CloseSignalFiles__H_Files
 07A2:04C2       L__KopiujWszystkiePliki__H_File
 07A2:0511       L__GetSigFileName__H_Files
 07A2:053B       S__InitLocals__H_Files
 07A2:0588       $BODY__H_Files
 07A2:05A4       $INIT__H_Files
 07A2:061E       $EM__H_Files
 0804:0000       $BM__H_CommonTypes
 0804:0002       $BODY__H_CommonTypes
 0804:0008       $INIT__H_CommonTypes
 0804:0023       $EM__H_CommonTypes
 0807:0000       $BM__PI_Glowny
 0807:0002       L__GlownyEP__PI_Glowny
 0807:009B       $BODY__PI_Glowny
 0807:00A1       $INIT__PI_Glowny
 0807:00DF       $EM__PI_Glowny
 0816:0000       $BM__H_Inspekcja
 0816:02A6       S__Pokaz__H_Inspekcja
 0816:0310       L__UsunOblot__H_Inspekcja
 0816:03AB       L__UsunOblotP__H_Inspekcja
 0816:03FA       L__ProbujWstawicOblot__H_Inspek
 0816:0410       L__ZmienOblot__H_Inspekcja
 0816:06AD       L__EnumObl__H_Inspekcja
 0816:06D7       L__WymienPasujaceObloty__H_Insp
 0816:0739       L__DodajOblot__H_Inspekcja
 0816:0B63       L__NowyOblot__H_Inspekcja
 0816:0BB2       L__OblotOK__H_Inspekcja
 0816:0C5B       N__SetDefInsp__InspekcjaEP__H_I
 0816:0D05       L__InspekcjaEP__H_Inspekcja
 0816:1083       $BODY__H_Inspekcja
 0816:10B1       $INIT__H_Inspekcja
 0816:114E       $EM__H_Inspekcja
 092B:0000       $BM__H_Oblot
 092B:0466       L__Okrag_A__H_Oblot
 092B:0485       L__Okrag_B__H_Oblot
 092B:04A4       L__Promien_A__H_Oblot
 092B:04C3       L__Promien_B__H_Oblot
 092B:04E2       S__TestUP_PROC__H_Oblot
 092B:0502       L__Raport_PROC__H_Oblot
 092B:0522       L__RaportKoncowy__H_Oblot
 092B:0542       L__PlayP__H_Oblot
 092B:0562       L__View_PROC__H_Oblot
 092B:0582       S__RealVal__H_Oblot
 092B:05DF       S__Pokaz__H_Oblot
 092B:0649       L__CzyDobraOrbita__H_Oblot
 092B:076E       L__CzyDobryPromien__H_Oblot
 092B:0817       S__ZakonczDlg__H_Oblot
 092B:082D       L__PomiarP__H_Oblot
 092B:084D       L__RealValid__H_Oblot
 092B:0910       L__RealCisnValid__H_Oblot
 092B:09C5       S__PoprawPromien__H_Oblot
 092B:0A61       L__PoprawPromienA__H_Oblot
 092B:0A84       L__PoprawPromienB__H_Oblot
 092B:0AA7       S__NadajnikCH__H_Oblot
 092B:0AD2       N__InitDefault__InitLot__H_Oblo
 092B:0E7C       N__LecianePromienie__InitLot__H
 092B:1112       N__SaveDefault__InitLot__H_Oblo
 092B:1256       N__Make2__AssignButt__InitLot__
 092B:1316       N__AssignButt__InitLot__H_Oblot
 092B:1859       N__Pr__FillData__InitLot__H_Obl
 092B:1908       N__Or__FillData__InitLot__H_Obl
 092B:1994       N__FillData__InitLot__H_Oblot
 092B:1A20       L__InitLot__H_Oblot
 092B:1B6F       L__SciezkaDoKataloguOpisu__H_Ob
 092B:1CA8       S__Wlacz_Wylacz__H_Oblot
 092B:1D5F       N__ProcIdentifier__Zapisz__H_Ob
 092B:1DC7       N__Zaznacz__Zapisz__H_Oblot
 092B:1FF0       L__Zapisz__H_Oblot
 092B:2109       $BODY__H_Oblot
 092B:213D       $INIT__H_Oblot
 092B:21F8       $EM__H_Oblot
 0B4B:0000       $BM__CommonData
 0B4B:0012       $BODY__CommonData
 0B4B:00A7       $INIT__CommonData
 0B4B:00CC       $EM__CommonData
 0B58:0000       $BM__Files
 0B58:016F       L__Kopiuj__Files
 0B58:0240       L__ReadDef__Files
 0B58:0273       L__CreateFiles__Files
 0B58:0638       L__OpenFiles__Files
 0B58:09FD       L__SaveData__Files
 0B58:0CB2       L__LoadData__Files
 0B58:0F3B       L__CloseFiles__Files
 0B58:1096       L__OpenSignalFiles__Files
 0B58:1685       L__ReadXref__Files
 0B58:16EA       L__ReadFlgs__Files
 0B58:1729       L__ReadAllSignals__Files
 0B58:17EB       L__CloseSignalFiles__Files
 0B58:1902       S__RemoveBSl__Files
 0B58:1965       N__TworzK__KopiujWszystkiePliki
 0B58:19D4       L__KopiujWszystkiePliki__Files
 0B58:1BE4       L__LoadAResult__Files
 0B58:1D15       L__SaveAResult__Files
 0B58:1DB9       L__ExistDIR__Files
 0B58:1E04       L__ChangeDir__Files
 0B58:1E3D       L__GoHomeDir__Files
 0B58:1E70       S__AssignName__Files
 0B58:1F1C       L__SubstituteAngle100__Files
 0B58:1F61       L__addAngle100__Files
 0B58:1FCB       L__subNormal__Files
 0B58:203F       L__addNormal__Files
 0B58:20C9       L__FInterpolacja__Files
 0B58:246E       L__SigInterpolacja__Files
 0B58:264E       L__GetALfaRefFName__Files
 0B58:26C2       L__GetDisRefFName__Files
 0B58:2735       L__GetCommSigFName__Files
 0B58:27A8       L__OpenCommSigFName__Files
 0B58:2819       L__CloseCommSigFName__Files
 0B58:2833       L__ReadCommSigFName__Files
 0B58:2852       S__Init__Files
 0B58:2B3D       $BODY__Files
 0B58:2B56       $INIT__Files
 0B58:2BCB       $EM__Files
 0E15:0000       $BM__H_CP_ControlProc
 0E15:0012       S__ClearLinVelContiner__H_CP_Co
 0E15:006E       N__succ__RadialDirection__Radia
 0E15:009B       N__checkDir__RadialDirection__R
 0E15:0149       N__RadialDirection__Radial__H_C
 0E15:0329       L__Radial__H_CP_ControlProc
 0E15:04FD       S__ClearAngVelContiner__H_CP_Co
 0E15:0559       N__succ__OrbitDirection__Orbit_
 0E15:0586       N__checkDir__OrbitDirection__Or
 0E15:05DE       N__OrbitDirection__Orbit__H_CP_
 0E15:07B7       L__Orbit__H_CP_ControlProc
 0E15:09BD       L__StartCPLoop__H_CP_ControlPro
 0E15:0A86       L__StopCPLoop__H_CP_ControlProc
 0E15:0AEF       $BODY__H_CP_ControlProc
 0E15:0B44       $INIT__H_CP_ControlProc
 0E15:0BA0       $EM__H_CP_ControlProc
 0ED0:0000       $BM__Pomiar
 0ED0:00F4       L__StartBP__Pomiar
 0ED0:0104       L__RestartBP__Pomiar
 0ED0:0114       L__AbortBP__Pomiar
 0ED0:0124       L__CallStopButton__Pomiar
 0ED0:012E       L__StopBP__Pomiar
 0ED0:013E       L__PrzelaczPomiaryBP__Pomiar
 0ED0:014F       L__AkceptacjaBP__Pomiar
 0ED0:015F       N__Sek2__PolaryzacjaBP__Pomiar
 0ED0:01F6       L__PolaryzacjaBP__Pomiar
 0ED0:03EF       L__InitPomiar__Pomiar
 0ED0:05EF       N__PoprawnieUstawButtony__Pomia
 0ED0:06EF       N__NastepnyStan__GetEvent__Pomi
 0ED0:0767       N__GetEvent__PomiarEP__Pomiar
 0ED0:08A5       N__InitButtony__PomiarEP__Pomia
 0ED0:0B16       N__DisposeButtons__Done__Pomiar
 0ED0:0B84       N__Done__PomiarEP__Pomiar
 0ED0:0B92       N__AlfaRefInfo__PomiarEP__Pomia
 0ED0:0BD2       N__DeltaRefInfo__PomiarEP__Pomi
 0ED0:0C3F       N__DataLosInfo__PomiarEP__Pomia
 0ED0:0C88       N__PrologAnalyse__PomiarEP__Pom
 0ED0:0EC2       L__PomiarEP__Pomiar
 0ED0:14E0       $BODY__Pomiar
 0ED0:153F       $INIT__Pomiar
 0ED0:15AF       $EM__Pomiar
 102C:0000       $BM__Screen
 102C:01D5       S__RectWykresy__Screen
 102C:0259       S__UniversalEvent__Dialog__Scre
 102C:02D8       L__RegionWykGEvent__Dialog__Scr
 102C:0323       L__RegionWykGButton__Dialog__Sc
 102C:037F       L__RegionWyk1Event__Dialog__Scr
 102C:03CA       L__RegionWyk1Button__Dialog__Sc
 102C:0419       L__RegionWyk2Event__Dialog__Scr
 102C:0464       L__RegionWyk2Button__Dialog__Sc
 102C:04B3       L__RegionWyk3Event__Dialog__Scr
 102C:04FE       L__RegionWyk3Button__Dialog__Sc
 102C:054D       S__PokazWgKursora__Dialog__Scre
 102C:0B48       L__WykrEvent__Dialog__Screen
 102C:0BC1       L__KursorLewoButton__Dialog__Sc
 102C:0BDA       L__KursorPrawoPar__Dialog__Scre
 102C:0BF3       N__RedrawRqs__Xchg__Dialog__Scr
 102C:0C7D       S__Xchg__Dialog__Screen
 102C:0CC9       S__ShowBarCursor__Dialog__Scree
 102C:0D49       L__KursorOnOffBP__Dialog__Scree
 102C:0D66       L__SkalaPlusBP__Dialog__Screen
 102C:0E5D       L__SkalaMinusBP__Dialog__Screen
 102C:0F54       L__KursorPrawoBP__Dialog__Scree
 102C:0F7E       L__KursorLewoBP__Dialog__Screen
 102C:0FA8       S__UpdateMap__Dialog__Screen
 102C:0FD7       N__CurrCursorMode__RuszKursor__
 102C:10CD       S__RuszKursor__Dialog__Screen
 102C:1236       N__CurrDistance__OpisDla__InitW
 102C:13D2       N__OpisDla__InitWykr__Dialog__S
 102C:1749       S__InitWykr__Dialog__Screen
 102C:17F1       S__InitDialog__Dialog__Screen
 102C:1876       S__DisposeKursor__Dialog__Scree
 102C:18A7       S__KursoffOff__Dialog__Screen
 102C:18CD       S__KursoffOn__Dialog__Screen
 102C:18F9       L__ConEventButton__Screen
 102C:190A       L__SetButtons__Screen
 102C:1983       S__InitButtony__Screen
 102C:1AFD       N__ShowCurrDIB__InitSlupki__Scr
 102C:1B5E       N__Define__InitSlupki__Screen
 102C:1B9A       S__InitSlupki__Screen
 102C:1D4C       S__InitKrokOpisuOsi__Screen
 102C:1D6D       L__Init__Screen
 102C:1F5F       N__WriteText__ShowMarks__Update
 102C:20D1       N__DrawEvent__ShowMarks__Update
 102C:2201       N__ZwKrokOpisuOsi__ShowMarks__U
 102C:22B6       N__ShowMarks__UpdateWykr__Updat
 102C:2485       N__UpdateWykr__Update__Screen
 102C:2CA3       N__MarkDraw__WskazWykresy__Upda
 102C:2D08       N__WskazWykresy__Update__Screen
 102C:2D80       N__NapiszGPSFlg__NapiszGPS__Upd
 102C:2DE6       N__NapiszGPS__UpdateNapisy__Upd
 102C:30F6       N__NapiszTEO__UpdateNapisy__Upd
 102C:3357       N__UpdateNapisy__Update__Screen
 102C:34A4       L__Update__Screen
 102C:35A5       L__ScreenStart__Screen
 102C:35AE       N__KasujSlupki__Done__Screen
 102C:3664       N__DisposeButtons__Done__Screen
 102C:36CD       L__Done__Screen
 102C:36D9       $BODY__Screen
 102C:36F5       $INIT__Screen
 102C:37A6       $EM__Screen
 13A7:0000       $BM__PI_Analiza
 13A7:0062       L__DrukujBP__MouseMonitor__PI_A
 13A7:0091       L__ZapamietajBP__MouseMonitor__
 13A7:00C0       L__PWyjscieZProgramuBP__MouseMo
 13A7:00EF       L__PageUpBP__MouseMonitor__PI_A
 13A7:011E       L__PrzelaczPomiaryBP__MouseMoni
 13A7:014D       L__PageDownBP__MouseMonitor__PI
 13A7:017C       S__InitButtony__MouseMonitor__P
 13A7:036D       S__GetEvent__MouseMonitor__PI_A
 13A7:042C       S__DisposeButtons__MouseMonitor
 13A7:04A9       $BODY__MouseMonitor__PI_Analiza
 13A7:0518       L__AnalizaEP__PI_Analiza
 13A7:06C6       $BODY__PI_Analiza
 13A7:06CF       $INIT__PI_Analiza
 13A7:073F       $EM__PI_Analiza
 141C:0000       $BM__PI_Pomiar
 141C:0012       L__Analiza__PI_Pomiar
 141C:003E       L__InitPomiar__PI_Pomiar
 141C:0220       $BODY__PI_Pomiar
 141C:0226       $INIT__PI_Pomiar
 141C:0287       $EM__PI_Pomiar
 1445:0000       $BM__PI_ArchDate
 1445:0002       L__LoadData__PI_ArchDate
 1445:0089       $BODY__PI_ArchDate
 1445:008F       $INIT__PI_ArchDate
 1445:00D2       $EM__PI_ArchDate
 1453:0000       $BM__PI_Drukuj
 1453:0002       L__Druk__PI_Drukuj
 1453:000F       $BODY__PI_Drukuj
 1453:0015       $INIT__PI_Drukuj
 1453:0035       $EM__PI_Drukuj
 1457:0000       $BM__H_DataBase
 1457:0114       S__SignalError__H_DataBase
 1457:012C       N__GetStr__OpisNadajnika__H_Dat
 1457:0273       L__OpisNadajnika__H_DataBase
 1457:04C9       N__GetCardinal__LoadProgramPar_
 1457:0538       S__LoadProgramPar__H_DataBase
 1457:05A6       $BODY__H_DataBase
 1457:05D1       $INIT__H_DataBase
 1457:063C       $EM__H_DataBase
 14BB:0000       $BM__SpecConv
 14BB:009C       S__CheckINil__SpecConv
 14BB:0163       S__CheckCNil__SpecConv
 14BB:01ED       L__Int2Str__SpecConv
 14BB:0225       L__Card2Str__SpecConv
 14BB:025D       L__Int10Str__SpecConv
 14BB:033A       L__Card10Str__SpecConv
 14BB:0411       L__Int100Str__SpecConv
 14BB:0535       L__Int100StrCalk__SpecConv
 14BB:057F       L__Card100Str__SpecConv
 14BB:06A4       L__Ang100Str36__SpecConv
 14BB:0711       L__Ang100Str36Calk__SpecConv
 14BB:078F       L__Int500Str__SpecConv
 14BB:08C0       L__Feed500Str__SpecConv
 14BB:0959       L__Card500Str__SpecConv
 14BB:0A8D       L__Int1000Str__SpecConv
 14BB:0BF8       L__Angle100__SpecConv
 14BB:0C58       L__RAngle100__SpecConv
 14BB:0D36       L__AngleDeg__SpecConv
 14BB:0DA7       L__SubAngle100__SpecConv
 14BB:0E7B       L__AddAngle100__SpecConv
 14BB:0F4F       L__SubAng360__SpecConv
 14BB:101A       L__AfterAngle100__SpecConv
 14BB:10B3       L__SubNormal__SpecConv
 14BB:10CE       L__AddNormal__SpecConv
 14BB:10E9       L__GorszeBoDalszeR__SpecConv
 14BB:1127       L__GorszeBoDalsze__SpecConv
 14BB:1178       L__GorszeBoBlisze__SpecConv
 14BB:11C9       L__GorszeBoMniejszePol__SpecCon
 14BB:120A       L__GorszeBoMniejsze__SpecConv
 14BB:1237       L__GorszeBoWieksze__SpecConv
 14BB:1264       L__GorszeBoMniejszeM60__SpecCon
 14BB:12A5       L__GorszeBoMniejsze400__SpecCon
 14BB:12E6       L__GorszeBoMniejsze800__SpecCon
 14BB:1327       L__GorszeBoMniejsze300__SpecCon
 14BB:1368       L__GorszeBoMniejsze160__SpecCon
 14BB:13A9       L__GorszeBoMniejsze5000__SpecCo
 14BB:13EA       L__GorszeBoMniejsze500__SpecCon
 14BB:142B       L__GorszeBoMniejsze1500__SpecCo
 14BB:146C       L__GorszeBoMniejsze2000__SpecCo
 14BB:14AD       L__GorszeBoDalszeOdZera__SpecCo
 14BB:14EA       L__entierCheck__SpecConv
 14BB:15A6       L__entier__SpecConv
 14BB:165C       L__Int2StrCntr__SpecConv
 14BB:1755       L__Div__SpecConv
 14BB:1782       L__Mul__SpecConv
 14BB:17AE       L__Add__SpecConv
 14BB:17DA       L__Sub__SpecConv
 14BB:180D       L__SubDis__SpecConv
 14BB:1858       L__AddDis__SpecConv
 14BB:189B       L__IncRound__SpecConv
 14BB:18A9       L__SubWCheck__SpecConv
 14BB:1948       L__Int2Card__SpecConv
 14BB:197A       L__ZaokraglicDo500__SpecConv
 14BB:19B9       $BODY__SpecConv
 14BB:19BF       $INIT__SpecConv
 14BB:19F8       $EM__SpecConv
 165B:0000       $BM__Storage
 165B:0002       L__ALLOCATE__Storage
 165B:01B9       L__DEALLOCATE__Storage
 165B:02D0       L__Available__Storage
 165B:03A3       L__InstallHeap__Storage
 165B:0422       L__RemoveHeap__Storage
 165B:04B3       S__SetStrategia__Storage
 165B:04CB       S__GetStrategia__Storage
 165B:04E7       S__SetChain__Storage
 165B:04FF       S__GetChain__Storage
 165B:051E       L__Terminator__Storage
 165B:0544       $BODY__Storage
 165B:058E       $INIT__Storage
 165B:05B8       $EM__Storage
 16B7:0000       $BM__SoftIntHandlingManager
 16B7:0002       L__SetEventHandler__SoftIntHand
 16B7:0041       L__RestoreEventHandler__SoftInt
 16B7:0067       L__checkBreak__SoftIntHandlingM
 16B7:008A       L__BreakChain__SoftIntHandlingM
 16B7:009A       L__InstPrologueHnd__Monitor__So
 16B7:009A       L__InstPrologueHnd__SoftIntHand
 16B7:0256       L__InstEpilogueHnd__Monitor__So
 16B7:0256       L__InstEpilogueHnd__SoftIntHand
 16B7:03FA       L__UnInstallHandler__Monitor__S
 16B7:03FA       L__UnInstallHandler__SoftIntHan
 16B7:0517       L__UnInstallAllHandlers__Monito
 16B7:0590       $BODY__Monitor__SoftIntHandling
 16B7:05BE       $BODY__SoftIntHandlingManager
 16B7:05D1       $INIT__SoftIntHandlingManager
 16B7:05F6       $EM__SoftIntHandlingManager
 1717:0000       $BM__Timer
 1717:0002       S__Insert__Monitor__Timer
 1717:0159       S__Remove__Monitor__Timer
 1717:0277       L__Wait__Timer
 1717:0277       L__Wait__Monitor__Timer
 1717:0309       L__WaitBefProtOper__Timer
 1717:0309       L__WaitBefProtOper__Monitor__Ti
 1717:03B8       L__WaitMetronomeBefProtOper__Mo
 1717:03B8       L__WaitMetronomeBefProtOper__Ti
 1717:043F       L__WaitMetronome__Monitor__Time
 1717:043F       L__WaitMetronome__Timer
 1717:04B5       L__DefinePeriod__Timer
 1717:04B5       L__DefinePeriod__Monitor__Timer
 1717:051F       L__CurrentPeriod__Monitor__Time
 1717:051F       L__CurrentPeriod__Timer
 1717:0559       L__AssignPeriodicProc__Monitor_
 1717:0559       L__AssignPeriodicProc__Timer
 1717:057E       N__Count__IBMIntHandler__Monito
 1717:06FC       L__IBMIntHandler__Monitor__Time
 1717:07F7       S__SetCount__Monitor__Timer
 1717:08B3       L__RestoreTimer__Monitor__Timer
 1717:08D4       $BODY__Monitor__Timer
 1717:092C       L__TInOneSecond__Timer
 1717:0940       L__NewMetronome__Timer
 1717:09B7       L__ResetMetronome__Timer
 1717:0A36       L__DisposeMetronome__Timer
 1717:0A94       L__NewWatchdog__Timer
 1717:0AE2       L__StartProtectedOperation__Tim
 1717:0B56       L__StopProtectedOperation__Time
 1717:0B9B       L__DisposeWatchdog__Timer
 1717:0BFF       L__Dummy__Timer
 1717:0C05       S__BreakKey__Timer
 1717:0C72       $BODY__Timer
 1717:0C8E       $INIT__Timer
 1717:0CBD       $EM__Timer
 17E3:0000       $BM__Messages
 17E3:0004       L__DisableDisplay__Messages
 17E3:002E       L__EnableDisplay__Messages
 17E3:0058       S__ACKMess__Messages
 17E3:010B       L__NewMessage__Messages
 17E3:0164       L__DisposeMessage__Messages
 17E3:0181       L__Display__Messages
 17E3:0265       L__ShowFirst__Messages
 17E3:0312       L__AcknowledgeFirst__Messages
 17E3:0337       L__Acknowledge__Messages
 17E3:0358       S__OUTMessage__Messages
 17E3:0382       S__Beep__Messages
 17E3:03F9       L__KbdAck__Messages
 17E3:0405       L__KbdDsp__Messages
 17E3:0411       $BODY__Messages
 17E3:046A       $INIT__Messages
 17E3:04A8       $EM__Messages
 182E:0000       $BM__StdIO
 182E:0022       N__GetNum__sprintf__StdIO
 182E:00C8       N__IntConv__sprintf__StdIO
 182E:023F       N__StripSpaces__sprintf__StdIO
 182E:031F       N__BuildNumber__sprintf__StdIO
 182E:037B       L__sprintf__StdIO
 182E:0D80       L__sprintf4__StdIO
 182E:0F81       L__sprintf5__StdIO
 182E:11F3       L__sprintf3__StdIO
 182E:1383       L__sprintf2__StdIO
 182E:149F       $BODY__StdIO
 182E:14A5       $INIT__StdIO
 182E:14D9       $EM__StdIO
 197C:0000       $BM__DGHInterface
 197C:002B       L__GetCurrDataSign__DGHInterfac
 197C:005A       L__WaitForNewData__DGHInterface
 197C:00A0       L__TurnOff__DGHInterface
 197C:00F2       L__TurnOn__DGHInterface
 197C:0187       L__GetAnalogVal__DGHInterface
 197C:0226       L__GetBinaryVal__DGHInterface
 197C:02BB       L__SetAnalogVal__DGHInterface
 197C:0392       L__SetBinaryVal__DGHInterface
 197C:04A0       L__SetMessage__DGHInterface
 197C:065C       N__HexDigit__CHKSRight__Reader_
 197C:06B0       N__CHKSRight__Reader__Writer__D
 197C:07A4       N__Reader__Writer__DGHInterface
 197C:0CCB       L__Writer__DGHInterface
 197C:0F7B       $BODY__DGHInterface
 197C:102C       $INIT__DGHInterface
 197C:1079       $EM__DGHInterface
 1A84:0000       $BM__HiLevGraf
 1A84:0007       S__Max__HiLevGraf
 1A84:0027       S__Min__HiLevGraf
 1A84:0047       S__StdPalette__HiLevGraf
 1A84:0182       L__SetPaletteEntry__HiLevGraf
 1A84:0230       S__SetPalette__HiLevGraf
 1A84:030F       N__OpenF__LoadDIB__HiLevGraf
 1A84:03A5       L__LoadDIB__HiLevGraf
 1A84:06B5       L__DIBWidth__HiLevGraf
 1A84:06E9       L__DIBHeight__HiLevGraf
 1A84:071E       S__Swap__HiLevGraf
 1A84:0741       S__Norm__HiLevGraf
 1A84:0785       L__ShowDIB__HiLevGraf
 1A84:0A9F       L__CloseDIB__HiLevGraf
 1A84:0AE1       L__SetLineStyle__HiLevGraf
 1A84:0AF4       L__Line__HiLevGraf
 1A84:0B20       L__LineS__HiLevGraf
 1A84:0C85       L__Circle__HiLevGraf
 1A84:0F6C       L__FillRect__HiLevGraf
 1A84:1026       L__Clip__HiLevGraf
 1A84:10F4       L__NoClip__HiLevGraf
 1A84:115F       L__GetClip__HiLevGraf
 1A84:117A       L__Point__HiLevGraf
 1A84:121A       L__MoveTo__HiLevGraf
 1A84:1234       L__LineTo__HiLevGraf
 1A84:1268       L__FrameRect__HiLevGraf
 1A84:12D2       L__WrStr__HiLevGraf
 1A84:138A       L__WrStrXY__HiLevGraf
 1A84:144C       L__Wr2StrXY__HiLevGraf
 1A84:1504       L__Wr2fStrXY__HiLevGraf
 1A84:15BC       S__GetDir__HiLevGraf
 1A84:1630       $BODY__HiLevGraf
 1A84:1678       $INIT__HiLevGraf
 1A84:16E3       $EM__HiLevGraf
 1BF3:0000       $BM__GrafTypes
 1BF3:0002       L__IsIntersect__GrafTypes
 1BF3:0058       L__Intersection__GrafTypes
 1BF3:0100       L__MoveRect__GrafTypes
 1BF3:014B       L__IsEqual__GrafTypes
 1BF3:0187       L__AssignRect__GrafTypes
 1BF3:01AD       L__AssignPoint__GrafTypes
 1BF3:01C5       $BODY__GrafTypes
 1BF3:01CB       $INIT__GrafTypes
 1BF3:01E6       $EM__GrafTypes
 1C12:0000       $BM__GrafUtil
 1C12:0003       L__Info__GrafUtil
 1C12:00BB       L__InfoBeep__GrafUtil
 1C12:0112       L__DoBeep__GrafUtil
 1C12:017A       $BODY__GrafUtil
 1C12:01D3       $INIT__GrafUtil
 1C12:0220       $EM__GrafUtil
 1C35:0000       $BM__H_Odb
 1C35:000A       N__ReadRec__Oblicz__H_Odb
 1C35:0090       L__Oblicz__H_Odb
 1C35:00C3       L__Start__H_Odb
 1C35:00D6       L__Zatrzymaj__H_Odb
 1C35:00E9       L__Wznow__H_Odb
 1C35:00FC       L__IniData__H_Odb
 1C35:0145       L__PoprawDane__H_Odb
 1C35:0158       $BODY__H_Odb
 1C35:016F       $INIT__H_Odb
 1C35:01C6       $EM__H_Odb
 1C52:0000       $BM__AltInterface
 1C52:0012       L__SetPressure__AltInterface
 1C52:0032       L__ALTConvert__AltInterface
 1C52:0214       $BODY__AltInterface
 1C52:02DB       $INIT__AltInterface
 1C52:030F       $EM__AltInterface
 1C84:0000       $BM__Int_DME
 1C84:0002       L__DMEConvert__Int_DME
 1C84:00C8       $BODY__Int_DME
 1C84:00CE       $INIT__Int_DME
 1C84:00EE       $EM__Int_DME
 1C93:0000       $BM__FIltr1St
 1C93:0082       L__UstawOkresImpulsowania__FIlt
 1C93:00A2       L__InitCont__FIltr1St
 1C93:0199       L__Filtr__FIltr1St
 1C93:024F       L__InitCont2Filters__FIltr1St
 1C93:03DA       L__Filtr2Filters__FIltr1St
 1C93:050E       L__InitContB__FIltr1St
 1C93:053F       L__FiltrB__FIltr1St
 1C93:0598       L__InitContBCoun__FIltr1St
 1C93:05B7       L__BinaryCounter__FIltr1St
 1C93:0607       L__MemFiltr__FIltr1St
 1C93:0689       L__InitMemFiltr__FIltr1St
 1C93:06B5       L__MemFiltrInt__FIltr1St
 1C93:0712       L__InitMemFIntContiner__FIltr1S
 1C93:0737       $BODY__FIltr1St
 1C93:0757       $INIT__FIltr1St
 1C93:0786       $EM__FIltr1St
 1D0C:0000       $BM__GeoArithmetic
 1D0C:006A       S__DodajPolozenieGeo__GeoArithm
 1D0C:012E       S__Odwr__GeoArithmetic
 1D0C:01D4       S__OdejmijPolozenieGeo__GeoArit
 1D0C:02F0       S__SredniPolozenieGeo__GeoArith
 1D0C:03A9       S__Rad__GeoArithmetic
 1D0C:04C0       S__Odl2Geo__GeoArithmetic
 1D0C:0601       S__Mile__GeoArithmetic
 1D0C:0719       L__Geo2Kat__GeoArithmetic
 1D0C:0AEF       L__Kat2Geo__GeoArithmetic
 1D0C:0D1C       L__AssignOdniesienie__GeoArithm
 1D0C:0D90       $BODY__GeoArithmetic
 1D0C:0DA1       $INIT__GeoArithmetic
 1D0C:0DD5       $EM__GeoArithmetic
 1DEA:0000       $BM__DGH_utils
 1DEA:0002       L__TurnOffILSSig__DGH_utils
 1DEA:00D0       L__TurnOnLOCSig__DGH_utils
 1DEA:016E       L__TurnOnGSSig__DGH_utils
 1DEA:020C       L__TurnOnVORSig__DGH_utils
 1DEA:027A       L__TurnOffVORSig__DGH_utils
 1DEA:02E8       L__TurnOnDMESig__DGH_utils
 1DEA:0366       L__TurnOffDMESig__DGH_utils
 1DEA:03E4       L__TurnOnADFSig__DGH_utils
 1DEA:0432       L__TurnOffADFSig__DGH_utils
 1DEA:0480       N__ReadAnalog__ReadValue__DGH_u
 1DEA:04A8       L__ReadValue__DGH_utils
 1DEA:063C       L__ReadOmniber__DGH_utils
 1DEA:06BA       L__BinaryValSet__DGH_utils
 1DEA:0734       $BODY__DGH_utils
 1DEA:084D       $INIT__DGH_utils
 1DEA:08A4       $EM__DGH_utils
 1E75:0000       $BM__Czas
 1E75:003B       S__Write__BezPrzerwan__Czas
 1E75:00C0       L__GetTimeAndDate__Czas
 1E75:00C0       L__GetTimeAndDate__BezPrzerwan_
 1E75:00E8       S__SetTimeAndDate__BezPrzerwan_
 1E75:0128       L__WriteTime__Czas
 1E75:01DA       L__SetTime__Czas
 1E75:021B       L__SetDate__Czas
 1E75:024E       L__ConvertToStr__Czas
 1E75:02AF       L__Terminator__Czas
 1E75:02E0       $BODY__Czas
 1E75:0308       $INIT__Czas
 1E75:0369       $EM__Czas
 1EAC:0000       $BM__Kalibracja
 1EAC:097E       L__GetErrReset__ErrorHand__Kali
 1EAC:097E       L__GetErrReset__Kalibracja
 1EAC:09B6       S__SetError__ErrorHand__Kalibra
 1EAC:09DC       $BODY__ErrorHand__Kalibracja
 1EAC:09FA       N__Lookup__OmnibearingV__Kalibr
 1EAC:0E16       L__OmnibearingV__Kalibracja
 1EAC:0F88       L__Lookup__Kalibracja
 1EAC:143A       N__Status__Error__Kalibracja
 1EAC:1489       S__Error__Kalibracja
 1EAC:14D4       N__LoadValue__LoadSegmentTables
 1EAC:15EC       N__LoadReal__LoadSegmentTables_
 1EAC:1673       N__LoadTable__LoadSegmentTables
 1EAC:1719       N__LoadSegment__LoadChannel__Lo
 1EAC:17D7       N__LoadChannel__LoadSegmentTabl
 1EAC:1E6D       S__LoadSegmentTables__Kalibracj
 1EAC:219B       N__SaveValue__SaveSegmentTables
 1EAC:2293       N__SaveReal__SaveSegmentTables_
 1EAC:230E       N__SaveTable__SaveSegmentTables
 1EAC:23A0       N__SaveSegment__SaveChannel__Sa
 1EAC:243E       N__SaveChannel__SaveSegmentTabl
 1EAC:2A2F       L__SaveSegmentTables__Kalibracj
 1EAC:2C81       $BODY__Kalibracja
 1EAC:2DA5       $INIT__Kalibracja
 1EAC:2E15       $EM__Kalibracja
 218E:0000       $BM__DigiRS
 218E:0002       L__GetWrBufLength__DigiRS
 218E:004E       S__MarkError__DigiRS
 218E:007D       L__ReadString__DigiRS
 218E:00F3       L__WriteString__DigiRS
 218E:018F       L__SetBaudRate__DigiRS
 218E:02D4       $BODY__DigiRS
 218E:02F2       $INIT__DigiRS
 218E:031C       $EM__DigiRS
 21C0:0000       $BM__RealConversions
 21C0:0052       L__StringToReal__RealConversion
 21C0:04DF       N__convDigit__RealToString__Rea
 21C0:0572       N__convertnumber__RealToString_
 21C0:05EA       N__exp10__RealToString__RealCon
 21C0:06AC       L__RealToString__RealConversion
 21C0:0AF9       $BODY__RealConversions
 21C0:0AFF       $INIT__RealConversions
 21C0:0B1F       $EM__RealConversions
 2273:0000       $BM__Math
 2273:002A       L__ACos__Math
 2273:018D       L__Sqr__Math
 2273:01BD       $BODY__Math
 2273:01C3       $INIT__Math
 2273:01E8       $EM__Math
 2292:0000       $BM__GPS_nov
 2292:014D       L__KopijZnakZTeo__GPS_nov
 2292:0170       S__KopZnakDoKanaluMonitora__GPS
 2292:0193       N__ConvertHexChar__ReadGPS__Get
 2292:0200       N__ReadGPS__GetFrame__GPS_nov
 2292:03B1       N__szukaniePola__GetFrame__GPS_
 2292:0426       N__DekomozycjaRamki__GetFrame__
 2292:04F0       N__GetReal__GetFrame__GPS_nov
 2292:0538       N__GetCardinal__GetFrame__GPS_n
 2292:058D       N__GetInteger__GetFrame__GPS_no
 2292:05E2       N__An_Frame_DOPA__GetFrame__GPS
 2292:06A2       N__Isolate__ConvertStrToWspGeo_
 2292:0929       N__ConvertStrToWspGeo__GetWspGe
 2292:09E3       N__GetWspGeo__An_Frame_GPGGA__G
 2292:0A2D       N__An_Frame_GPGGA__GetFrame__GP
 2292:0B25       N__An_Frame_GPVTG__GetFrame__GP
 2292:0B90       N__Wydziel__An_Frame_GPZDA__Get
 2292:0C2E       N__An_Frame_GPZDA__GetFrame__GP
 2292:0CFB       L__GetFrame__GPS_nov
 2292:0DCE       L__Inicjacja__GPS_nov
 2292:109C       L__gpzdaOff__GPS_nov
 2292:10EC       $BODY__GPS_nov
 2292:11A6       $INIT__GPS_nov
 2292:11FD       $EM__GPS_nov
 23B2:0000       $BM__GPS_TRIMBLE
 23B2:0021       N__ReadPacketHead__GetFrame__GP
 23B2:006A       N__ReadEOL__GetFrame__GPS_TRIMB
 23B2:00C9       N__ReadGPS__GetFrame__GPS_TRIMB
 23B2:016D       N__WspGeoPoprawne__ReadG__GetFr
 23B2:01D7       N__Isolate__ReadG__GetFrame__GP
 23B2:0306       N__ReadG__GetFrame__GPS_TRIMBLE
 23B2:03CB       N__TypGPS__GetFrame__GPS_TRIMBL
 23B2:043F       N__Wydziel__GetFrame__GPS_TRIMB
 23B2:0509       N__PodstawWyniki__GetFrame__GPS
 23B2:05C7       L__GetFrame__GPS_TRIMBLE
 23B2:082D       L__Inicjacja__GPS_TRIMBLE
 23B2:084A       $BODY__GPS_TRIMBLE
 23B2:08B5       $INIT__GPS_TRIMBLE
 23B2:08F8       $EM__GPS_TRIMBLE
 2442:0000       $BM__Ini
 2442:0006       L__DefaultError__Ini
 2442:001E       S__FormSectionString__Ini
 2442:010A       S__LookForSection__Ini
 2442:018F       N__ToEOL__LookForEntry__Ini
 2442:020F       S__LookForEntry__Ini
 2442:035E       L__GetPrivateProfileString__Ini
 2442:050E       L__DeleteSection__Ini
 2442:06C6       L__WritePrivateProfileString__I
 2442:0BE2       S__Expand__Ini
 2442:0E08       L__CloseBuffer__Ini
 2442:0F29       S__AllocateBuffer__Ini
 2442:1139       $BODY__Ini
 2442:119F       $INIT__Ini
 2442:11D8       $EM__Ini
 2560:0000       $BM__FIO
 2560:0002       L__Open__FIO
 2560:00FA       L__Create__FIO
 2560:01F2       L__Close__FIO
 2560:026A       L__Seek__FIO
 2560:02BC       L__Write__FIO
 2560:0301       L__Read__FIO
 2560:0346       L__ReadExt__FIO
 2560:0389       L__Length__FIO
 2560:040B       L__EOF__FIO
 2560:046B       L__Delete__FIO
 2560:04B4       L__CD__FIO
 2560:0510       L__MkDir__FIO
 2560:056C       L__RmDir__FIO
 2560:05B5       L__GetDir__FIO
 2560:0614       L__Rename__FIO
 2560:0685       L__GetFileStamp__FIO
 2560:0700       L__DirQuery__FIO
 2560:08B1       L__CriticalErrorHandlerProc__FI
 2560:08BA       L__Terminator__FIO
 2560:097A       S__InitFiles__FIO
 2560:09F0       $BODY__FIO
 2560:0A16       $INIT__FIO
 2560:0A45       $EM__FIO
 2605:0000       $BM__ShortCuts
 2605:0002       L__KeyPressed__ShortCuts
 2605:0002       L__KeyPressed__monitor__ShortCu
 2605:003B       L__PutKeyStrokeIntoBuffer__moni
 2605:003B       L__PutKeyStrokeIntoBuffer__Shor
 2605:006D       L__ClearBuffer__monitor__ShortC
 2605:006D       L__ClearBuffer__ShortCuts
 2605:008B       L__Read__ShortCuts
 2605:008B       L__Read__monitor__ShortCuts
 2605:0104       L__Rd__ShortCuts
 2605:0104       L__Rd__monitor__ShortCuts
 2605:013F       S__Insert__monitor__ShortCuts
 2605:01A0       N__Remove__RemoveToKill__monito
 2605:032C       S__RemoveToKill__monitor__Short
 2605:0382       S__Find__monitor__ShortCuts
 2605:0424       S__FindAMark__monitor__ShortCut
 2605:04D2       S__Unmark__monitor__ShortCuts
 2605:0532       $BODY__monitor__ShortCuts
 2605:056C       N__GetChar__KbdScan__ShortCuts
 2605:05B8       L__KbdScan__ShortCuts
 2605:0612       L__DefineShortCut__ShortCuts
 2605:0691       N__Kill__DeleteShortCut__ShortC
 2605:06DD       L__DeleteShortCut__ShortCuts
 2605:070A       $BODY__ShortCuts
 2605:0762       $INIT__ShortCuts
 2605:079B       $EM__ShortCuts
 267F:0000       $BM__MsgBox
 267F:0017       L__Warn__MsgBox
 267F:0072       L__Info__MsgBox
 267F:00F2       L__AdvInfo__MsgBox
 267F:05C9       L__P0__MsgBox
 267F:05EA       L__P1__MsgBox
 267F:060B       L__P2__MsgBox
 267F:062C       L__P3__MsgBox
 267F:064D       S__Init__MsgBox
 267F:0680       $BODY__MsgBox
 267F:0689       $INIT__MsgBox
 267F:06DB       $EM__MsgBox
 26ED:0000       $BM__Obloty
 26ED:01EB       L__UstawHomeDir__Obloty
 26ED:0242       L__Ile__Obloty
 26ED:0266       S__IleInspekcji__Obloty
 26ED:02DC       S__WymienWszystkie__Obloty
 26ED:037F       L__Dopasuj__Obloty
 26ED:041D       L__WymInspekcjeDlaUrz__Obloty
 26ED:04E4       L__WymienWszystkiePasujace__Obl
 26ED:051E       L__SzczegolowyPlikOpisu__Obloty
 26ED:068A       L__Kasuj__Obloty
 26ED:06B2       L__ZmienISkasuj__Obloty
 26ED:0738       S__SkasujKartoteke__Obloty
 26ED:078A       L__SkasujOblot__Obloty
 26ED:09B5       N__KasujPlik__KasujPodkartoteke
 26ED:0A4B       L__KasujPodkartoteke__Obloty
 26ED:0B21       S__Kasuj_DelDir__Obloty
 26ED:0B98       L__SkasujInspekcje__Obloty
 26ED:0DD3       N__ExistDIR__FreeSlot__Obloty
 26ED:0E1A       L__FreeSlot__Obloty
 26ED:0EB9       S__ZnajdzNumInspekcji__Obloty
 26ED:0FF8       L__ZnajdzInspekcje__Obloty
 26ED:1042       L__InspekcjeNowyWpis__Obloty
 26ED:11EB       N__KopiujPlik__KopiujPodkartote
 26ED:13F8       L__KopiujPodkartoteke__Obloty
 26ED:1564       S__KopiujKartoteke__Obloty
 26ED:15DB       L__KopiujInspekcje__Obloty
 26ED:171F       L__StartInspection__Obloty
 26ED:1A87       L__InitListaUrzadzen__Obloty
 26ED:1B83       L__Dum_Stat_Size_Monitor__Oblot
 26ED:1B8B       L__Dum_Stat_File_Monitor__Oblot
 26ED:1B9E       $BODY__Obloty
 26ED:1C0F       $INIT__Obloty
 26ED:1C75       $EM__Obloty
 28B5:0000       $BM__MMMouse
 28B5:0002       S__DefineStdCursor__MMMouse
 28B5:00D9       S__Init__MMMouse
 28B5:00DF       L__HideConditionally__MMMouse
 28B5:018A       L__IsHidden__MMMouse
 28B5:019E       L__RegisterRegion__MMMouse
 28B5:02C7       L__SetOnTop__MMMouse
 28B5:03E9       L__UnregisterRegion__MMMouse
 28B5:0623       S__Swap__MMMouse
 28B5:0639       S__SetShape__MMMouse
 28B5:0651       S__WrIdx__MMMouse
 28B5:066E       S__WrBit__MMMouse
 28B5:06C2       L__GetRegion__MMMouse
 28B5:0713       L__GetRegionRect__MMMouse
 28B5:0780       L__SetParent__MMMouse
 28B5:07F2       L__EventDispatcher__BezPrzerwan
 28B5:08F0       N__Button2Ev__GetEvent__BezPrze
 28B5:096B       S__GetEvent__BezPrzerwanOdMyszy
 28B5:0AC3       L__InsertEvent__BezPrzerwanOdMy
 28B5:0AC3       L__InsertEvent__MMMouse
 28B5:0B15       $BODY__BezPrzerwanOdMyszy__MMMo
 28B5:0B5F       S__RedrawAt__BezWyszeregowania_
 28B5:0BB2       L__ShowCursor__MMMouse
 28B5:0BB2       L__ShowCursor__BezWyszeregowani
 28B5:0BDE       L__HideCursor__MMMouse
 28B5:0BDE       L__HideCursor__BezWyszeregowani
 28B5:0C0A       S__RemoveCursor__BezWyszeregowa
 28B5:0C8E       S__DrawCursor__BezWyszeregowani
 28B5:1031       L__MouseLoop__MMMouse
 28B5:133C       L__Terminator__MMMouse
 28B5:134F       $BODY__MMMouse
 28B5:14AB       $INIT__MMMouse
 28B5:1502       $EM__MMMouse
 2A06:0000       $BM__GList
 2A06:0002       L__SetNotificationProc__GList
 2A06:0020       L__DummyNotification__GList
 2A06:0028       L__TworzListe__GList
 2A06:02FB       N__UsunStr__SkasujWszystko__GLi
 2A06:033D       L__SkasujWszystko__GList
 2A06:0387       L__Skasuj__GList
 2A06:04C1       L__UsunListe__GList
 2A06:06B6       L__DodajDoListy__GList
 2A06:08C9       L__WstawDoListy__GList
 2A06:0A11       L__Idx2Str__GList
 2A06:0AC4       L__ZmienListe__GList
 2A06:0B6F       L__LiczbaElementow__GList
 2A06:0B8E       L__kbHandler__GList
 2A06:0C76       L__RScrollUp__GList
 2A06:0D8F       L__RScrollDn__GList
 2A06:0E9F       L__RChoose__GList
 2A06:0FE8       S__CP__GList
 2A06:100F       L__Wybor__GList
 2A06:1046       S__Redraw__GList
 2A06:107D       N__WrStr__Draw__GList
 2A06:1181       S__Draw__GList
 2A06:128C       L__HandleEvent__GList
 2A06:1454       L__CanEnable__GList
 2A06:1470       L__Disable__GList
 2A06:14F4       L__GetSelection__GList
 2A06:1513       L__Enable__GList
 2A06:1608       L__GetRegion__GList
 2A06:1698       L__Sortowana__GList
 2A06:16B4       S__SetSelectionInt__GList
 2A06:1754       L__SetSelectionNotf__GList
 2A06:1772       L__SetSelection__GList
 2A06:1790       S__SetPositions__GList
 2A06:1819       L__GetRect__GList
 2A06:1839       L__GetContents__GList
 2A06:1860       L__SetContents__GList
 2A06:18E1       L__KillContents__GList
 2A06:18FD       $BODY__GList
 2A06:1920       $INIT__GList
 2A06:197C       $EM__GList
 2B9E:0000       $BM__Buttons
 2B9E:0002       S__Insert__MONITOR__Buttons
 2B9E:0052       N__Remove__RemoveToKill__MONITO
 2B9E:01B5       S__RemoveToKill__MONITOR__Butto
 2B9E:0205       S__FindAMark__MONITOR__Buttons
 2B9E:0318       S__MarkBut__MONITOR__Buttons
 2B9E:03BB       S__Unmark__MONITOR__Buttons
 2B9E:041B       $BODY__MONITOR__Buttons
 2B9E:043F       N__Dec__DrawInter__Buttons
 2B9E:047D       S__DrawInter__Buttons
 2B9E:0790       L__UniversalKBD__Buttons
 2B9E:07E1       L__MouseHandler__Buttons
 2B9E:0959       L__ChangeButton__Buttons
 2B9E:09D0       L__ChangeButtonText__Buttons
 2B9E:0A36       N__KillButton__DisposeButton__B
 2B9E:0AAB       L__DisposeButton__Buttons
 2B9E:0AE2       L__PressRadio__Buttons
 2B9E:0B27       L__Nic__Buttons
 2B9E:0B2D       L__CreateButton__Buttons
 2B9E:0C3C       L__CreateRadioButton__Buttons
 2B9E:0CC0       L__EnableButton__Buttons
 2B9E:0D0E       L__GetRegion__Buttons
 2B9E:0D35       L__CallProc__Buttons
 2B9E:0D4E       L__EnableDisableAllButtons__But
 2B9E:0D61       $BODY__Buttons
 2B9E:0D80       $INIT__Buttons
 2B9E:0DD7       $EM__Buttons
 2C7C:0000       $BM__Dialog
 2C7C:0006       L__GetDialogDIBHandle__Dialog
 2C7C:002D       L__WstawButton__Dialog
 2C7C:0156       L__WstawRadioButton__Dialog
 2C7C:02EB       L__RadioBProc__Dialog
 2C7C:03EC       L__WstawInpLine__Dialog
 2C7C:0518       L__WstawListe__Dialog
 2C7C:0663       L__TworzDialog__Dialog
 2C7C:0A79       N__UsunPola__UsunDialog__Dialog
 2C7C:0B28       L__UsunDialog__Dialog
 2C7C:0D8A       L__KlawiszSpacji__Dialog
 2C7C:0E12       L__KlawiszTab__Dialog
 2C7C:0E94       L__KlawiszShiftTab__Dialog
 2C7C:0F3F       N__Expand__Aktywizuj__Dialog
 2C7C:0FCA       S__Aktywizuj__Dialog
 2C7C:1185       S__CzyMoznaSkonczyc__Dialog
 2C7C:123F       L__Go__Dialog
 2C7C:1488       L__DialogMouseHandle__Dialog
 2C7C:15B1       S__ChwilowoZablokujDialog__Dial
 2C7C:15E7       L__EndDialog__Dialog
 2C7C:1666       L__AltF4__Dialog
 2C7C:167B       L__EnableDlg__Dialog
 2C7C:17AC       L__IsBusy__Dialog
 2C7C:17EF       L__Redraw__Dialog
 2C7C:18C2       $BODY__Dialog
 2C7C:18EB       $INIT__Dialog
 2C7C:195B       $EM__Dialog
 2E12:0000       $BM__InpLine
 2E12:0002       L__CreateInpLine__InpLine
 2E12:0183       L__Enable__InpLine
 2E12:01CA       L__DeleteInpLine__InpLine
 2E12:02C9       L__SetText__InpLine
 2E12:0388       L__GetText__InpLine
 2E12:03DC       L__Key__InpLine
 2E12:07B4       L__DoNothing__InpLine
 2E12:07C4       L__KillFocus__InpLine
 2E12:0827       S__Draw__InpLine
 2E12:09E5       L__SetCursor__InpLine
 2E12:0B2F       L__SetActive__InpLine
 2E12:0C4D       L__GetRegion__InpLine
 2E12:0C9E       $BODY__InpLine
 2E12:0CB5       $INIT__InpLine
 2E12:0D16       $EM__InpLine
 2EE4:0000       $BM__FCBS
 2EE4:0002       L__Set__FCBS
 2EE4:001A       S__CtrlBreakProc__FCBS
 2EE4:0037       $BODY__FCBS
 2EE4:004C       $INIT__FCBS
 2EE4:0071       $EM__FCBS
 2EEC:0000       $BM__CocpDsp
 2EEC:0002       L__UstawFormat__CocpDsp
 2EEC:02E6       L__PodajFormat__CocpDsp
 2EEC:0315       L__UstawZmienne__CocpDsp
 2EEC:058F       L__SetIdleMsg__CocpDsp
 2EEC:05AF       N__SendMsg__ControlLoop__CocpDs
 2EEC:077A       N__PozWskazowki__SetLOC_G_SCP__
 2EEC:0823       N__SetLOC_G_SCP__ControlLoop__C
 2EEC:090E       N__pozycjaStrzalki__ControlLoop
 2EEC:0A5E       L__ControlLoop__CocpDsp
 2EEC:0C01       L__WatchDogProcess__CocpDsp
 2EEC:0C4D       $BODY__CocpDsp
 2EEC:0D49       $INIT__CocpDsp
 2EEC:0D8C       $EM__CocpDsp
 2FC5:0000       $BM__DataCollect
 2FC5:0002       L__SampleNr__tablice__DataColle
 2FC5:0002       L__SampleNr__DataCollect
 2FC5:004E       L__RedrawReq__tablice__DataColl
 2FC5:004E       L__RedrawReq__DataCollect
 2FC5:0152       N__UpdateNR__Tablice800__tablic
 2FC5:0219       N__Shrink__Tablice800__tablice_
 2FC5:034B       N__ShrinkX__Tablice800__tablice
 2FC5:0422       S__Tablice800__tablice__DataCol
 2FC5:15DF       S__InitTab__tablice__DataCollec
 2FC5:1867       L__Samp2Dis__DataCollect
 2FC5:1867       L__Samp2Dis__tablice__DataColle
 2FC5:1968       L__Samp2Kat__tablice__DataColle
 2FC5:1968       L__Samp2Kat__DataCollect
 2FC5:1A69       L__ResetMarks_A__DataCollect
 2FC5:1A86       L__ResetMarks_D__DataCollect
 2FC5:1AA3       L__GetNextDMark__DataCollect
 2FC5:1B29       L__GetNextAMark__DataCollect
 2FC5:1BBB       S__Start__DataCollect
 2FC5:2002       L__ResetDataCollect__DataCollec
 2FC5:2092       N__UpdateDistMarks__UpdTab800__
 2FC5:20FA       N__UpdateAlfaMarks__UpdTab800__
 2FC5:2171       L__UpdTab800__DataCollect
 2FC5:21D7       L__NilProc__DataCollect
 2FC5:21DF       $BODY__DataCollect
 2FC5:2221       $INIT__DataCollect
 2FC5:226E       $EM__DataCollect
 31EC:0000       $BM__Mapa
 31EC:008A       S__RedefineMaxDist__Mapa
 31EC:0151       N__GetGPS__resolveSituation__Ma
 31EC:0260       N__CountMaxDist__resolveSituati
 31EC:037D       S__resolveSituation__Mapa
 31EC:0419       S__MakeMAP__Mapa
 31EC:0545       L__PokazKatyLotu__Mapa
 31EC:0696       N__Min__Promienie__Mapa
 31EC:06B6       L__Promienie__Mapa
 31EC:07B3       L__GdzieJest__Mapa
 31EC:0922       S__Stop__monitor__Mapa
 31EC:0951       L__StartProcess__Mapa
 31EC:0951       L__StartProcess__monitor__Mapa
 31EC:098B       L__CancelProcess__monitor__Mapa
 31EC:098B       L__CancelProcess__Mapa
 31EC:09BA       $BODY__monitor__Mapa
 31EC:09DC       S__FillPromieie__Mapa
 31EC:0A4F       $BODY__Mapa
 31EC:0AF4       $INIT__Mapa
 31EC:0B50       $EM__Mapa
 32A2:0000       $BM__Wykres
 32A2:009B       S__Log10__Wykres
 32A2:0101       N__SkalY__Draw__Wykres
 32A2:03D7       L__Draw__Wykres
 32A2:052F       N__SkalY__PokazWykres__Wykres
 32A2:062B       N__SkalX__PokazWykres__Wykres
 32A2:0758       L__PokazWykres__Wykres
 32A2:0853       N__SkalY__PokazWykres1__Wykres
 32A2:09B4       L__PokazWykres1__Wykres
 32A2:0B0C       L__Opis__Wykres
 32A2:0B8B       N__AutoFormat__OpisLog__Wykres
 32A2:0C63       N__LineV__OpisLog__Wykres
 32A2:1024       N__LineH__OpisLog__Wykres
 32A2:1330       L__OpisLog__Wykres
 32A2:14E2       L__PokazWykresNS__Wykres
 32A2:1546       N__SkalY__PokazWykresNSLog__Wyk
 32A2:17B3       N__SkalX__PokazWykresNSLog__Wyk
 32A2:1B1F       L__PokazWykresNSLog__Wykres
 32A2:1DFD       S__LogPos__Wykres
 32A2:1EE5       L__LessInt__Wykres
 32A2:1F01       L__LessCard__Wykres
 32A2:1F1D       L__Card2Real__Wykres
 32A2:1F64       L__Int2Real__Wykres
 32A2:1FA0       N__GetX__PokazWykresZXms__Wykre
 32A2:1FC9       N__GetY__PokazWykresZXms__Wykre
 32A2:1FF2       N__SkalY__PokazWykresZXms__Wykr
 32A2:222D       N__SkalX__PokazWykresZXms__Wykr
 32A2:256B       L__PokazWykresZXms__Wykres
 32A2:270A       $BODY__Wykres
 32A2:2710       $INIT__Wykres
 32A2:2762       $EM__Wykres
 3519:0000       $BM__XMSTable
 3519:0002       L__AssignNil__XMSTable
 3519:0018       L__Size__XMSTable
 3519:0039       L__IsValid__XMSTable
 3519:005D       L__Allocate__XMSTable
 3519:00F2       L__Deallocate__XMSTable
 3519:0142       L__PutElem__XMSTable
 3519:01B7       L__GetElem__XMSTable
 3519:0245       S__Map__XMSTable
 3519:0325       $BODY__XMSTable
 3519:032B       $INIT__XMSTable
 3519:035A       $EM__XMSTable
 354F:0000       $BM__Graphics
 354F:000B       L__MaxHor__Graphics
 354F:0014       L__MaxVer__Graphics
 354F:001D       L__Tryb__Graphics
 354F:008B       S__HugeMemCpy__Graphics
 354F:0136       L__SetBank__InternalMonitor__Gr
 354F:0136       L__SetBank__Graphics
 354F:0191       L__GetBank__InternalMonitor__Gr
 354F:0191       L__GetBank__Graphics
 354F:01B2       L__DP__InternalMonitor__Graphic
 354F:01B2       L__DP__Graphics
 354F:025A       L__FillRect__Graphics
 354F:025A       L__FillRect__InternalMonitor__G
 354F:03B5       L__GetWindow__Graphics
 354F:03B5       L__GetWindow__InternalMonitor__
 354F:0593       L__InvertW__InternalMonitor__Gr
 354F:0593       L__InvertW__Graphics
 354F:0703       L__SetWindow__InternalMonitor__
 354F:0703       L__SetWindow__Graphics
 354F:08E1       L___WrStrXY__Graphics
 354F:08E1       L___WrStrXY__InternalMonitor__G
 354F:09BB       S__GetFontPtr__InternalMonitor_
 354F:0CF3       L___Wr16StrXY__InternalMonitor_
 354F:0CF3       L___Wr16StrXY__Graphics
 354F:0DC9       L___Wr2StrXY__Graphics
 354F:0DC9       L___Wr2StrXY__InternalMonitor__
 354F:0F13       L___Wr2fStrXY__InternalMonitor_
 354F:0F13       L___Wr2fStrXY__Graphics
 354F:1059       L__Terminator__Graphics
 354F:1064       S__FindROMFontAddr__Graphics
 354F:108B       S__LoadPLFonts__Graphics
 354F:10C2       $BODY__Graphics
 354F:10F2       $INIT__Graphics
 354F:1121       $EM__Graphics
 3662:0000       L__XmsInstalled__XMS
 3662:0000       $BM__XMS
 3662:0011       L__QueryFreeExtMem__XMS
 3662:003C       L__AllocateExtMem__XMS
 3662:0068       L__FreeExtMem__XMS
 3662:008B       L__MoveExtMemBlock__XMS
 3662:00B2       L__ResizeExtMemBlock__XMS
 3662:00D8       L__AllocUpperMemBlock__XMS
 3662:0107       L__FreeUpperMemBlock__XMS
 3662:012A       $EM__XMS
 3675:0000       $INIT__XMS
 3679:0000       $BM__XMSService
 3679:004E       L__Allocate__XMSService
 3679:00EE       L__Deallocate__XMSService
 3679:0110       L__Copy__XMSService
 3679:01F3       S__Free__XMSService
 3679:02F4       L__Terminator__XMSService
 3679:03C4       S__Blad__XMSService
 3679:0412       S__WrWarning__XMSService
 3679:0450       $BODY__XMSService
 3679:0485       $INIT__XMSService
 3679:04BE       $EM__XMSService
 36C5:0000       $BM__EventsMng
 36C5:0037       L__NewEvent__EventsMng
 36C5:014C       L__NewTeoEvent__EventsMng
 36C5:01CF       L__NewPilotEvent__EventsMng
 36C5:0252       L__NewConsoleEvent__EventsMng
 36C5:02D5       L__FindNextEvent__EventsMng
 36C5:0366       L__GetUpdNextEvent__EventsMng
 36C5:041A       L__GetEventInfo__EventsMng
 36C5:04AA       L__SaveDistEvents__EventsMng
 36C5:04F4       S__InitEvents__EventsMng
 36C5:0519       L__LoadDistEvents__EventsMng
 36C5:055C       L__EventsMngInit__EventsMng
 36C5:060A       L__UpdateStrefa__EventsMng
 36C5:087E       L__Terminator__EventsMng
 36C5:09B8       $BODY__EventsMng
 36C5:09EE       $INIT__EventsMng
 36C5:0A4A       $EM__EventsMng
 376A:0000       $BM__PI_ScrUtility
 376A:0002       L__ShowScreenDIB__PI_ScrUtility
 376A:0035       L__ShowCursorDIB__PI_ScrUtility
 376A:0063       L__WykSlup__PI_ScrUtility
 376A:006B       L__UpdateSlupki__PI_ScrUtility
 376A:0071       L__DisposeSlupki__PI_ScrUtility
 376A:0077       L__NapiszSygnaly__PI_ScrUtility
 376A:0084       L__Init_ScrUtility__PI_ScrUtili
 376A:008C       L__IniSkale__PI_ScrUtility
 376A:00A6       L__GetRegionWykG__PI_ScrUtility
 376A:00B6       L__GetRegionWyk1__PI_ScrUtility
 376A:00C6       L__GetRegionWyk2__PI_ScrUtility
 376A:00D6       L__GetRegionWyk3__PI_ScrUtility
 376A:00E6       $BODY__PI_ScrUtility
 376A:00EC       $INIT__PI_ScrUtility
 376A:012F       $EM__PI_ScrUtility
 377E:0000       $BM__Slupek
 377E:0002       L__WykresSlupkowy__Slupek
 377E:0229       N__Skala__Update__Slupek
 377E:02EE       N__Kolor__Update__Slupek
 377E:0317       N__FillR__Odswiez__Update__Slup
 377E:036C       N__Odswiez__Update__Slupek
 377E:058F       L__Update__Slupek
 377E:0647       L__Dispose__Slupek
 377E:065C       L__Nothing__Slupek
 377E:0666       L__GetSlupRect__Slupek
 377E:0695       L__Nil__Slupek
 377E:06A7       $BODY__Slupek
 377E:06AD       $INIT__Slupek
 377E:06E6       $EM__Slupek
 37ED:0000       $BM__ScreenCTypes
 37ED:0002       S__Init__ScreenCTypes
 37ED:016B       $BODY__ScreenCTypes
 37ED:0174       $INIT__ScreenCTypes
 37ED:019E       $EM__ScreenCTypes
 3807:0000       $BM__H_DisResults
 3807:0071       L__WriteTab__H_DisResults
 3807:01C9       N__WriteMod__DispResults__H_Dis
 3807:036A       L__DispResults__H_DisResults
 3807:03D7       $BODY__H_DisResults
 3807:03DD       $INIT__H_DisResults
 3807:042A       $EM__H_DisResults
 384A:0000       $BM__FlagAnal
 384A:0010       N__UsunNajmniejszy__FlagErr_Ana
 384A:01D6       L__FlagErr_Anal__FlagAnal
 384A:02B3       L__InitFlagErr__FlagAnal
 384A:0352       L__GetNextFrac__FlagAnal
 384A:044F       L__MinPoczKonSig__FlagAnal
 384A:0513       L__MinPoczKonDis__FlagAnal
 384A:05D7       L__SumaDlugosciSig__FlagAnal
 384A:06A0       $BODY__FlagAnal
 384A:06A6       $INIT__FlagAnal
 384A:06DA       $EM__FlagAnal
 38B8:0000       $BM__DisResUtilities
 38B8:000A       L__WriteTab__DisResUtilities
 38B8:00BE       L__WrS__DisResUtilities
 38B8:00F4       L__WrSPlus__DisResUtilities
 38B8:014A       L__INCLine__DisResUtilities
 38B8:0170       L__WrFlagsTableWHeading__DisRes
 38B8:023C       L__WrFlagsTable__DisResUtilitie
 38B8:02AF       L__WrF_TablicaOdci__DisResUtili
 38B8:0340       $BODY__DisResUtilities
 38B8:0346       $INIT__DisResUtilities
 38B8:0389       $EM__DisResUtilities
 38F1:0000       $BM__PiszEventy
 38F1:038B       N__Znacznik__Decode__PiszEventy
 38F1:0786       S__Decode__PiszEventy
 38F1:0A31       L__IleEventow__PiszEventy
 38F1:0A53       L__TworzEventy__PiszEventy
 38F1:0AA6       N__WrStr__PiszNaEkranie__PiszEv
 38F1:0B99       L__PiszNaEkranie__PiszEventy
 38F1:0D48       S__min__PiszEventy
 38F1:0D6B       L__PiszNaDrukarce__PiszEventy
 38F1:0F04       L__EnumEv__PiszEventy
 38F1:10B0       S__WrStrLn__PiszEventy
 38F1:10DC       S__WrStr__PiszEventy
 38F1:1163       S__WrLn__PiszEventy
 38F1:117D       S__WrP__PiszEventy
 38F1:1199       $BODY__PiszEventy
 38F1:11AA       $INIT__PiszEventy
 38F1:1233       $EM__PiszEventy
 3A15:0000       $BM__H_results
 3A15:0002       L__SaveAnRes__H_results
 3A15:0034       L__GetAnRes__H_results
 3A15:0099       N__Init_A_OpisOdcinka__Init__H_
 3A15:00D2       L__Init__H_results
 3A15:01ED       $BODY__H_results
 3A15:0233       $INIT__H_results
 3A15:0271       $EM__H_results
 3A3D:0000       $BM__H_DAcquizition
 3A3D:0002       S__CommReq__Monitor__H_DAcquizi
 3A3D:0034       L__Stop__H_DAcquizition
 3A3D:0034       L__Stop__Monitor__H_DAcquizitio
 3A3D:0063       L__ConsoleEv__Monitor__H_DAcqui
 3A3D:0063       L__ConsoleEv__H_DAcquizition
 3A3D:0092       L__Restart__Monitor__H_DAcquizi
 3A3D:0092       L__Restart__H_DAcquizition
 3A3D:00C1       S__GetEvent__Monitor__H_DAcquiz
 3A3D:011B       $BODY__Monitor__H_DAcquizition
 3A3D:0142       L__Acquire__H_DAcquizition
 3A3D:02FE       L__RedrawReq__H_DAcquizition
 3A3D:034D       L__RedrawMarksReq__H_DAcquiziti
 3A3D:037A       L__UpdateMarksOrbit__H_DAcquizi
 3A3D:03DD       L__UpdateMarksRadial__H_DAcquiz
 3A3D:0440       S__IniData__H_DAcquizition
 3A3D:04C7       L__IniDataOrbit__H_DAcquizition
 3A3D:04DF       L__IniDataRadial__H_DAcquizitio
 3A3D:04F7       L__Start__H_DAcquizition
 3A3D:0552       L__Abort__H_DAcquizition
 3A3D:057A       L__PolV__H_DAcquizition
 3A3D:0582       $BODY__H_DAcquizition
 3A3D:05BD       $INIT__H_DAcquizition
 3A3D:0637       $EM__H_DAcquizition
 3AA1:0000       $BM__H_Count
 3AA1:008A       N__GetEvent__DoAnaliza__Analiza
 3AA1:011E       N__ClearAllCont__DoAnaliza__Ana
 3AA1:014C       N__DoAnaliza__Analiza__H_Count
 3AA1:034D       N__Interpolacja__Analiza__H_Cou
 3AA1:037B       L__Analiza__H_Count
 3AA1:045B       $BODY__H_Count
 3AA1:0461       $INIT__H_Count
 3AA1:04BD       $EM__H_Count
 3AED:0000       $BM__H_Print
 3AED:0129       S__PromienANieOrbita__H_Print
 3AED:0148       S__MakeHeader__H_Print
 3AED:0255       N__IntFrac__WrSignalDesc__OpisP
 3AED:0317       N__WrSignalDesc__OpisPomiaru__H
 3AED:03F3       S__OpisPomiaru__H_Print
 3AED:04C3       S__Print__H_Print
 3AED:0944       L__MakeRaport__H_Print
 3AED:0995       $BODY__H_Print
 3AED:099B       $INIT__H_Print
 3AED:0A29       $EM__H_Print
 3B90:0000       $BM__Semafory
 3B90:0002       L__Set__Semafory
 3B90:00AA       L__Free__Semafory
 3B90:0120       L__Register__Semafory
 3B90:01B0       L__Init__Semafory
 3B90:01FC       L__Unregister__Semafory
 3B90:02B0       S__ExceptionHandler__Semafory
 3B90:03BE       S__InitTbl__Semafory
 3B90:041D       $BODY__Semafory
 3B90:0433       $INIT__Semafory
 3B90:0453       $EM__Semafory
 3BD6:0000       $BM__Random
 3BD6:002A       S__Next__Random
 3BD6:00DE       L__RandomInit__Random
 3BD6:01A8       L__RandomCard__Random
 3BD6:0245       L__RandomInt__Random
 3BD6:026A       L__RandomReal__Random
 3BD6:0385       L__Randomize__Random
 3BD6:03DC       $BODY__Random
 3BD6:03E6       $INIT__Random
 3BD6:0410       $EM__Random
 3C18:0000       $BM__NAVInterface
 3C18:0022       L__GetOmnibearing__NAVInterface
 3C18:0190       L__GetLocDev__NAVInterface
 3C18:0241       L__GetGSDev__NAVInterface
 3C18:02F2       $BODY__NAVInterface
 3C18:0322       $INIT__NAVInterface
 3C18:0351       $EM__NAVInterface
 3C4E:0000       $BM__ARINC
 3C4E:0002       S__INByte__ARINC
 3C4E:0062       S__OUTByte__ARINC
 3C4E:00BF       L__ReInitialize__ARINC
 3C4E:00FF       L__WriteTXParity__ARINC
 3C4E:0173       L__WriteTXChannel__ARINC
 3C4E:01F1       L__WriteTXLabel__ARINC
 3C4E:026F       L__WriteTXData__ARINC
 3C4E:032A       L__WriteTXRate__ARINC
 3C4E:03F4       L__WriteKillTime__ARINC
 3C4E:04B2       L__WriteCardMode__ARINC
 3C4E:051B       L__ReadConfiguration__ARINC
 3C4E:0637       L__ReadTXSlot__ARINC
 3C4E:079E       L__ReadRXSlot__ARINC
 3C4E:093D       $BODY__ARINC
 3C4E:0954       $INIT__ARINC
 3C4E:096F       $EM__ARINC
 3CE6:0000       $BM__HRD_Clock
 3CE6:0002       S__BCD__HRD_Clock
 3CE6:003A       S__CheckUpdateCycle__HRD_Clock
 3CE6:006D       S__GetGodzina__HRD_Clock
 3CE6:00A1       L__Godzina__HRD_Clock
 3CE6:011E       L__Data__HRD_Clock
 3CE6:0242       $BODY__HRD_Clock
 3CE6:0248       $INIT__HRD_Clock
 3CE6:026D       $EM__HRD_Clock
 3D0D:0000       $BM__Kl_FGenerators
 3D0D:0002       L__LookupM__Kl_FGenerators
 3D0D:04D9       $BODY__Kl_FGenerators
 3D0D:04DF       $INIT__Kl_FGenerators
 3D0D:04FF       $EM__Kl_FGenerators
 3D5E:0000       $BM__Marks
 3D5E:0032       L__AngResetContiner__Marks
 3D5E:0041       L__DisResetContiner__Marks
 3D5E:0050       N__findidx__AngAddSample__Marks
 3D5E:010A       N__Side__AngAddSample__Marks
 3D5E:015E       L__AngAddSample__Marks
 3D5E:037F       N__findidx__DisAddSample__Marks
 3D5E:0423       N__Side__DisAddSample__Marks
 3D5E:0453       L__DisAddSample__Marks
 3D5E:0636       L__InicjujOpisStanuLuku__Marks
 3D5E:0670       N__findidx__SegZakonczony__Mark
 3D5E:0806       L__SegZakonczony__Marks
 3D5E:08FD       $BODY__Marks
 3D5E:0903       $INIT__Marks
 3D5E:0937       $EM__Marks
 3DF2:0000       $BM__Polozenie
 3DF2:005A       N__FlipY__InitMarkers__Polozeni
 3DF2:0120       N__FlipX__InitMarkers__Polozeni
 3DF2:0226       N__Rot90__InitMarkers__Polozeni
 3DF2:032E       S__InitMarkers__Polozenie
 3DF2:044A       S__DrawMarker__Polozenie
 3DF2:0855       S__EraseMarker__Polozenie
 3DF2:08FE       L__Start_Polozenie__Polozenie
 3DF2:0959       N__XY__LL__DrawNCO__Polozenie
 3DF2:0A88       N__LL__DrawNCO__Polozenie
 3DF2:0BA8       S__DrawNCO__Polozenie
 3DF2:0C2C       L__UpdateM__Polozenie
 3DF2:0DD7       L__Stop_Polozenie__Polozenie
 3DF2:0E09       L__RresetCzesciOkregu__Polozeni
 3DF2:0E6A       L__NoweCzesciOkregu__Polozenie
 3DF2:0EEE       N__Rysuj__Promienie__Polozenie
 3DF2:1084       L__Promienie__Polozenie
 3DF2:1164       $BODY__Polozenie
 3DF2:11C4       $INIT__Polozenie
 3DF2:1225       $EM__Polozenie
 3F15:0000       $BM__H_Slupek
 3F15:0038       L__ShowScreenDIB__H_Slupek
 3F15:0084       L__ShowCursorDIB__H_Slupek
 3F15:00C2       L__UnverslVal__H_Slupek
 3F15:00EF       S__Init__H_Slupek
 3F15:0142       L__NapiszSygnaly__H_Slupek
 3F15:01C5       L__IniSkale__H_Slupek
 3F15:0246       L__InitSlupek__H_Slupek
 3F15:0286       L__DoneSlupek__H_Slupek
 3F15:02B2       $BODY__H_Slupek
 3F15:02BB       $INIT__H_Slupek
 3F15:0303       $EM__H_Slupek
 3F46:0000       $BM__WorseBecause
 3F46:0002       L__WorseBLess__WorseBecause
 3F46:003E       L__WorseBLessDis__WorseBecause
 3F46:0069       L__WorseBGreater__WorseBecause
 3F46:00A5       $BODY__WorseBecause
 3F46:00AB       $INIT__WorseBecause
 3F46:00D0       $EM__WorseBecause
 3F54:0000       $BM__DrawEpson
 3F54:00A5       S__UstawTrybTekstowy__DrawEpson
 3F54:00E9       L__MaxX__DrawEpson
 3F54:00F8       L__MaxY__DrawEpson
 3F54:0107       S__Map__DrawEpson
 3F54:01C6       L__Point__DrawEpson
 3F54:0322       L__IsDrawn__DrawEpson
 3F54:03D3       L__Out__DrawEpson
 3F54:0670       L__Open__DrawEpson
 3F54:06E2       L__Close__DrawEpson
 3F54:06FE       L__Line__DrawEpson
 3F54:0849       L__SetTextMode__DrawEpson
 3F54:085C       L__SetFont__DrawEpson
 3F54:0942       S__Conv2PL__DrawEpson
 3F54:0ABD       S__DrawChar0__DrawEpson
 3F54:0DA0       S__DrawText0__DrawEpson
 3F54:0E1D       S__DrawChar90__DrawEpson
 3F54:10A7       S__DrawText90__DrawEpson
 3F54:1124       L__DrawText__DrawEpson
 3F54:1193       L__SetDir__DrawEpson
 3F54:11A6       L__Mnoznik__DrawEpson
 3F54:11C0       L__InitPort__DrawEpson
 3F54:120D       L__IsAborted__DrawEpson
 3F54:1253       L__WrProc__DrawEpson
 3F54:138C       $BODY__DrawEpson
 3F54:1415       $INIT__DrawEpson
 3F54:1462       $EM__DrawEpson
 409B:0000       $BM__Print
 409B:0159       L__GorszeBoMniejsze__Print
 409B:0186       L__DalszeOdZera__Print
 409B:01C3       L__MaxY__Print
 409B:01DE       L__log__Print
 409B:0232       L__Wr__Print
 409B:02A2       L__WrPrn__Print
 409B:0360       L__WrLn__Print
 409B:0390       L__WrPrnLn__Print
 409B:03D2       L__InitA__Print
 409B:0821       L__InitB__Print
 409B:0886       S__PointA__Print
 409B:0ADD       S__PointB__Print
 409B:0CBF       L__Point__Print
 409B:0CF3       L__Opis__Print
 409B:0E2F       L__CloseAll__Print
 409B:0EC8       L__InitAll__Print
 409B:0FE0       L__EvProc__Print
 409B:12D3       L__ZnacznikiOdleglosci__Print
 409B:15A6       L__WrFlagsTableWHeading__Print
 409B:16BA       L__WrFlagsTable__Print
 409B:1799       L__WrF_TablicaOdci__Print
 409B:183C       L__WypiszStrefy__Print
 409B:1998       L__PrintScreenProc__Print
 409B:19A5       $BODY__Print
 409B:19F2       $INIT__Print
 409B:1A80       $EM__Print
 4244:0000       $BM__PrintCntroll
 4244:00D5       L__CoKtoraPUp__PrintCntroll
 4244:013A       L__CoKtoraPDn__PrintCntroll
 4244:01BC       S__UstawStrony__PrintCntroll
 4244:01FC       S__UstawLiczbe__PrintCntroll
 4244:0232       L__OkP__PrintCntroll
 4244:0248       L__ValidPodz__PrintCntroll
 4244:037E       L__Odn__PrintCntroll
 4244:03D5       L__P1__PrintCntroll
 4244:03F6       L__P2__PrintCntroll
 4244:0417       L__UstalSkalowanie__PrintCntrol
 4244:085B       $BODY__PrintCntroll
 4244:0861       $INIT__PrintCntroll
 4244:08E0       $EM__PrintCntroll
 42D3:0000       NMIServer
 42D3:003E       AT87Server
 42D9:0000       $INIT__RTS87
 42DF:0000       CaseError__RTSError
 42DF:000A       FctRetError__RTSError
 42DF:0014       AddrOvf__RTSError
 42DF:001E       CardOvf__RTSError
 42DF:0028       IntegerOvf__RTSError
 42DF:0032       LongIntegerOvf__RTSError
 42DF:003C       RangeError__RTSError
 42DF:0046       DivZero__RTSError
 42EC:0000       $INIT__RTSError
 42EF:0000       $BM__RTSMain
 42EF:0001       L__InstallTermProc__RTSMain
 42EF:007B       L__InstallInitProc__RTSMain
 42EF:00EF       L__CallInitProc__RTSMain
 42EF:00FD       L__CallTermProc__RTSMain
 42EF:0147       L__GetMessage__RTSMain
 42EF:0526       L__Execute__RTSMain
 42EF:0636       Error__RTSMain
 42EF:0673       StackCheck__RTSMain
 42EF:067C       StackOvf__RTSMain
 42EF:0683       M2Halt__RTSMain
 42EF:068A       L__Terminate__RTSMain
 42EF:0731       $INIT__RTSMain
 42EF:0743       $BODY__RTSMain
 42EF:076F       $EM__RTSMain
 42EF:0770       $INIT__RTSMonExit
 4367:0000       SpecialCASE__RTSLanguage
 4367:004D       ParCopy__RTSLanguage
 4367:0069       DynParCopy__RTSLanguage
 4373:0000       $INIT__RTSLanguage
 4374:0000       L__InstallHandler__RTSDevice
 4374:0000       $BM__RTSDevice
 4374:0058       L__UninstallHandler__RTSDevice
 4374:009B       L__GetDeviceStatus__RTSDevice
 4374:00BE       L__SetDeviceStatus__RTSDevice
 4374:00F6       L__SaveInterruptVector__RTSDevi
 4374:00FB       L__RestoreInterruptVector__RTSD
 4374:0100       L__GetPrioMask__RTSDevice
 4374:011F       L__SetPrioMask__RTSDevice
 4374:0140       $EM__RTSDevice
 4389:0000       $INIT__RTSDevice
 438A:0000       MonEntry__RTSPriority
 438A:0043       MonExit__RTSPriority
 438A:006F       Listen__RTSPriority
 4395:0000       $INIT__RTSPriority
 4396:0000       NewProcess__RTSCoroutine
 4396:0000       $BM__RTSCoroutine
 4396:0143       Transfer__RTSCoroutine
 4396:01A7       $EM__RTSCoroutine
 43B1:0000       $INIT__RTSCoroutine
 43B2:011E       IOTransfer__RTSInterrupt
 43D7:0000       $INIT__RTSInterrupt
 43DC:0000       RealError__RTSRealError
 43DD:0000       $INIT__RTSRealError
 43DE:0000       L__Length__Strings
 43DE:001D       L__ConstAssign__Strings
 43DE:005F       L__Assign__Strings
 43DE:0096       L__Insert__Strings
 43DE:014C       L__Delete__Strings
 43DE:0188       L__Pos__Strings
 43DE:01E9       L__Copy__Strings
 43DE:025B       L__Concat__Strings
 43DE:02B2       L__CompareStr__Strings
 43DE:0303       $INIT__Strings
 440F:01B9       L__IntToString__NumberConversio
 440F:01FE       L__LongIntToString__NumberConve
 440F:0259       L__CardToString__NumberConversi
 440F:028D       L__NumToString__NumberConversio
 440F:04BA       L__StringToInt__NumberConversio
 440F:0522       L__StringToCard__NumberConversi
 440F:0587       L__StringToLongInt__NumberConve
 440F:05B5       L__StringToNum__NumberConversio
 440F:0620       $INIT__NumberConversion
 440F:063B       $EM__NumberConversion
 4473:0002       L__Sound__Sounds
 4473:0032       L__NoSound__Sounds
 4473:0046       $INIT__Sounds
 4473:0061       $EM__Sounds
 44C3:0000       $INIT__DebugPMD
 44CD:0002       L__GetDeviceStatus__Devices
 44CD:0018       L__SetDeviceStatus__Devices
 44CD:002C       L__SaveInterruptVector__Devices
 44CD:004D       L__RestoreInterruptVector__Devi
 44CD:006A       L__InstallHandler__Devices
 44CD:0080       L__UninstallHandler__Devices
 44CD:009A       $INIT__Devices
 44CD:00BA       $EM__Devices
 44D9:0000       $BM__DynMem
 44D9:0000       L__InstallDynMem__DynMem
 44D9:0059       L__Alloc__DynMem
 44D9:0102       L__DeAlloc__DynMem
 44D9:01BF       L__Avail__DynMem
 44D9:0203       $INIT__DynMem
 44D9:0204       $EM__DynMem
 44FA:0000       L__BlockMoveForward__BlockOps
 44FA:0000       $BM__BlockOps
 44FA:001A       L__BlockMoveBackward__BlockOps
 44FA:003B       L__BlockMove__BlockOps
 44FA:007D       L__BlockClear__BlockOps
 44FA:0096       L__BlockSet__BlockOps
 44FA:00B8       L__BlockEqual__BlockOps
 44FA:00D9       L__BlockPosition__BlockOps
 44FA:0107       $INIT__BlockOps
 44FA:0108       $EM__BlockOps
 450B:0002       L__FlagReset__Mouse
 450B:001F       L__ShowCursor__Mouse
 450B:002B       L__HideCursor__Mouse
 450B:0037       L__GetPosBut__Mouse
 450B:005A       L__SetCursorPos__Mouse
 450B:006E       L__GetButPres__Mouse
 450B:00A0       L__GetButRel__Mouse
 450B:00D2       L__SetHorizontalLimits__Mouse
 450B:00E6       L__SetVerticalLimits__Mouse
 450B:00FA       L__SetGraphicCursor__Mouse
 450B:0127       L__SetTextCursor__Mouse
 450B:013E       L__ReadMotionCounters__Mouse
 450B:0157       L__SetEventHandler__Mouse
 450B:0188       L__LightPenOn__Mouse
 450B:0194       L__LightPenOff__Mouse
 450B:01A0       L__SetMickeysPerPixel__Mouse
 450B:01B4       L__ConditionalOff__Mouse
 450B:01CE       L__SetSpeedThreshold__Mouse
 450B:0296       $INIT__Mouse
 450B:02B1       $EM__Mouse
 4537:0000       pushLSet__Longs
 4537:001E       areSetsEQ__Longs
 4537:0036       superSet__Longs
 4537:005E       subSet__Longs
 4537:0086       union__Longs
 4537:009D       intersection__Longs
 4537:00B4       complement__Longs
 4537:00CF       unionCompl__Longs
 4537:00E6       LMult__Longs
 4537:018D       LMultU__Longs
 4537:01F7       LDiv__Longs
 4537:02DE       $INIT__Longs
 4565:0002       L__KeyPressed__Terminal
 4565:000E       L__Read__Terminal
 4565:0089       L__ReadString__Terminal
 4565:010A       L__ReadAgain__Terminal
 4565:011B       L__Write__Terminal
 4565:012C       L__WriteLn__Terminal
 4565:013B       L__WriteString__Terminal
 4565:01A1       $INIT__Terminal
 4565:01C6       $EM__Terminal
 4582:0002       L__AssignRead__Termbase
 4582:0088       L__Read__Termbase
 4582:00D7       L__KeyPressed__Termbase
 4582:0127       L__UnAssignRead__Termbase
 4582:0184       L__AssignWrite__Termbase
 4582:01F1       L__Write__Termbase
 4582:023E       L__UnAssignWrite__Termbase
 4582:03BB       $INIT__Termbase
 4582:03E5       $EM__Termbase
 45C1:0000       L__GetBits__BitByteOps
 45C1:0000       $BM__BitByteOps
 45C1:0018       L__SetBits__BitByteOps
 45C1:0046       L__ByteAnd__BitByteOps
 45C1:0055       L__ByteOr__BitByteOps
 45C1:0064       L__ByteXor__BitByteOps
 45C1:0073       L__ByteNot__BitByteOps
 45C1:0081       L__ByteShr__BitByteOps
 45C1:0092       L__ByteSar__BitByteOps
 45C1:00A3       L__ByteShl__BitByteOps
 45C1:00B4       L__ByteRor__BitByteOps
 45C1:00C5       L__ByteRol__BitByteOps
 45C1:00D6       L__HighNibble__BitByteOps
 45C1:00E6       L__LowNibble__BitByteOps
 45C1:00F4       L__Swap__BitByteOps
 45C1:0108       $INIT__BitByteOps
 45C1:0109       $EM__BitByteOps
 45D2:0009       $INIT__ASCII
 45D2:0024       $EM__ASCII
 45D5:0002       L__Write__Display
 45D5:007C       $INIT__Display
 45D5:009C       $EM__Display
 45DF:0002       L__KeyPressed__Keyboard
 45DF:0033       L__Read__Keyboard
 45DF:0142       $INIT__Keyboard
 45DF:0167       $EM__Keyboard
 45F6:0002       L__DOSAlloc__DOSMemory
 45F6:00E3       L__DOSDeAlloc__DOSMemory
 45F6:01B0       L__DOSAvail__DOSMemory
 45F6:01F0       L__DOSSetSize__DOSMemory
 45F6:0241       L__DOSGetMaxSize__DOSMemory
 45F6:0298       $INIT__DOSMemory
 45F6:02B8       $EM__DOSMemory
 4622:0000       $BM__MathLib0
 4622:002A       L__sqrt__MathLib0
 4622:0098       L__exp__MathLib0
 4622:0209       L__ln__MathLib0
 4622:0251       L__sin__MathLib0
 4622:03A5       L__cos__MathLib0
 4622:04CA       L__arctan__MathLib0
 4622:05AC       L__real__MathLib0
 4622:05BE       L__entier__MathLib0
 4622:06AF       $INIT__MathLib0
 4622:06C4       $EM__MathLib0
 468F:0000       $MN__PH
 468F:0000       $DD
 468F:0000       $OK__10jul99_1218_OF_PH
 468F:008E       $OK__10jul99_1214_OF_MANAGER
 468F:0094       $OK__10jul99_1215_OF_PI_PA
 468F:009A       $OK__10jul99_1214_OF_DOSEntry
 468F:00A0       $OK__10jul99_1214_OF_ErrorMess
 468F:00A6       $OK__10jul99_1214_OF_Tune
 468F:00AC       $OK__10jul99_1218_OF_PI_Qcheck
 468F:00B2       $OK__10jul99_1215_OF_ScannerI
 468F:00B8       $OK__10jul99_1214_OF_CommonType
 468F:00BE       $OK__10jul99_1214_OF_TheodolitR
 468F:00C4       $OK__10jul99_1215_OF_GPSRead
 468F:00CA       $OK__10jul99_1214_OF_DGHIni
 468F:00D0       $OK__10jul99_1218_OF_H_Files
 468F:00D6       $OK__10jul99_1218_OF_H_CommonTy
 468F:00DC       $OK__10jul99_1218_OF_PI_Glowny
 468F:00E2       $OK__10jul99_1218_OF_H_Inspekcj
 468F:00E8       $OK__10jul99_1218_OF_H_Oblot
 468F:00EE       $OK__10jul99_1214_OF_CommonData
 468F:00F4       $OK__10jul99_1215_OF_Files
 468F:00FA       $OK__10jul99_1218_OF_H_CP_Contr
 468F:0100       $OK__10jul99_1215_OF_Pomiar
 468F:0106       $OK__10jul99_1215_OF_Screen
 468F:010C       $OK__10jul99_1218_OF_PI_Analiza
 468F:0112       $OK__10jul99_1218_OF_PI_Pomiar
 468F:0118       $OK__10jul99_1218_OF_PI_ArchDat
 468F:011E       $OK__10jul99_1218_OF_PI_Drukuj
 468F:0124       $OK__10jul99_1218_OF_H_DataBase
 468F:012A       $OK__10jul99_1214_OF_SpecConv
 468F:0130       $OK__10jul99_1214_OF_Storage
 468F:0136       $OK__10jul99_1214_OF_SoftIntHan
 468F:013C       $OK__10jul99_1214_OF_Timer
 468F:0142       $OK__10jul99_1214_OF_Messages
 468F:0148       $OK__10jul99_1214_OF_StdIO
 468F:014E       $OK__10jul99_1214_OF_DGHInterfa
 468F:0154       $OK__10jul99_1214_OF_HiLevGraf
 468F:015A       $OK__10jul99_1214_OF_GrafTypes
 468F:0160       $OK__10jul99_1214_OF_GrafUtil
 468F:0166       $OK__10jul99_1218_OF_H_Odb
 468F:016C       $OK__10jul99_1214_OF_AltInterfa
 468F:0172       $OK__10jul99_1214_OF_Int_DME
 468F:0178       $OK__10jul99_1214_OF_FIltr1St
 468F:017E       $OK__10jul99_1215_OF_GeoArithme
 468F:0184       $OK__10jul99_1214_OF_DGH_utils
 468F:018A       $OK__10jul99_1214_OF_Czas
 468F:0190       $OK__10jul99_1214_OF_Kalibracja
 468F:0196       $OK__10jul99_1214_OF_DigiRS
 468F:019C       $OK__10jul99_1214_OF_RealConver
 468F:01A2       $OK__10jul99_1214_OF_Math
 468F:01A8       $OK__10jul99_1214_OF_GPS_nov
 468F:01AE       $OK__10jul99_1214_OF_GPS_TRIMBL
 468F:01B4       $OK__10jul99_1214_OF_Ini
 468F:01BA       $OK__10jul99_1214_OF_FIO
 468F:01C0       $OK__10jul99_1214_OF_ShortCuts
 468F:01C6       $OK__10jul99_1214_OF_MsgBox
 468F:01CC       $OK__10jul99_1214_OF_Obloty
 468F:01D2       $OK__10jul99_1214_OF_MMMouse
 468F:01D8       $OK__10jul99_1214_OF_GList
 468F:01DE       $OK__10jul99_1214_OF_Buttons
 468F:01E4       $OK__10jul99_1214_OF_Dialog
 468F:01EA       $OK__10jul99_1214_OF_InpLine
 468F:01F0       $OK__10jul99_1214_OF_FCBS
 468F:01F6       $OK__10jul99_1214_OF_CocpDsp
 468F:01FC       $OK__10jul99_1215_OF_DataCollec
 468F:0202       $OK__10jul99_1215_OF_Mapa
 468F:0208       $OK__10jul99_1214_OF_Wykres
 468F:020E       $OK__10jul99_1214_OF_XMSTable
 468F:0214       $OK__10jul99_1214_OF_Graphics
 468F:021A       $OK__10jul99_1214_OF_XMSService
 468F:0220       $OK__10jul99_1215_OF_EventsMng
 468F:0226       $OK__10jul99_1218_OF_PI_ScrUtil
 468F:022C       $OK__10jul99_1215_OF_Slupek
 468F:0232       $OK__10jul99_1215_OF_ScreenCTyp
 468F:0238       $OK__10jul99_1218_OF_H_DisResul
 468F:023E       $OK__10jul99_1214_OF_FlagAnal
 468F:0244       $OK__10jul99_1215_OF_DisResUtil
 468F:024A       $OK__10jul99_1215_OF_PiszEventy
 468F:0250       $OK__10jul99_1218_OF_H_results
 468F:0256       $OK__10jul99_1218_OF_H_DAcquizi
 468F:025C       $OK__10jul99_1218_OF_H_Count
 468F:0262       $OK__10jul99_1218_OF_H_Print
 468F:0268       $OK__10jul99_1214_OF_Semafory
 468F:026E       $OK__10jul99_1215_OF_Random
 468F:0274       $OK__10jul99_1214_OF_NAVInterfa
 468F:027A       $OK__10jul99_1214_OF_ARINC
 468F:0280       $OK__10jul99_1214_OF_HRD_Clock
 468F:0286       $OK__10jul99_1214_OF_Kl_FGenera
 468F:028C       $OK__10jul99_1215_OF_Marks
 468F:0292       $OK__10jul99_1215_OF_Polozenie
 468F:0298       $OK__10jul99_1218_OF_H_Slupek
 468F:029E       $OK__10jul99_1214_OF_WorseBecau
 468F:02A4       $OK__10jul99_1215_OF_DrawEpson
 468F:02AA       $OK__10jul99_1215_OF_Print
 468F:02B0       $OK__10jul99_1215_OF_PrintCntro
 468F:02B6       $OK__10jul87_1403_OF_RTS87
 468F:02BC       $OK__10jul87_1400_OF_RTSError
 468F:02C2       $OK__19aug87_1403_OF_RTSMain
 468F:02C8       $OK__10jul87_1401_OF_RTSLanguag
 468F:02CE       $OK__15jun87_0924_OF_RTSDevice
 468F:02D4       $OK__10jul87_1404_OF_RTSPriorit
 468F:02DA       $OK__15jun87_0924_OF_RTSCorouti
 468F:02E0       $OK__10jul87_1402_OF_RTSInterru
 468F:02E6       $OK__10jul87_1400_OF_RTSRealErr
 468F:02EC       $OK__31jul87_1000_OF_Strings
 468F:02F2       $OK__01mar90_1621_OF_NumberConv
 468F:02F8       $OK__01mar90_1622_OF_Sounds
 468F:02FE       $OK__16jun87_2059_OF_DebugPMD
 468F:0304       $OK__01mar90_1622_OF_Devices
 468F:030A       $OK__16jun87_1952_OF_DynMem
 468F:0310       $OK__31jul87_1300_OF_BlockOps
 468F:0316       $OK__01mar90_1622_OF_Mouse
 468F:031C       $OK__05feb87_1233_OF_Longs
 468F:0322       $OK__01mar90_1621_OF_Terminal
 468F:0328       $OK__01mar90_1621_OF_Termbase
 468F:032E       $OK__31jul87_1100_OF_BitByteOps
 468F:0334       $OK__01mar90_1621_OF_ASCII
 468F:033A       $OK__01mar90_1621_OF_Display
 468F:0340       $OK__01mar90_1621_OF_Keyboard
 468F:0346       $OK__01mar90_1621_OF_DOSMemory
 46D2:0000       errorCode__RTSMain
 46D2:0000       $BD__RTSMain
 46D2:0002       PSPAddress__RTSMain
 46D2:0006       blockList__RTSMain
 46D2:000A       overlayList__RTSMain
 46D2:000E       overlayInitProc__RTSMain
 46D2:0012       overlayTermProc__RTSMain
 46D2:0016       curProcess__RTSMain
 46D2:001A       activProcess__RTSMain
 46D2:001E       debuggerRecord__RTSMain
 46D2:0030       deviceMask__RTSMain
 46D2:0032       dyingOverlay__RTSMain
 46D2:0036       MonitorExitProc__RTSMonExit
 46D2:003E       programSize
 46D2:0046       priorityMasks__RTSMain
 46D2:0058       DescInt0__RTSMain
 46D2:0128       freeList__RTSMain
 46D2:01CE       oldNMIvector
 46D2:01DD       $ED__RTSMain
 46F1:0000       $BD__RTSCoroutine
 46F1:0000       addProcess__RTSCoroutine
 46F1:0003       $ED__RTSCoroutine
 475E:0000       $BD__PH
 475E:0000       mainState__PH
 475E:0001       switchAble__PH
 475E:0002       podzielnik__PH
 475E:0004       polaryzacjaOK__PH
 475E:0005       synResult__PH
 475E:0007       dataOk__PH
 475E:0009       archData__PH
 475E:000A       offset__PH
 475E:000C       $ED__PH
 475F:0000       ErrorQueue__MANAGER
 475F:0000       $BD__MANAGER
 475F:0004       ReadyFirst__MANAGER
 475F:0008       NuOfErrorProc__MANAGER
 475F:000A       MaxNumOfReady__MANAGER
 475F:000C       MaxRunTime__MANAGER
 475F:000E       LongestProcess__MANAGER
 475F:0012       ErrorHandler__MANAGER
 475F:0016       LastCreated__MANAGER
 475F:001A       NumberOfProc__MANAGER
 475F:001C       Statistic__MANAGER
 475F:0114       CP__MANAGER
 475F:0118       ReadyLast__MANAGER
 475F:011C       DUMMY__MANAGER
 475F:0120       NuOfReady__MANAGER
 475F:0122       WaitForInt__MANAGER
 475F:0124       TSSInterval__MANAGER
 475F:0126       MaxRecTime__MANAGER
 475F:0128       TimeIntNum__MANAGER
 475F:012A       spTab__MANAGER
 475F:01F6       expInter__Scheduler__MANAGER
 475F:0208       VarDR__MANAGER
 475F:021A       Count__MANAGER
 475F:021C       LastMask__MANAGER
 475F:021E       $ED__MANAGER
 4781:0000       PomiarANieArchiwum__PI_PA
 4781:0000       $BD__PI_PA
 4781:0001       $ED__PI_PA
 4782:0000       entryTmp__DOSEntry
 4782:0000       $BD__DOSEntry
 4782:003D       exitTmp__DOSEntry
 4782:007A       entryTmpPtr__DOSEntry
 4782:007E       exitTmpPtr__DOSEntry
 4782:0082       insideFlag__DOSEntry
 4782:0084       DOSEmpty__DOSEntry
 4782:0088       $ED__DOSEntry
 478B:0000       $BD__ErrorMess
 478B:0000       $ED__ErrorMess
 478C:0000       $BD__Tune
 478C:0000       VORfreqCRT__Tune
 478C:0050       GSfreqCRT__Tune
 478C:00A0       lastCPFlags__Tune
 478C:00A2       lastDMEfrqBits__Tune
 478C:00A6       $ED__Tune
 4797:0000       $BD__PI_Qcheck
 4797:0000       ST__PI_Qcheck
 4797:0018       $ED__PI_Qcheck
 4799:0000       flg__ScannerI
 4799:0000       $BD__ScannerI
 4799:0002       Alfa__ScannerI
 4799:0006       AlfaF__ScannerI
 4799:000A       RefAlfa__ScannerI
 4799:000C       TeoAlfaF__ScannerI
 4799:000E       Delta__ScannerI
 4799:0016       DeltaDME__ScannerI
 4799:001A       DeltaF__ScannerI
 4799:0022       RefDis__ScannerI
 4799:0024       ABOVESL__ScannerI
 4799:0026       pilErr__ScannerI
 4799:0028       TEO_A__ScannerI
 4799:0030       TEO_E__ScannerI
 4799:0038       TEO_OK__ScannerI
 4799:003A       TEO_DGPSpoprawki__ScannerI
 4799:003B       GPS_A__ScannerI
 4799:0043       GPS_R__ScannerI
 4799:004B       GPS_OK__ScannerI
 4799:004C       GPS_SAT__ScannerI
 4799:004E       GPS_GDOP__ScannerI
 4799:0050       GPS_DIFFMODE__ScannerI
 4799:0051       GPS_PREC__ScannerI
 4799:0053       Simul__ScannerI
 4799:0054       AcqQ__ScannerI
 4799:0058       RUN__ScannerI
 4799:0059       AlfaSigma__ScannerI
 4799:0061       DisSigma__ScannerI
 4799:0069       EvalPROC__ScannerI
 4799:0079       pilotEvNrCOn__ScannerI
 4799:007C       pilotEvNr__ScannerI
 4799:007E       pilEvCon__ScannerI
 4799:0082       pilEvBit__ScannerI
 4799:0083       Sim_Dis_CP__ScannerI
 4799:0087       Sim_Alfa_CP__ScannerI
 4799:008B       GPSEcounting__ScannerI
 4799:008F       TEOEcounting__ScannerI
 4799:0093       locTogether__ScannerI
 4799:0094       AlfaGPSWatcDog__ScannerI
 4799:0096       AlfaTeoWatcDog__ScannerI
 4799:0098       currOdnDlaPomOdl__ScannerI
 4799:0099       currOdnDlaPomBledu__ScannerI
 4799:009A       currPredkosc__ScannerI
 4799:00A2       currPromien__ScannerI
 4799:00A4       currAlfaOff__ScannerI
 4799:00A6       azymANieElew__ScannerI
 4799:00A7       TEO_dtaSign__ScannerI
 4799:00AB       GPS_dtaSign__ScannerI
 4799:00AD       ix__ScannerI
 4799:00AF       $ED__ScannerI
 47A4:0000       $ED__CommonTypes
 47A4:0000       $BD__CommonTypes
 47A5:0000       PolozenieTeodolitu__TheodolitRe
 47A5:0000       $BD__TheodolitRead
 47A5:0010       Kopiowanie__TheodolitRead
 47A5:0014       Azymut__TheodolitRead
 47A5:001C       Elewacja__TheodolitRead
 47A5:0024       lstAzymuth__TheodolitRead
 47A5:002C       lstElevation__TheodolitRead
 47A5:0034       currentSign__TheodolitRead
 47A5:0036       TeoEvNr__TheodolitRead
 47A5:0038       wd_dgps_currSign__TheodolitRead
 47A5:003A       lstEvent__TheodolitRead
 47A5:003B       lstTracking__TheodolitRead
 47A5:003C       teoEvBit__TheodolitRead
 47A5:003D       State__TheodolitRead
 47A5:003F       currState__TheodolitRead
 47A5:0040       lastNum__TheodolitRead
 47A5:0046       lastCrc__TheodolitRead
 47A5:0048       numPos__TheodolitRead
 47A5:004A       CheckSumIdx__TheodolitRead
 47A5:004C       teoEvCon__TheodolitRead
 47A5:0050       teoEvNrCOn__TheodolitRead
 47A5:0053       Nie_mozna_uruchomic_kanalu_Teod
 47A5:0057       $ED__TheodolitRead
 47AB:0000       ObecnyStan__GPSRead
 47AB:0000       $BD__GPSRead
 47AB:0001       currentSign__GPSRead
 47AB:0003       Last_Gdop__GPSRead
 47AB:0005       Last_NumberOfSattelites__GPSRea
 47AB:0007       Last_polGeo__GPSRead
 47AB:0013       Last_Diffmode__GPSRead
 47AB:0014       Last_tog__GPSRead
 47AB:001C       Last_EPE__GPSRead
 47AB:001E       CurrGPSAnalizer__GPSRead
 47AB:0022       $ED__GPSRead
 47AE:0000       $BD__DGHIni
 47AE:0000       signals__DGHIni
 47AE:08E8       TableOfNames__DGHIni
 47AE:0F70       SignalDescr__DGHIni
 47AE:0F8E       $ED__DGHIni
 48A7:0000       $BD__H_Files
 48A7:0000       FileErr__H_Files
 48A7:0004       NamesSig__H_Files
 48A7:0011       FileSig__H_Files
 48A7:0013       PolFile__H_Files
 48A7:0015       Licznik__H_Files
 48A7:0017       GPSDtaSign__H_Files
 48A7:0019       $ED__H_Files
 48A9:0000       $BD__H_CommonTypes
 48A9:0000       Procedura__H_CommonTypes
 48A9:0001       $ED__H_CommonTypes
 48AA:0000       $BD__PI_Glowny
 48AA:0000       $ED__PI_Glowny
 48AB:0000       $BD__H_Inspekcja
 48AB:0000       hDlg__H_Inspekcja
 48AB:0004       RedrawScr__H_Inspekcja
 48AB:0005       ListaOblotow__H_Inspekcja
 48AB:0009       ListaOblotowBAK__H_Inspekcja
 48AB:000D       ListaLokalizacji__H_Inspekcja
 48AB:0011       ListaLokalizacjiBAK__H_Inspekcj
 48AB:0015       OstatniOblot__H_Inspekcja
 48AB:0017       $ED__H_Inspekcja
 48AD:0000       $BD__H_Oblot
 48AD:0000       CoRobimy__H_Oblot
 48AD:0001       CoKtoraProbka__H_Oblot
 48AD:0003       hDlg__H_Oblot
 48AD:0007       bOkrag__H_Oblot
 48AD:000F       bPromien__H_Oblot
 48AD:0017       CisnienieOdn__H_Oblot
 48AD:001B       OrbitaL__H_Oblot
 48AD:001F       PromienL__H_Oblot
 48AD:0023       CoKtoraProbkaL__H_Oblot
 48AD:0027       TestUP__H_Oblot
 48AD:002B       Raport__H_Oblot
 48AD:002F       Pomiar__H_Oblot
 48AD:0033       Lista__H_Oblot
 48AD:003B       RedrawScr__H_Oblot
 48AD:003C       $ED__H_Oblot
 48B1:0000       NazwaUrzadz1__CommonData
 48B1:0000       $BD__CommonData
 48B1:0029       NazwaUrzadz2__CommonData
 48B1:0052       NazwaOblotu__CommonData
 48B1:007B       NazwaPlikuOpisu__CommonData
 48B1:00FB       DME__CommonData
 48B1:00FC       SciezkaOpisuPomiaru__CommonData
 48B1:013D       OdnDlaPomBledu__CommonData
 48B1:013E       OdnDlaPomOdl__CommonData
 48B1:013F       Nadajnik1__CommonData
 48B1:0140       Nadajnik2__CommonData
 48B1:0141       GlownyOdbiornik__CommonData
 48B1:0142       Promien__CommonData
 48B1:0144       Orbita__CommonData
 48B1:0146       Predkosc__CommonData
 48B1:014E       CisnienieOdniesienia__CommonDat
 48B1:0156       $ED__CommonData
 48C7:0000       FileErr__Files
 48C7:0000       $BD__Files
 48C7:0004       DirErr__Files
 48C7:0008       NamesAn__Files
 48C7:0040       NamesDist__Files
 48C7:00B0       NamesAlfa__Files
 48C7:00E8       NamesComm__Files
 48C7:0190       filesDist__Files
 48C7:01A0       filesAlfa__Files
 48C7:01A8       filesComm__Files
 48C7:01C0       xRefFile__Files
 48C7:01C4       xRefDefV__Files
 48C7:01C8       homeDir__Files
 48C7:0219       $ED__Files
 48E9:0000       disCont__H_CP_ControlProc
 48E9:0000       $BD__H_CP_ControlProc
 48E9:00CD       angCont__H_CP_ControlProc
 48E9:0190       myRadial__H_CP_ControlProc
 48E9:0192       aktOrbita__H_CP_ControlProc
 48E9:0194       radial__H_CP_ControlProc
 48E9:0195       Running__H_CP_ControlProc
 48E9:0196       $ED__H_CP_ControlProc
 4903:0000       ProcPom__Pomiar
 4903:0000       $BD__Pomiar
 4903:0050       EtapPolaryzacji__Pomiar
 4903:0054       StanButtonow__Pomiar
 4903:0058       currButtonSet__Pomiar
 4903:005A       B_01__Pomiar
 4903:005E       B_02__Pomiar
 4903:0062       B_03__Pomiar
 4903:0066       B_04__Pomiar
 4903:006A       B_05__Pomiar
 4903:006E       NapisB_01__Pomiar
 4903:0075       StanZestawu__Pomiar
 4903:0077       frstBut__Pomiar
 4903:0079       katPromien__Pomiar
 4903:007B       promien__Pomiar
 4903:007C       format360__Pomiar
 4903:007E       distOff__Pomiar
 4903:0082       alfaOff__Pomiar
 4903:0092       currZestaw__Pomiar
 4903:0093       dataInBuff__Pomiar
 4903:0095       $ED__Pomiar
 490D:0000       VAL1__Screen
 490D:0000       $BD__Screen
 490D:0004       VAL2__Screen
 490D:0008       VAL3__Screen
 490D:000C       VAL4__Screen
 490D:0010       Zestaw__Screen
 490D:0011       aktPromien__Screen
 490D:0013       aktPromienOdAnt__Screen
 490D:001B       pomPromieniowy__Screen
 490D:001C       aktFormat360__Screen
 490D:001D       devDistR__Screen
 490D:0025       by23__Screen
 490D:0027       LastDTidx__Screen
 490D:0029       ThisDTidx__Screen
 490D:002B       samplediv__Screen
 490D:002D       NextRedraw__Screen
 490D:002E       LastEventIDX__Screen
 490D:0030       KrokOpisuOsi__Screen
 490D:0032       Predrawmarksreq__Screen
 490D:0036       Predrawreq__Screen
 490D:003A       currConsoleEv__Screen
 490D:003E       RegionWykG__Screen
 490D:0042       RegionWykGCreated__Screen
 490D:0043       RegionWyk1__Screen
 490D:0047       RegionWyk1Created__Screen
 490D:0048       RegionWyk2__Screen
 490D:004C       RegionWyk2Created__Screen
 490D:004D       RegionWyk3__Screen
 490D:0051       RegionWyk3Created__Screen
 490D:0052       RegionWykresow__Screen
 490D:0056       B_CURSOR__Screen
 490D:005A       B_LEFT__Screen
 490D:005E       B_RIGHT__Screen
 490D:0062       B_UP__Screen
 490D:0066       B_DOWN__Screen
 490D:006A       screenDIB__Screen
 490D:006E       RysSytMaxDis__Dialog__Screen
 490D:0076       CursorMode__Dialog__Screen
 490D:0077       JakijedenWykres__Dialog__Screen
 490D:0078       JedenWykres__Dialog__Screen
 490D:0079       JakieWykr__Dialog__Screen
 490D:007A       popJakieWykr__Dialog__Screen
 490D:007B       CursorPos__Dialog__Screen
 490D:007D       OileKursor__Dialog__Screen
 490D:007F       ZmianaSkaliWpionie__Dialog__Scr
 490D:0080       BarOnScreen__Dialog__Screen
 490D:0082       skalaWpionie__Dialog__Screen
 490D:012C       ChangeKursorMode__Dialog__Scree
 490D:012D       $ED__Screen
 4920:0000       dispResults__PI_Analiza
 4920:0000       $BD__PI_Analiza
 4920:0004       currButtonSet__MouseMonitor__PI
 4920:0005       B_Drukuj__MouseMonitor__PI_Anal
 4920:0009       B_Akceptuj__MouseMonitor__PI_An
 4920:000D       B_Abort__MouseMonitor__PI_Anali
 4920:0011       B_UP__MouseMonitor__PI_Analiza
 4920:0015       B_DOWN__MouseMonitor__PI_Analiz
 4920:0019       B_XCHG__MouseMonitor__PI_Analiz
 4920:001D       sthPressed__MouseMonitor__PI_An
 4920:0021       $ED__PI_Analiza
 4923:0000       $ED__PI_Pomiar
 4923:0000       $BD__PI_Pomiar
 4924:0000       $ED__PI_ArchDate
 4924:0000       $BD__PI_ArchDate
 4925:0000       $ED__PI_Drukuj
 4925:0000       $BD__PI_Drukuj
 4926:0000       $BD__H_DataBase
 4926:0000       NadajnikVHF__H_DataBase
 4926:0038       VHF_O_czuloscWP__H_DataBase
 4926:003A       VHF_O_czuloscCP__H_DataBase
 4926:003C       VHF_R_czuloscWP__H_DataBase
 4926:003E       VHF_R_czuloscCP__H_DataBase
 4926:0040       Blad_podczas_wczytywania_Lotnis
 4926:0044       $ED__H_DataBase
 492B:0000       $ED__SpecConv
 492B:0000       $BD__SpecConv
 492C:0000       $BD__Storage
 492C:0000       OCCUPED__Storage
 492C:0001       heapList__Storage
 492C:0021       prevHeap__Storage
 492C:0023       StaraStrategia__Storage
 492C:0025       StaryCh__Storage
 492C:0027       $ED__Storage
 492F:0000       break__SoftIntHandlingManager
 492F:0000       $BD__SoftIntHandlingManager
 492F:0001       firstISRDescriptorPtr__Monitor_
 492F:0005       $ED__SoftIntHandlingManager
 4930:0000       TimeCounter__Timer
 4930:0000       $BD__Timer
 4930:0002       TIOS__Timer
 4930:0004       ClockPer__Timer
 4930:0006       TOQueue__Monitor__Timer
 4930:000A       Period__Monitor__Timer
 4930:000C       PeriodCount__Monitor__Timer
 4930:000E       PeriodicProcedure__Monitor__Tim
 4930:0012       Dumm__Monitor__Timer
 4930:0014       $ED__Timer
 4932:0000       MList__Messages
 4932:0000       $BD__Messages
 4932:0004       MDispl__Messages
 4932:0008       MessageSound__Messages
 4932:000A       TurnBeepOn__Messages
 4932:000E       $ED__Messages
 4933:0000       $BD__StdIO
 4933:0000       $ED__StdIO
 4934:0000       BufferFull__DGHInterface
 4934:0000       $BD__DGHInterface
 4934:0004       currentSign__DGHInterface
 4934:0006       binaryDtaSign__DGHInterface
 4934:0008       csErrorCnt__DGHInterface
 4934:000A       nvErrorCndF__DGHInterface
 4934:000C       nvErrorCndS__DGHInterface
 4934:000E       maxClicks__DGHInterface
 4934:0010       activated__DGHInterface
 4934:0014       Ostrzezenie_ze_za_dlugo__DGHInt
 4934:0018       $ED__DGHInterface
 4936:0000       ClipRect__HiLevGraf
 4936:0000       $BD__HiLevGraf
 4936:0008       Style__HiLevGraf
 4936:000A       LastPosition__HiLevGraf
 4936:000C       semafor__HiLevGraf
 4936:0018       Path__HiLevGraf
 4936:0059       XS__HiLevGraf
 4936:005B       YS__HiLevGraf
 4936:005D       $ED__HiLevGraf
 493C:0000       $BD__GrafTypes
 493C:0000       $ED__GrafTypes
 493D:0000       StatusR__GrafUtil
 493D:0000       $BD__GrafUtil
 493D:0008       str__GrafUtil
 493D:006C       WaitTime__GrafUtil
 493D:006E       Tone__GrafUtil
 493D:0070       $ED__GrafUtil
 4945:0000       $BD__H_Odb
 4945:0000       audio_H__H_Odb
 4945:0001       agc__H_Odb
 4945:0003       flg__H_Odb
 4945:0005       $ED__H_Odb
 4946:0000       ALT_Conver_Tab__AltInterface
 4946:0000       $BD__AltInterface
 4946:0020       ALT_Conver_TabC__AltInterface
 4946:0040       refPress__AltInterface
 4946:0048       $ED__AltInterface
 494B:0000       $ED__Int_DME
 494B:0000       $BD__Int_DME
 494C:0000       okresImp__FIltr1St
 494C:0000       $BD__FIltr1St
 494C:0008       $ED__FIltr1St
 494D:0000       Deklinacja__GeoArithmetic
 494D:0000       $BD__GeoArithmetic
 494D:0008       OdniesienieMtx__GeoArithmetic
 494D:0020       IloscOdniesien__GeoArithmetic
 494D:0022       $ED__GeoArithmetic
 4950:0000       $BD__DGH_utils
 4950:0000       address__DGH_utils
 4950:0020       binAddress__DGH_utils
 4950:0036       $ED__DGH_utils
 4954:0000       StringRect__BezPrzerwan__Czas
 4954:0000       $BD__Czas
 4954:0008       SystemTime__BezPrzerwan__Czas
 4954:0014       $ED__Czas
 4956:0000       TabKalib2P__Kalibracja
 4956:0000       $BD__Kalibracja
 4956:0800       AGCwartosciProgow__Kalibracja
 4956:0870       AGCwartosciProgowM__Kalibracja
 4956:08C0       AGCwartosciProgowD__Kalibracja
 4956:0910       LocDev_delay__Kalibracja
 4956:0918       GsDev_delay__Kalibracja
 4956:0920       LocPrcMod_delay__Kalibracja
 4956:0928       GsPrcMod_delay__Kalibracja
 4956:0930       VorRefPrcMod_delay__Kalibracja
 4956:0938       VorVarPrcMod_delay__Kalibracja
 4956:0940       SubcarPrcMod_delay__Kalibracja
 4956:0948       Omnibearing_delay__Kalibracja
 4956:0950       VorAgc_delay__Kalibracja
 4956:0958       GsAgc_delay__Kalibracja
 4956:0960       MkrAgc_delay__Kalibracja
 4956:0968       OmnibearingProgi__Kalibracja
 4956:0A88       LOC_DEVPuntyKal__Kalibracja
 4956:0AC0       GS_DEVPuntyKal__Kalibracja
 4956:0AF8       Par__Kalibracja
 4956:13B8       errDetected__Kalibracja
 4956:13BC       inputCoeff__Kalibracja
 4956:13EC       DataOstatniejKalibracji__Kalibr
 4956:13F8       WystapilBlad__Kalibracja
 4956:13F9       lastError__ErrorHand__Kalibracj
 4956:13FB       for_counter__Kalibracja
 4956:13FD       void__Kalibracja
 4956:13FF       f__Kalibracja
 4956:1401       $ED__Kalibracja
 4A97:0000       minWrBufLength__DigiRS
 4A97:0000       $BD__DigiRS
 4A97:0002       $ED__DigiRS
 4A98:0000       $BD__RealConversions
 4A98:0000       $ED__RealConversions
 4A99:0000       $ED__Math
 4A99:0000       $BD__Math
 4A9A:0000       framesWError__GPS_nov
 4A9A:0000       $BD__GPS_nov
 4A9A:0002       chrCount__GPS_nov
 4A9A:0004       frmCount__GPS_nov
 4A9A:0006       actPart__GPS_nov
 4A9A:0007       sumaModC__GPS_nov
 4A9A:0008       sumaModF__GPS_nov
 4A9A:000A       posInRecBuf__GPS_nov
 4A9A:000C       bufor__GPS_nov
 4A9A:007B       eos__GPS_nov
 4A9A:007E       err_unrec_cnt__GPS_nov
 4A9A:0080       BladKanaluGPS__GPS_nov
 4A9A:0084       $ED__GPS_nov
 4AA3:0000       framesWError__GPS_TRIMBLE
 4AA3:0000       $BD__GPS_TRIMBLE
 4AA3:0002       chrCount__GPS_TRIMBLE
 4AA3:0004       frmCount__GPS_TRIMBLE
 4AA3:0006       actPart__GPS_TRIMBLE
 4AA3:0007       posInRecBuf__GPS_TRIMBLE
 4AA3:0009       bufor__GPS_TRIMBLE
 4AA3:0049       L_epe__GPS_TRIMBLE
 4AA3:004B       L_WspSzerokosc__GPS_TRIMBLE
 4AA3:0051       L_WspDlugosc__GPS_TRIMBLE
 4AA3:0057       L_Kierunek__GPS_TRIMBLE
 4AA3:005F       L_FixNotAvailable__GPS_TRIMBLE
 4AA3:0060       L_month__GPS_TRIMBLE
 4AA3:0062       L_day__GPS_TRIMBLE
 4AA3:0064       L_year__GPS_TRIMBLE
 4AA3:0066       L_hour__GPS_TRIMBLE
 4AA3:0068       L_min__GPS_TRIMBLE
 4AA3:006A       L_sec__GPS_TRIMBLE
 4AA3:006C       L_NumberOfSattelites__GPS_TRIMB
 4AA3:006E       BladKanaluGPS__GPS_TRIMBLE
 4AA3:0072       $ED__GPS_TRIMBLE
 4AAB:0000       ErrorProc__Ini
 4AAB:0000       $BD__Ini
 4AAB:0004       ini__Ini
 4AAB:0010       currfile__Ini
 4AAB:0012       BuffP__Ini
 4AAB:0016       Bufor__Ini
 4AAB:5017       charsInBuffer__Ini
 4AAB:5019       SavedFileName__Ini
 4AAB:507D       LastDir__Ini
 4AAB:50E1       Modified__Ini
 4AAB:50E2       check__Ini
 4AAB:50E4       $ED__Ini
 4FBA:0000       lastErr__FIO
 4FBA:0000       $BD__FIO
 4FBA:0002       numErr__FIO
 4FBA:0004       opened__FIO
 4FBA:0006       maxOpened__FIO
 4FBA:0008       Files__FIO
 4FBA:0C08       CriticalErrorRec__FIO
 4FBA:0C12       $ED__FIO
 507C:0000       Kill__ShortCuts
 507C:0000       $BD__ShortCuts
 507C:0001       ShortCutList__monitor__ShortCut
 507C:0005       SavedChar__monitor__ShortCuts
 507C:0007       FreeKey__monitor__ShortCuts
 507C:000B       NumEl__monitor__ShortCuts
 507C:000D       done__ShortCuts
 507C:000E       $ED__ShortCuts
 507D:0000       $BD__MsgBox
 507D:0000       hDlg__MsgBox
 507D:0004       ret__MsgBox
 507D:0006       P_A__MsgBox
 507D:0016       $ED__MsgBox
 507F:0000       $BD__Obloty
 507F:0000       NazwaPlikuIni__Obloty
 507F:0040       Stat_Size_Monitor__Obloty
 507F:0044       Stat_File_Monitor__Obloty
 507F:0048       HomeDir__Obloty
 507F:0058       HomeDirNazwaPlikuIni__Obloty
 507F:0099       bd_NazwaPliku__Obloty
 507F:00AA       bd_Sekcja__Obloty
 507F:00B5       bd_WpisNazwa__Obloty
 507F:00C0       insp_DirTmp__Obloty
 507F:00CB       stat_Size__Obloty
 507F:00D3       stat_Files__Obloty
 507F:00D5       NUrzadzDlaDopasuj__Obloty
 507F:0116       HomeDirDlaDopasuj__Obloty
 507F:0157       CallBackDlaDopasuj__Obloty
 507F:015B       NazwaPlikuZOpisem__Obloty
 507F:019C       DelDir__Obloty
 507F:01DD       SrcDir__Obloty
 507F:021E       DstDir__Obloty
 507F:025F       $ED__Obloty
 50A5:0000       Regiony__MMMouse
 50A5:0000       $BD__MMMouse
 50A5:0004       LastX__MMMouse
 50A5:0006       LastY__MMMouse
 50A5:0008       CursorShapePtr__MMMouse
 50A5:000C       DefaultShape__MMMouse
 50A5:0050       maxX__MMMouse
 50A5:0052       maxY__MMMouse
 50A5:0054       PrevReg__MMMouse
 50A5:0058       MonitoCheck__BezPrzerwanOdMyszy
 50A5:005A       MouseEvent__BezPrzerwanOdMyszy_
 50A5:005E       OldButtons__BezPrzerwanOdMyszy_
 50A5:005F       EVF__BezPrzerwanOdMyszy__MMMous
 50A5:0061       EVL__BezPrzerwanOdMyszy__MMMous
 50A5:0063       EVC__BezPrzerwanOdMyszy__MMMous
 50A5:0065       EventBuff__BezPrzerwanOdMyszy__
 50A5:01E5       Stored__BezPrzerwanOdMyszy__MMM
 50A5:01EC       lx__BezWyszeregowania__MMMouse
 50A5:01EE       ly__BezWyszeregowania__MMMouse
 50A5:01F0       rx__BezWyszeregowania__MMMouse
 50A5:01F2       ry__BezWyszeregowania__MMMouse
 50A5:01F4       CursorBuf__BezWyszeregowania__M
 50A5:02F4       Hidden__BezWyszeregowania__MMMo
 50A5:02F5       CursorB__BezWyszeregowania__MMM
 50A5:03F5       MSemafor__MMMouse
 50A5:0401       $ED__MMMouse
 50E6:0000       CurH__GList
 50E6:0000       $BD__GList
 50E6:0004       Lista__GList
 50E6:0008       $ED__GList
 50E7:0000       $BD__Buttons
 50E7:0000       KbdButton__Buttons
 50E7:0004       AllEnabled__Buttons
 50E7:0005       ButtonList__MONITOR__Buttons
 50E7:0009       $ED__Buttons
 50E8:0000       $BD__Dialog
 50E8:0000       ListaDlg__Dialog
 50E8:0004       FocusChanged__Dialog
 50E8:0008       $ED__Dialog
 50E9:0000       Active__InpLine
 50E9:0000       $BD__InpLine
 50E9:0004       $ED__InpLine
 50EA:0000       $BD__FCBS
 50EA:0000       Code__FCBS
 50EA:003D       $ED__FCBS
 50EE:0000       currGSflg__CocpDsp
 50EE:0000       $BD__CocpDsp
 50EE:0001       currNAVflg__CocpDsp
 50EE:0002       currFROMflg__CocpDsp
 50EE:0003       currTOflg__CocpDsp
 50EE:0004       dirCP__CocpDsp
 50EE:0006       dirWP__CocpDsp
 50EE:0008       SkalaCP__CocpDsp
 50EE:000A       Skala__CocpDsp
 50EE:000C       SkalaCPMax__CocpDsp
 50EE:000E       SkalaWPMax__CocpDsp
 50EE:0010       srodekSkali__CocpDsp
 50EE:0012       iloscStrzal__CocpDsp
 50EE:0014       currState__CocpDsp
 50EE:0015       currLNumber__CocpDsp
 50EE:0017       currRNumber__CocpDsp
 50EE:0019       currErrorCP__CocpDsp
 50EE:001B       currErrorWP__CocpDsp
 50EE:001D       currErrorGS__CocpDsp
 50EE:001F       newState__CocpDsp
 50EE:0023       dtaSign__CocpDsp
 50EE:0025       force__CocpDsp
 50EE:0026       currMsg__CocpDsp
 50EE:0028       $ED__CocpDsp
 50F1:0000       $BD__DataCollect
 50F1:0000       VAL1__DataCollect
 50F1:3210       VAL2__DataCollect
 50F1:6420       VAL3__DataCollect
 50F1:9630       VAL4__DataCollect
 50F1:C840       Idx__DataCollect
 50F1:C844       angContiner__DataCollect
 50F1:C84C       disContiner__DataCollect
 50F1:C854       marks_Con_D__DataCollect
 50F1:C857       marks_Con_A__DataCollect
 50F1:C85A       samplediv__tablice__DataCollect
 50F1:C85E       curr23__tablice__DataCollect
 50F1:C862       IDX3__tablice__DataCollect
 50F1:C866       IDX2__tablice__DataCollect
 50F1:C86A       Div3T__tablice__DataCollect
 50F1:C86E       Div2T__tablice__DataCollect
 50F1:C872       div2n__tablice__DataCollect
 50F1:C876       div3n__tablice__DataCollect
 50F1:C87A       ix2__tablice__DataCollect
 50F1:C87E       ix3__tablice__DataCollect
 50F1:C882       procVAL1__tablice__DataCollect
 50F1:C88A       procVAL2__tablice__DataCollect
 50F1:C892       procVAL3__tablice__DataCollect
 50F1:C89A       procVAL4__tablice__DataCollect
 50F1:C8A2       samples__tablice__DataCollect
 50F1:C8A6       VALX__tablice__DataCollect
 50F1:E1AE       $ED__DataCollect
 5F0C:0000       doZrobienia__Mapa
 5F0C:0000       $BD__Mapa
 5F0C:0020       zrobione__Mapa
 5F0C:0040       aktualny__Mapa
 5F0C:0042       mapRct__Mapa
 5F0C:004A       distRect__Mapa
 5F0C:0052       PokazywacPolozenie__Mapa
 5F0C:0053       RysSytMaxDis__Mapa
 5F0C:005B       myPoint__Mapa
 5F0C:005F       redraw__Mapa
 5F0C:0060       noActive__monitor__Mapa
 5F0C:0064       $ED__Mapa
 5F13:0000       $ED__Wykres
 5F13:0000       $BD__Wykres
 5F14:0000       $ED__XMSTable
 5F14:0000       $BD__XMSTable
 5F15:0000       $BD__Graphics
 5F15:0000       FontPtr__Graphics
 5F15:0004       bank__InternalMonitor__Graphics
 5F15:0006       bankstart__InternalMonitor__Gra
 5F15:000A       BKSizeL__InternalMonitor__Graph
 5F15:000E       BK64Inc__InternalMonitor__Graph
 5F15:0010       FntTable__Graphics
 5F15:0130       $ED__Graphics
 5F29:0000       $BD__XMS
 5F29:0004       $ED__XMS
 5F2A:0000       GarbageList__XMSService
 5F2A:0000       $BD__XMSService
 5F2A:0004       $ED__XMSService
 5F2B:0000       $BD__EventsMng
 5F2B:0000       Events__EventsMng
 5F2B:0B44       pilEnr__EventsMng
 5F2B:0B48       conEnr__EventsMng
 5F2B:0B4C       teoEnr__EventsMng
 5F2B:0B50       $ED__EventsMng
 5FE1:0000       $ED__PI_ScrUtility
 5FE1:0000       $BD__PI_ScrUtility
 5FE2:0000       $ED__Slupek
 5FE2:0000       $BD__Slupek
 5FE3:0000       slL_rec__ScreenCTypes
 5FE3:0000       $BD__ScreenCTypes
 5FE3:0008       slL_pnt__ScreenCTypes
 5FE3:000C       slLReg_rec__ScreenCTypes
 5FE3:0014       slLDib_rec__ScreenCTypes
 5FE3:001C       slS_rec__ScreenCTypes
 5FE3:0024       slS_pnt__ScreenCTypes
 5FE3:0028       slSReg_rec__ScreenCTypes
 5FE3:0030       slSDib_rec__ScreenCTypes
 5FE3:0038       slP_rec__ScreenCTypes
 5FE3:0040       slP_pnt__ScreenCTypes
 5FE3:0044       slPReg_rec__ScreenCTypes
 5FE3:004C       slPDib_rec__ScreenCTypes
 5FE3:0054       $ED__ScreenCTypes
 5FE9:0000       $ED__H_DisResults
 5FE9:0000       $BD__H_DisResults
 5FEA:0000       $ED__FlagAnal
 5FEA:0000       $BD__FlagAnal
 5FEB:0000       $BD__DisResUtilities
 5FEB:0000       $ED__DisResUtilities
 5FEC:0000       PoczatekStrony__PiszEventy
 5FEC:0000       $BD__PiszEventy
 5FEC:0002       EvPtr__PiszEventy
 5FEC:0006       $ED__PiszEventy
 5FED:0000       anRes__H_results
 5FED:0000       $BD__H_results
 5FED:014C       currDT__H_results
 5FED:0158       s__H_results
 5FED:015A       $ED__H_results
 6003:0000       ImportantDiv__H_DAcquizition
 6003:0000       $BD__H_DAcquizition
 6003:0002       redraw__H_DAcquizition
 6003:0003       redrawM__H_DAcquizition
 6003:0004       pilotEvId__H_DAcquizition
 6003:0008       currUpdMarks__H_DAcquizition
 6003:000C       signTabNil__H_DAcquizition
 6003:0010       agcExt__H_DAcquizition
 6003:0014       filesNotEmpty__H_DAcquizition
 6003:0015       notify__Monitor__H_DAcquizition
 6003:0019       lastComm__Monitor__H_DAcquiziti
 6003:001A       $ED__H_DAcquizition
 6005:0000       $ED__H_Count
 6005:0000       $BD__H_Count
 6006:0000       $BD__H_Print
 6006:0000       header__H_Print
 6006:0064       NazwaPliku__H_Print
 6006:0083       $ED__H_Print
 600F:0000       $BD__Semafory
 600F:0000       TablicaSemaforow__Semafory
 600F:0054       $ED__Semafory
 6015:0000       $BD__Random
 6015:0000       a__Random
 6015:006E       j__Random
 6015:0070       k__Random
 6015:0072       $ED__Random
 601D:0000       disableMask__NAVInterface
 601D:0000       $BD__NAVInterface
 601D:0002       speedMask__NAVInterface
 601D:0004       fineMode__NAVInterface
 601D:0005       killTime__NAVInterface
 601D:0007       $ED__NAVInterface
 601E:0000       maxCountW__ARINC
 601E:0000       $BD__ARINC
 601E:0002       maxCountR__ARINC
 601E:0004       $ED__ARINC
 601F:0000       $ED__HRD_Clock
 601F:0000       $BD__HRD_Clock
 6020:0000       $BD__Kl_FGenerators
 6020:0000       $ED__Kl_FGenerators
 6021:0000       $ED__Marks
 6021:0000       $BD__Marks
 6022:0000       $BD__Polozenie
 6022:0000       StalyKat__Polozenie
 6022:0002       Srodek__Polozenie
 6022:0006       Promien__Polozenie
 6022:0008       MaxVal__Polozenie
 6022:0010       AktOdleglosc__Polozenie
 6022:0018       AktKat__Polozenie
 6022:0020       Narysowany__Polozenie
 6022:0022       Bufor__Polozenie
 6022:0112       Rect__Polozenie
 6022:011A       ProcesAktywny__Polozenie
 6022:011B       NCO__Polozenie
 6022:011C       angContiner__Polozenie
 6022:011F       MarkerShapes__Polozenie
 6022:020F       Dir__Polozenie
 6022:0211       CzesciOkregu__Polozenie
 6022:0235       $ED__Polozenie
 6046:0000       $BD__H_Slupek
 6046:0000       parSlupkow__H_Slupek
 6046:0018       screeenDIB__H_Slupek
 6046:001C       cursorDIB__H_Slupek
 6046:0020       $ED__H_Slupek
 6049:0000       $ED__WorseBecause
 6049:0000       $BD__WorseBecause
 604A:0000       PrnPort__DrawEpson
 604A:0000       $BD__DrawEpson
 604A:0002       xh__DrawEpson
 604A:0004       Bufor__DrawEpson
 604A:0784       LastPosition__DrawEpson
 604A:0786       Masks__DrawEpson
 604A:078E       Adr1__DrawEpson
 604A:0792       Adr2__DrawEpson
 604A:0796       PrevPage__DrawEpson
 604A:0798       CurMode__DrawEpson
 604A:0799       FontAdrN__DrawEpson
 604A:079D       FontAdrA__DrawEpson
 604A:07A1       FontHeight__DrawEpson
 604A:07A3       Rotation__DrawEpson
 604A:07A4       MnX__DrawEpson
 604A:07A6       MnY__DrawEpson
 604A:07A8       JuzNarysowane__DrawEpson
 604A:07A9       $ED__DrawEpson
 60C5:0000       $BD__Print
 60C5:0000       PrnX__Print
 60C5:0002       PrnY__Print
 60C5:0004       PolozenieNapisu__Print
 60C5:0006       TextModeOutProc__Print
 60C5:000A       PrevIdx__Print
 60C5:000C       Flagi__Print
 60C5:000E       flgEOF__Print
 60C5:000F       scaleDiv__Print
 60C5:0011       CoKtoraProbka__Print
 60C5:0013       ZestawProbekBinDoWyboru__Print
 60C5:00D5       Tmpl__Print
 60C5:0112       $ED__Print
 60D7:0000       hDlg__PrintCntroll
 60D7:0000       $BD__PrintCntroll
 60D7:0004       Zestaw__PrintCntroll
 60D7:0006       Odniesienie__PrintCntroll
 60D7:0007       OdnB__PrintCntroll
 60D7:000B       CoKtoraProbka__PrintCntroll
 60D7:000D       IleStron__PrintCntroll
 60D7:000F       IloscProbek__PrintCntroll
 60D7:0011       lPodz__PrintCntroll
 60D7:0015       $ED__PrintCntroll
 60DC:0000       DriverInstalled__Mouse

Program entry point at 42EF:03C9
