
 Start  Stop   Length Name                   Class
 00010H 00725H 00716H PM_TEXT                CODE
 00730H 008AAH 0017BH DOSENTRY_TEXT          CODE
 008B0H 026BCH 01E0DH MANAGER_TEXT           CODE
 026C0H 02805H 00146H ERRORMESS_TEXT         CODE
 02810H 02FABH 0079CH SHORTCUTS_TEXT         CODE
 02FB0H 03D3CH 00D8DH COCPDSP_TEXT           CODE
 03D40H 03F60H 00221H GRAFUTIL_TEXT          CODE
 03F70H 042DEH 0036FH PRINTSCREEN_TEXT       CODE
 042E0H 048D6H 005F7H SOFTINTHANDLINGMANAGER_TEXT CODE
 048E0H 04AC6H 001E7H GRAFTYPES_TEXT         CODE
 04AD0H 0642BH 0195CH DIALOG_TEXT            CODE
 06430H 07B13H 016E4H HILEVGRAF_TEXT         CODE
 07B20H 09022H 01503H MMMOUSE_TEXT           CODE
 09030H 09D46H 00D17H INPLINE_TEXT           CODE
 09D50H 0AB27H 00DD8H BUTTONS_TEXT           CODE
 0AB30H 0C4ACH 0197DH GLIST_TEXT             CODE
 0C4B0H 0CE1FH 00970H ARINC_TEXT             CODE
 0CE30H 0E69BH 0186CH INSPMNG_TEXT           CODE
 0E6A0H 0F35DH 00CBEH TIMER_TEXT             CODE
 0F360H 0F918H 005B9H STORAGE_TEXT           CODE
 0F920H 0FDC8H 004A9H MESSAGES_TEXT          CODE
 0FDD0H 112A9H 014DAH STDIO_TEXT             CODE
 112B0H 12329H 0107AH DGHINTERFACE_TEXT      CODE
 12330H 130A3H 00D74H DGHINI_TEXT            CODE
 130B0H 13CF9H 00C4AH TUNE_TEXT              CODE
 13D00H 13E1FH 00120H COMMONTYPES_TEXT       CODE
 13E30H 14F51H 01122H GRAPHICS_TEXT          CODE
 14F60H 15089H 0012AH XMS_TEXT               CODE
 15090H 150CEH 0003FH XMS_INIT_TEXT          CODE
 150D0H 1558EH 004BFH XMSSERVICE_TEXT        CODE
 15590H 15FD5H 00A46H FIO_TEXT               CODE
 15FE0H 16433H 00454H SEMAFORY_TEXT          CODE
 16440H 16B1BH 006DCH MSGBOX_TEXT            CODE
 16B20H 17CF8H 011D9H INI_TEXT               CODE
 17D00H 19975H 01C76H OBLOTY_TEXT            CODE
 19980H 1A49FH 00B20H REALCONVERSIONS_TEXT   CODE
 1A4B0H 1A7CCH 0031DH DIGIRS_TEXT            CODE
 1A7D0H 1C1C8H 019F9H SPECCONV_TEXT          CODE
 1C1D0H 1C22DH 0005EH RTS87_TEXT             CODE
 1C230H 1C289H 0005AH RTS87_INIT_TEXT        CODE
 1C290H 1C356H 000C7H RTSError_TEXT          CODE
 1C360H 1C38EH 0002FH RTSError_INIT_TEXT     CODE
 1C390H 1CB00H 00771H RTSMain_TEXT           CODE
 1CB10H 1CBC2H 000B3H RTSLanguage_TEXT       CODE
 1CBD0H 1CBD0H 00001H RTSLanguage_INIT_TEXT  CODE
 1CBE0H 1CD20H 00141H RTSDevice_TEXT         CODE
 1CD30H 1CD30H 00001H RTSDevice_INIT_TEXT    CODE
 1CD40H 1CDEEH 000AFH RTSPriority_TEXT       CODE
 1CDF0H 1CDF0H 00001H RTSPriority_INIT_TEXT  CODE
 1CE00H 1CFA7H 001A8H RTSCoroutine_TEXT      CODE
 1CFB0H 1CFB0H 00001H RTSCoroutine_INIT_TEXT CODE
 1CFC0H 1D208H 00249H RTSInterrupt_TEXT      CODE
 1D210H 1D25CH 0004DH RTSInterrupt_INIT_TEXT CODE
 1D260H 1D269H 0000AH RTSRealError_TEXT      CODE
 1D270H 1D270H 00001H RTSRealError_INIT_TEXT CODE
 1D280H 1D583H 00304H Strings_TEXT           CODE
 1D590H 1DBCBH 0063CH NUMBERCONVERSION_TEXT  CODE
 1DBD0H 1DC31H 00062H SOUNDS_TEXT            CODE
 1DC40H 1E0CCH 0048DH DebugPMD_TEXT          CODE
 1E0D0H 1E168H 00099H DebugPMD_INIT_TEXT     CODE
 1E170H 1E22AH 000BBH DEVICES_TEXT           CODE
 1E230H 1E294H 00065H ERRORCODE_TEXT         CODE
 1E2A0H 1E4A3H 00204H DynMem_TEXT            CODE
 1E4B0H 1E5B7H 00108H BlockOps_TEXT          CODE
 1E5C0H 1E871H 002B2H MOUSE_TEXT             CODE
 1E880H 1EB5EH 002DFH Longs_TEXT             CODE
 1EB60H 1ED26H 001C7H TERMINAL_TEXT          CODE
 1ED30H 1F115H 003E6H TERMBASE_TEXT          CODE
 1F120H 1F144H 00025H ASCII_TEXT             CODE
 1F150H 1F1ECH 0009DH DISPLAY_TEXT           CODE
 1F1F0H 1F357H 00168H KEYBOARD_TEXT          CODE
 1F360H 1F618H 002B9H DOSMEMORY_TEXT         CODE
 1F620H 1FCE3H 006C4H MathLib0_TEXT          CODE
 1FCF0H 1FEE5H 001F6H MODULE_TABLE_DATA      FAR_DATA
 1FEF0H 1FF58H 00069H INIT_FLAG_DATA         FAR_DATA
 1FF60H 2013DH 001DEH RTSMain_DATA           FAR_DATA
 20140H 20145H 00006H RTS87_DATA             FAR_DATA
 20150H 20153H 00004H RTSCoroutine_DATA      FAR_DATA
 20160H 20801H 006A2H DebugPMD_DATA          FAR_DATA
 20810H 20810H 00000H MathLib0_DATA          FAR_DATA
 20820H 20860H 00041H PM_DATA                FAR_BSS
 20870H 208F7H 00088H DOSENTRY_DATA          FAR_BSS
 20900H 20B1DH 0021EH MANAGER_DATA           FAR_BSS
 20B20H 20B20H 00000H ERRORMESS_DATA         FAR_BSS
 20B30H 20B3DH 0000EH SHORTCUTS_DATA         FAR_BSS
 20B40H 20B67H 00028H COCPDSP_DATA           FAR_BSS
 20B70H 20BDFH 00070H GRAFUTIL_DATA          FAR_BSS
 20BF0H 20BF0H 00000H PRINTSCREEN_DATA       FAR_BSS
 20C00H 20C04H 00005H SOFTINTHANDLINGMANAGER_DATA FAR_BSS
 20C10H 20C10H 00000H GRAFTYPES_DATA         FAR_BSS
 20C20H 20C27H 00008H DIALOG_DATA            FAR_BSS
 20C30H 20C8CH 0005DH HILEVGRAF_DATA         FAR_BSS
 20C90H 21090H 00401H MMMOUSE_DATA           FAR_BSS
 210A0H 210A3H 00004H INPLINE_DATA           FAR_BSS
 210B0H 210B8H 00009H BUTTONS_DATA           FAR_BSS
 210C0H 210C7H 00008H GLIST_DATA             FAR_BSS
 210D0H 210D3H 00004H ARINC_DATA             FAR_BSS
 210E0H 2118CH 000ADH INSPMNG_DATA           FAR_BSS
 21190H 211A3H 00014H TIMER_DATA             FAR_BSS
 211B0H 211D6H 00027H STORAGE_DATA           FAR_BSS
 211E0H 211EDH 0000EH MESSAGES_DATA          FAR_BSS
 211F0H 211F0H 00000H STDIO_DATA             FAR_BSS
 21200H 21217H 00018H DGHINTERFACE_DATA      FAR_BSS
 21220H 221ADH 00F8EH DGHINI_DATA            FAR_BSS
 221B0H 22255H 000A6H TUNE_DATA              FAR_BSS
 22260H 22260H 00000H COMMONTYPES_DATA       FAR_BSS
 22270H 2239FH 00130H GRAPHICS_DATA          FAR_BSS
 223B0H 223B3H 00004H XMS_DATA               FAR_BSS
 223C0H 223C3H 00004H XMSSERVICE_DATA        FAR_BSS
 223D0H 22FE1H 00C12H FIO_DATA               FAR_BSS
 22FF0H 23043H 00054H SEMAFORY_DATA          FAR_BSS
 23050H 23065H 00016H MSGBOX_DATA            FAR_BSS
 23070H 28153H 050E4H INI_DATA               FAR_BSS
 28160H 283BEH 0025FH OBLOTY_DATA            FAR_BSS
 283C0H 283C0H 00000H REALCONVERSIONS_DATA   FAR_BSS
 283D0H 283D1H 00002H DIGIRS_DATA            FAR_BSS
 283E0H 283E0H 00000H SPECCONV_DATA          FAR_BSS
 283F0H 283F0H 00000H NUMBERCONVERSION_DATA  FAR_BSS
 28400H 28400H 00000H SOUNDS_DATA            FAR_BSS
 28410H 28410H 00000H DEVICES_DATA           FAR_BSS
 28420H 28420H 00000H ERRORCODE_DATA         FAR_BSS
 28430H 2843EH 0000FH MOUSE_DATA             FAR_BSS
 28440H 28441H 00002H TERMINAL_DATA          FAR_BSS
 28450H 284E2H 00093H TERMBASE_DATA          FAR_BSS
 284F0H 284F0H 00000H ASCII_DATA             FAR_BSS
 28500H 28500H 00000H DISPLAY_DATA           FAR_BSS
 28510H 28597H 00088H KEYBOARD_DATA          FAR_BSS
 285A0H 285A0H 00000H DOSMEMORY_DATA         FAR_BSS
 285B0H 2C047H 03A98H STACK                  STACK
 2C050H 2C050H 00000H FREE                   FREE_BSS

 Origin   Group
 2082:0   DGROUP

  Address         Publics by Name

 210D:0000       $BD__ARINC
 210B:0000       $BD__Buttons
 20B4:0000       $BD__CocpDsp
 2226:0000       $BD__CommonTypes
 2122:0000       $BD__DGHIni
 2120:0000       $BD__DGHInterface
 2087:0000       $BD__DOSEntry
 20C2:0000       $BD__Dialog
 283D:0000       $BD__DigiRS
 20B2:0000       $BD__ErrorMess
 223D:0000       $BD__FIO
 210C:0000       $BD__GList
 20C1:0000       $BD__GrafTypes
 20B7:0000       $BD__GrafUtil
 2227:0000       $BD__Graphics
 20C3:0000       $BD__HiLevGraf
 2307:0000       $BD__Ini
 210A:0000       $BD__InpLine
 210E:0000       $BD__InspMng
 2090:0000       $BD__MANAGER
 20C9:0000       $BD__MMMouse
 211E:0000       $BD__Messages
 2305:0000       $BD__MsgBox
 2816:0000       $BD__Obloty
 2082:0000       $BD__PM
 20BF:0000       $BD__PrintScreen
 2015:0000       $BD__RTSCoroutine
 1FF6:0000       $BD__RTSMain
 283C:0000       $BD__RealConversions
 22FF:0000       $BD__Semafory
 20B3:0000       $BD__ShortCuts
 20C0:0000       $BD__SoftIntHandlingManager
 283E:0000       $BD__SpecConv
 211F:0000       $BD__StdIO
 211B:0000       $BD__Storage
 2119:0000       $BD__Timer
 221B:0000       $BD__Tune
 223B:0000       $BD__XMS
 223C:0000       $BD__XMSService
 0C4B:0000       $BM__ARINC
 1E4B:0000       $BM__BlockOps
 09D5:0000       $BM__Buttons
 02FB:0000       $BM__CocpDsp
 13D0:0000       $BM__CommonTypes
 1233:0000       $BM__DGHIni
 112B:0000       $BM__DGHInterface
 0073:0000       $BM__DOSEntry
 04AD:0000       $BM__Dialog
 1A4B:0000       $BM__DigiRS
 1E2A:0000       $BM__DynMem
 026C:0000       $BM__ErrorMess
 1559:0000       $BM__FIO
 0AB3:0000       $BM__GList
 048E:0000       $BM__GrafTypes
 03D4:0000       $BM__GrafUtil
 13E3:0000       $BM__Graphics
 0643:0000       $BM__HiLevGraf
 16B2:0000       $BM__Ini
 0903:0000       $BM__InpLine
 0CE3:0000       $BM__InspMng
 008B:0000       $BM__MANAGER
 07B2:0000       $BM__MMMouse
 1F62:0000       $BM__MathLib0
 0F92:0000       $BM__Messages
 1644:0000       $BM__MsgBox
 17D0:0000       $BM__Obloty
 0001:0000       $BM__PM
 03F7:0000       $BM__PrintScreen
 1CE0:0000       $BM__RTSCoroutine
 1CBE:0000       $BM__RTSDevice
 1C39:0000       $BM__RTSMain
 1998:0000       $BM__RealConversions
 15FE:0000       $BM__Semafory
 0281:0000       $BM__ShortCuts
 042E:0000       $BM__SoftIntHandlingManager
 1A7D:0000       $BM__SpecConv
 0FDD:0000       $BM__StdIO
 0F36:0000       $BM__Storage
 0E6A:0000       $BM__Timer
 130B:0000       $BM__Tune
 14F6:0000       $BM__XMS
 150D:0000       $BM__XMSService
 0C4B:093D       $BODY__ARINC
 07B2:0B15       $BODY__BezPrzerwanOdMyszy__MMMo
 09D5:0D61       $BODY__Buttons
 02FB:0C4D       $BODY__CocpDsp
 13D0:00F4       $BODY__CommonTypes
 1233:0D08       $BODY__DGHIni
 112B:0F7B       $BODY__DGHInterface
 0073:00C2       $BODY__DOSEntry
 04AD:18C2       $BODY__Dialog
 1A4B:02D4       $BODY__DigiRS
 026C:00E1       $BODY__ErrorMess
 1559:09F0       $BODY__FIO
 0AB3:18FD       $BODY__GList
 048E:01C5       $BODY__GrafTypes
 03D4:017A       $BODY__GrafUtil
 13E3:10C2       $BODY__Graphics
 0643:1630       $BODY__HiLevGraf
 16B2:1139       $BODY__Ini
 0903:0C9E       $BODY__InpLine
 0CE3:1763       $BODY__InspMng
 008B:1B1A       $BODY__MANAGER
 07B2:134F       $BODY__MMMouse
 09D5:041B       $BODY__MONITOR__Buttons
 0F92:0411       $BODY__Messages
 0CE3:0658       $BODY__Monitor__InspMng
 042E:0590       $BODY__Monitor__SoftIntHandling
 0E6A:08D4       $BODY__Monitor__Timer
 1644:0680       $BODY__MsgBox
 17D0:1B9E       $BODY__Obloty
 0001:0652       $BODY__PM
 03F7:031D       $BODY__PrintScreen
 1C39:0743       $BODY__RTSMain
 1998:0AF9       $BODY__RealConversions
 008B:1357       $BODY__Scheduler__MANAGER
 15FE:041D       $BODY__Semafory
 0281:070A       $BODY__ShortCuts
 042E:05BE       $BODY__SoftIntHandlingManager
 1A7D:19B9       $BODY__SpecConv
 0FDD:149F       $BODY__StdIO
 0F36:0544       $BODY__Storage
 0E6A:0C72       $BODY__Timer
 130B:0A08       $BODY__Tune
 150D:0450       $BODY__XMSService
 0281:0532       $BODY__monitor__ShortCuts
 1FCF:0000       $DD
 210D:0004       $ED__ARINC
 210B:0009       $ED__Buttons
 20B4:0028       $ED__CocpDsp
 2226:0000       $ED__CommonTypes
 2122:0F8E       $ED__DGHIni
 2120:0018       $ED__DGHInterface
 2087:0088       $ED__DOSEntry
 20C2:0008       $ED__Dialog
 283D:0002       $ED__DigiRS
 20B2:0000       $ED__ErrorMess
 223D:0C12       $ED__FIO
 210C:0008       $ED__GList
 20C1:0000       $ED__GrafTypes
 20B7:0070       $ED__GrafUtil
 2227:0130       $ED__Graphics
 20C3:005D       $ED__HiLevGraf
 2307:50E4       $ED__Ini
 210A:0004       $ED__InpLine
 210E:00AD       $ED__InspMng
 2090:021E       $ED__MANAGER
 20C9:0401       $ED__MMMouse
 211E:000E       $ED__Messages
 2305:0016       $ED__MsgBox
 2816:025F       $ED__Obloty
 2082:0041       $ED__PM
 20BF:0000       $ED__PrintScreen
 2015:0003       $ED__RTSCoroutine
 1FF6:01DD       $ED__RTSMain
 283C:0000       $ED__RealConversions
 22FF:0054       $ED__Semafory
 20B3:000E       $ED__ShortCuts
 20C0:0005       $ED__SoftIntHandlingManager
 283E:0000       $ED__SpecConv
 211F:0000       $ED__StdIO
 211B:0027       $ED__Storage
 2119:0014       $ED__Timer
 221B:00A6       $ED__Tune
 223B:0004       $ED__XMS
 223C:0004       $ED__XMSService
 0C4B:096F       $EM__ARINC
 1F12:0024       $EM__ASCII
 1E4B:0108       $EM__BlockOps
 09D5:0DD7       $EM__Buttons
 02FB:0D8C       $EM__CocpDsp
 13D0:011F       $EM__CommonTypes
 1233:0D73       $EM__DGHIni
 112B:1079       $EM__DGHInterface
 0073:017A       $EM__DOSEntry
 1F36:02B8       $EM__DOSMemory
 1E17:00BA       $EM__Devices
 04AD:195B       $EM__Dialog
 1A4B:031C       $EM__DigiRS
 1F15:009C       $EM__Display
 1E2A:0204       $EM__DynMem
 1E23:0064       $EM__ErrorCode
 026C:0145       $EM__ErrorMess
 1559:0A45       $EM__FIO
 0AB3:197C       $EM__GList
 048E:01E6       $EM__GrafTypes
 03D4:0220       $EM__GrafUtil
 13E3:1121       $EM__Graphics
 0643:16E3       $EM__HiLevGraf
 16B2:11D8       $EM__Ini
 0903:0D16       $EM__InpLine
 0CE3:186B       $EM__InspMng
 1F1F:0167       $EM__Keyboard
 008B:1E0C       $EM__MANAGER
 07B2:1502       $EM__MMMouse
 1F62:06C4       $EM__MathLib0
 0F92:04A8       $EM__Messages
 1E5C:02B1       $EM__Mouse
 1644:06DB       $EM__MsgBox
 1D59:063B       $EM__NumberConversion
 17D0:1C75       $EM__Obloty
 0001:0715       $EM__PM
 03F7:036E       $EM__PrintScreen
 1CE0:01A7       $EM__RTSCoroutine
 1CBE:0140       $EM__RTSDevice
 1C39:076F       $EM__RTSMain
 1998:0B1F       $EM__RealConversions
 15FE:0453       $EM__Semafory
 0281:079B       $EM__ShortCuts
 042E:05F6       $EM__SoftIntHandlingManager
 1DBD:0061       $EM__Sounds
 1A7D:19F8       $EM__SpecConv
 0FDD:14D9       $EM__StdIO
 0F36:05B8       $EM__Storage
 1ED3:03E5       $EM__Termbase
 1EB6:01C6       $EM__Terminal
 0E6A:0CBD       $EM__Timer
 130B:0C49       $EM__Tune
 14F6:012A       $EM__XMS
 150D:04BE       $EM__XMSService
 0C4B:0954       $INIT__ARINC
 1F12:0009       $INIT__ASCII
 1E4B:0107       $INIT__BlockOps
 09D5:0D80       $INIT__Buttons
 02FB:0D49       $INIT__CocpDsp
 13D0:00FA       $INIT__CommonTypes
 1233:0D49       $INIT__DGHIni
 112B:102C       $INIT__DGHInterface
 0073:0150       $INIT__DOSEntry
 1F36:0298       $INIT__DOSMemory
 1E0D:0000       $INIT__DebugPMD
 1E17:009A       $INIT__Devices
 04AD:18EB       $INIT__Dialog
 1A4B:02F2       $INIT__DigiRS
 1F15:007C       $INIT__Display
 1E2A:0203       $INIT__DynMem
 1E23:0044       $INIT__ErrorCode
 026C:010C       $INIT__ErrorMess
 1559:0A16       $INIT__FIO
 0AB3:1920       $INIT__GList
 048E:01CB       $INIT__GrafTypes
 03D4:01D3       $INIT__GrafUtil
 13E3:10F2       $INIT__Graphics
 0643:1678       $INIT__HiLevGraf
 16B2:119F       $INIT__Ini
 0903:0CB5       $INIT__InpLine
 0CE3:17F1       $INIT__InspMng
 1F1F:0142       $INIT__Keyboard
 1E88:02DE       $INIT__Longs
 008B:1DCE       $INIT__MANAGER
 07B2:14AB       $INIT__MMMouse
 1F62:06AF       $INIT__MathLib0
 0F92:046A       $INIT__Messages
 1E5C:0296       $INIT__Mouse
 1644:0689       $INIT__MsgBox
 1D59:0620       $INIT__NumberConversion
 17D0:1C0F       $INIT__Obloty
 03F7:0326       $INIT__PrintScreen
 1C23:0000       $INIT__RTS87
 1CFB:0000       $INIT__RTSCoroutine
 1CD3:0000       $INIT__RTSDevice
 1C36:0000       $INIT__RTSError
 1D21:0000       $INIT__RTSInterrupt
 1CBD:0000       $INIT__RTSLanguage
 1C39:0731       $INIT__RTSMain
 1C39:0770       $INIT__RTSMonExit
 1CDF:0000       $INIT__RTSPriority
 1D27:0000       $INIT__RTSRealError
 1998:0AFF       $INIT__RealConversions
 15FE:0433       $INIT__Semafory
 0281:0762       $INIT__ShortCuts
 042E:05D1       $INIT__SoftIntHandlingManager
 1DBD:0046       $INIT__Sounds
 1A7D:19BF       $INIT__SpecConv
 0FDD:14A5       $INIT__StdIO
 0F36:058E       $INIT__Storage
 1D28:0303       $INIT__Strings
 1ED3:03BB       $INIT__Termbase
 1EB6:01A1       $INIT__Terminal
 0E6A:0C8E       $INIT__Timer
 130B:0C0B       $INIT__Tune
 1509:0000       $INIT__XMS
 150D:0485       $INIT__XMSService
 1FCF:0000       $MN__PM
 1FCF:01DE       $OK__01mar90_1621_OF_ASCII
 1FCF:01F0       $OK__01mar90_1621_OF_DOSMemory
 1FCF:01E4       $OK__01mar90_1621_OF_Display
 1FCF:01B4       $OK__01mar90_1621_OF_ErrorCode
 1FCF:01EA       $OK__01mar90_1621_OF_Keyboard
 1FCF:019C       $OK__01mar90_1621_OF_NumberConv
 1FCF:01D8       $OK__01mar90_1621_OF_Termbase
 1FCF:01D2       $OK__01mar90_1621_OF_Terminal
 1FCF:01AE       $OK__01mar90_1622_OF_Devices
 1FCF:01C6       $OK__01mar90_1622_OF_Mouse
 1FCF:01A2       $OK__01mar90_1622_OF_Sounds
 1FCF:01CC       $OK__05feb87_1233_OF_Longs
 1FCF:0166       $OK__10jul87_1400_OF_RTSError
 1FCF:0190       $OK__10jul87_1400_OF_RTSRealErr
 1FCF:0172       $OK__10jul87_1401_OF_RTSLanguag
 1FCF:018A       $OK__10jul87_1402_OF_RTSInterru
 1FCF:0160       $OK__10jul87_1403_OF_RTS87
 1FCF:017E       $OK__10jul87_1404_OF_RTSPriorit
 1FCF:00E8       $OK__10jul99_1214_OF_ARINC
 1FCF:00DC       $OK__10jul99_1214_OF_Buttons
 1FCF:00A6       $OK__10jul99_1214_OF_CocpDsp
 1FCF:011E       $OK__10jul99_1214_OF_CommonType
 1FCF:0112       $OK__10jul99_1214_OF_DGHIni
 1FCF:010C       $OK__10jul99_1214_OF_DGHInterfa
 1FCF:008E       $OK__10jul99_1214_OF_DOSEntry
 1FCF:00C4       $OK__10jul99_1214_OF_Dialog
 1FCF:0154       $OK__10jul99_1214_OF_DigiRS
 1FCF:009A       $OK__10jul99_1214_OF_ErrorMess
 1FCF:0130       $OK__10jul99_1214_OF_FIO
 1FCF:00E2       $OK__10jul99_1214_OF_GList
 1FCF:00BE       $OK__10jul99_1214_OF_GrafTypes
 1FCF:00AC       $OK__10jul99_1214_OF_GrafUtil
 1FCF:0124       $OK__10jul99_1214_OF_Graphics
 1FCF:00CA       $OK__10jul99_1214_OF_HiLevGraf
 1FCF:0142       $OK__10jul99_1214_OF_Ini
 1FCF:00D6       $OK__10jul99_1214_OF_InpLine
 1FCF:0094       $OK__10jul99_1214_OF_MANAGER
 1FCF:00D0       $OK__10jul99_1214_OF_MMMouse
 1FCF:0100       $OK__10jul99_1214_OF_Messages
 1FCF:013C       $OK__10jul99_1214_OF_MsgBox
 1FCF:0148       $OK__10jul99_1214_OF_Obloty
 1FCF:0000       $OK__10jul99_1214_OF_PM
 1FCF:00B2       $OK__10jul99_1214_OF_PrintScree
 1FCF:014E       $OK__10jul99_1214_OF_RealConver
 1FCF:0136       $OK__10jul99_1214_OF_Semafory
 1FCF:00A0       $OK__10jul99_1214_OF_ShortCuts
 1FCF:00B8       $OK__10jul99_1214_OF_SoftIntHan
 1FCF:015A       $OK__10jul99_1214_OF_SpecConv
 1FCF:0106       $OK__10jul99_1214_OF_StdIO
 1FCF:00FA       $OK__10jul99_1214_OF_Storage
 1FCF:00F4       $OK__10jul99_1214_OF_Timer
 1FCF:0118       $OK__10jul99_1214_OF_Tune
 1FCF:012A       $OK__10jul99_1214_OF_XMSService
 1FCF:00EE       $OK__10jul99_1317_OF_InspMng
 1FCF:0184       $OK__15jun87_0924_OF_RTSCorouti
 1FCF:0178       $OK__15jun87_0924_OF_RTSDevice
 1FCF:01BA       $OK__16jun87_1952_OF_DynMem
 1FCF:01A8       $OK__16jun87_2059_OF_DebugPMD
 1FCF:016C       $OK__19aug87_1403_OF_RTSMain
 1FCF:0196       $OK__31jul87_1000_OF_Strings
 1FCF:01C0       $OK__31jul87_1300_OF_BlockOps
 1C1D:003E       AT87Server
 210A:0000       Active__InpLine
 1C29:0014       AddrOvf__RTSError
 210B:0004       AllEnabled__Buttons
 2227:000E       BK64Inc__InternalMonitor__Graph
 2227:000A       BKSizeL__InternalMonitor__Graph
 210E:00A4       BT_KopiujInspL__InspMng
 210E:00A0       BT_KopiujInspP__InspMng
 2307:0012       BuffP__Ini
 2120:0000       BufferFull__DGHInterface
 2307:0016       Bufor__Ini
 210B:0005       ButtonList__MONITOR__Buttons
 2090:0114       CP__MANAGER
 2816:0157       CallBackDlaDopasuj__Obloty
 1C29:001E       CardOvf__RTSError
 1C29:0000       CaseError__RTSError
 20C3:0000       ClipRect__HiLevGraf
 2119:0004       ClockPer__Timer
 2090:021A       Count__MANAGER
 223D:0C08       CriticalErrorRec__FIO
 210C:0000       CurH__GList
 20C9:02F5       CursorB__BezWyszeregowania__MMM
 20C9:01F4       CursorBuf__BezWyszeregowania__M
 20C9:0008       CursorShapePtr__MMMouse
 2087:0084       DOSEmpty__DOSEntry
 2090:011C       DUMMY__MANAGER
 20C9:000C       DefaultShape__MMMouse
 2816:019C       DelDir__Obloty
 1FF6:0058       DescInt0__RTSMain
 1C29:0046       DivZero__RTSError
 2843:0000       DriverInstalled__Mouse
 2816:021E       DstDir__Obloty
 2119:0012       Dumm__Monitor__Timer
 1CB1:0069       DynParCopy__RTSLanguage
 20C9:0063       EVC__BezPrzerwanOdMyszy__MMMous
 20C9:005F       EVF__BezPrzerwanOdMyszy__MMMous
 20C9:0061       EVL__BezPrzerwanOdMyszy__MMMous
 2090:0012       ErrorHandler__MANAGER
 2307:0000       ErrorProc__Ini
 2090:0000       ErrorQueue__MANAGER
 1C39:0636       Error__RTSMain
 20C9:0065       EventBuff__BezPrzerwanOdMyszy__
 1C29:000A       FctRetError__RTSError
 223D:0008       Files__FIO
 2227:0010       FntTable__Graphics
 20C2:0004       FocusChanged__Dialog
 2227:0000       FontPtr__Graphics
 20B3:0007       FreeKey__monitor__ShortCuts
 221B:0050       GSfreqCRT__Tune
 223C:0000       GarbageList__XMSService
 20C9:02F4       Hidden__BezWyszeregowania__MMMo
 2816:0116       HomeDirDlaDopasuj__Obloty
 2816:0058       HomeDirNazwaPlikuIni__Obloty
 2816:0048       HomeDir__Obloty
 1CFC:011E       IOTransfer__RTSInterrupt
 1C29:0028       IntegerOvf__RTSError
 0000:0000  Abs  KEY__00xxx00_0000_OF_DebugPMD
 0000:0000  Abs  KEY__00xxx00_0000_OF_RTS87
 0000:0000  Abs  KEY__00xxx00_0000_OF_RTSCorouti
 0000:0000  Abs  KEY__00xxx00_0000_OF_RTSError
 0000:0000  Abs  KEY__00xxx00_0000_OF_RTSInterru
 0000:0000  Abs  KEY__00xxx00_0000_OF_RTSLanguag
 0000:0000  Abs  KEY__00xxx00_0000_OF_RTSMain
 0000:0000  Abs  KEY__00xxx00_0000_OF_RTSPriorit
 0000:0000  Abs  KEY__00xxx00_0000_OF_RTSRealErr
 0000:0000  Abs  KEY__05feb87_1233_OF_Longs
 0000:0000  Abs  KEY__10aug87_2030_OF_ASCII
 0000:0000  Abs  KEY__10aug87_2030_OF_BlockOps
 0000:0000  Abs  KEY__10aug87_2031_OF_DOSMemory
 0000:0000  Abs  KEY__10aug87_2031_OF_DebugPMD
 0000:0000  Abs  KEY__10aug87_2031_OF_Devices
 0000:0000  Abs  KEY__10aug87_2031_OF_Display
 0000:0000  Abs  KEY__10aug87_2031_OF_DynMem
 0000:0000  Abs  KEY__10aug87_2031_OF_Keyboard
 0000:0000  Abs  KEY__10aug87_2031_OF_NumberConv
 0000:0000  Abs  KEY__10aug87_2031_OF_RTSDevice
 0000:0000  Abs  KEY__10aug87_2031_OF_Storage
 0000:0000  Abs  KEY__10aug87_2031_OF_Strings
 0000:0000  Abs  KEY__10aug87_2031_OF_Termbase
 0000:0000  Abs  KEY__10aug87_2031_OF_Terminal
 0000:0000  Abs  KEY__10aug87_2032_OF_ErrorCode
 0000:0000  Abs  KEY__10aug87_2032_OF_MathLib0
 0000:0000  Abs  KEY__10aug87_2033_OF_Mouse
 0000:0000  Abs  KEY__10aug87_2033_OF_RTSCorouti
 0000:0000  Abs  KEY__10aug87_2033_OF_RealConver
 0000:0000  Abs  KEY__10aug87_2033_OF_Sounds
 0000:0000  Abs  KEY__10jul87_1035_OF_RTSMonExit
 0000:0000  Abs  KEY__10jul99_1214_OF_ARINC
 0000:0000  Abs  KEY__10jul99_1214_OF_Buttons
 0000:0000  Abs  KEY__10jul99_1214_OF_CocpDsp
 0000:0000  Abs  KEY__10jul99_1214_OF_CommonType
 0000:0000  Abs  KEY__10jul99_1214_OF_DGHIni
 0000:0000  Abs  KEY__10jul99_1214_OF_DGHInterfa
 0000:0000  Abs  KEY__10jul99_1214_OF_DOSEntry
 0000:0000  Abs  KEY__10jul99_1214_OF_Dialog
 0000:0000  Abs  KEY__10jul99_1214_OF_DigiRS
 0000:0000  Abs  KEY__10jul99_1214_OF_ErrorMess
 0000:0000  Abs  KEY__10jul99_1214_OF_FIO
 0000:0000  Abs  KEY__10jul99_1214_OF_GList
 0000:0000  Abs  KEY__10jul99_1214_OF_GrafTypes
 0000:0000  Abs  KEY__10jul99_1214_OF_GrafUtil
 0000:0000  Abs  KEY__10jul99_1214_OF_Graphics
 0000:0000  Abs  KEY__10jul99_1214_OF_HiLevGraf
 0000:0000  Abs  KEY__10jul99_1214_OF_Ini
 0000:0000  Abs  KEY__10jul99_1214_OF_InpLine
 0000:0000  Abs  KEY__10jul99_1214_OF_InspMng
 0000:0000  Abs  KEY__10jul99_1214_OF_MANAGER
 0000:0000  Abs  KEY__10jul99_1214_OF_MMMouse
 0000:0000  Abs  KEY__10jul99_1214_OF_Messages
 0000:0000  Abs  KEY__10jul99_1214_OF_MsgBox
 0000:0000  Abs  KEY__10jul99_1214_OF_Obloty
 0000:0000  Abs  KEY__10jul99_1214_OF_PM
 0000:0000  Abs  KEY__10jul99_1214_OF_PrintScree
 0000:0000  Abs  KEY__10jul99_1214_OF_Semafory
 0000:0000  Abs  KEY__10jul99_1214_OF_ShortCuts
 0000:0000  Abs  KEY__10jul99_1214_OF_SoftIntHan
 0000:0000  Abs  KEY__10jul99_1214_OF_SpecConv
 0000:0000  Abs  KEY__10jul99_1214_OF_StdIO
 0000:0000  Abs  KEY__10jul99_1214_OF_Timer
 0000:0000  Abs  KEY__10jul99_1214_OF_Tune
 0000:0000  Abs  KEY__10jul99_1214_OF_XMSService
 0000:0000  Abs  KEY__12aug87_1620_OF_RTSMain
 0000:0000  Abs  KEY__21aug96_1223_OF_XMS
 210E:003E       KartBazyL__InspMng
 210E:0067       KartBazyP__InspMng
 210B:0000       KbdButton__Buttons
 20B3:0000       Kill__ShortCuts
 1E88:01F7       LDiv__Longs
 1E88:018D       LMultU__Longs
 1E88:00E6       LMult__Longs
 0F36:0002       L__ALLOCATE__Storage
 008B:0FEF       L__AWAITEDC__MANAGER
 008B:0FEF       L__AWAITEDC__Scheduler__MANAGER
 008B:0FB4       L__AWAITEDS__MANAGER
 008B:0FB4       L__AWAITEDS__Scheduler__MANAGER
 0F92:0312       L__AcknowledgeFirst__Messages
 0F92:0337       L__Acknowledge__Messages
 1A7D:0E7B       L__AddAngle100__SpecConv
 1A7D:1858       L__AddDis__SpecConv
 1A7D:10CE       L__AddNormal__SpecConv
 1A7D:17AE       L__Add__SpecConv
 1644:00F2       L__AdvInfo__MsgBox
 1A7D:101A       L__AfterAngle100__SpecConv
 14F6:00D8       L__AllocUpperMemBlock__XMS
 1E2A:0059       L__Alloc__DynMem
 14F6:003C       L__AllocateExtMem__XMS
 150D:004E       L__Allocate__XMSService
 04AD:1666       L__AltF4__Dialog
 1A7D:0711       L__Ang100Str36Calk__SpecConv
 1A7D:06A4       L__Ang100Str36__SpecConv
 1A7D:0BF8       L__Angle100__SpecConv
 1A7D:0D36       L__AngleDeg__SpecConv
 008B:12EF       L__Assert__MANAGER
 008B:12EF       L__Assert__Scheduler__MANAGER
 0E6A:0559       L__AssignPeriodicProc__Monitor_
 0E6A:0559       L__AssignPeriodicProc__Timer
 048E:01AD       L__AssignPoint__GrafTypes
 1ED3:0002       L__AssignRead__Termbase
 048E:0187       L__AssignRect__GrafTypes
 1ED3:0184       L__AssignWrite__Termbase
 1D28:005F       L__Assign__Strings
 1E2A:01BF       L__Avail__DynMem
 0F36:02D0       L__Available__Storage
 0CE3:0473       L__BP_ADF__InspMng
 0CE3:0527       L__BP_ArchA__InspMng
 0CE3:0555       L__BP_ArchC__InspMng
 0CE3:0583       L__BP_ArchE__InspMng
 0CE3:045A       L__BP_GS__InspMng
 0CE3:05B1       L__BP_KopiujInspL__InspMng
 0CE3:05C5       L__BP_KopiujInspP__InspMng
 0CE3:0441       L__BP_LOC__InspMng
 0CE3:03F9       L__BP_OblotOK__InspMng
 0CE3:0428       L__BP_TRS__InspMng
 0CE3:03E5       L__BP_UsunOblotL__InspMng
 0CE3:03D1       L__BP_UsunOblotP__InspMng
 0CE3:048C       L__BP_VHF__InspMng
 0CE3:040F       L__BP_VOR__InspMng
 0001:00AC       L__BdPROC__PM
 1E4B:007D       L__BlockClear__BlockOps
 1E4B:00B8       L__BlockEqual__BlockOps
 1E4B:001A       L__BlockMoveBackward__BlockOps
 1E4B:0000       L__BlockMoveForward__BlockOps
 1E4B:003B       L__BlockMove__BlockOps
 1E4B:00D9       L__BlockPosition__BlockOps
 1E4B:0096       L__BlockSet__BlockOps
 042E:008A       L__BreakChain__SoftIntHandlingM
 008B:0AAF       L__Broadcast__MANAGER
 008B:0AAF       L__Broadcast__Scheduler__MANAGE
 1559:04B4       L__CD__FIO
 1C39:00EF       L__CallInitProc__RTSMain
 09D5:0D35       L__CallProc__Buttons
 1C39:00FD       L__CallTermProc__RTSMain
 0AB3:1454       L__CanEnable__GList
 1A7D:057F       L__Card100Str__SpecConv
 1A7D:033A       L__Card10Str__SpecConv
 1A7D:0225       L__Card2Str__SpecConv
 1A7D:0959       L__Card500Str__SpecConv
 1D59:0259       L__CardToString__NumberConversi
 09D5:09D0       L__ChangeButtonText__Buttons
 09D5:0959       L__ChangeButton__Buttons
 0643:0C85       L__Circle__HiLevGraf
 0281:006D       L__ClearBuffer__ShortCuts
 0281:006D       L__ClearBuffer__monitor__ShortC
 0643:1026       L__Clip__HiLevGraf
 16B2:0E08       L__CloseBuffer__Ini
 0643:0A9F       L__CloseDIB__HiLevGraf
 1559:01F2       L__Close__FIO
 1D28:02B2       L__CompareStr__Strings
 1D28:025B       L__Concat__Strings
 1E5C:01B4       L__ConditionalOff__Mouse
 1D28:001D       L__ConstAssign__Strings
 02FB:0A5E       L__ControlLoop__CocpDsp
 1D28:01E9       L__Copy__Strings
 150D:0110       L__Copy__XMSService
 09D5:0B2D       L__CreateButton__Buttons
 0903:0002       L__CreateInpLine__InpLine
 09D5:0C3C       L__CreateRadioButton__Buttons
 1559:00FA       L__Create__FIO
 1559:08B1       L__CriticalErrorHandlerProc__FI
 0E6A:051F       L__CurrentPeriod__Monitor__Time
 0E6A:051F       L__CurrentPeriod__Timer
 008B:17F9       L__CurrentProcess__MANAGER
 0F36:01B9       L__DEALLOCATE__Storage
 0643:06E9       L__DIBHeight__HiLevGraf
 0643:06B5       L__DIBWidth__HiLevGraf
 008B:0CE1       L__DOIO__MANAGER
 008B:0CE1       L__DOIO__Scheduler__MANAGER
 1F36:0002       L__DOSAlloc__DOSMemory
 1F36:01B0       L__DOSAvail__DOSMemory
 1F36:00E3       L__DOSDeAlloc__DOSMemory
 1F36:0241       L__DOSGetMaxSize__DOSMemory
 1F36:01F0       L__DOSSetSize__DOSMemory
 13E3:01B2       L__DP__Graphics
 13E3:01B2       L__DP__InternalMonitor__Graphic
 008B:1A90       L__DUMMYPRO__MANAGER
 1E2A:0102       L__DeAlloc__DynMem
 150D:00EE       L__Deallocate__XMSService
 130B:0966       L__DecADFFch__Tune
 16B2:0006       L__DefaultError__Ini
 0E6A:04B5       L__DefinePeriod__Monitor__Timer
 0E6A:04B5       L__DefinePeriod__Timer
 0281:0612       L__DefineShortCut__ShortCuts
 0903:01CA       L__DeleteInpLine__InpLine
 16B2:050E       L__DeleteSection__Ini
 0281:06DD       L__DeleteShortCut__ShortCuts
 1559:046B       L__Delete__FIO
 1D28:014C       L__Delete__Strings
 04AD:1488       L__DialogMouseHandle__Dialog
 1559:0700       L__DirQuery__FIO
 0F92:0004       L__DisableDisplay__Messages
 0AB3:1470       L__Disable__GList
 0F92:0181       L__Display__Messages
 09D5:0AAB       L__DisposeButton__Buttons
 0F92:0164       L__DisposeMessage__Messages
 0E6A:0A36       L__DisposeMetronome__Timer
 0E6A:0B9B       L__DisposeWatchdog__Timer
 1A7D:1755       L__Div__SpecConv
 03D4:0112       L__DoBeep__GrafUtil
 0903:07B4       L__DoNothing__InpLine
 0AB3:06B6       L__DodajDoListy__GList
 17D0:037F       L__Dopasuj__Obloty
 17D0:1B8B       L__Dum_Stat_File_Monitor__Oblot
 17D0:1B83       L__Dum_Stat_Size_Monitor__Oblot
 0AB3:0020       L__DummyNotification__GList
 0E6A:0BFF       L__Dummy__Timer
 1559:040B       L__EOF__FIO
 09D5:0CC0       L__EnableButton__Buttons
 09D5:0D4E       L__EnableDisableAllButtons__But
 0F92:002E       L__EnableDisplay__Messages
 04AD:167B       L__EnableDlg__Dialog
 0AB3:1513       L__Enable__GList
 0903:0183       L__Enable__InpLine
 04AD:15E7       L__EndDialog__Dialog
 0001:01BC       L__EnterPROC__PM
 008B:18E5       L__EnterProtectedOp__MANAGER
 0CE3:0950       L__EnumOblL__InspMng
 0CE3:0926       L__EnumOblP__InspMng
 07B2:07F2       L__EventDispatcher__BezPrzerwan
 0CE3:159F       L__EventHandler__InspMng
 1C39:0526       L__Execute__RTSMain
 008B:18ED       L__ExitProtectedOp__MANAGER
 1E23:002E       L__ExitToOS__ErrorCode
 1A7D:08C0       L__Feed500Str__SpecConv
 13E3:025A       L__FillRect__Graphics
 0643:0F6C       L__FillRect__HiLevGraf
 13E3:025A       L__FillRect__InternalMonitor__G
 1E5C:0002       L__FlagReset__Mouse
 0643:1268       L__FrameRect__HiLevGraf
 14F6:0068       L__FreeExtMem__XMS
 17D0:0E1A       L__FreeSlot__Obloty
 14F6:0107       L__FreeUpperMemBlock__XMS
 15FE:00AA       L__Free__Semafory
 0001:0156       L__GSA_PROC__PM
 112B:0187       L__GetAnalogVal__DGHInterface
 13E3:0191       L__GetBank__Graphics
 13E3:0191       L__GetBank__InternalMonitor__Gr
 112B:0226       L__GetBinaryVal__DGHInterface
 1E5C:006E       L__GetButPres__Mouse
 1E5C:00A0       L__GetButRel__Mouse
 0643:115F       L__GetClip__HiLevGraf
 0AB3:1839       L__GetContents__GList
 112B:002B       L__GetCurrDataSign__DGHInterfac
 1E17:0002       L__GetDeviceStatus__Devices
 1CBE:009B       L__GetDeviceStatus__RTSDevice
 04AD:0006       L__GetDialogDIBHandle__Dialog
 1559:05B5       L__GetDir__FIO
 1E23:0017       L__GetErrorCode__ErrorCode
 1559:0685       L__GetFileStamp__FIO
 1C39:0147       L__GetMessage__RTSMain
 1E5C:0037       L__GetPosBut__Mouse
 1CBE:0100       L__GetPrioMask__RTSDevice
 16B2:035E       L__GetPrivateProfileString__Ini
 13D0:0010       L__GetRecName__CommonTypes
 0AB3:1819       L__GetRect__GList
 07B2:0713       L__GetRegionRect__MMMouse
 09D5:0D0E       L__GetRegion__Buttons
 0AB3:1608       L__GetRegion__GList
 0903:0C4D       L__GetRegion__InpLine
 07B2:06C2       L__GetRegion__MMMouse
 0AB3:14F4       L__GetSelection__GList
 0903:0388       L__GetText__InpLine
 13D0:0055       L__GetTranName__CommonTypes
 13E3:03B5       L__GetWindow__Graphics
 13E3:03B5       L__GetWindow__InternalMonitor__
 1A4B:0002       L__GetWrBufLength__DigiRS
 04AD:123F       L__Go__Dialog
 1A7D:1178       L__GorszeBoBlisze__SpecConv
 1A7D:14AD       L__GorszeBoDalszeOdZera__SpecCo
 1A7D:10E9       L__GorszeBoDalszeR__SpecConv
 1A7D:1127       L__GorszeBoDalsze__SpecConv
 1A7D:142B       L__GorszeBoMniejsze1500__SpecCo
 1A7D:1368       L__GorszeBoMniejsze160__SpecCon
 1A7D:146C       L__GorszeBoMniejsze2000__SpecCo
 1A7D:1327       L__GorszeBoMniejsze300__SpecCon
 1A7D:12A5       L__GorszeBoMniejsze400__SpecCon
 1A7D:13A9       L__GorszeBoMniejsze5000__SpecCo
 1A7D:13EA       L__GorszeBoMniejsze500__SpecCon
 1A7D:12E6       L__GorszeBoMniejsze800__SpecCon
 1A7D:1264       L__GorszeBoMniejszeM60__SpecCon
 1A7D:11C9       L__GorszeBoMniejszePol__SpecCon
 1A7D:120A       L__GorszeBoMniejsze__SpecConv
 1A7D:1237       L__GorszeBoWieksze__SpecConv
 0AB3:128C       L__HandleEvent__GList
 07B2:00DF       L__HideConditionally__MMMouse
 07B2:0BDE       L__HideCursor__BezWyszeregowani
 07B2:0BDE       L__HideCursor__MMMouse
 1E5C:002B       L__HideCursor__Mouse
 0E6A:06FC       L__IBMIntHandler__Monitor__Time
 130B:0881       L__ILSDecFch__Tune
 130B:0849       L__ILSIncFch__Tune
 130B:07EE       L__ILSfrqString__Tune
 0AB3:0A11       L__Idx2Str__GList
 17D0:0242       L__Ile__Obloty
 130B:093F       L__IncADFFch__Tune
 1A7D:189B       L__IncRound__SpecConv
 03D4:00BB       L__InfoBeep__GrafUtil
 03D4:0003       L__Info__GrafUtil
 1644:0072       L__Info__MsgBox
 008B:176C       L__InitC__MANAGER
 17D0:1A87       L__InitListaUrzadzen__Obloty
 008B:1782       L__InitS__MANAGER
 13D0:0098       L__InitSignalDsc__CommonTypes
 15FE:01B0       L__Init__Semafory
 13D0:00B7       L__Init_flgTab__CommonTypes
 07B2:0AC3       L__InsertEvent__BezPrzerwanOdMy
 07B2:0AC3       L__InsertEvent__MMMouse
 1D28:0096       L__Insert__Strings
 0CE3:029E       L__Insp_Stat_File_Monitor__Insp
 0CE3:0225       L__Insp_Stat_Size_Monitor__Insp
 0CE3:0C5F       L__InspekcjaEP__InspMng
 17D0:1042       L__InspekcjeNowyWpis__Obloty
 0001:01AB       L__InspekcjePROC__PM
 042E:0256       L__InstEpilogueHnd__Monitor__So
 042E:0256       L__InstEpilogueHnd__SoftIntHand
 042E:009A       L__InstPrologueHnd__Monitor__So
 042E:009A       L__InstPrologueHnd__SoftIntHand
 1E2A:0000       L__InstallDynMem__DynMem
 1E17:006A       L__InstallHandler__Devices
 1CBE:0000       L__InstallHandler__RTSDevice
 0F36:03A3       L__InstallHeap__Storage
 1C39:007B       L__InstallInitProc__RTSMain
 008B:1815       L__InstallTermProc__MANAGER
 1C39:0001       L__InstallTermProc__RTSMain
 1A7D:0A8D       L__Int1000Str__SpecConv
 1A7D:0535       L__Int100StrCalk__SpecConv
 1A7D:0411       L__Int100Str__SpecConv
 1A7D:025D       L__Int10Str__SpecConv
 1A7D:1948       L__Int2Card__SpecConv
 1A7D:165C       L__Int2StrCntr__SpecConv
 1A7D:01ED       L__Int2Str__SpecConv
 1A7D:078F       L__Int500Str__SpecConv
 1D59:01B9       L__IntToString__NumberConversio
 048E:0058       L__Intersection__GrafTypes
 13E3:0593       L__InvertW__Graphics
 13E3:0593       L__InvertW__InternalMonitor__Gr
 04AD:17AC       L__IsBusy__Dialog
 048E:014B       L__IsEqual__GrafTypes
 07B2:018A       L__IsHidden__MMMouse
 048E:0002       L__IsIntersect__GrafTypes
 17D0:0A4B       L__KasujPodkartoteke__Obloty
 17D0:068A       L__Kasuj__Obloty
 0F92:03F9       L__KbdAck__Messages
 0F92:0405       L__KbdDsp__Messages
 0281:05B8       L__KbdScan__ShortCuts
 1F1F:0002       L__KeyPressed__Keyboard
 0281:0002       L__KeyPressed__ShortCuts
 1ED3:00D7       L__KeyPressed__Termbase
 1EB6:0002       L__KeyPressed__Terminal
 0281:0002       L__KeyPressed__monitor__ShortCu
 0903:03DC       L__Key__InpLine
 0AB3:18E1       L__KillContents__GList
 0903:07C4       L__KillFocus__InpLine
 0001:0123       L__KlPROC__PM
 04AD:0E94       L__KlawiszShiftTab__Dialog
 04AD:0D8A       L__KlawiszSpacji__Dialog
 04AD:0E12       L__KlawiszTab__Dialog
 17D0:15DB       L__KopiujInspekcje__Obloty
 17D0:13F8       L__KopiujPodkartoteke__Obloty
 0001:0145       L__LOCA_PROC__PM
 1559:0389       L__Length__FIO
 1D28:0000       L__Length__Strings
 0AB3:0B6F       L__LiczbaElementow__GList
 1E5C:0194       L__LightPenOff__Mouse
 1E5C:0188       L__LightPenOn__Mouse
 0643:0B20       L__LineS__HiLevGraf
 0643:1234       L__LineTo__HiLevGraf
 0643:0AF4       L__Line__HiLevGraf
 0643:03A5       L__LoadDIB__HiLevGraf
 1D59:01FE       L__LongIntToString__NumberConve
 13E3:000B       L__MaxHor__Graphics
 13E3:0014       L__MaxVer__Graphics
 1559:0510       L__MkDir__FIO
 09D5:07E1       L__MouseHandler__Buttons
 07B2:1031       L__MouseLoop__MMMouse
 14F6:008B       L__MoveExtMemBlock__XMS
 048E:0100       L__MoveRect__GrafTypes
 0643:121A       L__MoveTo__HiLevGraf
 1A7D:1782       L__Mul__SpecConv
 026C:0029       L__MyErrorHand__ErrorMess
 0F92:010B       L__NewMessage__Messages
 0E6A:0940       L__NewMetronome__Timer
 0E6A:0A94       L__NewWatchdog__Timer
 09D5:0B27       L__Nic__Buttons
 0643:10F4       L__NoClip__HiLevGraf
 1DBD:0032       L__NoSound__Sounds
 008B:0A58       L__Notify__MANAGER
 008B:0A58       L__Notify__Scheduler__MANAGER
 1D59:028D       L__NumToString__NumberConversio
 1559:0002       L__Open__FIO
 1644:05C9       L__P0__MsgBox
 1644:05EA       L__P1__MsgBox
 1644:060B       L__P2__MsgBox
 1644:062C       L__P3__MsgBox
 0001:00CE       L__PgPROC__PM
 0001:0189       L__PhAPROC__PM
 0001:0101       L__PhPROC__PM
 0001:00BD       L__PlPROC__PM
 0001:019A       L__PnAPROC__PM
 0001:00F0       L__PnPROC__PM
 02FB:02E6       L__PodajFormat__CocpDsp
 0643:117A       L__Point__HiLevGraf
 1D28:0188       L__Pos__Strings
 09D5:0AE2       L__PressRadio__Buttons
 0001:0619       L__PrintScreenProc__PM
 008B:1629       L__PriorityDecrease__MANAGER
 0281:003B       L__PutKeyStrokeIntoBuffer__Shor
 0281:003B       L__PutKeyStrokeIntoBuffer__moni
 0001:00DF       L__PvPROC__PM
 14F6:0011       L__QueryFreeExtMem__XMS
 1A7D:0C58       L__RAngle100__SpecConv
 0AB3:0E9F       L__RChoose__GList
 0AB3:0D8F       L__RScrollDn__GList
 0AB3:0C76       L__RScrollUp__GList
 04AD:02EB       L__RadioBProc__Dialog
 0281:0104       L__Rd__ShortCuts
 0281:0104       L__Rd__monitor__ShortCuts
 0C4B:00BF       L__ReInitialize__ARINC
 1EB6:010A       L__ReadAgain__Terminal
 0C4B:051B       L__ReadConfiguration__ARINC
 1559:0346       L__ReadExt__FIO
 1E5C:013E       L__ReadMotionCounters__Mouse
 0C4B:079E       L__ReadRXSlot__ARINC
 1A4B:007D       L__ReadString__DigiRS
 1EB6:0089       L__ReadString__Terminal
 0C4B:0637       L__ReadTXSlot__ARINC
 1559:0301       L__Read__FIO
 1F1F:0033       L__Read__Keyboard
 0281:008B       L__Read__ShortCuts
 1ED3:0088       L__Read__Termbase
 1EB6:000E       L__Read__Terminal
 0281:008B       L__Read__monitor__ShortCuts
 1998:06AC       L__RealToString__RealConversion
 008B:17E6       L__RecoveryTime__MANAGER
 04AD:17EF       L__Redraw__Dialog
 07B2:019E       L__RegisterRegion__MMMouse
 15FE:0120       L__Register__Semafory
 008B:1798       L__Release__MANAGER
 0F36:0422       L__RemoveHeap__Storage
 008B:188B       L__RemoveTermProc__MANAGER
 1559:0614       L__Rename__FIO
 0E6A:09B7       L__ResetMetronome__Timer
 14F6:00B2       L__ResizeExtMemBlock__XMS
 042E:0041       L__RestoreEventHandler__SoftInt
 1E17:004D       L__RestoreInterruptVector__Devi
 1CBE:00FB       L__RestoreInterruptVector__RTSD
 0E6A:08B3       L__RestoreTimer__Monitor__Timer
 1559:056C       L__RmDir__FIO
 008B:0892       L__SEND__MANAGER
 008B:0892       L__SEND__Scheduler__MANAGER
 008B:137C       L__STARTPROCESS__MANAGER
 1E17:002C       L__SaveInterruptVector__Devices
 1CBE:00F6       L__SaveInterruptVector__RTSDevi
 03F7:00A7       L__SaveToDib__PrintScreen
 1559:026A       L__Seek__FIO
 0001:0112       L__ServicePROC__PM
 0903:0B2F       L__SetActive__InpLine
 112B:02BB       L__SetAnalogVal__DGHInterface
 13E3:0136       L__SetBank__Graphics
 13E3:0136       L__SetBank__InternalMonitor__Gr
 1A4B:018F       L__SetBaudRate__DigiRS
 112B:0392       L__SetBinaryVal__DGHInterface
 130B:0998       L__SetCPFlags__Tune
 0AB3:1860       L__SetContents__GList
 1E5C:005A       L__SetCursorPos__Mouse
 0903:09E5       L__SetCursor__InpLine
 1E17:0018       L__SetDeviceStatus__Devices
 1CBE:00BE       L__SetDeviceStatus__RTSDevice
 1E23:0002       L__SetErrorCode__ErrorCode
 1E5C:0157       L__SetEventHandler__Mouse
 042E:0002       L__SetEventHandler__SoftIntHand
 1E5C:00FA       L__SetGraphicCursor__Mouse
 1E5C:00D2       L__SetHorizontalLimits__Mouse
 02FB:058F       L__SetIdleMsg__CocpDsp
 0643:0AE1       L__SetLineStyle__HiLevGraf
 112B:04A0       L__SetMessage__DGHInterface
 1E5C:01A0       L__SetMickeysPerPixel__Mouse
 0AB3:0002       L__SetNotificationProc__GList
 07B2:02C7       L__SetOnTop__MMMouse
 0643:0182       L__SetPaletteEntry__HiLevGraf
 07B2:0780       L__SetParent__MMMouse
 1CBE:011F       L__SetPrioMask__RTSDevice
 0AB3:1754       L__SetSelectionNotf__GList
 0AB3:1772       L__SetSelection__GList
 1E5C:01CE       L__SetSpeedThreshold__Mouse
 1E5C:0127       L__SetTextCursor__Mouse
 0903:02C9       L__SetText__InpLine
 1E5C:00E6       L__SetVerticalLimits__Mouse
 13E3:0703       L__SetWindow__Graphics
 13E3:0703       L__SetWindow__InternalMonitor__
 15FE:0002       L__Set__Semafory
 07B2:0BB2       L__ShowCursor__BezWyszeregowani
 07B2:0BB2       L__ShowCursor__MMMouse
 1E5C:001F       L__ShowCursor__Mouse
 0643:0785       L__ShowDIB__HiLevGraf
 0F92:0265       L__ShowFirst__Messages
 17D0:0B98       L__SkasujInspekcje__Obloty
 17D0:078A       L__SkasujOblot__Obloty
 0AB3:033D       L__SkasujWszystko__GList
 0AB3:0387       L__Skasuj__GList
 0AB3:1698       L__Sortowana__GList
 1DBD:0002       L__Sound__Sounds
 17D0:171F       L__StartInspection__Obloty
 0E6A:0AE2       L__StartProtectedOperation__Tim
 008B:17CC       L__StartTimeSlicing__MANAGER
 0E6A:0B56       L__StopProtectedOperation__Time
 1D59:0522       L__StringToCard__NumberConversi
 1D59:04BA       L__StringToInt__NumberConversio
 1D59:0587       L__StringToLongInt__NumberConve
 1D59:05B5       L__StringToNum__NumberConversio
 1998:0052       L__StringToReal__RealConversion
 1A7D:0F4F       L__SubAng360__SpecConv
 1A7D:0DA7       L__SubAngle100__SpecConv
 1A7D:180D       L__SubDis__SpecConv
 1A7D:10B3       L__SubNormal__SpecConv
 1A7D:18A9       L__SubWCheck__SpecConv
 1A7D:17DA       L__Sub__SpecConv
 17D0:051E       L__SzczegolowyPlikOpisu__Obloty
 0E6A:092C       L__TInOneSecond__Timer
 0073:009C       L__TerminalProcedure__DOSEntry
 1C39:068A       L__Terminate__RTSMain
 1559:08BA       L__Terminator__FIO
 13E3:1059       L__Terminator__Graphics
 008B:1973       L__Terminator__MANAGER
 07B2:133C       L__Terminator__MMMouse
 0F36:051E       L__Terminator__Storage
 150D:02F4       L__Terminator__XMSService
 13E3:001D       L__Tryb__Graphics
 130B:014C       L__TuneADF__Tune
 130B:061B       L__TuneDMEforILS__Tune
 130B:05D9       L__TuneDMEforVOR__Tune
 130B:0409       L__TuneILS__Tune
 130B:065D       L__TuneVOR__Tune
 130B:009C       L__TurnOffADF__Tune
 130B:00F4       L__TurnOffVOR_ILS__Tune
 112B:00A0       L__TurnOff__DGHInterface
 112B:00F2       L__TurnOn__DGHInterface
 04AD:0663       L__TworzDialog__Dialog
 0AB3:0028       L__TworzListe__GList
 1ED3:0127       L__UnAssignRead__Termbase
 1ED3:023E       L__UnAssignWrite__Termbase
 042E:0517       L__UnInstallAllHandlers__Monito
 042E:03FA       L__UnInstallHandler__Monitor__S
 042E:03FA       L__UnInstallHandler__SoftIntHan
 1E17:0080       L__UninstallHandler__Devices
 1CBE:0058       L__UninstallHandler__RTSDevice
 09D5:0790       L__UniversalKBD__Buttons
 07B2:03E9       L__UnregisterRegion__MMMouse
 15FE:01FC       L__Unregister__Semafory
 02FB:0002       L__UstawFormat__CocpDsp
 17D0:01EB       L__UstawHomeDir__Obloty
 02FB:0315       L__UstawZmienne__CocpDsp
 04AD:0B28       L__UsunDialog__Dialog
 0AB3:04C1       L__UsunListe__GList
 0001:0134       L__VORA_PROC__PM
 130B:08FF       L__VORDecFch__Tune
 130B:08B9       L__VORIncFch__Tune
 0001:0178       L__VORTA_PROC__PM
 0001:0167       L__VORT_PROC__PM
 008B:0BEF       L__WAITC__MANAGER
 008B:0BEF       L__WAITC__Scheduler__MANAGER
 008B:0AFD       L__WAITS__MANAGER
 008B:0AFD       L__WAITS__Scheduler__MANAGER
 0E6A:0309       L__WaitBefProtOper__Monitor__Ti
 0E6A:0309       L__WaitBefProtOper__Timer
 112B:005A       L__WaitForNewData__DGHInterface
 0E6A:03B8       L__WaitMetronomeBefProtOper__Mo
 0E6A:03B8       L__WaitMetronomeBefProtOper__Ti
 0E6A:043F       L__WaitMetronome__Monitor__Time
 0E6A:043F       L__WaitMetronome__Timer
 0E6A:0277       L__Wait__Monitor__Timer
 0E6A:0277       L__Wait__Timer
 1644:0017       L__Warn__MsgBox
 02FB:0C01       L__WatchDogProcess__CocpDsp
 0643:144C       L__Wr2StrXY__HiLevGraf
 0643:1504       L__Wr2fStrXY__HiLevGraf
 0643:138A       L__WrStrXY__HiLevGraf
 0643:12D2       L__WrStr__HiLevGraf
 0C4B:04B2       L__WriteCardMode__ARINC
 0C4B:03F4       L__WriteKillTime__ARINC
 1EB6:012C       L__WriteLn__Terminal
 16B2:06C6       L__WritePrivateProfileString__I
 1A4B:00F3       L__WriteString__DigiRS
 1EB6:013B       L__WriteString__Terminal
 0C4B:0173       L__WriteTXChannel__ARINC
 0C4B:026F       L__WriteTXData__ARINC
 0C4B:01F1       L__WriteTXLabel__ARINC
 0C4B:00FF       L__WriteTXParity__ARINC
 0C4B:032A       L__WriteTXRate__ARINC
 1F15:0002       L__Write__Display
 1559:02BC       L__Write__FIO
 1ED3:01F1       L__Write__Termbase
 1EB6:011B       L__Write__Terminal
 112B:0CCB       L__Writer__DGHInterface
 04AD:002D       L__WstawButton__Dialog
 0AB3:08C9       L__WstawDoListy__GList
 04AD:03EC       L__WstawInpLine__Dialog
 04AD:0518       L__WstawListe__Dialog
 04AD:0156       L__WstawRadioButton__Dialog
 0AB3:100F       L__Wybor__GList
 17D0:041D       L__WymInspekcjeDlaUrz__Obloty
 0CE3:097A       L__WymienPasujaceObloty__InspMn
 17D0:04E4       L__WymienWszystkiePasujace__Obl
 14F6:0000       L__XmsInstalled__XMS
 1A7D:197A       L__ZaokraglicDo500__SpecConv
 17D0:06B2       L__ZmienISkasuj__Obloty
 0AB3:0AC4       L__ZmienListe__GList
 0CE3:0890       L__ZmienOblotL__InspMng
 0CE3:08DB       L__ZmienOblotP__InspMng
 17D0:0FF8       L__ZnajdzInspekcje__Obloty
 13E3:0CF3       L___Wr16StrXY__Graphics
 13E3:0CF3       L___Wr16StrXY__InternalMonitor_
 13E3:0DC9       L___Wr2StrXY__Graphics
 13E3:0DC9       L___Wr2StrXY__InternalMonitor__
 13E3:0F13       L___Wr2fStrXY__Graphics
 13E3:0F13       L___Wr2fStrXY__InternalMonitor_
 13E3:08E1       L___WrStrXY__Graphics
 13E3:08E1       L___WrStrXY__InternalMonitor__G
 1F62:04CA       L__arctan__MathLib0
 042E:0067       L__checkBreak__SoftIntHandlingM
 1F62:03A5       L__cos__MathLib0
 1A7D:14EA       L__entierCheck__SpecConv
 1F62:05BE       L__entier__MathLib0
 1A7D:15A6       L__entier__SpecConv
 1F62:0098       L__exp__MathLib0
 0AB3:0B8E       L__kbHandler__GList
 1F62:0209       L__ln__MathLib0
 0073:0002       L__onEntryHandler__DOSEntry
 0073:004F       L__onExitHandler__DOSEntry
 1F62:05AC       L__real__MathLib0
 1F62:0251       L__sin__MathLib0
 0FDD:1383       L__sprintf2__StdIO
 0FDD:11F3       L__sprintf3__StdIO
 0FDD:0D80       L__sprintf4__StdIO
 0FDD:0F81       L__sprintf5__StdIO
 0FDD:037B       L__sprintf__StdIO
 1F62:002A       L__sqrt__MathLib0
 2090:0016       LastCreated__MANAGER
 2307:507D       LastDir__Ini
 2090:021C       LastMask__MANAGER
 20C3:000A       LastPosition__HiLevGraf
 20C9:0004       LastX__MMMouse
 20C9:0006       LastY__MMMouse
 20C2:0000       ListaDlg__Dialog
 210E:002E       ListaLokalizacji__InspMng
 210E:0032       ListaOblotowL__InspMng
 210E:0036       ListaOblotowP__InspMng
 210C:0004       Lista__GList
 1CD4:006F       Listen__RTSPriority
 1C29:0032       LongIntegerOvf__RTSError
 2090:000E       LongestProcess__MANAGER
 1C39:0683       M2Halt__RTSMain
 211E:0004       MDispl__Messages
 211E:0000       MList__Messages
 20C9:03F5       MSemafor__MMMouse
 2090:000A       MaxNumOfReady__MANAGER
 2090:0126       MaxRecTime__MANAGER
 2090:000C       MaxRunTime__MANAGER
 211E:0008       MessageSound__Messages
 2307:50E1       Modified__Ini
 1CD4:0000       MonEntry__RTSPriority
 1CD4:0043       MonExit__RTSPriority
 20C9:0058       MonitoCheck__BezPrzerwanOdMyszy
 1FF6:0036       MonitorExitProc__RTSMonExit
 20C9:005A       MouseEvent__BezPrzerwanOdMyszy_
 1C1D:0000       NMIServer
 2816:00D5       NUrzadzDlaDopasuj__Obloty
 0FDD:031F       N__BuildNumber__sprintf__StdIO
 07B2:08F0       N__Button2Ev__GetEvent__BezPrze
 112B:06B0       N__CHKSRight__Reader__Writer__D
 130B:052E       N__ConvertFrqTOControlWord__Tun
 0E6A:057E       N__Count__IBMIntHandler__Monito
 09D5:043F       N__Dec__DrawInter__Buttons
 17D0:0DD3       N__ExistDIR__FreeSlot__Obloty
 04AD:0F3F       N__Expand__Aktywizuj__Dialog
 0281:056C       N__GetChar__KbdScan__ShortCuts
 0FDD:0022       N__GetNum__sprintf__StdIO
 112B:065C       N__HexDigit__CHKSRight__Reader_
 0CE3:0A81       N__Init_UrzadzeniaRec__Inspekcj
 0FDD:00C8       N__IntConv__sprintf__StdIO
 17D0:09B5       N__KasujPlik__KasujPodkartoteke
 09D5:0A36       N__KillButton__DisposeButton__B
 0281:0691       N__Kill__DeleteShortCut__ShortC
 0CE3:11F3       N__KopiujInspProcess__EventHand
 17D0:11EB       N__KopiujPlik__KopiujPodkartote
 0643:030F       N__OpenF__LoadDIB__HiLevGraf
 02FB:077A       N__PozWskazowki__SetLOC_G_SCP__
 112B:07A4       N__Reader__Writer__DGHInterface
 09D5:0052       N__Remove__RemoveToKill__MONITO
 0281:01A0       N__Remove__RemoveToKill__monito
 02FB:05AF       N__SendMsg__ControlLoop__CocpDs
 0CE3:0C2E       N__SetDefInsp__InspekcjaEP__Ins
 02FB:0823       N__SetLOC_G_SCP__ControlLoop__C
 0FDD:023F       N__StripSpaces__sprintf__StdIO
 16B2:018F       N__ToEOL__LookForEntry__Ini
 130B:0303       N__TuneGS__TuneILS__Tune
 0CE3:1405       N__UsunOblot__EventHandler__Ins
 04AD:0A79       N__UsunPola__UsunDialog__Dialog
 0AB3:02FB       N__UsunStr__SkasujWszystko__GLi
 0AB3:107D       N__WrStr__Draw__GList
 1998:04DF       N__convDigit__RealToString__Rea
 1998:0572       N__convertnumber__RealToString_
 1998:05EA       N__exp10__RealToString__RealCon
 02FB:090E       N__pozycjaStrzalki__ControlLoop
 210E:0000       NazwaOblotu__InspMng
 2816:0000       NazwaPlikuIni__Obloty
 2816:015B       NazwaPlikuZOpisem__Obloty
 1CE0:0000       NewProcess__RTSCoroutine
 2090:0008       NuOfErrorProc__MANAGER
 2090:0120       NuOfReady__MANAGER
 20B3:000B       NumEl__monitor__ShortCuts
 2090:001A       NumberOfProc__MANAGER
 211B:0000       OCCUPED__Storage
 20C9:005E       OldButtons__BezPrzerwanOdMyszy_
 210E:003A       OstatniOblotL__InspMng
 210E:003C       OstatniOblotP__InspMng
 2120:0014       Ostrzezenie_ze_za_dlugo__DGHInt
 1FF6:0002       PSPAddress__RTSMain
 2305:0006       P_A__MsgBox
 1CB1:004D       ParCopy__RTSLanguage
 20C3:0018       Path__HiLevGraf
 2119:000C       PeriodCount__Monitor__Timer
 2119:000A       Period__Monitor__Timer
 2119:000E       PeriodicProcedure__Monitor__Tim
 20C9:0054       PrevReg__MMMouse
 1C29:003C       RangeError__RTSError
 2090:0004       ReadyFirst__MANAGER
 2090:0118       ReadyLast__MANAGER
 1D26:0000       RealError__RTSRealError
 210E:002D       RedrawScr__InspMng
 20C9:0000       Regiony__MMMouse
 0F92:0058       S__ACKMess__Messages
 008B:0002       S__ASSERT__MANAGER
 008B:11B5       S__ActivateProcess__Scheduler__
 04AD:0FCA       S__Aktywizuj__Dialog
 16B2:0F29       S__AllocateBuffer__Ini
 0F92:0382       S__Beep__Messages
 150D:03C4       S__Blad__XMSService
 0E6A:0C05       S__BreakKey__Timer
 0AB3:0FE8       S__CP__GList
 008B:18F5       S__CallTerminatingProcedures__M
 1A7D:0163       S__CheckCNil__SpecConv
 1A7D:009C       S__CheckINil__SpecConv
 04AD:15B1       S__ChwilowoZablokujDialog__Dial
 008B:04D7       S__ClearQueue__MANAGER
 04AD:1185       S__CzyMoznaSkonczyc__Dialog
 07B2:0002       S__DefineStdCursor__MMMouse
 0CE3:0626       S__DepositeEvent__Monitor__Insp
 07B2:0C8E       S__DrawCursor__BezWyszeregowani
 09D5:047D       S__DrawInter__Buttons
 0AB3:1181       S__Draw__GList
 0903:0827       S__Draw__InpLine
 15FE:02B0       S__ExceptionHandler__Semafory
 16B2:0BE2       S__Expand__Ini
 1233:08D1       S__FillSignalTable__DGHIni
 09D5:0205       S__FindAMark__MONITOR__Buttons
 0281:0424       S__FindAMark__monitor__ShortCut
 13E3:1064       S__FindROMFontAddr__Graphics
 0281:0382       S__Find__monitor__ShortCuts
 16B2:001E       S__FormSectionString__Ini
 150D:01F3       S__Free__XMSService
 0F36:04FF       S__GetChain__Storage
 0643:15BC       S__GetDir__HiLevGraf
 07B2:096B       S__GetEvent__BezPrzerwanOdMyszy
 0CE3:05D9       S__GetEvent__Monitor__InspMng
 13E3:09BB       S__GetFontPtr__InternalMonitor_
 0F36:04CB       S__GetStrategia__Storage
 13E3:008B       S__HugeMemCpy__Graphics
 0C4B:0002       S__INByte__ARINC
 008B:05E2       S__INSERT__MANAGER
 17D0:0266       S__IleInspekcji__Obloty
 1559:097A       S__InitFiles__FIO
 0001:01D2       S__InitScreen__PM
 1233:03D8       S__InitTableOfNames__DGHIni
 15FE:03BE       S__InitTbl__Semafory
 0CE3:067F       S__Init_ListaLokalizacji__InspM
 07B2:00D9       S__Init__MMMouse
 1644:064D       S__Init__MsgBox
 03F7:02FC       S__Init__PrintScreen
 008B:002D       S__InsertReady__MANAGER
 09D5:0002       S__Insert__MONITOR__Buttons
 0E6A:0002       S__Insert__Monitor__Timer
 0281:013F       S__Insert__monitor__ShortCuts
 008B:1A6A       S__InstallTerminator__MANAGER
 17D0:0B21       S__Kasuj_DelDir__Obloty
 17D0:1564       S__KopiujKartoteke__Obloty
 13E3:108B       S__LoadPLFonts__Graphics
 16B2:020F       S__LookForEntry__Ini
 16B2:010A       S__LookForSection__Ini
 09D5:0318       S__MarkBut__MONITOR__Buttons
 1A4B:004E       S__MarkError__DigiRS
 0643:0007       S__Max__HiLevGraf
 0643:0027       S__Min__HiLevGraf
 0643:0741       S__Norm__HiLevGraf
 0C4B:0062       S__OUTByte__ARINC
 0F92:0358       S__OUTMessage__Messages
 03F7:0013       S__OpenF__PrintScreen
 0001:0626       S__Process__PM
 008B:07D2       S__REMOVE__MANAGER
 1233:0CDC       S__ReadDGHIniFile__DGHIni
 07B2:0B5F       S__RedrawAt__BezWyszeregowania_
 0AB3:1046       S__Redraw__GList
 07B2:0C0A       S__RemoveCursor__BezWyszeregowa
 008B:0236       S__RemoveReady__MANAGER
 09D5:01B5       S__RemoveToKill__MONITOR__Butto
 0281:032C       S__RemoveToKill__monitor__Short
 0E6A:0159       S__Remove__Monitor__Timer
 008B:102A       S__STOPPROCESS__Scheduler__MANA
 130B:049F       S__SendDMECntrlWrd__Tune
 130B:0007       S__Send__Tune
 0F36:04E7       S__SetChain__Storage
 0E6A:07F7       S__SetCount__Monitor__Timer
 0643:0230       S__SetPalette__HiLevGraf
 0AB3:1790       S__SetPositions__GList
 0AB3:16B4       S__SetSelectionInt__GList
 07B2:0639       S__SetShape__MMMouse
 0F36:04B3       S__SetStrategia__Storage
 17D0:0738       S__SkasujKartoteke__Obloty
 0643:0047       S__StdPalette__HiLevGraf
 008B:1144       S__StopAError__Scheduler__MANAG
 0643:071E       S__Swap__HiLevGraf
 07B2:0623       S__Swap__MMMouse
 130B:0697       S__TuneVOR_ILS__Tune
 09D5:03BB       S__Unmark__MONITOR__Buttons
 0281:04D2       S__Unmark__monitor__ShortCuts
 07B2:066E       S__WrBit__MMMouse
 07B2:0651       S__WrIdx__MMMouse
 150D:0412       S__WrWarning__XMSService
 0CE3:04A5       S__WriteArchLoc__InspMng
 17D0:02DC       S__WymienWszystkie__Obloty
 0CE3:06C8       S__ZmienOblot__InspMng
 17D0:0EB9       S__ZnajdzNumInspekcji__Obloty
 20B3:0005       SavedChar__monitor__ShortCuts
 2307:5019       SavedFileName__Ini
 20B3:0001       ShortCutList__monitor__ShortCut
 2122:0F70       SignalDescr__DGHIni
 20B4:000C       SkalaCPMax__CocpDsp
 20B4:0008       SkalaCP__CocpDsp
 20B4:000E       SkalaWPMax__CocpDsp
 20B4:000A       Skala__CocpDsp
 1CB1:0000       SpecialCASE__RTSLanguage
 2816:01DD       SrcDir__Obloty
 1C39:0673       StackCheck__RTSMain
 1C39:067C       StackOvf__RTSMain
 211B:0023       StaraStrategia__Storage
 0001:06A1       StartModula
 211B:0025       StaryCh__Storage
 2816:0044       Stat_File_Monitor__Obloty
 2816:0040       Stat_Size_Monitor__Obloty
 2090:001C       Statistic__MANAGER
 20B7:0000       StatusR__GrafUtil
 20C9:01E5       Stored__BezPrzerwanOdMyszy__MMM
 20C3:0008       Style__HiLevGraf
 2119:0002       TIOS__Timer
 2119:0006       TOQueue__Monitor__Timer
 2090:0124       TSSInterval__MANAGER
 2122:08E8       TableOfNames__DGHIni
 22FF:0000       TablicaSemaforow__Semafory
 2119:0000       TimeCounter__Timer
 2090:0128       TimeIntNum__MANAGER
 2082:0002       Tmpl__PM
 20B7:006E       Tone__GrafUtil
 1CE0:0143       Transfer__RTSCoroutine
 211E:000A       TurnBeepOn__Messages
 221B:0000       VORfreqCRT__Tune
 2090:0208       VarDR__MANAGER
 2090:0122       WaitForInt__MANAGER
 20B7:006C       WaitTime__GrafUtil
 20C3:0059       XS__HiLevGraf
 20C3:005B       YS__HiLevGraf
 1FF6:001A       activProcess__RTSMain
 2120:0010       activated__DGHInterface
 2015:0000       addProcess__RTSCoroutine
 210E:0090       archLocStrLocBox__InspMng
 1E88:001E       areSetsEQ__Longs
 2227:0004       bank__InternalMonitor__Graphics
 2227:0006       bankstart__InternalMonitor__Gra
 2816:0099       bd_NazwaPliku__Obloty
 2816:00AA       bd_Sekcja__Obloty
 2816:00B5       bd_WpisNazwa__Obloty
 2120:0006       binaryDtaSign__DGHInterface
 1FF6:0006       blockList__RTSMain
 20C0:0000       break__SoftIntHandlingManager
 2307:5017       charsInBuffer__Ini
 2307:50E2       check__Ini
 1E88:00B4       complement__Longs
 2120:0008       csErrorCnt__DGHInterface
 1FF6:0016       curProcess__RTSMain
 20B4:0019       currErrorCP__CocpDsp
 20B4:001D       currErrorGS__CocpDsp
 20B4:001B       currErrorWP__CocpDsp
 20B4:0002       currFROMflg__CocpDsp
 20B4:0000       currGSflg__CocpDsp
 20B4:0015       currLNumber__CocpDsp
 20B4:0026       currMsg__CocpDsp
 20B4:0001       currNAVflg__CocpDsp
 20B4:0017       currRNumber__CocpDsp
 20B4:0014       currState__CocpDsp
 20B4:0003       currTOflg__CocpDsp
 2120:0004       currentSign__DGHInterface
 2307:0010       currfile__Ini
 1FF6:001E       debuggerRecord__RTSMain
 1FF6:0030       deviceMask__RTSMain
 20B4:0004       dirCP__CocpDsp
 20B4:0006       dirWP__CocpDsp
 20B3:000D       done__ShortCuts
 20B4:0023       dtaSign__CocpDsp
 1FF6:0032       dyingOverlay__RTSMain
 2087:007A       entryTmpPtr__DOSEntry
 2087:0000       entryTmp__DOSEntry
 1FF6:0000       errorCode__RTSMain
 210E:00A8       event__Monitor__InspMng
 2087:007E       exitTmpPtr__DOSEntry
 2087:003D       exitTmp__DOSEntry
 2090:01F6       expInter__Scheduler__MANAGER
 20C0:0001       firstISRDescriptorPtr__Monitor_
 20B4:0025       force__CocpDsp
 1FF6:0128       freeList__RTSMain
 210E:0029       hDlg__InspMng
 2305:0000       hDlg__MsgBox
 211B:0001       heapList__Storage
 20B4:0012       iloscStrzal__CocpDsp
 2307:0004       ini__Ini
 2087:0082       insideFlag__DOSEntry
 2816:00C0       insp_DirTmp__Obloty
 1E88:009D       intersection__Longs
 221B:00A0       lastCPFlags__Tune
 2082:0000       lastComand__PM
 221B:00A2       lastDMEfrqBits__Tune
 223D:0000       lastErr__FIO
 20C9:01EC       lx__BezWyszeregowania__MMMouse
 20C9:01EE       ly__BezWyszeregowania__MMMouse
 2120:000E       maxClicks__DGHInterface
 210D:0002       maxCountR__ARINC
 210D:0000       maxCountW__ARINC
 223D:0006       maxOpened__FIO
 20C9:0050       maxX__MMMouse
 20C9:0052       maxY__MMMouse
 283D:0000       minWrBufLength__DigiRS
 20B4:001F       newState__CocpDsp
 223D:0002       numErr__FIO
 2120:000A       nvErrorCndF__DGHInterface
 2120:000C       nvErrorCndS__DGHInterface
 1FF6:01CE       oldNMIvector
 223D:0004       opened__FIO
 1FF6:000E       overlayInitProc__RTSMain
 1FF6:000A       overlayList__RTSMain
 1FF6:0012       overlayTermProc__RTSMain
 211B:0021       prevHeap__Storage
 1FF6:0046       priorityMasks__RTSMain
 1FF6:003E       programSize
 1E88:0000       pushLSet__Longs
 2305:0004       ret__MsgBox
 2082:003F       running__PM
 20C9:01F0       rx__BezWyszeregowania__MMMouse
 20C9:01F2       ry__BezWyszeregowania__MMMouse
 20C3:000C       semafor__HiLevGraf
 2122:0000       signals__DGHIni
 2090:012A       spTab__MANAGER
 20B4:0010       srodekSkali__CocpDsp
 210E:0098       statStrBox__InspMng
 2816:00D3       stat_Files__Obloty
 2816:00CB       stat_Size__Obloty
 20B7:0008       str__GrafUtil
 1E88:005E       subSet__Longs
 1E88:0036       superSet__Longs
 1E88:00CF       unionCompl__Longs
 1E88:0086       union__Longs
 2082:0040       voitB__PM
 210E:00A9       waitEvent__Monitor__InspMng

  Address         Publics by Value

 0000:0000  Abs  KEY__10jul99_1214_OF_DOSEntry
 0000:0000  Abs  KEY__10jul99_1214_OF_Dialog
 0000:0000  Abs  KEY__10jul99_1214_OF_DGHInterfa
 0000:0000  Abs  KEY__10jul99_1214_OF_CommonType
 0000:0000  Abs  KEY__10jul99_1214_OF_DGHIni
 0000:0000  Abs  KEY__10jul99_1214_OF_DigiRS
 0000:0000  Abs  KEY__10jul99_1214_OF_GrafTypes
 0000:0000  Abs  KEY__10jul99_1214_OF_GrafUtil
 0000:0000  Abs  KEY__10jul99_1214_OF_GList
 0000:0000  Abs  KEY__10jul99_1214_OF_ErrorMess
 0000:0000  Abs  KEY__10jul99_1214_OF_FIO
 0000:0000  Abs  KEY__10aug87_2033_OF_Mouse
 0000:0000  Abs  KEY__10aug87_2033_OF_RTSCorouti
 0000:0000  Abs  KEY__10aug87_2032_OF_MathLib0
 0000:0000  Abs  KEY__10aug87_2031_OF_Terminal
 0000:0000  Abs  KEY__10aug87_2032_OF_ErrorCode
 0000:0000  Abs  KEY__10aug87_2033_OF_RealConver
 0000:0000  Abs  KEY__10jul99_1214_OF_Buttons
 0000:0000  Abs  KEY__10jul99_1214_OF_CocpDsp
 0000:0000  Abs  KEY__10jul99_1214_OF_ARINC
 0000:0000  Abs  KEY__10aug87_2033_OF_Sounds
 0000:0000  Abs  KEY__10jul87_1035_OF_RTSMonExit
 0000:0000  Abs  KEY__10jul99_1214_OF_SoftIntHan
 0000:0000  Abs  KEY__10jul99_1214_OF_SpecConv
 0000:0000  Abs  KEY__10jul99_1214_OF_ShortCuts
 0000:0000  Abs  KEY__10jul99_1214_OF_PrintScree
 0000:0000  Abs  KEY__10jul99_1214_OF_Semafory
 0000:0000  Abs  KEY__10jul99_1214_OF_StdIO
 0000:0000  Abs  KEY__12aug87_1620_OF_RTSMain
 0000:0000  Abs  KEY__21aug96_1223_OF_XMS
 0000:0000  Abs  KEY__10jul99_1214_OF_XMSService
 0000:0000  Abs  KEY__10jul99_1214_OF_Timer
 0000:0000  Abs  KEY__10jul99_1214_OF_Tune
 0000:0000  Abs  KEY__10jul99_1214_OF_InpLine
 0000:0000  Abs  KEY__10jul99_1214_OF_InspMng
 0000:0000  Abs  KEY__10jul99_1214_OF_Ini
 0000:0000  Abs  KEY__10jul99_1214_OF_Graphics
 0000:0000  Abs  KEY__10jul99_1214_OF_HiLevGraf
 0000:0000  Abs  KEY__10jul99_1214_OF_MANAGER
 0000:0000  Abs  KEY__10jul99_1214_OF_Obloty
 0000:0000  Abs  KEY__10jul99_1214_OF_PM
 0000:0000  Abs  KEY__10jul99_1214_OF_MsgBox
 0000:0000  Abs  KEY__10jul99_1214_OF_MMMouse
 0000:0000  Abs  KEY__10jul99_1214_OF_Messages
 0000:0000  Abs  KEY__10aug87_2031_OF_Termbase
 0000:0000  Abs  KEY__10aug87_2031_OF_DOSMemory
 0000:0000  Abs  KEY__10aug87_2030_OF_BlockOps
 0000:0000  Abs  KEY__10aug87_2030_OF_ASCII
 0000:0000  Abs  KEY__10aug87_2031_OF_DebugPMD
 0000:0000  Abs  KEY__00xxx00_0000_OF_RTS87
 0000:0000  Abs  KEY__10aug87_2031_OF_Devices
 0000:0000  Abs  KEY__00xxx00_0000_OF_RTSCorouti
 0000:0000  Abs  KEY__00xxx00_0000_OF_RTSPriorit
 0000:0000  Abs  KEY__00xxx00_0000_OF_RTSMain
 0000:0000  Abs  KEY__00xxx00_0000_OF_RTSLanguag
 0000:0000  Abs  KEY__00xxx00_0000_OF_RTSInterru
 0000:0000  Abs  KEY__05feb87_1233_OF_Longs
 0000:0000  Abs  KEY__00xxx00_0000_OF_RTSRealErr
 0000:0000  Abs  KEY__00xxx00_0000_OF_RTSError
 0000:0000  Abs  KEY__10aug87_2031_OF_Display
 0000:0000  Abs  KEY__10aug87_2031_OF_NumberConv
 0000:0000  Abs  KEY__10aug87_2031_OF_Keyboard
 0000:0000  Abs  KEY__10aug87_2031_OF_RTSDevice
 0000:0000  Abs  KEY__10aug87_2031_OF_Strings
 0000:0000  Abs  KEY__10aug87_2031_OF_Storage
 0000:0000  Abs  KEY__10aug87_2031_OF_DynMem
 0000:0000  Abs  KEY__00xxx00_0000_OF_DebugPMD
 0001:0000       $BM__PM
 0001:00AC       L__BdPROC__PM
 0001:00BD       L__PlPROC__PM
 0001:00CE       L__PgPROC__PM
 0001:00DF       L__PvPROC__PM
 0001:00F0       L__PnPROC__PM
 0001:0101       L__PhPROC__PM
 0001:0112       L__ServicePROC__PM
 0001:0123       L__KlPROC__PM
 0001:0134       L__VORA_PROC__PM
 0001:0145       L__LOCA_PROC__PM
 0001:0156       L__GSA_PROC__PM
 0001:0167       L__VORT_PROC__PM
 0001:0178       L__VORTA_PROC__PM
 0001:0189       L__PhAPROC__PM
 0001:019A       L__PnAPROC__PM
 0001:01AB       L__InspekcjePROC__PM
 0001:01BC       L__EnterPROC__PM
 0001:01D2       S__InitScreen__PM
 0001:0619       L__PrintScreenProc__PM
 0001:0626       S__Process__PM
 0001:0652       $BODY__PM
 0001:06A1       StartModula
 0001:0715       $EM__PM
 0073:0000       $BM__DOSEntry
 0073:0002       L__onEntryHandler__DOSEntry
 0073:004F       L__onExitHandler__DOSEntry
 0073:009C       L__TerminalProcedure__DOSEntry
 0073:00C2       $BODY__DOSEntry
 0073:0150       $INIT__DOSEntry
 0073:017A       $EM__DOSEntry
 008B:0000       $BM__MANAGER
 008B:0002       S__ASSERT__MANAGER
 008B:002D       S__InsertReady__MANAGER
 008B:0236       S__RemoveReady__MANAGER
 008B:04D7       S__ClearQueue__MANAGER
 008B:05E2       S__INSERT__MANAGER
 008B:07D2       S__REMOVE__MANAGER
 008B:0892       L__SEND__MANAGER
 008B:0892       L__SEND__Scheduler__MANAGER
 008B:0A58       L__Notify__MANAGER
 008B:0A58       L__Notify__Scheduler__MANAGER
 008B:0AAF       L__Broadcast__Scheduler__MANAGE
 008B:0AAF       L__Broadcast__MANAGER
 008B:0AFD       L__WAITS__MANAGER
 008B:0AFD       L__WAITS__Scheduler__MANAGER
 008B:0BEF       L__WAITC__Scheduler__MANAGER
 008B:0BEF       L__WAITC__MANAGER
 008B:0CE1       L__DOIO__MANAGER
 008B:0CE1       L__DOIO__Scheduler__MANAGER
 008B:0FB4       L__AWAITEDS__MANAGER
 008B:0FB4       L__AWAITEDS__Scheduler__MANAGER
 008B:0FEF       L__AWAITEDC__MANAGER
 008B:0FEF       L__AWAITEDC__Scheduler__MANAGER
 008B:102A       S__STOPPROCESS__Scheduler__MANA
 008B:1144       S__StopAError__Scheduler__MANAG
 008B:11B5       S__ActivateProcess__Scheduler__
 008B:12EF       L__Assert__Scheduler__MANAGER
 008B:12EF       L__Assert__MANAGER
 008B:1357       $BODY__Scheduler__MANAGER
 008B:137C       L__STARTPROCESS__MANAGER
 008B:1629       L__PriorityDecrease__MANAGER
 008B:176C       L__InitC__MANAGER
 008B:1782       L__InitS__MANAGER
 008B:1798       L__Release__MANAGER
 008B:17CC       L__StartTimeSlicing__MANAGER
 008B:17E6       L__RecoveryTime__MANAGER
 008B:17F9       L__CurrentProcess__MANAGER
 008B:1815       L__InstallTermProc__MANAGER
 008B:188B       L__RemoveTermProc__MANAGER
 008B:18E5       L__EnterProtectedOp__MANAGER
 008B:18ED       L__ExitProtectedOp__MANAGER
 008B:18F5       S__CallTerminatingProcedures__M
 008B:1973       L__Terminator__MANAGER
 008B:1A6A       S__InstallTerminator__MANAGER
 008B:1A90       L__DUMMYPRO__MANAGER
 008B:1B1A       $BODY__MANAGER
 008B:1DCE       $INIT__MANAGER
 008B:1E0C       $EM__MANAGER
 026C:0000       $BM__ErrorMess
 026C:0029       L__MyErrorHand__ErrorMess
 026C:00E1       $BODY__ErrorMess
 026C:010C       $INIT__ErrorMess
 026C:0145       $EM__ErrorMess
 0281:0000       $BM__ShortCuts
 0281:0002       L__KeyPressed__monitor__ShortCu
 0281:0002       L__KeyPressed__ShortCuts
 0281:003B       L__PutKeyStrokeIntoBuffer__moni
 0281:003B       L__PutKeyStrokeIntoBuffer__Shor
 0281:006D       L__ClearBuffer__ShortCuts
 0281:006D       L__ClearBuffer__monitor__ShortC
 0281:008B       L__Read__ShortCuts
 0281:008B       L__Read__monitor__ShortCuts
 0281:0104       L__Rd__monitor__ShortCuts
 0281:0104       L__Rd__ShortCuts
 0281:013F       S__Insert__monitor__ShortCuts
 0281:01A0       N__Remove__RemoveToKill__monito
 0281:032C       S__RemoveToKill__monitor__Short
 0281:0382       S__Find__monitor__ShortCuts
 0281:0424       S__FindAMark__monitor__ShortCut
 0281:04D2       S__Unmark__monitor__ShortCuts
 0281:0532       $BODY__monitor__ShortCuts
 0281:056C       N__GetChar__KbdScan__ShortCuts
 0281:05B8       L__KbdScan__ShortCuts
 0281:0612       L__DefineShortCut__ShortCuts
 0281:0691       N__Kill__DeleteShortCut__ShortC
 0281:06DD       L__DeleteShortCut__ShortCuts
 0281:070A       $BODY__ShortCuts
 0281:0762       $INIT__ShortCuts
 0281:079B       $EM__ShortCuts
 02FB:0000       $BM__CocpDsp
 02FB:0002       L__UstawFormat__CocpDsp
 02FB:02E6       L__PodajFormat__CocpDsp
 02FB:0315       L__UstawZmienne__CocpDsp
 02FB:058F       L__SetIdleMsg__CocpDsp
 02FB:05AF       N__SendMsg__ControlLoop__CocpDs
 02FB:077A       N__PozWskazowki__SetLOC_G_SCP__
 02FB:0823       N__SetLOC_G_SCP__ControlLoop__C
 02FB:090E       N__pozycjaStrzalki__ControlLoop
 02FB:0A5E       L__ControlLoop__CocpDsp
 02FB:0C01       L__WatchDogProcess__CocpDsp
 02FB:0C4D       $BODY__CocpDsp
 02FB:0D49       $INIT__CocpDsp
 02FB:0D8C       $EM__CocpDsp
 03D4:0000       $BM__GrafUtil
 03D4:0003       L__Info__GrafUtil
 03D4:00BB       L__InfoBeep__GrafUtil
 03D4:0112       L__DoBeep__GrafUtil
 03D4:017A       $BODY__GrafUtil
 03D4:01D3       $INIT__GrafUtil
 03D4:0220       $EM__GrafUtil
 03F7:0000       $BM__PrintScreen
 03F7:0013       S__OpenF__PrintScreen
 03F7:00A7       L__SaveToDib__PrintScreen
 03F7:02FC       S__Init__PrintScreen
 03F7:031D       $BODY__PrintScreen
 03F7:0326       $INIT__PrintScreen
 03F7:036E       $EM__PrintScreen
 042E:0000       $BM__SoftIntHandlingManager
 042E:0002       L__SetEventHandler__SoftIntHand
 042E:0041       L__RestoreEventHandler__SoftInt
 042E:0067       L__checkBreak__SoftIntHandlingM
 042E:008A       L__BreakChain__SoftIntHandlingM
 042E:009A       L__InstPrologueHnd__Monitor__So
 042E:009A       L__InstPrologueHnd__SoftIntHand
 042E:0256       L__InstEpilogueHnd__Monitor__So
 042E:0256       L__InstEpilogueHnd__SoftIntHand
 042E:03FA       L__UnInstallHandler__Monitor__S
 042E:03FA       L__UnInstallHandler__SoftIntHan
 042E:0517       L__UnInstallAllHandlers__Monito
 042E:0590       $BODY__Monitor__SoftIntHandling
 042E:05BE       $BODY__SoftIntHandlingManager
 042E:05D1       $INIT__SoftIntHandlingManager
 042E:05F6       $EM__SoftIntHandlingManager
 048E:0000       $BM__GrafTypes
 048E:0002       L__IsIntersect__GrafTypes
 048E:0058       L__Intersection__GrafTypes
 048E:0100       L__MoveRect__GrafTypes
 048E:014B       L__IsEqual__GrafTypes
 048E:0187       L__AssignRect__GrafTypes
 048E:01AD       L__AssignPoint__GrafTypes
 048E:01C5       $BODY__GrafTypes
 048E:01CB       $INIT__GrafTypes
 048E:01E6       $EM__GrafTypes
 04AD:0000       $BM__Dialog
 04AD:0006       L__GetDialogDIBHandle__Dialog
 04AD:002D       L__WstawButton__Dialog
 04AD:0156       L__WstawRadioButton__Dialog
 04AD:02EB       L__RadioBProc__Dialog
 04AD:03EC       L__WstawInpLine__Dialog
 04AD:0518       L__WstawListe__Dialog
 04AD:0663       L__TworzDialog__Dialog
 04AD:0A79       N__UsunPola__UsunDialog__Dialog
 04AD:0B28       L__UsunDialog__Dialog
 04AD:0D8A       L__KlawiszSpacji__Dialog
 04AD:0E12       L__KlawiszTab__Dialog
 04AD:0E94       L__KlawiszShiftTab__Dialog
 04AD:0F3F       N__Expand__Aktywizuj__Dialog
 04AD:0FCA       S__Aktywizuj__Dialog
 04AD:1185       S__CzyMoznaSkonczyc__Dialog
 04AD:123F       L__Go__Dialog
 04AD:1488       L__DialogMouseHandle__Dialog
 04AD:15B1       S__ChwilowoZablokujDialog__Dial
 04AD:15E7       L__EndDialog__Dialog
 04AD:1666       L__AltF4__Dialog
 04AD:167B       L__EnableDlg__Dialog
 04AD:17AC       L__IsBusy__Dialog
 04AD:17EF       L__Redraw__Dialog
 04AD:18C2       $BODY__Dialog
 04AD:18EB       $INIT__Dialog
 04AD:195B       $EM__Dialog
 0643:0000       $BM__HiLevGraf
 0643:0007       S__Max__HiLevGraf
 0643:0027       S__Min__HiLevGraf
 0643:0047       S__StdPalette__HiLevGraf
 0643:0182       L__SetPaletteEntry__HiLevGraf
 0643:0230       S__SetPalette__HiLevGraf
 0643:030F       N__OpenF__LoadDIB__HiLevGraf
 0643:03A5       L__LoadDIB__HiLevGraf
 0643:06B5       L__DIBWidth__HiLevGraf
 0643:06E9       L__DIBHeight__HiLevGraf
 0643:071E       S__Swap__HiLevGraf
 0643:0741       S__Norm__HiLevGraf
 0643:0785       L__ShowDIB__HiLevGraf
 0643:0A9F       L__CloseDIB__HiLevGraf
 0643:0AE1       L__SetLineStyle__HiLevGraf
 0643:0AF4       L__Line__HiLevGraf
 0643:0B20       L__LineS__HiLevGraf
 0643:0C85       L__Circle__HiLevGraf
 0643:0F6C       L__FillRect__HiLevGraf
 0643:1026       L__Clip__HiLevGraf
 0643:10F4       L__NoClip__HiLevGraf
 0643:115F       L__GetClip__HiLevGraf
 0643:117A       L__Point__HiLevGraf
 0643:121A       L__MoveTo__HiLevGraf
 0643:1234       L__LineTo__HiLevGraf
 0643:1268       L__FrameRect__HiLevGraf
 0643:12D2       L__WrStr__HiLevGraf
 0643:138A       L__WrStrXY__HiLevGraf
 0643:144C       L__Wr2StrXY__HiLevGraf
 0643:1504       L__Wr2fStrXY__HiLevGraf
 0643:15BC       S__GetDir__HiLevGraf
 0643:1630       $BODY__HiLevGraf
 0643:1678       $INIT__HiLevGraf
 0643:16E3       $EM__HiLevGraf
 07B2:0000       $BM__MMMouse
 07B2:0002       S__DefineStdCursor__MMMouse
 07B2:00D9       S__Init__MMMouse
 07B2:00DF       L__HideConditionally__MMMouse
 07B2:018A       L__IsHidden__MMMouse
 07B2:019E       L__RegisterRegion__MMMouse
 07B2:02C7       L__SetOnTop__MMMouse
 07B2:03E9       L__UnregisterRegion__MMMouse
 07B2:0623       S__Swap__MMMouse
 07B2:0639       S__SetShape__MMMouse
 07B2:0651       S__WrIdx__MMMouse
 07B2:066E       S__WrBit__MMMouse
 07B2:06C2       L__GetRegion__MMMouse
 07B2:0713       L__GetRegionRect__MMMouse
 07B2:0780       L__SetParent__MMMouse
 07B2:07F2       L__EventDispatcher__BezPrzerwan
 07B2:08F0       N__Button2Ev__GetEvent__BezPrze
 07B2:096B       S__GetEvent__BezPrzerwanOdMyszy
 07B2:0AC3       L__InsertEvent__BezPrzerwanOdMy
 07B2:0AC3       L__InsertEvent__MMMouse
 07B2:0B15       $BODY__BezPrzerwanOdMyszy__MMMo
 07B2:0B5F       S__RedrawAt__BezWyszeregowania_
 07B2:0BB2       L__ShowCursor__MMMouse
 07B2:0BB2       L__ShowCursor__BezWyszeregowani
 07B2:0BDE       L__HideCursor__BezWyszeregowani
 07B2:0BDE       L__HideCursor__MMMouse
 07B2:0C0A       S__RemoveCursor__BezWyszeregowa
 07B2:0C8E       S__DrawCursor__BezWyszeregowani
 07B2:1031       L__MouseLoop__MMMouse
 07B2:133C       L__Terminator__MMMouse
 07B2:134F       $BODY__MMMouse
 07B2:14AB       $INIT__MMMouse
 07B2:1502       $EM__MMMouse
 0903:0000       $BM__InpLine
 0903:0002       L__CreateInpLine__InpLine
 0903:0183       L__Enable__InpLine
 0903:01CA       L__DeleteInpLine__InpLine
 0903:02C9       L__SetText__InpLine
 0903:0388       L__GetText__InpLine
 0903:03DC       L__Key__InpLine
 0903:07B4       L__DoNothing__InpLine
 0903:07C4       L__KillFocus__InpLine
 0903:0827       S__Draw__InpLine
 0903:09E5       L__SetCursor__InpLine
 0903:0B2F       L__SetActive__InpLine
 0903:0C4D       L__GetRegion__InpLine
 0903:0C9E       $BODY__InpLine
 0903:0CB5       $INIT__InpLine
 0903:0D16       $EM__InpLine
 09D5:0000       $BM__Buttons
 09D5:0002       S__Insert__MONITOR__Buttons
 09D5:0052       N__Remove__RemoveToKill__MONITO
 09D5:01B5       S__RemoveToKill__MONITOR__Butto
 09D5:0205       S__FindAMark__MONITOR__Buttons
 09D5:0318       S__MarkBut__MONITOR__Buttons
 09D5:03BB       S__Unmark__MONITOR__Buttons
 09D5:041B       $BODY__MONITOR__Buttons
 09D5:043F       N__Dec__DrawInter__Buttons
 09D5:047D       S__DrawInter__Buttons
 09D5:0790       L__UniversalKBD__Buttons
 09D5:07E1       L__MouseHandler__Buttons
 09D5:0959       L__ChangeButton__Buttons
 09D5:09D0       L__ChangeButtonText__Buttons
 09D5:0A36       N__KillButton__DisposeButton__B
 09D5:0AAB       L__DisposeButton__Buttons
 09D5:0AE2       L__PressRadio__Buttons
 09D5:0B27       L__Nic__Buttons
 09D5:0B2D       L__CreateButton__Buttons
 09D5:0C3C       L__CreateRadioButton__Buttons
 09D5:0CC0       L__EnableButton__Buttons
 09D5:0D0E       L__GetRegion__Buttons
 09D5:0D35       L__CallProc__Buttons
 09D5:0D4E       L__EnableDisableAllButtons__But
 09D5:0D61       $BODY__Buttons
 09D5:0D80       $INIT__Buttons
 09D5:0DD7       $EM__Buttons
 0AB3:0000       $BM__GList
 0AB3:0002       L__SetNotificationProc__GList
 0AB3:0020       L__DummyNotification__GList
 0AB3:0028       L__TworzListe__GList
 0AB3:02FB       N__UsunStr__SkasujWszystko__GLi
 0AB3:033D       L__SkasujWszystko__GList
 0AB3:0387       L__Skasuj__GList
 0AB3:04C1       L__UsunListe__GList
 0AB3:06B6       L__DodajDoListy__GList
 0AB3:08C9       L__WstawDoListy__GList
 0AB3:0A11       L__Idx2Str__GList
 0AB3:0AC4       L__ZmienListe__GList
 0AB3:0B6F       L__LiczbaElementow__GList
 0AB3:0B8E       L__kbHandler__GList
 0AB3:0C76       L__RScrollUp__GList
 0AB3:0D8F       L__RScrollDn__GList
 0AB3:0E9F       L__RChoose__GList
 0AB3:0FE8       S__CP__GList
 0AB3:100F       L__Wybor__GList
 0AB3:1046       S__Redraw__GList
 0AB3:107D       N__WrStr__Draw__GList
 0AB3:1181       S__Draw__GList
 0AB3:128C       L__HandleEvent__GList
 0AB3:1454       L__CanEnable__GList
 0AB3:1470       L__Disable__GList
 0AB3:14F4       L__GetSelection__GList
 0AB3:1513       L__Enable__GList
 0AB3:1608       L__GetRegion__GList
 0AB3:1698       L__Sortowana__GList
 0AB3:16B4       S__SetSelectionInt__GList
 0AB3:1754       L__SetSelectionNotf__GList
 0AB3:1772       L__SetSelection__GList
 0AB3:1790       S__SetPositions__GList
 0AB3:1819       L__GetRect__GList
 0AB3:1839       L__GetContents__GList
 0AB3:1860       L__SetContents__GList
 0AB3:18E1       L__KillContents__GList
 0AB3:18FD       $BODY__GList
 0AB3:1920       $INIT__GList
 0AB3:197C       $EM__GList
 0C4B:0000       $BM__ARINC
 0C4B:0002       S__INByte__ARINC
 0C4B:0062       S__OUTByte__ARINC
 0C4B:00BF       L__ReInitialize__ARINC
 0C4B:00FF       L__WriteTXParity__ARINC
 0C4B:0173       L__WriteTXChannel__ARINC
 0C4B:01F1       L__WriteTXLabel__ARINC
 0C4B:026F       L__WriteTXData__ARINC
 0C4B:032A       L__WriteTXRate__ARINC
 0C4B:03F4       L__WriteKillTime__ARINC
 0C4B:04B2       L__WriteCardMode__ARINC
 0C4B:051B       L__ReadConfiguration__ARINC
 0C4B:0637       L__ReadTXSlot__ARINC
 0C4B:079E       L__ReadRXSlot__ARINC
 0C4B:093D       $BODY__ARINC
 0C4B:0954       $INIT__ARINC
 0C4B:096F       $EM__ARINC
 0CE3:0000       $BM__InspMng
 0CE3:0225       L__Insp_Stat_Size_Monitor__Insp
 0CE3:029E       L__Insp_Stat_File_Monitor__Insp
 0CE3:03D1       L__BP_UsunOblotP__InspMng
 0CE3:03E5       L__BP_UsunOblotL__InspMng
 0CE3:03F9       L__BP_OblotOK__InspMng
 0CE3:040F       L__BP_VOR__InspMng
 0CE3:0428       L__BP_TRS__InspMng
 0CE3:0441       L__BP_LOC__InspMng
 0CE3:045A       L__BP_GS__InspMng
 0CE3:0473       L__BP_ADF__InspMng
 0CE3:048C       L__BP_VHF__InspMng
 0CE3:04A5       S__WriteArchLoc__InspMng
 0CE3:0527       L__BP_ArchA__InspMng
 0CE3:0555       L__BP_ArchC__InspMng
 0CE3:0583       L__BP_ArchE__InspMng
 0CE3:05B1       L__BP_KopiujInspL__InspMng
 0CE3:05C5       L__BP_KopiujInspP__InspMng
 0CE3:05D9       S__GetEvent__Monitor__InspMng
 0CE3:0626       S__DepositeEvent__Monitor__Insp
 0CE3:0658       $BODY__Monitor__InspMng
 0CE3:067F       S__Init_ListaLokalizacji__InspM
 0CE3:06C8       S__ZmienOblot__InspMng
 0CE3:0890       L__ZmienOblotL__InspMng
 0CE3:08DB       L__ZmienOblotP__InspMng
 0CE3:0926       L__EnumOblP__InspMng
 0CE3:0950       L__EnumOblL__InspMng
 0CE3:097A       L__WymienPasujaceObloty__InspMn
 0CE3:0A81       N__Init_UrzadzeniaRec__Inspekcj
 0CE3:0C2E       N__SetDefInsp__InspekcjaEP__Ins
 0CE3:0C5F       L__InspekcjaEP__InspMng
 0CE3:11F3       N__KopiujInspProcess__EventHand
 0CE3:1405       N__UsunOblot__EventHandler__Ins
 0CE3:159F       L__EventHandler__InspMng
 0CE3:1763       $BODY__InspMng
 0CE3:17F1       $INIT__InspMng
 0CE3:186B       $EM__InspMng
 0E6A:0000       $BM__Timer
 0E6A:0002       S__Insert__Monitor__Timer
 0E6A:0159       S__Remove__Monitor__Timer
 0E6A:0277       L__Wait__Monitor__Timer
 0E6A:0277       L__Wait__Timer
 0E6A:0309       L__WaitBefProtOper__Timer
 0E6A:0309       L__WaitBefProtOper__Monitor__Ti
 0E6A:03B8       L__WaitMetronomeBefProtOper__Ti
 0E6A:03B8       L__WaitMetronomeBefProtOper__Mo
 0E6A:043F       L__WaitMetronome__Timer
 0E6A:043F       L__WaitMetronome__Monitor__Time
 0E6A:04B5       L__DefinePeriod__Monitor__Timer
 0E6A:04B5       L__DefinePeriod__Timer
 0E6A:051F       L__CurrentPeriod__Timer
 0E6A:051F       L__CurrentPeriod__Monitor__Time
 0E6A:0559       L__AssignPeriodicProc__Timer
 0E6A:0559       L__AssignPeriodicProc__Monitor_
 0E6A:057E       N__Count__IBMIntHandler__Monito
 0E6A:06FC       L__IBMIntHandler__Monitor__Time
 0E6A:07F7       S__SetCount__Monitor__Timer
 0E6A:08B3       L__RestoreTimer__Monitor__Timer
 0E6A:08D4       $BODY__Monitor__Timer
 0E6A:092C       L__TInOneSecond__Timer
 0E6A:0940       L__NewMetronome__Timer
 0E6A:09B7       L__ResetMetronome__Timer
 0E6A:0A36       L__DisposeMetronome__Timer
 0E6A:0A94       L__NewWatchdog__Timer
 0E6A:0AE2       L__StartProtectedOperation__Tim
 0E6A:0B56       L__StopProtectedOperation__Time
 0E6A:0B9B       L__DisposeWatchdog__Timer
 0E6A:0BFF       L__Dummy__Timer
 0E6A:0C05       S__BreakKey__Timer
 0E6A:0C72       $BODY__Timer
 0E6A:0C8E       $INIT__Timer
 0E6A:0CBD       $EM__Timer
 0F36:0000       $BM__Storage
 0F36:0002       L__ALLOCATE__Storage
 0F36:01B9       L__DEALLOCATE__Storage
 0F36:02D0       L__Available__Storage
 0F36:03A3       L__InstallHeap__Storage
 0F36:0422       L__RemoveHeap__Storage
 0F36:04B3       S__SetStrategia__Storage
 0F36:04CB       S__GetStrategia__Storage
 0F36:04E7       S__SetChain__Storage
 0F36:04FF       S__GetChain__Storage
 0F36:051E       L__Terminator__Storage
 0F36:0544       $BODY__Storage
 0F36:058E       $INIT__Storage
 0F36:05B8       $EM__Storage
 0F92:0000       $BM__Messages
 0F92:0004       L__DisableDisplay__Messages
 0F92:002E       L__EnableDisplay__Messages
 0F92:0058       S__ACKMess__Messages
 0F92:010B       L__NewMessage__Messages
 0F92:0164       L__DisposeMessage__Messages
 0F92:0181       L__Display__Messages
 0F92:0265       L__ShowFirst__Messages
 0F92:0312       L__AcknowledgeFirst__Messages
 0F92:0337       L__Acknowledge__Messages
 0F92:0358       S__OUTMessage__Messages
 0F92:0382       S__Beep__Messages
 0F92:03F9       L__KbdAck__Messages
 0F92:0405       L__KbdDsp__Messages
 0F92:0411       $BODY__Messages
 0F92:046A       $INIT__Messages
 0F92:04A8       $EM__Messages
 0FDD:0000       $BM__StdIO
 0FDD:0022       N__GetNum__sprintf__StdIO
 0FDD:00C8       N__IntConv__sprintf__StdIO
 0FDD:023F       N__StripSpaces__sprintf__StdIO
 0FDD:031F       N__BuildNumber__sprintf__StdIO
 0FDD:037B       L__sprintf__StdIO
 0FDD:0D80       L__sprintf4__StdIO
 0FDD:0F81       L__sprintf5__StdIO
 0FDD:11F3       L__sprintf3__StdIO
 0FDD:1383       L__sprintf2__StdIO
 0FDD:149F       $BODY__StdIO
 0FDD:14A5       $INIT__StdIO
 0FDD:14D9       $EM__StdIO
 112B:0000       $BM__DGHInterface
 112B:002B       L__GetCurrDataSign__DGHInterfac
 112B:005A       L__WaitForNewData__DGHInterface
 112B:00A0       L__TurnOff__DGHInterface
 112B:00F2       L__TurnOn__DGHInterface
 112B:0187       L__GetAnalogVal__DGHInterface
 112B:0226       L__GetBinaryVal__DGHInterface
 112B:02BB       L__SetAnalogVal__DGHInterface
 112B:0392       L__SetBinaryVal__DGHInterface
 112B:04A0       L__SetMessage__DGHInterface
 112B:065C       N__HexDigit__CHKSRight__Reader_
 112B:06B0       N__CHKSRight__Reader__Writer__D
 112B:07A4       N__Reader__Writer__DGHInterface
 112B:0CCB       L__Writer__DGHInterface
 112B:0F7B       $BODY__DGHInterface
 112B:102C       $INIT__DGHInterface
 112B:1079       $EM__DGHInterface
 1233:0000       $BM__DGHIni
 1233:03D8       S__InitTableOfNames__DGHIni
 1233:08D1       S__FillSignalTable__DGHIni
 1233:0CDC       S__ReadDGHIniFile__DGHIni
 1233:0D08       $BODY__DGHIni
 1233:0D49       $INIT__DGHIni
 1233:0D73       $EM__DGHIni
 130B:0000       $BM__Tune
 130B:0007       S__Send__Tune
 130B:009C       L__TurnOffADF__Tune
 130B:00F4       L__TurnOffVOR_ILS__Tune
 130B:014C       L__TuneADF__Tune
 130B:0303       N__TuneGS__TuneILS__Tune
 130B:0409       L__TuneILS__Tune
 130B:049F       S__SendDMECntrlWrd__Tune
 130B:052E       N__ConvertFrqTOControlWord__Tun
 130B:05D9       L__TuneDMEforVOR__Tune
 130B:061B       L__TuneDMEforILS__Tune
 130B:065D       L__TuneVOR__Tune
 130B:0697       S__TuneVOR_ILS__Tune
 130B:07EE       L__ILSfrqString__Tune
 130B:0849       L__ILSIncFch__Tune
 130B:0881       L__ILSDecFch__Tune
 130B:08B9       L__VORIncFch__Tune
 130B:08FF       L__VORDecFch__Tune
 130B:093F       L__IncADFFch__Tune
 130B:0966       L__DecADFFch__Tune
 130B:0998       L__SetCPFlags__Tune
 130B:0A08       $BODY__Tune
 130B:0C0B       $INIT__Tune
 130B:0C49       $EM__Tune
 13D0:0000       $BM__CommonTypes
 13D0:0010       L__GetRecName__CommonTypes
 13D0:0055       L__GetTranName__CommonTypes
 13D0:0098       L__InitSignalDsc__CommonTypes
 13D0:00B7       L__Init_flgTab__CommonTypes
 13D0:00F4       $BODY__CommonTypes
 13D0:00FA       $INIT__CommonTypes
 13D0:011F       $EM__CommonTypes
 13E3:0000       $BM__Graphics
 13E3:000B       L__MaxHor__Graphics
 13E3:0014       L__MaxVer__Graphics
 13E3:001D       L__Tryb__Graphics
 13E3:008B       S__HugeMemCpy__Graphics
 13E3:0136       L__SetBank__InternalMonitor__Gr
 13E3:0136       L__SetBank__Graphics
 13E3:0191       L__GetBank__InternalMonitor__Gr
 13E3:0191       L__GetBank__Graphics
 13E3:01B2       L__DP__Graphics
 13E3:01B2       L__DP__InternalMonitor__Graphic
 13E3:025A       L__FillRect__Graphics
 13E3:025A       L__FillRect__InternalMonitor__G
 13E3:03B5       L__GetWindow__Graphics
 13E3:03B5       L__GetWindow__InternalMonitor__
 13E3:0593       L__InvertW__InternalMonitor__Gr
 13E3:0593       L__InvertW__Graphics
 13E3:0703       L__SetWindow__Graphics
 13E3:0703       L__SetWindow__InternalMonitor__
 13E3:08E1       L___WrStrXY__InternalMonitor__G
 13E3:08E1       L___WrStrXY__Graphics
 13E3:09BB       S__GetFontPtr__InternalMonitor_
 13E3:0CF3       L___Wr16StrXY__Graphics
 13E3:0CF3       L___Wr16StrXY__InternalMonitor_
 13E3:0DC9       L___Wr2StrXY__InternalMonitor__
 13E3:0DC9       L___Wr2StrXY__Graphics
 13E3:0F13       L___Wr2fStrXY__Graphics
 13E3:0F13       L___Wr2fStrXY__InternalMonitor_
 13E3:1059       L__Terminator__Graphics
 13E3:1064       S__FindROMFontAddr__Graphics
 13E3:108B       S__LoadPLFonts__Graphics
 13E3:10C2       $BODY__Graphics
 13E3:10F2       $INIT__Graphics
 13E3:1121       $EM__Graphics
 14F6:0000       L__XmsInstalled__XMS
 14F6:0000       $BM__XMS
 14F6:0011       L__QueryFreeExtMem__XMS
 14F6:003C       L__AllocateExtMem__XMS
 14F6:0068       L__FreeExtMem__XMS
 14F6:008B       L__MoveExtMemBlock__XMS
 14F6:00B2       L__ResizeExtMemBlock__XMS
 14F6:00D8       L__AllocUpperMemBlock__XMS
 14F6:0107       L__FreeUpperMemBlock__XMS
 14F6:012A       $EM__XMS
 1509:0000       $INIT__XMS
 150D:0000       $BM__XMSService
 150D:004E       L__Allocate__XMSService
 150D:00EE       L__Deallocate__XMSService
 150D:0110       L__Copy__XMSService
 150D:01F3       S__Free__XMSService
 150D:02F4       L__Terminator__XMSService
 150D:03C4       S__Blad__XMSService
 150D:0412       S__WrWarning__XMSService
 150D:0450       $BODY__XMSService
 150D:0485       $INIT__XMSService
 150D:04BE       $EM__XMSService
 1559:0000       $BM__FIO
 1559:0002       L__Open__FIO
 1559:00FA       L__Create__FIO
 1559:01F2       L__Close__FIO
 1559:026A       L__Seek__FIO
 1559:02BC       L__Write__FIO
 1559:0301       L__Read__FIO
 1559:0346       L__ReadExt__FIO
 1559:0389       L__Length__FIO
 1559:040B       L__EOF__FIO
 1559:046B       L__Delete__FIO
 1559:04B4       L__CD__FIO
 1559:0510       L__MkDir__FIO
 1559:056C       L__RmDir__FIO
 1559:05B5       L__GetDir__FIO
 1559:0614       L__Rename__FIO
 1559:0685       L__GetFileStamp__FIO
 1559:0700       L__DirQuery__FIO
 1559:08B1       L__CriticalErrorHandlerProc__FI
 1559:08BA       L__Terminator__FIO
 1559:097A       S__InitFiles__FIO
 1559:09F0       $BODY__FIO
 1559:0A16       $INIT__FIO
 1559:0A45       $EM__FIO
 15FE:0000       $BM__Semafory
 15FE:0002       L__Set__Semafory
 15FE:00AA       L__Free__Semafory
 15FE:0120       L__Register__Semafory
 15FE:01B0       L__Init__Semafory
 15FE:01FC       L__Unregister__Semafory
 15FE:02B0       S__ExceptionHandler__Semafory
 15FE:03BE       S__InitTbl__Semafory
 15FE:041D       $BODY__Semafory
 15FE:0433       $INIT__Semafory
 15FE:0453       $EM__Semafory
 1644:0000       $BM__MsgBox
 1644:0017       L__Warn__MsgBox
 1644:0072       L__Info__MsgBox
 1644:00F2       L__AdvInfo__MsgBox
 1644:05C9       L__P0__MsgBox
 1644:05EA       L__P1__MsgBox
 1644:060B       L__P2__MsgBox
 1644:062C       L__P3__MsgBox
 1644:064D       S__Init__MsgBox
 1644:0680       $BODY__MsgBox
 1644:0689       $INIT__MsgBox
 1644:06DB       $EM__MsgBox
 16B2:0000       $BM__Ini
 16B2:0006       L__DefaultError__Ini
 16B2:001E       S__FormSectionString__Ini
 16B2:010A       S__LookForSection__Ini
 16B2:018F       N__ToEOL__LookForEntry__Ini
 16B2:020F       S__LookForEntry__Ini
 16B2:035E       L__GetPrivateProfileString__Ini
 16B2:050E       L__DeleteSection__Ini
 16B2:06C6       L__WritePrivateProfileString__I
 16B2:0BE2       S__Expand__Ini
 16B2:0E08       L__CloseBuffer__Ini
 16B2:0F29       S__AllocateBuffer__Ini
 16B2:1139       $BODY__Ini
 16B2:119F       $INIT__Ini
 16B2:11D8       $EM__Ini
 17D0:0000       $BM__Obloty
 17D0:01EB       L__UstawHomeDir__Obloty
 17D0:0242       L__Ile__Obloty
 17D0:0266       S__IleInspekcji__Obloty
 17D0:02DC       S__WymienWszystkie__Obloty
 17D0:037F       L__Dopasuj__Obloty
 17D0:041D       L__WymInspekcjeDlaUrz__Obloty
 17D0:04E4       L__WymienWszystkiePasujace__Obl
 17D0:051E       L__SzczegolowyPlikOpisu__Obloty
 17D0:068A       L__Kasuj__Obloty
 17D0:06B2       L__ZmienISkasuj__Obloty
 17D0:0738       S__SkasujKartoteke__Obloty
 17D0:078A       L__SkasujOblot__Obloty
 17D0:09B5       N__KasujPlik__KasujPodkartoteke
 17D0:0A4B       L__KasujPodkartoteke__Obloty
 17D0:0B21       S__Kasuj_DelDir__Obloty
 17D0:0B98       L__SkasujInspekcje__Obloty
 17D0:0DD3       N__ExistDIR__FreeSlot__Obloty
 17D0:0E1A       L__FreeSlot__Obloty
 17D0:0EB9       S__ZnajdzNumInspekcji__Obloty
 17D0:0FF8       L__ZnajdzInspekcje__Obloty
 17D0:1042       L__InspekcjeNowyWpis__Obloty
 17D0:11EB       N__KopiujPlik__KopiujPodkartote
 17D0:13F8       L__KopiujPodkartoteke__Obloty
 17D0:1564       S__KopiujKartoteke__Obloty
 17D0:15DB       L__KopiujInspekcje__Obloty
 17D0:171F       L__StartInspection__Obloty
 17D0:1A87       L__InitListaUrzadzen__Obloty
 17D0:1B83       L__Dum_Stat_Size_Monitor__Oblot
 17D0:1B8B       L__Dum_Stat_File_Monitor__Oblot
 17D0:1B9E       $BODY__Obloty
 17D0:1C0F       $INIT__Obloty
 17D0:1C75       $EM__Obloty
 1998:0000       $BM__RealConversions
 1998:0052       L__StringToReal__RealConversion
 1998:04DF       N__convDigit__RealToString__Rea
 1998:0572       N__convertnumber__RealToString_
 1998:05EA       N__exp10__RealToString__RealCon
 1998:06AC       L__RealToString__RealConversion
 1998:0AF9       $BODY__RealConversions
 1998:0AFF       $INIT__RealConversions
 1998:0B1F       $EM__RealConversions
 1A4B:0000       $BM__DigiRS
 1A4B:0002       L__GetWrBufLength__DigiRS
 1A4B:004E       S__MarkError__DigiRS
 1A4B:007D       L__ReadString__DigiRS
 1A4B:00F3       L__WriteString__DigiRS
 1A4B:018F       L__SetBaudRate__DigiRS
 1A4B:02D4       $BODY__DigiRS
 1A4B:02F2       $INIT__DigiRS
 1A4B:031C       $EM__DigiRS
 1A7D:0000       $BM__SpecConv
 1A7D:009C       S__CheckINil__SpecConv
 1A7D:0163       S__CheckCNil__SpecConv
 1A7D:01ED       L__Int2Str__SpecConv
 1A7D:0225       L__Card2Str__SpecConv
 1A7D:025D       L__Int10Str__SpecConv
 1A7D:033A       L__Card10Str__SpecConv
 1A7D:0411       L__Int100Str__SpecConv
 1A7D:0535       L__Int100StrCalk__SpecConv
 1A7D:057F       L__Card100Str__SpecConv
 1A7D:06A4       L__Ang100Str36__SpecConv
 1A7D:0711       L__Ang100Str36Calk__SpecConv
 1A7D:078F       L__Int500Str__SpecConv
 1A7D:08C0       L__Feed500Str__SpecConv
 1A7D:0959       L__Card500Str__SpecConv
 1A7D:0A8D       L__Int1000Str__SpecConv
 1A7D:0BF8       L__Angle100__SpecConv
 1A7D:0C58       L__RAngle100__SpecConv
 1A7D:0D36       L__AngleDeg__SpecConv
 1A7D:0DA7       L__SubAngle100__SpecConv
 1A7D:0E7B       L__AddAngle100__SpecConv
 1A7D:0F4F       L__SubAng360__SpecConv
 1A7D:101A       L__AfterAngle100__SpecConv
 1A7D:10B3       L__SubNormal__SpecConv
 1A7D:10CE       L__AddNormal__SpecConv
 1A7D:10E9       L__GorszeBoDalszeR__SpecConv
 1A7D:1127       L__GorszeBoDalsze__SpecConv
 1A7D:1178       L__GorszeBoBlisze__SpecConv
 1A7D:11C9       L__GorszeBoMniejszePol__SpecCon
 1A7D:120A       L__GorszeBoMniejsze__SpecConv
 1A7D:1237       L__GorszeBoWieksze__SpecConv
 1A7D:1264       L__GorszeBoMniejszeM60__SpecCon
 1A7D:12A5       L__GorszeBoMniejsze400__SpecCon
 1A7D:12E6       L__GorszeBoMniejsze800__SpecCon
 1A7D:1327       L__GorszeBoMniejsze300__SpecCon
 1A7D:1368       L__GorszeBoMniejsze160__SpecCon
 1A7D:13A9       L__GorszeBoMniejsze5000__SpecCo
 1A7D:13EA       L__GorszeBoMniejsze500__SpecCon
 1A7D:142B       L__GorszeBoMniejsze1500__SpecCo
 1A7D:146C       L__GorszeBoMniejsze2000__SpecCo
 1A7D:14AD       L__GorszeBoDalszeOdZera__SpecCo
 1A7D:14EA       L__entierCheck__SpecConv
 1A7D:15A6       L__entier__SpecConv
 1A7D:165C       L__Int2StrCntr__SpecConv
 1A7D:1755       L__Div__SpecConv
 1A7D:1782       L__Mul__SpecConv
 1A7D:17AE       L__Add__SpecConv
 1A7D:17DA       L__Sub__SpecConv
 1A7D:180D       L__SubDis__SpecConv
 1A7D:1858       L__AddDis__SpecConv
 1A7D:189B       L__IncRound__SpecConv
 1A7D:18A9       L__SubWCheck__SpecConv
 1A7D:1948       L__Int2Card__SpecConv
 1A7D:197A       L__ZaokraglicDo500__SpecConv
 1A7D:19B9       $BODY__SpecConv
 1A7D:19BF       $INIT__SpecConv
 1A7D:19F8       $EM__SpecConv
 1C1D:0000       NMIServer
 1C1D:003E       AT87Server
 1C23:0000       $INIT__RTS87
 1C29:0000       CaseError__RTSError
 1C29:000A       FctRetError__RTSError
 1C29:0014       AddrOvf__RTSError
 1C29:001E       CardOvf__RTSError
 1C29:0028       IntegerOvf__RTSError
 1C29:0032       LongIntegerOvf__RTSError
 1C29:003C       RangeError__RTSError
 1C29:0046       DivZero__RTSError
 1C36:0000       $INIT__RTSError
 1C39:0000       $BM__RTSMain
 1C39:0001       L__InstallTermProc__RTSMain
 1C39:007B       L__InstallInitProc__RTSMain
 1C39:00EF       L__CallInitProc__RTSMain
 1C39:00FD       L__CallTermProc__RTSMain
 1C39:0147       L__GetMessage__RTSMain
 1C39:0526       L__Execute__RTSMain
 1C39:0636       Error__RTSMain
 1C39:0673       StackCheck__RTSMain
 1C39:067C       StackOvf__RTSMain
 1C39:0683       M2Halt__RTSMain
 1C39:068A       L__Terminate__RTSMain
 1C39:0731       $INIT__RTSMain
 1C39:0743       $BODY__RTSMain
 1C39:076F       $EM__RTSMain
 1C39:0770       $INIT__RTSMonExit
 1CB1:0000       SpecialCASE__RTSLanguage
 1CB1:004D       ParCopy__RTSLanguage
 1CB1:0069       DynParCopy__RTSLanguage
 1CBD:0000       $INIT__RTSLanguage
 1CBE:0000       L__InstallHandler__RTSDevice
 1CBE:0000       $BM__RTSDevice
 1CBE:0058       L__UninstallHandler__RTSDevice
 1CBE:009B       L__GetDeviceStatus__RTSDevice
 1CBE:00BE       L__SetDeviceStatus__RTSDevice
 1CBE:00F6       L__SaveInterruptVector__RTSDevi
 1CBE:00FB       L__RestoreInterruptVector__RTSD
 1CBE:0100       L__GetPrioMask__RTSDevice
 1CBE:011F       L__SetPrioMask__RTSDevice
 1CBE:0140       $EM__RTSDevice
 1CD3:0000       $INIT__RTSDevice
 1CD4:0000       MonEntry__RTSPriority
 1CD4:0043       MonExit__RTSPriority
 1CD4:006F       Listen__RTSPriority
 1CDF:0000       $INIT__RTSPriority
 1CE0:0000       NewProcess__RTSCoroutine
 1CE0:0000       $BM__RTSCoroutine
 1CE0:0143       Transfer__RTSCoroutine
 1CE0:01A7       $EM__RTSCoroutine
 1CFB:0000       $INIT__RTSCoroutine
 1CFC:011E       IOTransfer__RTSInterrupt
 1D21:0000       $INIT__RTSInterrupt
 1D26:0000       RealError__RTSRealError
 1D27:0000       $INIT__RTSRealError
 1D28:0000       L__Length__Strings
 1D28:001D       L__ConstAssign__Strings
 1D28:005F       L__Assign__Strings
 1D28:0096       L__Insert__Strings
 1D28:014C       L__Delete__Strings
 1D28:0188       L__Pos__Strings
 1D28:01E9       L__Copy__Strings
 1D28:025B       L__Concat__Strings
 1D28:02B2       L__CompareStr__Strings
 1D28:0303       $INIT__Strings
 1D59:01B9       L__IntToString__NumberConversio
 1D59:01FE       L__LongIntToString__NumberConve
 1D59:0259       L__CardToString__NumberConversi
 1D59:028D       L__NumToString__NumberConversio
 1D59:04BA       L__StringToInt__NumberConversio
 1D59:0522       L__StringToCard__NumberConversi
 1D59:0587       L__StringToLongInt__NumberConve
 1D59:05B5       L__StringToNum__NumberConversio
 1D59:0620       $INIT__NumberConversion
 1D59:063B       $EM__NumberConversion
 1DBD:0002       L__Sound__Sounds
 1DBD:0032       L__NoSound__Sounds
 1DBD:0046       $INIT__Sounds
 1DBD:0061       $EM__Sounds
 1E0D:0000       $INIT__DebugPMD
 1E17:0002       L__GetDeviceStatus__Devices
 1E17:0018       L__SetDeviceStatus__Devices
 1E17:002C       L__SaveInterruptVector__Devices
 1E17:004D       L__RestoreInterruptVector__Devi
 1E17:006A       L__InstallHandler__Devices
 1E17:0080       L__UninstallHandler__Devices
 1E17:009A       $INIT__Devices
 1E17:00BA       $EM__Devices
 1E23:0002       L__SetErrorCode__ErrorCode
 1E23:0017       L__GetErrorCode__ErrorCode
 1E23:002E       L__ExitToOS__ErrorCode
 1E23:0044       $INIT__ErrorCode
 1E23:0064       $EM__ErrorCode
 1E2A:0000       $BM__DynMem
 1E2A:0000       L__InstallDynMem__DynMem
 1E2A:0059       L__Alloc__DynMem
 1E2A:0102       L__DeAlloc__DynMem
 1E2A:01BF       L__Avail__DynMem
 1E2A:0203       $INIT__DynMem
 1E2A:0204       $EM__DynMem
 1E4B:0000       L__BlockMoveForward__BlockOps
 1E4B:0000       $BM__BlockOps
 1E4B:001A       L__BlockMoveBackward__BlockOps
 1E4B:003B       L__BlockMove__BlockOps
 1E4B:007D       L__BlockClear__BlockOps
 1E4B:0096       L__BlockSet__BlockOps
 1E4B:00B8       L__BlockEqual__BlockOps
 1E4B:00D9       L__BlockPosition__BlockOps
 1E4B:0107       $INIT__BlockOps
 1E4B:0108       $EM__BlockOps
 1E5C:0002       L__FlagReset__Mouse
 1E5C:001F       L__ShowCursor__Mouse
 1E5C:002B       L__HideCursor__Mouse
 1E5C:0037       L__GetPosBut__Mouse
 1E5C:005A       L__SetCursorPos__Mouse
 1E5C:006E       L__GetButPres__Mouse
 1E5C:00A0       L__GetButRel__Mouse
 1E5C:00D2       L__SetHorizontalLimits__Mouse
 1E5C:00E6       L__SetVerticalLimits__Mouse
 1E5C:00FA       L__SetGraphicCursor__Mouse
 1E5C:0127       L__SetTextCursor__Mouse
 1E5C:013E       L__ReadMotionCounters__Mouse
 1E5C:0157       L__SetEventHandler__Mouse
 1E5C:0188       L__LightPenOn__Mouse
 1E5C:0194       L__LightPenOff__Mouse
 1E5C:01A0       L__SetMickeysPerPixel__Mouse
 1E5C:01B4       L__ConditionalOff__Mouse
 1E5C:01CE       L__SetSpeedThreshold__Mouse
 1E5C:0296       $INIT__Mouse
 1E5C:02B1       $EM__Mouse
 1E88:0000       pushLSet__Longs
 1E88:001E       areSetsEQ__Longs
 1E88:0036       superSet__Longs
 1E88:005E       subSet__Longs
 1E88:0086       union__Longs
 1E88:009D       intersection__Longs
 1E88:00B4       complement__Longs
 1E88:00CF       unionCompl__Longs
 1E88:00E6       LMult__Longs
 1E88:018D       LMultU__Longs
 1E88:01F7       LDiv__Longs
 1E88:02DE       $INIT__Longs
 1EB6:0002       L__KeyPressed__Terminal
 1EB6:000E       L__Read__Terminal
 1EB6:0089       L__ReadString__Terminal
 1EB6:010A       L__ReadAgain__Terminal
 1EB6:011B       L__Write__Terminal
 1EB6:012C       L__WriteLn__Terminal
 1EB6:013B       L__WriteString__Terminal
 1EB6:01A1       $INIT__Terminal
 1EB6:01C6       $EM__Terminal
 1ED3:0002       L__AssignRead__Termbase
 1ED3:0088       L__Read__Termbase
 1ED3:00D7       L__KeyPressed__Termbase
 1ED3:0127       L__UnAssignRead__Termbase
 1ED3:0184       L__AssignWrite__Termbase
 1ED3:01F1       L__Write__Termbase
 1ED3:023E       L__UnAssignWrite__Termbase
 1ED3:03BB       $INIT__Termbase
 1ED3:03E5       $EM__Termbase
 1F12:0009       $INIT__ASCII
 1F12:0024       $EM__ASCII
 1F15:0002       L__Write__Display
 1F15:007C       $INIT__Display
 1F15:009C       $EM__Display
 1F1F:0002       L__KeyPressed__Keyboard
 1F1F:0033       L__Read__Keyboard
 1F1F:0142       $INIT__Keyboard
 1F1F:0167       $EM__Keyboard
 1F36:0002       L__DOSAlloc__DOSMemory
 1F36:00E3       L__DOSDeAlloc__DOSMemory
 1F36:01B0       L__DOSAvail__DOSMemory
 1F36:01F0       L__DOSSetSize__DOSMemory
 1F36:0241       L__DOSGetMaxSize__DOSMemory
 1F36:0298       $INIT__DOSMemory
 1F36:02B8       $EM__DOSMemory
 1F62:0000       $BM__MathLib0
 1F62:002A       L__sqrt__MathLib0
 1F62:0098       L__exp__MathLib0
 1F62:0209       L__ln__MathLib0
 1F62:0251       L__sin__MathLib0
 1F62:03A5       L__cos__MathLib0
 1F62:04CA       L__arctan__MathLib0
 1F62:05AC       L__real__MathLib0
 1F62:05BE       L__entier__MathLib0
 1F62:06AF       $INIT__MathLib0
 1F62:06C4       $EM__MathLib0
 1FCF:0000       $OK__10jul99_1214_OF_PM
 1FCF:0000       $DD
 1FCF:0000       $MN__PM
 1FCF:008E       $OK__10jul99_1214_OF_DOSEntry
 1FCF:0094       $OK__10jul99_1214_OF_MANAGER
 1FCF:009A       $OK__10jul99_1214_OF_ErrorMess
 1FCF:00A0       $OK__10jul99_1214_OF_ShortCuts
 1FCF:00A6       $OK__10jul99_1214_OF_CocpDsp
 1FCF:00AC       $OK__10jul99_1214_OF_GrafUtil
 1FCF:00B2       $OK__10jul99_1214_OF_PrintScree
 1FCF:00B8       $OK__10jul99_1214_OF_SoftIntHan
 1FCF:00BE       $OK__10jul99_1214_OF_GrafTypes
 1FCF:00C4       $OK__10jul99_1214_OF_Dialog
 1FCF:00CA       $OK__10jul99_1214_OF_HiLevGraf
 1FCF:00D0       $OK__10jul99_1214_OF_MMMouse
 1FCF:00D6       $OK__10jul99_1214_OF_InpLine
 1FCF:00DC       $OK__10jul99_1214_OF_Buttons
 1FCF:00E2       $OK__10jul99_1214_OF_GList
 1FCF:00E8       $OK__10jul99_1214_OF_ARINC
 1FCF:00EE       $OK__10jul99_1317_OF_InspMng
 1FCF:00F4       $OK__10jul99_1214_OF_Timer
 1FCF:00FA       $OK__10jul99_1214_OF_Storage
 1FCF:0100       $OK__10jul99_1214_OF_Messages
 1FCF:0106       $OK__10jul99_1214_OF_StdIO
 1FCF:010C       $OK__10jul99_1214_OF_DGHInterfa
 1FCF:0112       $OK__10jul99_1214_OF_DGHIni
 1FCF:0118       $OK__10jul99_1214_OF_Tune
 1FCF:011E       $OK__10jul99_1214_OF_CommonType
 1FCF:0124       $OK__10jul99_1214_OF_Graphics
 1FCF:012A       $OK__10jul99_1214_OF_XMSService
 1FCF:0130       $OK__10jul99_1214_OF_FIO
 1FCF:0136       $OK__10jul99_1214_OF_Semafory
 1FCF:013C       $OK__10jul99_1214_OF_MsgBox
 1FCF:0142       $OK__10jul99_1214_OF_Ini
 1FCF:0148       $OK__10jul99_1214_OF_Obloty
 1FCF:014E       $OK__10jul99_1214_OF_RealConver
 1FCF:0154       $OK__10jul99_1214_OF_DigiRS
 1FCF:015A       $OK__10jul99_1214_OF_SpecConv
 1FCF:0160       $OK__10jul87_1403_OF_RTS87
 1FCF:0166       $OK__10jul87_1400_OF_RTSError
 1FCF:016C       $OK__19aug87_1403_OF_RTSMain
 1FCF:0172       $OK__10jul87_1401_OF_RTSLanguag
 1FCF:0178       $OK__15jun87_0924_OF_RTSDevice
 1FCF:017E       $OK__10jul87_1404_OF_RTSPriorit
 1FCF:0184       $OK__15jun87_0924_OF_RTSCorouti
 1FCF:018A       $OK__10jul87_1402_OF_RTSInterru
 1FCF:0190       $OK__10jul87_1400_OF_RTSRealErr
 1FCF:0196       $OK__31jul87_1000_OF_Strings
 1FCF:019C       $OK__01mar90_1621_OF_NumberConv
 1FCF:01A2       $OK__01mar90_1622_OF_Sounds
 1FCF:01A8       $OK__16jun87_2059_OF_DebugPMD
 1FCF:01AE       $OK__01mar90_1622_OF_Devices
 1FCF:01B4       $OK__01mar90_1621_OF_ErrorCode
 1FCF:01BA       $OK__16jun87_1952_OF_DynMem
 1FCF:01C0       $OK__31jul87_1300_OF_BlockOps
 1FCF:01C6       $OK__01mar90_1622_OF_Mouse
 1FCF:01CC       $OK__05feb87_1233_OF_Longs
 1FCF:01D2       $OK__01mar90_1621_OF_Terminal
 1FCF:01D8       $OK__01mar90_1621_OF_Termbase
 1FCF:01DE       $OK__01mar90_1621_OF_ASCII
 1FCF:01E4       $OK__01mar90_1621_OF_Display
 1FCF:01EA       $OK__01mar90_1621_OF_Keyboard
 1FCF:01F0       $OK__01mar90_1621_OF_DOSMemory
 1FF6:0000       errorCode__RTSMain
 1FF6:0000       $BD__RTSMain
 1FF6:0002       PSPAddress__RTSMain
 1FF6:0006       blockList__RTSMain
 1FF6:000A       overlayList__RTSMain
 1FF6:000E       overlayInitProc__RTSMain
 1FF6:0012       overlayTermProc__RTSMain
 1FF6:0016       curProcess__RTSMain
 1FF6:001A       activProcess__RTSMain
 1FF6:001E       debuggerRecord__RTSMain
 1FF6:0030       deviceMask__RTSMain
 1FF6:0032       dyingOverlay__RTSMain
 1FF6:0036       MonitorExitProc__RTSMonExit
 1FF6:003E       programSize
 1FF6:0046       priorityMasks__RTSMain
 1FF6:0058       DescInt0__RTSMain
 1FF6:0128       freeList__RTSMain
 1FF6:01CE       oldNMIvector
 1FF6:01DD       $ED__RTSMain
 2015:0000       addProcess__RTSCoroutine
 2015:0000       $BD__RTSCoroutine
 2015:0003       $ED__RTSCoroutine
 2082:0000       $BD__PM
 2082:0000       lastComand__PM
 2082:0002       Tmpl__PM
 2082:003F       running__PM
 2082:0040       voitB__PM
 2082:0041       $ED__PM
 2087:0000       $BD__DOSEntry
 2087:0000       entryTmp__DOSEntry
 2087:003D       exitTmp__DOSEntry
 2087:007A       entryTmpPtr__DOSEntry
 2087:007E       exitTmpPtr__DOSEntry
 2087:0082       insideFlag__DOSEntry
 2087:0084       DOSEmpty__DOSEntry
 2087:0088       $ED__DOSEntry
 2090:0000       $BD__MANAGER
 2090:0000       ErrorQueue__MANAGER
 2090:0004       ReadyFirst__MANAGER
 2090:0008       NuOfErrorProc__MANAGER
 2090:000A       MaxNumOfReady__MANAGER
 2090:000C       MaxRunTime__MANAGER
 2090:000E       LongestProcess__MANAGER
 2090:0012       ErrorHandler__MANAGER
 2090:0016       LastCreated__MANAGER
 2090:001A       NumberOfProc__MANAGER
 2090:001C       Statistic__MANAGER
 2090:0114       CP__MANAGER
 2090:0118       ReadyLast__MANAGER
 2090:011C       DUMMY__MANAGER
 2090:0120       NuOfReady__MANAGER
 2090:0122       WaitForInt__MANAGER
 2090:0124       TSSInterval__MANAGER
 2090:0126       MaxRecTime__MANAGER
 2090:0128       TimeIntNum__MANAGER
 2090:012A       spTab__MANAGER
 2090:01F6       expInter__Scheduler__MANAGER
 2090:0208       VarDR__MANAGER
 2090:021A       Count__MANAGER
 2090:021C       LastMask__MANAGER
 2090:021E       $ED__MANAGER
 20B2:0000       $BD__ErrorMess
 20B2:0000       $ED__ErrorMess
 20B3:0000       Kill__ShortCuts
 20B3:0000       $BD__ShortCuts
 20B3:0001       ShortCutList__monitor__ShortCut
 20B3:0005       SavedChar__monitor__ShortCuts
 20B3:0007       FreeKey__monitor__ShortCuts
 20B3:000B       NumEl__monitor__ShortCuts
 20B3:000D       done__ShortCuts
 20B3:000E       $ED__ShortCuts
 20B4:0000       currGSflg__CocpDsp
 20B4:0000       $BD__CocpDsp
 20B4:0001       currNAVflg__CocpDsp
 20B4:0002       currFROMflg__CocpDsp
 20B4:0003       currTOflg__CocpDsp
 20B4:0004       dirCP__CocpDsp
 20B4:0006       dirWP__CocpDsp
 20B4:0008       SkalaCP__CocpDsp
 20B4:000A       Skala__CocpDsp
 20B4:000C       SkalaCPMax__CocpDsp
 20B4:000E       SkalaWPMax__CocpDsp
 20B4:0010       srodekSkali__CocpDsp
 20B4:0012       iloscStrzal__CocpDsp
 20B4:0014       currState__CocpDsp
 20B4:0015       currLNumber__CocpDsp
 20B4:0017       currRNumber__CocpDsp
 20B4:0019       currErrorCP__CocpDsp
 20B4:001B       currErrorWP__CocpDsp
 20B4:001D       currErrorGS__CocpDsp
 20B4:001F       newState__CocpDsp
 20B4:0023       dtaSign__CocpDsp
 20B4:0025       force__CocpDsp
 20B4:0026       currMsg__CocpDsp
 20B4:0028       $ED__CocpDsp
 20B7:0000       $BD__GrafUtil
 20B7:0000       StatusR__GrafUtil
 20B7:0008       str__GrafUtil
 20B7:006C       WaitTime__GrafUtil
 20B7:006E       Tone__GrafUtil
 20B7:0070       $ED__GrafUtil
 20BF:0000       $ED__PrintScreen
 20BF:0000       $BD__PrintScreen
 20C0:0000       $BD__SoftIntHandlingManager
 20C0:0000       break__SoftIntHandlingManager
 20C0:0001       firstISRDescriptorPtr__Monitor_
 20C0:0005       $ED__SoftIntHandlingManager
 20C1:0000       $BD__GrafTypes
 20C1:0000       $ED__GrafTypes
 20C2:0000       $BD__Dialog
 20C2:0000       ListaDlg__Dialog
 20C2:0004       FocusChanged__Dialog
 20C2:0008       $ED__Dialog
 20C3:0000       ClipRect__HiLevGraf
 20C3:0000       $BD__HiLevGraf
 20C3:0008       Style__HiLevGraf
 20C3:000A       LastPosition__HiLevGraf
 20C3:000C       semafor__HiLevGraf
 20C3:0018       Path__HiLevGraf
 20C3:0059       XS__HiLevGraf
 20C3:005B       YS__HiLevGraf
 20C3:005D       $ED__HiLevGraf
 20C9:0000       Regiony__MMMouse
 20C9:0000       $BD__MMMouse
 20C9:0004       LastX__MMMouse
 20C9:0006       LastY__MMMouse
 20C9:0008       CursorShapePtr__MMMouse
 20C9:000C       DefaultShape__MMMouse
 20C9:0050       maxX__MMMouse
 20C9:0052       maxY__MMMouse
 20C9:0054       PrevReg__MMMouse
 20C9:0058       MonitoCheck__BezPrzerwanOdMyszy
 20C9:005A       MouseEvent__BezPrzerwanOdMyszy_
 20C9:005E       OldButtons__BezPrzerwanOdMyszy_
 20C9:005F       EVF__BezPrzerwanOdMyszy__MMMous
 20C9:0061       EVL__BezPrzerwanOdMyszy__MMMous
 20C9:0063       EVC__BezPrzerwanOdMyszy__MMMous
 20C9:0065       EventBuff__BezPrzerwanOdMyszy__
 20C9:01E5       Stored__BezPrzerwanOdMyszy__MMM
 20C9:01EC       lx__BezWyszeregowania__MMMouse
 20C9:01EE       ly__BezWyszeregowania__MMMouse
 20C9:01F0       rx__BezWyszeregowania__MMMouse
 20C9:01F2       ry__BezWyszeregowania__MMMouse
 20C9:01F4       CursorBuf__BezWyszeregowania__M
 20C9:02F4       Hidden__BezWyszeregowania__MMMo
 20C9:02F5       CursorB__BezWyszeregowania__MMM
 20C9:03F5       MSemafor__MMMouse
 20C9:0401       $ED__MMMouse
 210A:0000       Active__InpLine
 210A:0000       $BD__InpLine
 210A:0004       $ED__InpLine
 210B:0000       $BD__Buttons
 210B:0000       KbdButton__Buttons
 210B:0004       AllEnabled__Buttons
 210B:0005       ButtonList__MONITOR__Buttons
 210B:0009       $ED__Buttons
 210C:0000       CurH__GList
 210C:0000       $BD__GList
 210C:0004       Lista__GList
 210C:0008       $ED__GList
 210D:0000       maxCountW__ARINC
 210D:0000       $BD__ARINC
 210D:0002       maxCountR__ARINC
 210D:0004       $ED__ARINC
 210E:0000       NazwaOblotu__InspMng
 210E:0000       $BD__InspMng
 210E:0029       hDlg__InspMng
 210E:002D       RedrawScr__InspMng
 210E:002E       ListaLokalizacji__InspMng
 210E:0032       ListaOblotowL__InspMng
 210E:0036       ListaOblotowP__InspMng
 210E:003A       OstatniOblotL__InspMng
 210E:003C       OstatniOblotP__InspMng
 210E:003E       KartBazyL__InspMng
 210E:0067       KartBazyP__InspMng
 210E:0090       archLocStrLocBox__InspMng
 210E:0098       statStrBox__InspMng
 210E:00A0       BT_KopiujInspP__InspMng
 210E:00A4       BT_KopiujInspL__InspMng
 210E:00A8       event__Monitor__InspMng
 210E:00A9       waitEvent__Monitor__InspMng
 210E:00AD       $ED__InspMng
 2119:0000       $BD__Timer
 2119:0000       TimeCounter__Timer
 2119:0002       TIOS__Timer
 2119:0004       ClockPer__Timer
 2119:0006       TOQueue__Monitor__Timer
 2119:000A       Period__Monitor__Timer
 2119:000C       PeriodCount__Monitor__Timer
 2119:000E       PeriodicProcedure__Monitor__Tim
 2119:0012       Dumm__Monitor__Timer
 2119:0014       $ED__Timer
 211B:0000       $BD__Storage
 211B:0000       OCCUPED__Storage
 211B:0001       heapList__Storage
 211B:0021       prevHeap__Storage
 211B:0023       StaraStrategia__Storage
 211B:0025       StaryCh__Storage
 211B:0027       $ED__Storage
 211E:0000       $BD__Messages
 211E:0000       MList__Messages
 211E:0004       MDispl__Messages
 211E:0008       MessageSound__Messages
 211E:000A       TurnBeepOn__Messages
 211E:000E       $ED__Messages
 211F:0000       $ED__StdIO
 211F:0000       $BD__StdIO
 2120:0000       BufferFull__DGHInterface
 2120:0000       $BD__DGHInterface
 2120:0004       currentSign__DGHInterface
 2120:0006       binaryDtaSign__DGHInterface
 2120:0008       csErrorCnt__DGHInterface
 2120:000A       nvErrorCndF__DGHInterface
 2120:000C       nvErrorCndS__DGHInterface
 2120:000E       maxClicks__DGHInterface
 2120:0010       activated__DGHInterface
 2120:0014       Ostrzezenie_ze_za_dlugo__DGHInt
 2120:0018       $ED__DGHInterface
 2122:0000       signals__DGHIni
 2122:0000       $BD__DGHIni
 2122:08E8       TableOfNames__DGHIni
 2122:0F70       SignalDescr__DGHIni
 2122:0F8E       $ED__DGHIni
 221B:0000       VORfreqCRT__Tune
 221B:0000       $BD__Tune
 221B:0050       GSfreqCRT__Tune
 221B:00A0       lastCPFlags__Tune
 221B:00A2       lastDMEfrqBits__Tune
 221B:00A6       $ED__Tune
 2226:0000       $BD__CommonTypes
 2226:0000       $ED__CommonTypes
 2227:0000       FontPtr__Graphics
 2227:0000       $BD__Graphics
 2227:0004       bank__InternalMonitor__Graphics
 2227:0006       bankstart__InternalMonitor__Gra
 2227:000A       BKSizeL__InternalMonitor__Graph
 2227:000E       BK64Inc__InternalMonitor__Graph
 2227:0010       FntTable__Graphics
 2227:0130       $ED__Graphics
 223B:0000       $BD__XMS
 223B:0004       $ED__XMS
 223C:0000       GarbageList__XMSService
 223C:0000       $BD__XMSService
 223C:0004       $ED__XMSService
 223D:0000       $BD__FIO
 223D:0000       lastErr__FIO
 223D:0002       numErr__FIO
 223D:0004       opened__FIO
 223D:0006       maxOpened__FIO
 223D:0008       Files__FIO
 223D:0C08       CriticalErrorRec__FIO
 223D:0C12       $ED__FIO
 22FF:0000       TablicaSemaforow__Semafory
 22FF:0000       $BD__Semafory
 22FF:0054       $ED__Semafory
 2305:0000       hDlg__MsgBox
 2305:0000       $BD__MsgBox
 2305:0004       ret__MsgBox
 2305:0006       P_A__MsgBox
 2305:0016       $ED__MsgBox
 2307:0000       ErrorProc__Ini
 2307:0000       $BD__Ini
 2307:0004       ini__Ini
 2307:0010       currfile__Ini
 2307:0012       BuffP__Ini
 2307:0016       Bufor__Ini
 2307:5017       charsInBuffer__Ini
 2307:5019       SavedFileName__Ini
 2307:507D       LastDir__Ini
 2307:50E1       Modified__Ini
 2307:50E2       check__Ini
 2307:50E4       $ED__Ini
 2816:0000       $BD__Obloty
 2816:0000       NazwaPlikuIni__Obloty
 2816:0040       Stat_Size_Monitor__Obloty
 2816:0044       Stat_File_Monitor__Obloty
 2816:0048       HomeDir__Obloty
 2816:0058       HomeDirNazwaPlikuIni__Obloty
 2816:0099       bd_NazwaPliku__Obloty
 2816:00AA       bd_Sekcja__Obloty
 2816:00B5       bd_WpisNazwa__Obloty
 2816:00C0       insp_DirTmp__Obloty
 2816:00CB       stat_Size__Obloty
 2816:00D3       stat_Files__Obloty
 2816:00D5       NUrzadzDlaDopasuj__Obloty
 2816:0116       HomeDirDlaDopasuj__Obloty
 2816:0157       CallBackDlaDopasuj__Obloty
 2816:015B       NazwaPlikuZOpisem__Obloty
 2816:019C       DelDir__Obloty
 2816:01DD       SrcDir__Obloty
 2816:021E       DstDir__Obloty
 2816:025F       $ED__Obloty
 283C:0000       $ED__RealConversions
 283C:0000       $BD__RealConversions
 283D:0000       $BD__DigiRS
 283D:0000       minWrBufLength__DigiRS
 283D:0002       $ED__DigiRS
 283E:0000       $BD__SpecConv
 283E:0000       $ED__SpecConv
 2843:0000       DriverInstalled__Mouse

Program entry point at 1C39:03C9
