
 Start  Stop   Length Name                   Class
 00010H 003B9H 003AAH PN_TEXT                CODE
 003C0H 021CCH 01E0DH MANAGER_TEXT           CODE
 021D0H 021FDH 0002EH PI_PA_TEXT             CODE
 02200H 0237AH 0017BH DOSENTRY_TEXT          CODE
 02380H 024C5H 00146H ERRORMESS_TEXT         CODE
 024D0H 0283EH 0036FH PRINTSCREEN_TEXT       CODE
 02840H 03489H 00C4AH TUNE_TEXT              CODE
 03490H 03DF2H 00963H PI_QCHECK_TEXT         CODE
 03E00H 057D3H 019D4H SCANNERI_TEXT          CODE
 057E0H 058FFH 00120H COMMONTYPES_TEXT       CODE
 05910H 069A5H 01096H THEODOLITREAD_TEXT     CODE
 069B0H 07063H 006B4H GPSREAD_TEXT           CODE
 07070H 07DE3H 00D74H DGHINI_TEXT            CODE
 07DF0H 08D0FH 00F20H N_FILES_TEXT           CODE
 08D20H 08D43H 00024H N_COMMONTYPES_TEXT     CODE
 08D50H 08E2FH 000E0H PI_GLOWNY_TEXT         CODE
 08E40H 0A132H 012F3H N_INSPEKCJA_TEXT       CODE
 0A140H 0C241H 02102H N_OBLOT_TEXT           CODE
 0C250H 0C31CH 000CDH COMMONDATA_TEXT        CODE
 0C320H 0EEEBH 02BCCH FILES_TEXT             CODE
 0EEF0H 0FA7CH 00B8DH N_CP_CONTROLPROC_TEXT  CODE
 0FA80H 1102FH 015B0H POMIAR_TEXT            CODE
 11040H 147E6H 037A7H SCREEN_TEXT            CODE
 147F0H 14F35H 00746H PI_ANALIZA_TEXT        CODE
 14F40H 1520FH 002D0H PI_POMIAR_TEXT         CODE
 15220H 152FCH 000DDH PI_ARCHDATE_TEXT       CODE
 15300H 15344H 00045H PI_DRUKUJ_TEXT         CODE
 15350H 15A5AH 0070BH N_DATABASE_TEXT        CODE
 15A60H 17458H 019F9H SPECCONV_TEXT          CODE
 17460H 17A18H 005B9H STORAGE_TEXT           CODE
 17A20H 18016H 005F7H SOFTINTHANDLINGMANAGER_TEXT CODE
 18020H 18CDDH 00CBEH TIMER_TEXT             CODE
 18CE0H 19188H 004A9H MESSAGES_TEXT          CODE
 19190H 1A669H 014DAH STDIO_TEXT             CODE
 1A670H 1AE0BH 0079CH SHORTCUTS_TEXT         CODE
 1AE10H 1B855H 00A46H FIO_TEXT               CODE
 1B860H 1C981H 01122H GRAPHICS_TEXT          CODE
 1C990H 1CAB9H 0012AH XMS_TEXT               CODE
 1CAC0H 1CAFEH 0003FH XMS_INIT_TEXT          CODE
 1CB00H 1CFBEH 004BFH XMSSERVICE_TEXT        CODE
 1CFC0H 1E039H 0107AH DGHINTERFACE_TEXT      CODE
 1E040H 1F723H 016E4H HILEVGRAF_TEXT         CODE
 1F730H 1F916H 001E7H GRAFTYPES_TEXT         CODE
 1F920H 1FB40H 00221H GRAFUTIL_TEXT          CODE
 1FB50H 20814H 00CC5H N_ODB_TEXT             CODE
 20820H 20B2FH 00310H ALTINTERFACE_TEXT      CODE
 20B40H 20C2EH 000EFH INT_DME_TEXT           CODE
 20C30H 213B6H 00787H FILTR1ST_TEXT          CODE
 213C0H 22195H 00DD6H GEOARITHMETIC_TEXT     CODE
 221A0H 22A44H 008A5H DGH_UTILS_TEXT         CODE
 22A50H 22DB9H 0036AH CZAS_TEXT              CODE
 22DC0H 25BD5H 02E16H KALIBRACJA_TEXT        CODE
 25BE0H 25EFCH 0031DH DIGIRS_TEXT            CODE
 25F00H 26A1FH 00B20H REALCONVERSIONS_TEXT   CODE
 26A30H 26C18H 001E9H MATH_TEXT              CODE
 26C20H 27E1DH 011FEH GPS_NOV_TEXT           CODE
 27E20H 28718H 008F9H GPS_TRIMBLE_TEXT       CODE
 28720H 298F8H 011D9H INI_TEXT               CODE
 29900H 29FDBH 006DCH MSGBOX_TEXT            CODE
 29FE0H 2BC55H 01C76H OBLOTY_TEXT            CODE
 2BC60H 2D162H 01503H MMMOUSE_TEXT           CODE
 2D170H 2EAECH 0197DH GLIST_TEXT             CODE
 2EAF0H 2F8C7H 00DD8H BUTTONS_TEXT           CODE
 2F8D0H 3122BH 0195CH DIALOG_TEXT            CODE
 31230H 31F46H 00D17H INPLINE_TEXT           CODE
 31F50H 31FC1H 00072H FCBS_TEXT              CODE
 31FD0H 32D5CH 00D8DH COCPDSP_TEXT           CODE
 32D60H 34FCEH 0226FH DATACOLLECT_TEXT       CODE
 34FD0H 35B20H 00B51H MAPA_TEXT              CODE
 35B30H 38292H 02763H WYKRES_TEXT            CODE
 382A0H 385FAH 0035BH XMSTABLE_TEXT          CODE
 38600H 3904AH 00A4BH EVENTSMNG_TEXT         CODE
 39050H 397B6H 00767H PI_SCRUTILITY_TEXT     CODE
 397C0H 39EA6H 006E7H SLUPEK_TEXT            CODE
 39EB0H 3A04EH 0019FH SCREENCTYPES_TEXT      CODE
 3A050H 3A5BDH 0056EH N_DISRESULTS_TEXT      CODE
 3A5C0H 3AC9AH 006DBH FLAGANAL_TEXT          CODE
 3ACA0H 3B029H 0038AH DISRESUTILITIES_TEXT   CODE
 3B030H 3C263H 01234H PISZEVENTY_TEXT        CODE
 3C270H 3C696H 00427H N_RESULTS_TEXT         CODE
 3C6A0H 3CD3DH 0069EH N_DACQUIZITION_TEXT    CODE
 3CD40H 3D5CBH 0088CH N_COUNT_TEXT           CODE
 3D5D0H 3E550H 00F81H N_PRINT_TEXT           CODE
 3E560H 3E9B3H 00454H SEMAFORY_TEXT          CODE
 3E9C0H 3ECA0H 002E1H ADFANGLE_TEXT          CODE
 3ECB0H 3F001H 00352H NAVINTERFACE_TEXT      CODE
 3F010H 3F97FH 00970H ARINC_TEXT             CODE
 3F990H 3FBFDH 0026EH HRD_CLOCK_TEXT         CODE
 3FC00H 400FFH 00500H KL_FGENERATORS_TEXT    CODE
 40110H 40A47H 00938H MARKS_TEXT             CODE
 40A50H 41C75H 01226H POLOZENIE_TEXT         CODE
 41C80H 421F4H 00575H N_SLUPEK_TEXT          CODE
 42200H 422D0H 000D1H WORSEBECAUSE_TEXT      CODE
 422E0H 43742H 01463H DRAWEPSON_TEXT         CODE
 43750H 451D0H 01A81H PRINT_TEXT             CODE
 451E0H 45CAEH 00ACFH VORR_AVERAGE_TEXT      CODE
 45CB0H 46590H 008E1H PRINTCNTROLL_TEXT      CODE
 465A0H 465FDH 0005EH RTS87_TEXT             CODE
 46600H 46659H 0005AH RTS87_INIT_TEXT        CODE
 46660H 46726H 000C7H RTSError_TEXT          CODE
 46730H 4675EH 0002FH RTSError_INIT_TEXT     CODE
 46760H 46ED0H 00771H RTSMain_TEXT           CODE
 46EE0H 46F92H 000B3H RTSLanguage_TEXT       CODE
 46FA0H 46FA0H 00001H RTSLanguage_INIT_TEXT  CODE
 46FB0H 470F0H 00141H RTSDevice_TEXT         CODE
 47100H 47100H 00001H RTSDevice_INIT_TEXT    CODE
 47110H 471BEH 000AFH RTSPriority_TEXT       CODE
 471C0H 471C0H 00001H RTSPriority_INIT_TEXT  CODE
 471D0H 47377H 001A8H RTSCoroutine_TEXT      CODE
 47380H 47380H 00001H RTSCoroutine_INIT_TEXT CODE
 47390H 475D8H 00249H RTSInterrupt_TEXT      CODE
 475E0H 4762CH 0004DH RTSInterrupt_INIT_TEXT CODE
 47630H 47639H 0000AH RTSRealError_TEXT      CODE
 47640H 47640H 00001H RTSRealError_INIT_TEXT CODE
 47650H 47953H 00304H Strings_TEXT           CODE
 47960H 47F9BH 0063CH NUMBERCONVERSION_TEXT  CODE
 47FA0H 48001H 00062H SOUNDS_TEXT            CODE
 48010H 4849CH 0048DH DebugPMD_TEXT          CODE
 484A0H 48538H 00099H DebugPMD_INIT_TEXT     CODE
 48540H 485FAH 000BBH DEVICES_TEXT           CODE
 48600H 48803H 00204H DynMem_TEXT            CODE
 48810H 48917H 00108H BlockOps_TEXT          CODE
 48920H 48BD1H 002B2H MOUSE_TEXT             CODE
 48BE0H 48EBEH 002DFH Longs_TEXT             CODE
 48EC0H 49086H 001C7H TERMINAL_TEXT          CODE
 49090H 49475H 003E6H TERMBASE_TEXT          CODE
 49480H 49588H 00109H BitByteOps_TEXT        CODE
 49590H 495B4H 00025H ASCII_TEXT             CODE
 495C0H 4965CH 0009DH DISPLAY_TEXT           CODE
 49660H 497C7H 00168H KEYBOARD_TEXT          CODE
 497D0H 49A88H 002B9H DOSMEMORY_TEXT         CODE
 49A90H 4A153H 006C4H MathLib0_TEXT          CODE
 4A160H 4A4B7H 00358H MODULE_TABLE_DATA      FAR_DATA
 4A4C0H 4A59CH 000DDH INIT_FLAG_DATA         FAR_DATA
 4A5A0H 4A77DH 001DEH RTSMain_DATA           FAR_DATA
 4A780H 4A785H 00006H RTS87_DATA             FAR_DATA
 4A790H 4A793H 00004H RTSCoroutine_DATA      FAR_DATA
 4A7A0H 4AE41H 006A2H DebugPMD_DATA          FAR_DATA
 4AE50H 4AE50H 00000H MathLib0_DATA          FAR_DATA
 4AE60H 4AE6BH 0000CH PN_DATA                FAR_BSS
 4AE70H 4B08DH 0021EH MANAGER_DATA           FAR_BSS
 4B090H 4B090H 00001H PI_PA_DATA             FAR_BSS
 4B0A0H 4B127H 00088H DOSENTRY_DATA          FAR_BSS
 4B130H 4B130H 00000H ERRORMESS_DATA         FAR_BSS
 4B140H 4B140H 00000H PRINTSCREEN_DATA       FAR_BSS
 4B150H 4B1F5H 000A6H TUNE_DATA              FAR_BSS
 4B200H 4B22FH 00030H PI_QCHECK_DATA         FAR_BSS
 4B240H 4B2EEH 000AFH SCANNERI_DATA          FAR_BSS
 4B2F0H 4B2F0H 00000H COMMONTYPES_DATA       FAR_BSS
 4B300H 4B356H 00057H THEODOLITREAD_DATA     FAR_BSS
 4B360H 4B381H 00022H GPSREAD_DATA           FAR_BSS
 4B390H 4C31DH 00F8EH DGHINI_DATA            FAR_BSS
 4C320H 4C3E4H 000C5H N_FILES_DATA           FAR_BSS
 4C3F0H 4C3F0H 00001H N_COMMONTYPES_DATA     FAR_BSS
 4C400H 4C400H 00000H PI_GLOWNY_DATA         FAR_BSS
 4C410H 4C426H 00017H N_INSPEKCJA_DATA       FAR_BSS
 4C430H 4C469H 0003AH N_OBLOT_DATA           FAR_BSS
 4C470H 4C5C5H 00156H COMMONDATA_DATA        FAR_BSS
 4C5D0H 4C7E8H 00219H FILES_DATA             FAR_BSS
 4C7F0H 4C985H 00196H N_CP_CONTROLPROC_DATA  FAR_BSS
 4C990H 4CA24H 00095H POMIAR_DATA            FAR_BSS
 4CA30H 4CB5CH 0012DH SCREEN_DATA            FAR_BSS
 4CB60H 4CB80H 00021H PI_ANALIZA_DATA        FAR_BSS
 4CB90H 4CB90H 00000H PI_POMIAR_DATA         FAR_BSS
 4CBA0H 4CBA0H 00000H PI_ARCHDATE_DATA       FAR_BSS
 4CBB0H 4CBB0H 00000H PI_DRUKUJ_DATA         FAR_BSS
 4CBC0H 4CC05H 00046H N_DATABASE_DATA        FAR_BSS
 4CC10H 4CC10H 00000H SPECCONV_DATA          FAR_BSS
 4CC20H 4CC46H 00027H STORAGE_DATA           FAR_BSS
 4CC50H 4CC54H 00005H SOFTINTHANDLINGMANAGER_DATA FAR_BSS
 4CC60H 4CC73H 00014H TIMER_DATA             FAR_BSS
 4CC80H 4CC8DH 0000EH MESSAGES_DATA          FAR_BSS
 4CC90H 4CC90H 00000H STDIO_DATA             FAR_BSS
 4CCA0H 4CCADH 0000EH SHORTCUTS_DATA         FAR_BSS
 4CCB0H 4D8C1H 00C12H FIO_DATA               FAR_BSS
 4D8D0H 4D9FFH 00130H GRAPHICS_DATA          FAR_BSS
 4DA10H 4DA13H 00004H XMS_DATA               FAR_BSS
 4DA20H 4DA23H 00004H XMSSERVICE_DATA        FAR_BSS
 4DA30H 4DA47H 00018H DGHINTERFACE_DATA      FAR_BSS
 4DA50H 4DAACH 0005DH HILEVGRAF_DATA         FAR_BSS
 4DAB0H 4DAB0H 00000H GRAFTYPES_DATA         FAR_BSS
 4DAC0H 4DB2FH 00070H GRAFUTIL_DATA          FAR_BSS
 4DB40H 4DB8BH 0004CH N_ODB_DATA             FAR_BSS
 4DB90H 4DBD7H 00048H ALTINTERFACE_DATA      FAR_BSS
 4DBE0H 4DBE0H 00000H INT_DME_DATA           FAR_BSS
 4DBF0H 4DBF7H 00008H FILTR1ST_DATA          FAR_BSS
 4DC00H 4DC21H 00022H GEOARITHMETIC_DATA     FAR_BSS
 4DC30H 4DC65H 00036H DGH_UTILS_DATA         FAR_BSS
 4DC70H 4DC83H 00014H CZAS_DATA              FAR_BSS
 4DC90H 4F090H 01401H KALIBRACJA_DATA        FAR_BSS
 4F0A0H 4F0A1H 00002H DIGIRS_DATA            FAR_BSS
 4F0B0H 4F0B0H 00000H REALCONVERSIONS_DATA   FAR_BSS
 4F0C0H 4F0C0H 00000H MATH_DATA              FAR_BSS
 4F0D0H 4F153H 00084H GPS_NOV_DATA           FAR_BSS
 4F160H 4F1D1H 00072H GPS_TRIMBLE_DATA       FAR_BSS
 4F1E0H 542C3H 050E4H INI_DATA               FAR_BSS
 542D0H 542E5H 00016H MSGBOX_DATA            FAR_BSS
 542F0H 5454EH 0025FH OBLOTY_DATA            FAR_BSS
 54550H 54950H 00401H MMMOUSE_DATA           FAR_BSS
 54960H 54967H 00008H GLIST_DATA             FAR_BSS
 54970H 54978H 00009H BUTTONS_DATA           FAR_BSS
 54980H 54987H 00008H DIALOG_DATA            FAR_BSS
 54990H 54993H 00004H INPLINE_DATA           FAR_BSS
 549A0H 549DCH 0003DH FCBS_DATA              FAR_BSS
 549E0H 54A07H 00028H COCPDSP_DATA           FAR_BSS
 54A10H 62BBDH 0E1AEH DATACOLLECT_DATA       FAR_BSS
 62BC0H 62C23H 00064H MAPA_DATA              FAR_BSS
 62C30H 62C30H 00000H WYKRES_DATA            FAR_BSS
 62C40H 62C40H 00000H XMSTABLE_DATA          FAR_BSS
 62C50H 6379FH 00B50H EVENTSMNG_DATA         FAR_BSS
 637B0H 637BCH 0000DH PI_SCRUTILITY_DATA     FAR_BSS
 637C0H 637C0H 00000H SLUPEK_DATA            FAR_BSS
 637D0H 63823H 00054H SCREENCTYPES_DATA      FAR_BSS
 63830H 63830H 00000H N_DISRESULTS_DATA      FAR_BSS
 63840H 63840H 00000H FLAGANAL_DATA          FAR_BSS
 63850H 63850H 00000H DISRESUTILITIES_DATA   FAR_BSS
 63860H 63865H 00006H PISZEVENTY_DATA        FAR_BSS
 63870H 67392H 03B23H N_RESULTS_DATA         FAR_BSS
 673A0H 673B6H 00017H N_DACQUIZITION_DATA    FAR_BSS
 673C0H 673C0H 00000H N_COUNT_DATA           FAR_BSS
 673D0H 67444H 00075H N_PRINT_DATA           FAR_BSS
 67450H 674A3H 00054H SEMAFORY_DATA          FAR_BSS
 674B0H 674B0H 00000H ADFANGLE_DATA          FAR_BSS
 674C0H 674C6H 00007H NAVINTERFACE_DATA      FAR_BSS
 674D0H 674D3H 00004H ARINC_DATA             FAR_BSS
 674E0H 674E0H 00000H HRD_CLOCK_DATA         FAR_BSS
 674F0H 674F0H 00000H KL_FGENERATORS_DATA    FAR_BSS
 67500H 67500H 00000H MARKS_DATA             FAR_BSS
 67510H 67744H 00235H POLOZENIE_DATA         FAR_BSS
 67750H 6776FH 00020H N_SLUPEK_DATA          FAR_BSS
 67780H 67780H 00000H WORSEBECAUSE_DATA      FAR_BSS
 67790H 67F38H 007A9H DRAWEPSON_DATA         FAR_BSS
 67F40H 68051H 00112H PRINT_DATA             FAR_BSS
 68060H 68060H 00000H VORR_AVERAGE_DATA      FAR_BSS
 68070H 68084H 00015H PRINTCNTROLL_DATA      FAR_BSS
 68090H 68090H 00000H NUMBERCONVERSION_DATA  FAR_BSS
 680A0H 680A0H 00000H SOUNDS_DATA            FAR_BSS
 680B0H 680B0H 00000H DEVICES_DATA           FAR_BSS
 680C0H 680CEH 0000FH MOUSE_DATA             FAR_BSS
 680D0H 680D1H 00002H TERMINAL_DATA          FAR_BSS
 680E0H 68172H 00093H TERMBASE_DATA          FAR_BSS
 68180H 68180H 00000H ASCII_DATA             FAR_BSS
 68190H 68190H 00000H DISPLAY_DATA           FAR_BSS
 681A0H 68227H 00088H KEYBOARD_DATA          FAR_BSS
 68230H 68230H 00000H DOSMEMORY_DATA         FAR_BSS
 68240H 6BCD7H 03A98H STACK                  STACK
 6BCE0H 6BCE0H 00000H FREE                   FREE_BSS

 Origin   Group
 4AE6:0   DGROUP

  Address         Publics by Name

 674B:0000       $BD__ADFAngle
 674D:0000       $BD__ARINC
 4DB9:0000       $BD__AltInterface
 5497:0000       $BD__Buttons
 549E:0000       $BD__CocpDsp
 4C47:0000       $BD__CommonData
 4B2F:0000       $BD__CommonTypes
 4DC7:0000       $BD__Czas
 4B39:0000       $BD__DGHIni
 4DA3:0000       $BD__DGHInterface
 4DC3:0000       $BD__DGH_utils
 4B0A:0000       $BD__DOSEntry
 54A1:0000       $BD__DataCollect
 5498:0000       $BD__Dialog
 4F0A:0000       $BD__DigiRS
 6385:0000       $BD__DisResUtilities
 6779:0000       $BD__DrawEpson
 4B13:0000       $BD__ErrorMess
 62C5:0000       $BD__EventsMng
 549A:0000       $BD__FCBS
 4CCB:0000       $BD__FIO
 4DBF:0000       $BD__FIltr1St
 4C5D:0000       $BD__Files
 6384:0000       $BD__FlagAnal
 5496:0000       $BD__GList
 4B36:0000       $BD__GPSRead
 4F16:0000       $BD__GPS_TRIMBLE
 4F0D:0000       $BD__GPS_nov
 4DC0:0000       $BD__GeoArithmetic
 4DAB:0000       $BD__GrafTypes
 4DAC:0000       $BD__GrafUtil
 4D8D:0000       $BD__Graphics
 674E:0000       $BD__HRD_Clock
 4DA5:0000       $BD__HiLevGraf
 4F1E:0000       $BD__Ini
 5499:0000       $BD__InpLine
 4DBE:0000       $BD__Int_DME
 4DC9:0000       $BD__Kalibracja
 674F:0000       $BD__Kl_FGenerators
 4AE7:0000       $BD__MANAGER
 5455:0000       $BD__MMMouse
 62BC:0000       $BD__Mapa
 6750:0000       $BD__Marks
 4F0C:0000       $BD__Math
 4CC8:0000       $BD__Messages
 542D:0000       $BD__MsgBox
 674C:0000       $BD__NAVInterface
 4C7F:0000       $BD__N_CP_ControlProc
 4C3F:0000       $BD__N_CommonTypes
 673C:0000       $BD__N_Count
 673A:0000       $BD__N_DAcquizition
 4CBC:0000       $BD__N_DataBase
 6383:0000       $BD__N_DisResults
 4C32:0000       $BD__N_Files
 4C41:0000       $BD__N_Inspekcja
 4C43:0000       $BD__N_Oblot
 4DB4:0000       $BD__N_Odb
 673D:0000       $BD__N_Print
 6775:0000       $BD__N_Slupek
 6387:0000       $BD__N_results
 542F:0000       $BD__Obloty
 4CB6:0000       $BD__PI_Analiza
 4CBA:0000       $BD__PI_ArchDate
 4CBB:0000       $BD__PI_Drukuj
 4C40:0000       $BD__PI_Glowny
 4B09:0000       $BD__PI_PA
 4CB9:0000       $BD__PI_Pomiar
 4B20:0000       $BD__PI_Qcheck
 637B:0000       $BD__PI_ScrUtility
 4AE6:0000       $BD__PN
 6386:0000       $BD__PiszEventy
 6751:0000       $BD__Polozenie
 4C99:0000       $BD__Pomiar
 67F4:0000       $BD__Print
 6807:0000       $BD__PrintCntroll
 4B14:0000       $BD__PrintScreen
 4A79:0000       $BD__RTSCoroutine
 4A5A:0000       $BD__RTSMain
 4F0B:0000       $BD__RealConversions
 4B24:0000       $BD__ScannerI
 4CA3:0000       $BD__Screen
 637D:0000       $BD__ScreenCTypes
 6745:0000       $BD__Semafory
 4CCA:0000       $BD__ShortCuts
 637C:0000       $BD__Slupek
 4CC5:0000       $BD__SoftIntHandlingManager
 4CC1:0000       $BD__SpecConv
 4CC9:0000       $BD__StdIO
 4CC2:0000       $BD__Storage
 4B30:0000       $BD__TheodolitRead
 4CC6:0000       $BD__Timer
 4B15:0000       $BD__Tune
 6806:0000       $BD__VORR_Average
 6778:0000       $BD__WorseBecause
 62C3:0000       $BD__Wykres
 4DA1:0000       $BD__XMS
 4DA2:0000       $BD__XMSService
 62C4:0000       $BD__XMSTable
 3E9C:0000       $BM__ADFAngle
 3F01:0000       $BM__ARINC
 2082:0000       $BM__AltInterface
 4948:0000       $BM__BitByteOps
 4881:0000       $BM__BlockOps
 2EAF:0000       $BM__Buttons
 31FD:0000       $BM__CocpDsp
 0C25:0000       $BM__CommonData
 057E:0000       $BM__CommonTypes
 22A5:0000       $BM__Czas
 0707:0000       $BM__DGHIni
 1CFC:0000       $BM__DGHInterface
 221A:0000       $BM__DGH_utils
 0220:0000       $BM__DOSEntry
 32D6:0000       $BM__DataCollect
 2F8D:0000       $BM__Dialog
 25BE:0000       $BM__DigiRS
 3ACA:0000       $BM__DisResUtilities
 422E:0000       $BM__DrawEpson
 4860:0000       $BM__DynMem
 0238:0000       $BM__ErrorMess
 3860:0000       $BM__EventsMng
 31F5:0000       $BM__FCBS
 1AE1:0000       $BM__FIO
 20C3:0000       $BM__FIltr1St
 0C32:0000       $BM__Files
 3A5C:0000       $BM__FlagAnal
 2D17:0000       $BM__GList
 069B:0000       $BM__GPSRead
 27E2:0000       $BM__GPS_TRIMBLE
 26C2:0000       $BM__GPS_nov
 213C:0000       $BM__GeoArithmetic
 1F73:0000       $BM__GrafTypes
 1F92:0000       $BM__GrafUtil
 1B86:0000       $BM__Graphics
 3F99:0000       $BM__HRD_Clock
 1E04:0000       $BM__HiLevGraf
 2872:0000       $BM__Ini
 3123:0000       $BM__InpLine
 20B4:0000       $BM__Int_DME
 22DC:0000       $BM__Kalibracja
 3FC0:0000       $BM__Kl_FGenerators
 003C:0000       $BM__MANAGER
 2BC6:0000       $BM__MMMouse
 34FD:0000       $BM__Mapa
 4011:0000       $BM__Marks
 26A3:0000       $BM__Math
 49A9:0000       $BM__MathLib0
 18CE:0000       $BM__Messages
 2990:0000       $BM__MsgBox
 3ECB:0000       $BM__NAVInterface
 0EEF:0000       $BM__N_CP_ControlProc
 08D2:0000       $BM__N_CommonTypes
 3CD4:0000       $BM__N_Count
 3C6A:0000       $BM__N_DAcquizition
 1535:0000       $BM__N_DataBase
 3A05:0000       $BM__N_DisResults
 07DF:0000       $BM__N_Files
 08E4:0000       $BM__N_Inspekcja
 0A14:0000       $BM__N_Oblot
 1FB5:0000       $BM__N_Odb
 3D5D:0000       $BM__N_Print
 41C8:0000       $BM__N_Slupek
 3C27:0000       $BM__N_results
 29FE:0000       $BM__Obloty
 147F:0000       $BM__PI_Analiza
 1522:0000       $BM__PI_ArchDate
 1530:0000       $BM__PI_Drukuj
 08D5:0000       $BM__PI_Glowny
 021D:0000       $BM__PI_PA
 14F4:0000       $BM__PI_Pomiar
 0349:0000       $BM__PI_Qcheck
 3905:0000       $BM__PI_ScrUtility
 0001:0000       $BM__PN
 3B03:0000       $BM__PiszEventy
 40A5:0000       $BM__Polozenie
 0FA8:0000       $BM__Pomiar
 4375:0000       $BM__Print
 45CB:0000       $BM__PrintCntroll
 024D:0000       $BM__PrintScreen
 471D:0000       $BM__RTSCoroutine
 46FB:0000       $BM__RTSDevice
 4676:0000       $BM__RTSMain
 25F0:0000       $BM__RealConversions
 03E0:0000       $BM__ScannerI
 1104:0000       $BM__Screen
 39EB:0000       $BM__ScreenCTypes
 3E56:0000       $BM__Semafory
 1A67:0000       $BM__ShortCuts
 397C:0000       $BM__Slupek
 17A2:0000       $BM__SoftIntHandlingManager
 15A6:0000       $BM__SpecConv
 1919:0000       $BM__StdIO
 1746:0000       $BM__Storage
 0591:0000       $BM__TheodolitRead
 1802:0000       $BM__Timer
 0284:0000       $BM__Tune
 451E:0000       $BM__VORR_Average
 4220:0000       $BM__WorseBecause
 35B3:0000       $BM__Wykres
 1C99:0000       $BM__XMS
 1CB0:0000       $BM__XMSService
 382A:0000       $BM__XMSTable
 3E9C:02AB       $BODY__ADFAngle
 3F01:093D       $BODY__ARINC
 2082:0214       $BODY__AltInterface
 2BC6:0B15       $BODY__BezPrzerwanOdMyszy__MMMo
 2EAF:0D61       $BODY__Buttons
 31FD:0C4D       $BODY__CocpDsp
 0C25:0012       $BODY__CommonData
 057E:00F4       $BODY__CommonTypes
 22A5:02E0       $BODY__Czas
 0707:0D08       $BODY__DGHIni
 1CFC:0F7B       $BODY__DGHInterface
 221A:0734       $BODY__DGH_utils
 0220:00C2       $BODY__DOSEntry
 32D6:21DF       $BODY__DataCollect
 2F8D:18C2       $BODY__Dialog
 25BE:02D4       $BODY__DigiRS
 3ACA:0340       $BODY__DisResUtilities
 422E:138C       $BODY__DrawEpson
 22DC:09DC       $BODY__ErrorHand__Kalibracja
 0238:00E1       $BODY__ErrorMess
 3860:09B8       $BODY__EventsMng
 31F5:0037       $BODY__FCBS
 1AE1:09F0       $BODY__FIO
 20C3:0737       $BODY__FIltr1St
 0C32:2B3D       $BODY__Files
 3A5C:06A0       $BODY__FlagAnal
 2D17:18FD       $BODY__GList
 069B:05FA       $BODY__GPSRead
 27E2:084A       $BODY__GPS_TRIMBLE
 26C2:10EC       $BODY__GPS_nov
 213C:0D90       $BODY__GeoArithmetic
 1F73:01C5       $BODY__GrafTypes
 1F92:017A       $BODY__GrafUtil
 1B86:10C2       $BODY__Graphics
 3F99:0242       $BODY__HRD_Clock
 1E04:1630       $BODY__HiLevGraf
 2872:1139       $BODY__Ini
 3123:0C9E       $BODY__InpLine
 20B4:00C8       $BODY__Int_DME
 22DC:2C81       $BODY__Kalibracja
 3FC0:04D9       $BODY__Kl_FGenerators
 003C:1B1A       $BODY__MANAGER
 2BC6:134F       $BODY__MMMouse
 2EAF:041B       $BODY__MONITOR__Buttons
 34FD:0A4F       $BODY__Mapa
 4011:08FD       $BODY__Marks
 26A3:01BD       $BODY__Math
 18CE:0411       $BODY__Messages
 3C6A:011B       $BODY__Monitor__N_DAcquizition
 17A2:0590       $BODY__Monitor__SoftIntHandling
 1802:08D4       $BODY__Monitor__Timer
 147F:04A9       $BODY__MouseMonitor__PI_Analiza
 2990:0680       $BODY__MsgBox
 3ECB:02F2       $BODY__NAVInterface
 0EEF:0ADB       $BODY__N_CP_ControlProc
 08D2:0002       $BODY__N_CommonTypes
 3CD4:0824       $BODY__N_Count
 3C6A:05EA       $BODY__N_DAcquizition
 1535:0674       $BODY__N_DataBase
 3A05:051A       $BODY__N_DisResults
 07DF:0EB0       $BODY__N_Files
 08E4:1222       $BODY__N_Inspekcja
 0A14:200D       $BODY__N_Oblot
 1FB5:0C1F       $BODY__N_Odb
 3D5D:0EE7       $BODY__N_Print
 41C8:0523       $BODY__N_Slupek
 3C27:037C       $BODY__N_results
 29FE:1B9E       $BODY__Obloty
 147F:06CC       $BODY__PI_Analiza
 1522:0089       $BODY__PI_ArchDate
 1530:000F       $BODY__PI_Drukuj
 08D5:009B       $BODY__PI_Glowny
 021D:0002       $BODY__PI_PA
 14F4:025E       $BODY__PI_Pomiar
 0349:0902       $BODY__PI_Qcheck
 3905:071D       $BODY__PI_ScrUtility
 0001:0002       $BODY__PN
 3B03:1199       $BODY__PiszEventy
 40A5:1164       $BODY__Polozenie
 0FA8:14E0       $BODY__Pomiar
 4375:19A5       $BODY__Print
 45CB:085B       $BODY__PrintCntroll
 024D:031D       $BODY__PrintScreen
 4676:0743       $BODY__RTSMain
 25F0:0AF9       $BODY__RealConversions
 03E0:1886       $BODY__ScannerI
 003C:1357       $BODY__Scheduler__MANAGER
 1104:36D9       $BODY__Screen
 39EB:016B       $BODY__ScreenCTypes
 3E56:041D       $BODY__Semafory
 1A67:070A       $BODY__ShortCuts
 397C:06A7       $BODY__Slupek
 17A2:05BE       $BODY__SoftIntHandlingManager
 15A6:19B9       $BODY__SpecConv
 1919:149F       $BODY__StdIO
 1746:0544       $BODY__Storage
 0591:0EE0       $BODY__TheodolitRead
 1802:0C72       $BODY__Timer
 0284:0A08       $BODY__Tune
 451E:0A94       $BODY__VORR_Average
 4220:00A5       $BODY__WorseBecause
 35B3:270A       $BODY__Wykres
 1CB0:0450       $BODY__XMSService
 382A:0325       $BODY__XMSTable
 34FD:09BA       $BODY__monitor__Mapa
 1A67:0532       $BODY__monitor__ShortCuts
 4A16:0000       $DD
 674B:0000       $ED__ADFAngle
 674D:0004       $ED__ARINC
 4DB9:0048       $ED__AltInterface
 5497:0009       $ED__Buttons
 549E:0028       $ED__CocpDsp
 4C47:0156       $ED__CommonData
 4B2F:0000       $ED__CommonTypes
 4DC7:0014       $ED__Czas
 4B39:0F8E       $ED__DGHIni
 4DA3:0018       $ED__DGHInterface
 4DC3:0036       $ED__DGH_utils
 4B0A:0088       $ED__DOSEntry
 54A1:E1AE       $ED__DataCollect
 5498:0008       $ED__Dialog
 4F0A:0002       $ED__DigiRS
 6385:0000       $ED__DisResUtilities
 6779:07A9       $ED__DrawEpson
 4B13:0000       $ED__ErrorMess
 62C5:0B50       $ED__EventsMng
 549A:003D       $ED__FCBS
 4CCB:0C12       $ED__FIO
 4DBF:0008       $ED__FIltr1St
 4C5D:0219       $ED__Files
 6384:0000       $ED__FlagAnal
 5496:0008       $ED__GList
 4B36:0022       $ED__GPSRead
 4F16:0072       $ED__GPS_TRIMBLE
 4F0D:0084       $ED__GPS_nov
 4DC0:0022       $ED__GeoArithmetic
 4DAB:0000       $ED__GrafTypes
 4DAC:0070       $ED__GrafUtil
 4D8D:0130       $ED__Graphics
 674E:0000       $ED__HRD_Clock
 4DA5:005D       $ED__HiLevGraf
 4F1E:50E4       $ED__Ini
 5499:0004       $ED__InpLine
 4DBE:0000       $ED__Int_DME
 4DC9:1401       $ED__Kalibracja
 674F:0000       $ED__Kl_FGenerators
 4AE7:021E       $ED__MANAGER
 5455:0401       $ED__MMMouse
 62BC:0064       $ED__Mapa
 6750:0000       $ED__Marks
 4F0C:0000       $ED__Math
 4CC8:000E       $ED__Messages
 542D:0016       $ED__MsgBox
 674C:0007       $ED__NAVInterface
 4C7F:0196       $ED__N_CP_ControlProc
 4C3F:0001       $ED__N_CommonTypes
 673C:0000       $ED__N_Count
 673A:0017       $ED__N_DAcquizition
 4CBC:0046       $ED__N_DataBase
 6383:0000       $ED__N_DisResults
 4C32:00C5       $ED__N_Files
 4C41:0017       $ED__N_Inspekcja
 4C43:003A       $ED__N_Oblot
 4DB4:004C       $ED__N_Odb
 673D:0075       $ED__N_Print
 6775:0020       $ED__N_Slupek
 6387:3B23       $ED__N_results
 542F:025F       $ED__Obloty
 4CB6:0021       $ED__PI_Analiza
 4CBA:0000       $ED__PI_ArchDate
 4CBB:0000       $ED__PI_Drukuj
 4C40:0000       $ED__PI_Glowny
 4B09:0001       $ED__PI_PA
 4CB9:0000       $ED__PI_Pomiar
 4B20:0030       $ED__PI_Qcheck
 637B:000D       $ED__PI_ScrUtility
 4AE6:000C       $ED__PN
 6386:0006       $ED__PiszEventy
 6751:0235       $ED__Polozenie
 4C99:0095       $ED__Pomiar
 67F4:0112       $ED__Print
 6807:0015       $ED__PrintCntroll
 4B14:0000       $ED__PrintScreen
 4A79:0003       $ED__RTSCoroutine
 4A5A:01DD       $ED__RTSMain
 4F0B:0000       $ED__RealConversions
 4B24:00AF       $ED__ScannerI
 4CA3:012D       $ED__Screen
 637D:0054       $ED__ScreenCTypes
 6745:0054       $ED__Semafory
 4CCA:000E       $ED__ShortCuts
 637C:0000       $ED__Slupek
 4CC5:0005       $ED__SoftIntHandlingManager
 4CC1:0000       $ED__SpecConv
 4CC9:0000       $ED__StdIO
 4CC2:0027       $ED__Storage
 4B30:0057       $ED__TheodolitRead
 4CC6:0014       $ED__Timer
 4B15:00A6       $ED__Tune
 6806:0000       $ED__VORR_Average
 6778:0000       $ED__WorseBecause
 62C3:0000       $ED__Wykres
 4DA1:0004       $ED__XMS
 4DA2:0004       $ED__XMSService
 62C4:0000       $ED__XMSTable
 3E9C:02E0       $EM__ADFAngle
 3F01:096F       $EM__ARINC
 4959:0024       $EM__ASCII
 2082:030F       $EM__AltInterface
 4948:0109       $EM__BitByteOps
 4881:0108       $EM__BlockOps
 2EAF:0DD7       $EM__Buttons
 31FD:0D8C       $EM__CocpDsp
 0C25:00CC       $EM__CommonData
 057E:011F       $EM__CommonTypes
 22A5:0369       $EM__Czas
 0707:0D73       $EM__DGHIni
 1CFC:1079       $EM__DGHInterface
 221A:08A4       $EM__DGH_utils
 0220:017A       $EM__DOSEntry
 497D:02B8       $EM__DOSMemory
 32D6:226E       $EM__DataCollect
 4854:00BA       $EM__Devices
 2F8D:195B       $EM__Dialog
 25BE:031C       $EM__DigiRS
 3ACA:0389       $EM__DisResUtilities
 495C:009C       $EM__Display
 422E:1462       $EM__DrawEpson
 4860:0204       $EM__DynMem
 0238:0145       $EM__ErrorMess
 3860:0A4A       $EM__EventsMng
 31F5:0071       $EM__FCBS
 1AE1:0A45       $EM__FIO
 20C3:0786       $EM__FIltr1St
 0C32:2BCB       $EM__Files
 3A5C:06DA       $EM__FlagAnal
 2D17:197C       $EM__GList
 069B:06B3       $EM__GPSRead
 27E2:08F8       $EM__GPS_TRIMBLE
 26C2:11FD       $EM__GPS_nov
 213C:0DD5       $EM__GeoArithmetic
 1F73:01E6       $EM__GrafTypes
 1F92:0220       $EM__GrafUtil
 1B86:1121       $EM__Graphics
 3F99:026D       $EM__HRD_Clock
 1E04:16E3       $EM__HiLevGraf
 2872:11D8       $EM__Ini
 3123:0D16       $EM__InpLine
 20B4:00EE       $EM__Int_DME
 22DC:2E15       $EM__Kalibracja
 4966:0167       $EM__Keyboard
 3FC0:04FF       $EM__Kl_FGenerators
 003C:1E0C       $EM__MANAGER
 2BC6:1502       $EM__MMMouse
 34FD:0B50       $EM__Mapa
 4011:0937       $EM__Marks
 26A3:01E8       $EM__Math
 49A9:06C4       $EM__MathLib0
 18CE:04A8       $EM__Messages
 4892:02B1       $EM__Mouse
 2990:06DB       $EM__MsgBox
 3ECB:0351       $EM__NAVInterface
 0EEF:0B8C       $EM__N_CP_ControlProc
 08D2:0023       $EM__N_CommonTypes
 3CD4:088B       $EM__N_Count
 3C6A:069D       $EM__N_DAcquizition
 1535:070A       $EM__N_DataBase
 3A05:056D       $EM__N_DisResults
 07DF:0F1F       $EM__N_Files
 08E4:12F2       $EM__N_Inspekcja
 0A14:2101       $EM__N_Oblot
 1FB5:0CC4       $EM__N_Odb
 3D5D:0F80       $EM__N_Print
 41C8:0574       $EM__N_Slupek
 3C27:0426       $EM__N_results
 4796:063B       $EM__NumberConversion
 29FE:1C75       $EM__Obloty
 147F:0745       $EM__PI_Analiza
 1522:00DC       $EM__PI_ArchDate
 1530:0044       $EM__PI_Drukuj
 08D5:00DF       $EM__PI_Glowny
 021D:002D       $EM__PI_PA
 14F4:02CF       $EM__PI_Pomiar
 0349:0962       $EM__PI_Qcheck
 3905:0766       $EM__PI_ScrUtility
 0001:03A9       $EM__PN
 3B03:1233       $EM__PiszEventy
 40A5:1225       $EM__Polozenie
 0FA8:15AF       $EM__Pomiar
 4375:1A80       $EM__Print
 45CB:08E0       $EM__PrintCntroll
 024D:036E       $EM__PrintScreen
 471D:01A7       $EM__RTSCoroutine
 46FB:0140       $EM__RTSDevice
 4676:076F       $EM__RTSMain
 25F0:0B1F       $EM__RealConversions
 03E0:19D3       $EM__ScannerI
 1104:37A6       $EM__Screen
 39EB:019E       $EM__ScreenCTypes
 3E56:0453       $EM__Semafory
 1A67:079B       $EM__ShortCuts
 397C:06E6       $EM__Slupek
 17A2:05F6       $EM__SoftIntHandlingManager
 47FA:0061       $EM__Sounds
 15A6:19F8       $EM__SpecConv
 1919:14D9       $EM__StdIO
 1746:05B8       $EM__Storage
 4909:03E5       $EM__Termbase
 48EC:01C6       $EM__Terminal
 0591:1095       $EM__TheodolitRead
 1802:0CBD       $EM__Timer
 0284:0C49       $EM__Tune
 451E:0ACE       $EM__VORR_Average
 4220:00D0       $EM__WorseBecause
 35B3:2762       $EM__Wykres
 1C99:012A       $EM__XMS
 1CB0:04BE       $EM__XMSService
 382A:035A       $EM__XMSTable
 3E9C:02B1       $INIT__ADFAngle
 3F01:0954       $INIT__ARINC
 4959:0009       $INIT__ASCII
 2082:02DB       $INIT__AltInterface
 4948:0108       $INIT__BitByteOps
 4881:0107       $INIT__BlockOps
 2EAF:0D80       $INIT__Buttons
 31FD:0D49       $INIT__CocpDsp
 0C25:00A7       $INIT__CommonData
 057E:00FA       $INIT__CommonTypes
 22A5:0308       $INIT__Czas
 0707:0D49       $INIT__DGHIni
 1CFC:102C       $INIT__DGHInterface
 221A:084D       $INIT__DGH_utils
 0220:0150       $INIT__DOSEntry
 497D:0298       $INIT__DOSMemory
 32D6:2221       $INIT__DataCollect
 484A:0000       $INIT__DebugPMD
 4854:009A       $INIT__Devices
 2F8D:18EB       $INIT__Dialog
 25BE:02F2       $INIT__DigiRS
 3ACA:0346       $INIT__DisResUtilities
 495C:007C       $INIT__Display
 422E:1415       $INIT__DrawEpson
 4860:0203       $INIT__DynMem
 0238:010C       $INIT__ErrorMess
 3860:09EE       $INIT__EventsMng
 31F5:004C       $INIT__FCBS
 1AE1:0A16       $INIT__FIO
 20C3:0757       $INIT__FIltr1St
 0C32:2B56       $INIT__Files
 3A5C:06A6       $INIT__FlagAnal
 2D17:1920       $INIT__GList
 069B:0670       $INIT__GPSRead
 27E2:08B5       $INIT__GPS_TRIMBLE
 26C2:11A6       $INIT__GPS_nov
 213C:0DA1       $INIT__GeoArithmetic
 1F73:01CB       $INIT__GrafTypes
 1F92:01D3       $INIT__GrafUtil
 1B86:10F2       $INIT__Graphics
 3F99:0248       $INIT__HRD_Clock
 1E04:1678       $INIT__HiLevGraf
 2872:119F       $INIT__Ini
 3123:0CB5       $INIT__InpLine
 20B4:00CE       $INIT__Int_DME
 22DC:2DA5       $INIT__Kalibracja
 4966:0142       $INIT__Keyboard
 3FC0:04DF       $INIT__Kl_FGenerators
 48BE:02DE       $INIT__Longs
 003C:1DCE       $INIT__MANAGER
 2BC6:14AB       $INIT__MMMouse
 34FD:0AF4       $INIT__Mapa
 4011:0903       $INIT__Marks
 26A3:01C3       $INIT__Math
 49A9:06AF       $INIT__MathLib0
 18CE:046A       $INIT__Messages
 4892:0296       $INIT__Mouse
 2990:0689       $INIT__MsgBox
 3ECB:0322       $INIT__NAVInterface
 0EEF:0B30       $INIT__N_CP_ControlProc
 08D2:0008       $INIT__N_CommonTypes
 3CD4:082A       $INIT__N_Count
 3C6A:0619       $INIT__N_DAcquizition
 1535:069F       $INIT__N_DataBase
 3A05:0520       $INIT__N_DisResults
 07DF:0EB9       $INIT__N_Files
 08E4:1250       $INIT__N_Inspekcja
 0A14:2041       $INIT__N_Oblot
 1FB5:0C54       $INIT__N_Odb
 3D5D:0EED       $INIT__N_Print
 41C8:052C       $INIT__N_Slupek
 3C27:03D9       $INIT__N_results
 4796:0620       $INIT__NumberConversion
 29FE:1C0F       $INIT__Obloty
 147F:06D5       $INIT__PI_Analiza
 1522:008F       $INIT__PI_ArchDate
 1530:0015       $INIT__PI_Drukuj
 08D5:00A1       $INIT__PI_Glowny
 021D:0012       $INIT__PI_PA
 14F4:0264       $INIT__PI_Pomiar
 0349:090B       $INIT__PI_Qcheck
 3905:0723       $INIT__PI_ScrUtility
 3B03:11AA       $INIT__PiszEventy
 40A5:11C4       $INIT__Polozenie
 0FA8:153F       $INIT__Pomiar
 4375:19F2       $INIT__Print
 45CB:0861       $INIT__PrintCntroll
 024D:0326       $INIT__PrintScreen
 4660:0000       $INIT__RTS87
 4738:0000       $INIT__RTSCoroutine
 4710:0000       $INIT__RTSDevice
 4673:0000       $INIT__RTSError
 475E:0000       $INIT__RTSInterrupt
 46FA:0000       $INIT__RTSLanguage
 4676:0731       $INIT__RTSMain
 4676:0770       $INIT__RTSMonExit
 471C:0000       $INIT__RTSPriority
 4764:0000       $INIT__RTSRealError
 25F0:0AFF       $INIT__RealConversions
 03E0:1954       $INIT__ScannerI
 1104:36F5       $INIT__Screen
 39EB:0174       $INIT__ScreenCTypes
 3E56:0433       $INIT__Semafory
 1A67:0762       $INIT__ShortCuts
 397C:06AD       $INIT__Slupek
 17A2:05D1       $INIT__SoftIntHandlingManager
 47FA:0046       $INIT__Sounds
 15A6:19BF       $INIT__SpecConv
 1919:14A5       $INIT__StdIO
 1746:058E       $INIT__Storage
 4765:0303       $INIT__Strings
 4909:03BB       $INIT__Termbase
 48EC:01A1       $INIT__Terminal
 0591:1039       $INIT__TheodolitRead
 1802:0C8E       $INIT__Timer
 0284:0C0B       $INIT__Tune
 451E:0A9A       $INIT__VORR_Average
 4220:00AB       $INIT__WorseBecause
 35B3:2710       $INIT__Wykres
 1CAC:0000       $INIT__XMS
 1CB0:0485       $INIT__XMSService
 382A:032B       $INIT__XMSTable
 4A16:0000       $MN__PN
 4A16:0340       $OK__01mar90_1621_OF_ASCII
 4A16:0352       $OK__01mar90_1621_OF_DOSMemory
 4A16:0346       $OK__01mar90_1621_OF_Display
 4A16:034C       $OK__01mar90_1621_OF_Keyboard
 4A16:02FE       $OK__01mar90_1621_OF_NumberConv
 4A16:0334       $OK__01mar90_1621_OF_Termbase
 4A16:032E       $OK__01mar90_1621_OF_Terminal
 4A16:0310       $OK__01mar90_1622_OF_Devices
 4A16:0322       $OK__01mar90_1622_OF_Mouse
 4A16:0304       $OK__01mar90_1622_OF_Sounds
 4A16:0328       $OK__05feb87_1233_OF_Longs
 4A16:02C8       $OK__10jul87_1400_OF_RTSError
 4A16:02F2       $OK__10jul87_1400_OF_RTSRealErr
 4A16:02D4       $OK__10jul87_1401_OF_RTSLanguag
 4A16:02EC       $OK__10jul87_1402_OF_RTSInterru
 4A16:02C2       $OK__10jul87_1403_OF_RTS87
 4A16:02E0       $OK__10jul87_1404_OF_RTSPriorit
 4A16:0280       $OK__10jul99_1214_OF_ARINC
 4A16:018A       $OK__10jul99_1214_OF_AltInterfa
 4A16:01F0       $OK__10jul99_1214_OF_Buttons
 4A16:0208       $OK__10jul99_1214_OF_CocpDsp
 4A16:00F4       $OK__10jul99_1214_OF_CommonData
 4A16:00BE       $OK__10jul99_1214_OF_CommonType
 4A16:01A8       $OK__10jul99_1214_OF_Czas
 4A16:00D0       $OK__10jul99_1214_OF_DGHIni
 4A16:016C       $OK__10jul99_1214_OF_DGHInterfa
 4A16:01A2       $OK__10jul99_1214_OF_DGH_utils
 4A16:009A       $OK__10jul99_1214_OF_DOSEntry
 4A16:01F6       $OK__10jul99_1214_OF_Dialog
 4A16:01B4       $OK__10jul99_1214_OF_DigiRS
 4A16:00A0       $OK__10jul99_1214_OF_ErrorMess
 4A16:0202       $OK__10jul99_1214_OF_FCBS
 4A16:015A       $OK__10jul99_1214_OF_FIO
 4A16:0196       $OK__10jul99_1214_OF_FIltr1St
 4A16:0244       $OK__10jul99_1214_OF_FlagAnal
 4A16:01EA       $OK__10jul99_1214_OF_GList
 4A16:01CC       $OK__10jul99_1214_OF_GPS_TRIMBL
 4A16:01C6       $OK__10jul99_1214_OF_GPS_nov
 4A16:0178       $OK__10jul99_1214_OF_GrafTypes
 4A16:017E       $OK__10jul99_1214_OF_GrafUtil
 4A16:0160       $OK__10jul99_1214_OF_Graphics
 4A16:0286       $OK__10jul99_1214_OF_HRD_Clock
 4A16:0172       $OK__10jul99_1214_OF_HiLevGraf
 4A16:01D2       $OK__10jul99_1214_OF_Ini
 4A16:01FC       $OK__10jul99_1214_OF_InpLine
 4A16:0190       $OK__10jul99_1214_OF_Int_DME
 4A16:01AE       $OK__10jul99_1214_OF_Kalibracja
 4A16:028C       $OK__10jul99_1214_OF_Kl_FGenera
 4A16:008E       $OK__10jul99_1214_OF_MANAGER
 4A16:01E4       $OK__10jul99_1214_OF_MMMouse
 4A16:01C0       $OK__10jul99_1214_OF_Math
 4A16:0148       $OK__10jul99_1214_OF_Messages
 4A16:01D8       $OK__10jul99_1214_OF_MsgBox
 4A16:027A       $OK__10jul99_1214_OF_NAVInterfa
 4A16:01DE       $OK__10jul99_1214_OF_Obloty
 4A16:00A6       $OK__10jul99_1214_OF_PrintScree
 4A16:01BA       $OK__10jul99_1214_OF_RealConver
 4A16:026E       $OK__10jul99_1214_OF_Semafory
 4A16:0154       $OK__10jul99_1214_OF_ShortCuts
 4A16:013C       $OK__10jul99_1214_OF_SoftIntHan
 4A16:0130       $OK__10jul99_1214_OF_SpecConv
 4A16:014E       $OK__10jul99_1214_OF_StdIO
 4A16:0136       $OK__10jul99_1214_OF_Storage
 4A16:00C4       $OK__10jul99_1214_OF_TheodolitR
 4A16:0142       $OK__10jul99_1214_OF_Timer
 4A16:00AC       $OK__10jul99_1214_OF_Tune
 4A16:02A4       $OK__10jul99_1214_OF_WorseBecau
 4A16:021A       $OK__10jul99_1214_OF_Wykres
 4A16:0166       $OK__10jul99_1214_OF_XMSService
 4A16:0220       $OK__10jul99_1214_OF_XMSTable
 4A16:020E       $OK__10jul99_1215_OF_DataCollec
 4A16:024A       $OK__10jul99_1215_OF_DisResUtil
 4A16:02AA       $OK__10jul99_1215_OF_DrawEpson
 4A16:0226       $OK__10jul99_1215_OF_EventsMng
 4A16:00FA       $OK__10jul99_1215_OF_Files
 4A16:00CA       $OK__10jul99_1215_OF_GPSRead
 4A16:019C       $OK__10jul99_1215_OF_GeoArithme
 4A16:0214       $OK__10jul99_1215_OF_Mapa
 4A16:0292       $OK__10jul99_1215_OF_Marks
 4A16:0094       $OK__10jul99_1215_OF_PI_PA
 4A16:0250       $OK__10jul99_1215_OF_PiszEventy
 4A16:0298       $OK__10jul99_1215_OF_Polozenie
 4A16:0106       $OK__10jul99_1215_OF_Pomiar
 4A16:02B0       $OK__10jul99_1215_OF_Print
 4A16:02BC       $OK__10jul99_1215_OF_PrintCntro
 4A16:00B8       $OK__10jul99_1215_OF_ScannerI
 4A16:010C       $OK__10jul99_1215_OF_Screen
 4A16:0238       $OK__10jul99_1215_OF_ScreenCTyp
 4A16:0232       $OK__10jul99_1215_OF_Slupek
 4A16:02B6       $OK__10jul99_1215_OF_VORR_Avera
 4A16:0274       $OK__10jul99_1218_OF_ADFAngle
 4A16:0100       $OK__10jul99_1218_OF_N_CP_Contr
 4A16:00DC       $OK__10jul99_1218_OF_N_CommonTy
 4A16:0262       $OK__10jul99_1218_OF_N_Count
 4A16:025C       $OK__10jul99_1218_OF_N_DAcquizi
 4A16:012A       $OK__10jul99_1218_OF_N_DataBase
 4A16:023E       $OK__10jul99_1218_OF_N_DisResul
 4A16:00D6       $OK__10jul99_1218_OF_N_Files
 4A16:00E8       $OK__10jul99_1218_OF_N_Inspekcj
 4A16:00EE       $OK__10jul99_1218_OF_N_Oblot
 4A16:0184       $OK__10jul99_1218_OF_N_Odb
 4A16:0268       $OK__10jul99_1218_OF_N_Print
 4A16:029E       $OK__10jul99_1218_OF_N_Slupek
 4A16:0256       $OK__10jul99_1218_OF_N_results
 4A16:0112       $OK__10jul99_1218_OF_PI_Analiza
 4A16:011E       $OK__10jul99_1218_OF_PI_ArchDat
 4A16:0124       $OK__10jul99_1218_OF_PI_Drukuj
 4A16:00E2       $OK__10jul99_1218_OF_PI_Glowny
 4A16:0118       $OK__10jul99_1218_OF_PI_Pomiar
 4A16:00B2       $OK__10jul99_1218_OF_PI_Qcheck
 4A16:022C       $OK__10jul99_1218_OF_PI_ScrUtil
 4A16:0000       $OK__10jul99_1218_OF_PN
 4A16:02E6       $OK__15jun87_0924_OF_RTSCorouti
 4A16:02DA       $OK__15jun87_0924_OF_RTSDevice
 4A16:0316       $OK__16jun87_1952_OF_DynMem
 4A16:030A       $OK__16jun87_2059_OF_DebugPMD
 4A16:02CE       $OK__19aug87_1403_OF_RTSMain
 4A16:02F8       $OK__31jul87_1000_OF_Strings
 4A16:033A       $OK__31jul87_1100_OF_BitByteOps
 4A16:031C       $OK__31jul87_1300_OF_BlockOps
 4B24:0024       ABOVESL__ScannerI
 4DC9:08C0       AGCwartosciProgowD__Kalibracja
 4DC9:0870       AGCwartosciProgowM__Kalibracja
 4DC9:0800       AGCwartosciProgow__Kalibracja
 4DB9:0020       ALT_Conver_TabC__AltInterface
 4DB9:0000       ALT_Conver_Tab__AltInterface
 465A:003E       AT87Server
 4B24:0054       AcqQ__ScannerI
 5499:0000       Active__InpLine
 4666:0014       AddrOvf__RTSError
 6779:078E       Adr1__DrawEpson
 6779:0792       Adr2__DrawEpson
 6751:0018       AktKat__Polozenie
 6751:0010       AktOdleglosc__Polozenie
 4B24:0006       AlfaF__ScannerI
 4B24:0094       AlfaGPSWatcDog__ScannerI
 4B24:0059       AlfaSigma__ScannerI
 4B24:0096       AlfaTeoWatcDog__ScannerI
 4B24:0002       Alfa__ScannerI
 5497:0004       AllEnabled__Buttons
 4B30:0014       Azymut__TheodolitRead
 4D8D:000E       BK64Inc__InternalMonitor__Graph
 4D8D:000A       BKSizeL__InternalMonitor__Graph
 4C99:005A       B_01__Pomiar
 4C99:005E       B_02__Pomiar
 4C99:0062       B_03__Pomiar
 4C99:0066       B_04__Pomiar
 4C99:006A       B_05__Pomiar
 4CB6:000D       B_Abort__MouseMonitor__PI_Anali
 4CB6:0009       B_Akceptuj__MouseMonitor__PI_An
 4CA3:0056       B_CURSOR__Screen
 4CB6:0015       B_DOWN__MouseMonitor__PI_Analiz
 4CA3:0066       B_DOWN__Screen
 4CB6:0005       B_Drukuj__MouseMonitor__PI_Anal
 4CA3:005A       B_LEFT__Screen
 4CA3:005E       B_RIGHT__Screen
 4CB6:0011       B_UP__MouseMonitor__PI_Analiza
 4CA3:0062       B_UP__Screen
 4CB6:0019       B_XCHG__MouseMonitor__PI_Analiz
 4CA3:0080       BarOnScreen__Dialog__Screen
 4F16:006E       BladKanaluGPS__GPS_TRIMBLE
 4F0D:0080       BladKanaluGPS__GPS_nov
 4CBC:0042       Blad_podczas_wczytywania_Lotnis
 4F1E:0012       BuffP__Ini
 4DA3:0000       BufferFull__DGHInterface
 6779:0004       Bufor__DrawEpson
 4F1E:0016       Bufor__Ini
 6751:0022       Bufor__Polozenie
 5497:0005       ButtonList__MONITOR__Buttons
 4AE7:0114       CP__MANAGER
 542F:0157       CallBackDlaDopasuj__Obloty
 4666:001E       CardOvf__RTSError
 4666:0000       CaseError__RTSError
 4CA3:012C       ChangeKursorMode__Dialog__Scree
 4B30:004A       CheckSumIdx__TheodolitRead
 4C43:0019       CisnienieOdn__N_Oblot
 4C47:014E       CisnienieOdniesienia__CommonDat
 4DA5:0000       ClipRect__HiLevGraf
 4CC6:0004       ClockPer__Timer
 67F4:0011       CoKtoraProbka__Print
 6807:000B       CoKtoraProbka__PrintCntroll
 4C43:0000       CoRobimy__N_Oblot
 549A:0000       Code__FCBS
 4DB4:003C       CollectData__N_Odb
 4AE7:021A       Count__MANAGER
 4CCB:0C08       CriticalErrorRec__FIO
 5496:0000       CurH__GList
 6779:0798       CurMode__DrawEpson
 4B36:001E       CurrGPSAnalizer__GPSRead
 5455:02F5       CursorB__BezWyszeregowania__MMM
 5455:01F4       CursorBuf__BezWyszeregowania__M
 4CA3:0076       CursorMode__Dialog__Screen
 4CA3:007B       CursorPos__Dialog__Screen
 5455:0008       CursorShapePtr__MMMouse
 6751:0211       CzesciOkregu__Polozenie
 4DB4:0024       DEVAV__N_Odb
 4DB4:0020       DEVMAX__N_Odb
 4DB4:001C       DEVMIN__N_Odb
 4DB4:0018       DEVVAL__N_Odb
 4C47:00FB       DME__CommonData
 4B0A:0084       DOSEmpty__DOSEntry
 4AE7:011C       DUMMY__MANAGER
 4DC9:13EC       DataOstatniejKalibracji__Kalibr
 5455:000C       DefaultShape__MMMouse
 4DC0:0000       Deklinacja__GeoArithmetic
 542F:019C       DelDir__Obloty
 4B24:0016       DeltaDME__ScannerI
 4B24:001A       DeltaF__ScannerI
 4B24:000E       Delta__ScannerI
 4A5A:0058       DescInt0__RTSMain
 4DB4:002C       DevErrSum__N_Odb
 4DB4:0028       DevNr__N_Odb
 4C5D:0004       DirErr__Files
 6751:020F       Dir__Polozenie
 4B24:0061       DisSigma__ScannerI
 54A1:C86E       Div2T__tablice__DataCollect
 54A1:C86A       Div3T__tablice__DataCollect
 4666:0046       DivZero__RTSError
 680C:0000       DriverInstalled__Mouse
 542F:021E       DstDir__Obloty
 4CC6:0012       Dumm__Monitor__Timer
 46EE:0069       DynParCopy__RTSLanguage
 5455:0063       EVC__BezPrzerwanOdMyszy__MMMous
 5455:005F       EVF__BezPrzerwanOdMyszy__MMMous
 5455:0061       EVL__BezPrzerwanOdMyszy__MMMous
 4B30:001C       Elewacja__TheodolitRead
 4AE7:0012       ErrorHandler__MANAGER
 4F1E:0000       ErrorProc__Ini
 4AE7:0000       ErrorQueue__MANAGER
 4676:0636       Error__RTSMain
 4C99:0050       EtapPolaryzacji__Pomiar
 6386:0002       EvPtr__PiszEventy
 4B24:0069       EvalPROC__ScannerI
 5455:0065       EventBuff__BezPrzerwanOdMyszy__
 62C5:0000       Events__EventsMng
 4666:000A       FctRetError__RTSError
 4C5D:0000       FileErr__Files
 4C32:0000       FileErr__N_Files
 4C32:00C4       FileResCreated__N_Files
 4C32:00C0       FileRes__N_Files
 4C32:0090       FileSig__N_Files
 4CCB:0008       Files__FIO
 67F4:000C       Flagi__Print
 4D8D:0010       FntTable__Graphics
 5498:0004       FocusChanged__Dialog
 6779:079D       FontAdrA__DrawEpson
 6779:0799       FontAdrN__DrawEpson
 6779:07A1       FontHeight__DrawEpson
 4D8D:0000       FontPtr__Graphics
 4CCA:0007       FreeKey__monitor__ShortCuts
 4B24:008B       GPSEcounting__ScannerI
 4B24:003B       GPS_A__ScannerI
 4B24:0050       GPS_DIFFMODE__ScannerI
 4B24:004E       GPS_GDOP__ScannerI
 4B24:004B       GPS_OK__ScannerI
 4B24:0051       GPS_PREC__ScannerI
 4B24:0043       GPS_R__ScannerI
 4B24:004C       GPS_SAT__ScannerI
 4B24:00AB       GPS_dtaSign__ScannerI
 4DC9:0AC0       GS_DEVPuntyKal__Kalibracja
 4B15:0050       GSfreqCRT__Tune
 4DA2:0000       GarbageList__XMSService
 4C43:0015       GlowOdb__N_Oblot
 4C47:0141       GlownyOdbiornik__CommonData
 4DC9:0958       GsAgc_delay__Kalibracja
 4DC9:0918       GsDev_delay__Kalibracja
 4DC9:0928       GsPrcMod_delay__Kalibracja
 5455:02F4       Hidden__BezWyszeregowania__MMMo
 542F:0116       HomeDirDlaDopasuj__Obloty
 542F:0058       HomeDirNazwaPlikuIni__Obloty
 542F:0048       HomeDir__Obloty
 54A1:C866       IDX2__tablice__DataCollect
 54A1:C862       IDX3__tablice__DataCollect
 4739:011E       IOTransfer__RTSInterrupt
 4DB4:0045       IdSygnalow__N_Odb
 54A1:C840       Idx__DataCollect
 6807:000D       IleStron__PrintCntroll
 4DC0:0020       IloscOdniesien__GeoArithmetic
 6807:000F       IloscProbek__PrintCntroll
 673A:0000       ImportantDiv__N_DAcquizition
 4666:0028       IntegerOvf__RTSError
 4CA3:0079       JakieWykr__Dialog__Screen
 4CA3:0077       JakijedenWykres__Dialog__Screen
 4CA3:0078       JedenWykres__Dialog__Screen
 6779:07A8       JuzNarysowane__DrawEpson
 0000:0000  Abs  KEY__00xxx00_0000_OF_DebugPMD
 0000:0000  Abs  KEY__00xxx00_0000_OF_RTS87
 0000:0000  Abs  KEY__00xxx00_0000_OF_RTSCorouti
 0000:0000  Abs  KEY__00xxx00_0000_OF_RTSError
 0000:0000  Abs  KEY__00xxx00_0000_OF_RTSInterru
 0000:0000  Abs  KEY__00xxx00_0000_OF_RTSLanguag
 0000:0000  Abs  KEY__00xxx00_0000_OF_RTSMain
 0000:0000  Abs  KEY__00xxx00_0000_OF_RTSPriorit
 0000:0000  Abs  KEY__00xxx00_0000_OF_RTSRealErr
 0000:0000  Abs  KEY__05feb87_1233_OF_Longs
 0000:0000  Abs  KEY__10aug87_2030_OF_ASCII
 0000:0000  Abs  KEY__10aug87_2030_OF_BitByteOps
 0000:0000  Abs  KEY__10aug87_2030_OF_BlockOps
 0000:0000  Abs  KEY__10aug87_2031_OF_DOSMemory
 0000:0000  Abs  KEY__10aug87_2031_OF_DebugPMD
 0000:0000  Abs  KEY__10aug87_2031_OF_Devices
 0000:0000  Abs  KEY__10aug87_2031_OF_Display
 0000:0000  Abs  KEY__10aug87_2031_OF_DynMem
 0000:0000  Abs  KEY__10aug87_2031_OF_Keyboard
 0000:0000  Abs  KEY__10aug87_2031_OF_NumberConv
 0000:0000  Abs  KEY__10aug87_2031_OF_RTSDevice
 0000:0000  Abs  KEY__10aug87_2031_OF_Storage
 0000:0000  Abs  KEY__10aug87_2031_OF_Strings
 0000:0000  Abs  KEY__10aug87_2031_OF_Termbase
 0000:0000  Abs  KEY__10aug87_2031_OF_Terminal
 0000:0000  Abs  KEY__10aug87_2032_OF_MathLib0
 0000:0000  Abs  KEY__10aug87_2033_OF_Mouse
 0000:0000  Abs  KEY__10aug87_2033_OF_RTSCorouti
 0000:0000  Abs  KEY__10aug87_2033_OF_RealConver
 0000:0000  Abs  KEY__10aug87_2033_OF_Sounds
 0000:0000  Abs  KEY__10jul87_1035_OF_RTSMonExit
 0000:0000  Abs  KEY__10jul99_1214_OF_ARINC
 0000:0000  Abs  KEY__10jul99_1214_OF_AltInterfa
 0000:0000  Abs  KEY__10jul99_1214_OF_Buttons
 0000:0000  Abs  KEY__10jul99_1214_OF_CocpDsp
 0000:0000  Abs  KEY__10jul99_1214_OF_CommonData
 0000:0000  Abs  KEY__10jul99_1214_OF_CommonType
 0000:0000  Abs  KEY__10jul99_1214_OF_Czas
 0000:0000  Abs  KEY__10jul99_1214_OF_DGHIni
 0000:0000  Abs  KEY__10jul99_1214_OF_DGHInterfa
 0000:0000  Abs  KEY__10jul99_1214_OF_DGH_utils
 0000:0000  Abs  KEY__10jul99_1214_OF_DOSEntry
 0000:0000  Abs  KEY__10jul99_1214_OF_DataCollec
 0000:0000  Abs  KEY__10jul99_1214_OF_Dialog
 0000:0000  Abs  KEY__10jul99_1214_OF_DigiRS
 0000:0000  Abs  KEY__10jul99_1214_OF_DisResUtil
 0000:0000  Abs  KEY__10jul99_1214_OF_DrawEpson
 0000:0000  Abs  KEY__10jul99_1214_OF_ErrorMess
 0000:0000  Abs  KEY__10jul99_1214_OF_EventsMng
 0000:0000  Abs  KEY__10jul99_1214_OF_FCBS
 0000:0000  Abs  KEY__10jul99_1214_OF_FIO
 0000:0000  Abs  KEY__10jul99_1214_OF_FIltr1St
 0000:0000  Abs  KEY__10jul99_1214_OF_Files
 0000:0000  Abs  KEY__10jul99_1214_OF_FlagAnal
 0000:0000  Abs  KEY__10jul99_1214_OF_GList
 0000:0000  Abs  KEY__10jul99_1214_OF_GPSRead
 0000:0000  Abs  KEY__10jul99_1214_OF_GPS_TRIMBL
 0000:0000  Abs  KEY__10jul99_1214_OF_GPS_nov
 0000:0000  Abs  KEY__10jul99_1214_OF_GeoArithme
 0000:0000  Abs  KEY__10jul99_1214_OF_GrafTypes
 0000:0000  Abs  KEY__10jul99_1214_OF_GrafUtil
 0000:0000  Abs  KEY__10jul99_1214_OF_Graphics
 0000:0000  Abs  KEY__10jul99_1214_OF_HRD_Clock
 0000:0000  Abs  KEY__10jul99_1214_OF_HiLevGraf
 0000:0000  Abs  KEY__10jul99_1214_OF_Ini
 0000:0000  Abs  KEY__10jul99_1214_OF_InpLine
 0000:0000  Abs  KEY__10jul99_1214_OF_Int_DME
 0000:0000  Abs  KEY__10jul99_1214_OF_Kalibracja
 0000:0000  Abs  KEY__10jul99_1214_OF_Kl_FGenera
 0000:0000  Abs  KEY__10jul99_1214_OF_MANAGER
 0000:0000  Abs  KEY__10jul99_1214_OF_MMMouse
 0000:0000  Abs  KEY__10jul99_1214_OF_Mapa
 0000:0000  Abs  KEY__10jul99_1214_OF_Marks
 0000:0000  Abs  KEY__10jul99_1214_OF_Math
 0000:0000  Abs  KEY__10jul99_1214_OF_Messages
 0000:0000  Abs  KEY__10jul99_1214_OF_MsgBox
 0000:0000  Abs  KEY__10jul99_1214_OF_NAVInterfa
 0000:0000  Abs  KEY__10jul99_1214_OF_Obloty
 0000:0000  Abs  KEY__10jul99_1214_OF_PI_Analiza
 0000:0000  Abs  KEY__10jul99_1214_OF_PI_ArchDat
 0000:0000  Abs  KEY__10jul99_1214_OF_PI_Drukuj
 0000:0000  Abs  KEY__10jul99_1214_OF_PI_Glowny
 0000:0000  Abs  KEY__10jul99_1214_OF_PI_PA
 0000:0000  Abs  KEY__10jul99_1214_OF_PI_Pomiar
 0000:0000  Abs  KEY__10jul99_1214_OF_PI_Qcheck
 0000:0000  Abs  KEY__10jul99_1214_OF_PI_ScrUtil
 0000:0000  Abs  KEY__10jul99_1214_OF_PiszEventy
 0000:0000  Abs  KEY__10jul99_1214_OF_Polozenie
 0000:0000  Abs  KEY__10jul99_1214_OF_Pomiar
 0000:0000  Abs  KEY__10jul99_1214_OF_Print
 0000:0000  Abs  KEY__10jul99_1214_OF_PrintCntro
 0000:0000  Abs  KEY__10jul99_1214_OF_PrintScree
 0000:0000  Abs  KEY__10jul99_1214_OF_ScannerI
 0000:0000  Abs  KEY__10jul99_1214_OF_Screen
 0000:0000  Abs  KEY__10jul99_1214_OF_ScreenCTyp
 0000:0000  Abs  KEY__10jul99_1214_OF_Semafory
 0000:0000  Abs  KEY__10jul99_1214_OF_ShortCuts
 0000:0000  Abs  KEY__10jul99_1214_OF_Slupek
 0000:0000  Abs  KEY__10jul99_1214_OF_SoftIntHan
 0000:0000  Abs  KEY__10jul99_1214_OF_SpecConv
 0000:0000  Abs  KEY__10jul99_1214_OF_StdIO
 0000:0000  Abs  KEY__10jul99_1214_OF_TheodolitR
 0000:0000  Abs  KEY__10jul99_1214_OF_Timer
 0000:0000  Abs  KEY__10jul99_1214_OF_Tune
 0000:0000  Abs  KEY__10jul99_1214_OF_VORR_Avera
 0000:0000  Abs  KEY__10jul99_1214_OF_WorseBecau
 0000:0000  Abs  KEY__10jul99_1214_OF_Wykres
 0000:0000  Abs  KEY__10jul99_1214_OF_XMSService
 0000:0000  Abs  KEY__10jul99_1214_OF_XMSTable
 0000:0000  Abs  KEY__10jul99_1218_OF_ADFAngle
 0000:0000  Abs  KEY__10jul99_1218_OF_N_CP_Contr
 0000:0000  Abs  KEY__10jul99_1218_OF_N_CommonTy
 0000:0000  Abs  KEY__10jul99_1218_OF_N_Count
 0000:0000  Abs  KEY__10jul99_1218_OF_N_DAcquizi
 0000:0000  Abs  KEY__10jul99_1218_OF_N_DataBase
 0000:0000  Abs  KEY__10jul99_1218_OF_N_DisResul
 0000:0000  Abs  KEY__10jul99_1218_OF_N_Files
 0000:0000  Abs  KEY__10jul99_1218_OF_N_Inspekcj
 0000:0000  Abs  KEY__10jul99_1218_OF_N_Oblot
 0000:0000  Abs  KEY__10jul99_1218_OF_N_Odb
 0000:0000  Abs  KEY__10jul99_1218_OF_N_Print
 0000:0000  Abs  KEY__10jul99_1218_OF_N_Slupek
 0000:0000  Abs  KEY__10jul99_1218_OF_N_results
 0000:0000  Abs  KEY__10jul99_1218_OF_PN
 0000:0000  Abs  KEY__12aug87_1620_OF_RTSMain
 0000:0000  Abs  KEY__21aug96_1223_OF_XMS
 5497:0000       KbdButton__Buttons
 4CCA:0000       Kill__ShortCuts
 4B30:0010       Kopiowanie__TheodolitRead
 4CA3:0030       KrokOpisuOsi__Screen
 48BE:01F7       LDiv__Longs
 48BE:018D       LMultU__Longs
 48BE:00E6       LMult__Longs
 4DC9:0A88       LOC_DEVPuntyKal__Kalibracja
 4F16:005F       L_FixNotAvailable__GPS_TRIMBLE
 4F16:0057       L_Kierunek__GPS_TRIMBLE
 4F16:006C       L_NumberOfSattelites__GPS_TRIMB
 4F16:0051       L_WspDlugosc__GPS_TRIMBLE
 4F16:004B       L_WspSzerokosc__GPS_TRIMBLE
 26A3:002A       L__ACos__Math
 1746:0002       L__ALLOCATE__Storage
 2082:0032       L__ALTConvert__AltInterface
 003C:0FEF       L__AWAITEDC__MANAGER
 003C:0FEF       L__AWAITEDC__Scheduler__MANAGER
 003C:0FB4       L__AWAITEDS__MANAGER
 003C:0FB4       L__AWAITEDS__Scheduler__MANAGER
 0FA8:0114       L__AbortBP__Pomiar
 3C6A:05BA       L__Abort__N_DAcquizition
 18CE:0312       L__AcknowledgeFirst__Messages
 18CE:0337       L__Acknowledge__Messages
 3C6A:0142       L__Acquire__N_DAcquizition
 15A6:0E7B       L__AddAngle100__SpecConv
 15A6:1858       L__AddDis__SpecConv
 15A6:10CE       L__AddNormal__SpecConv
 15A6:17AE       L__Add__SpecConv
 2990:00F2       L__AdvInfo__MsgBox
 15A6:101A       L__AfterAngle100__SpecConv
 0FA8:014F       L__AkceptacjaBP__Pomiar
 1C99:00D8       L__AllocUpperMemBlock__XMS
 4860:0059       L__Alloc__DynMem
 1C99:003C       L__AllocateExtMem__XMS
 1CB0:004E       L__Allocate__XMSService
 382A:005D       L__Allocate__XMSTable
 2F8D:1666       L__AltF4__Dialog
 147F:0518       L__AnalizaEP__PI_Analiza
 3CD4:0746       L__Analiza__N_Count
 14F4:0012       L__Analiza__PI_Pomiar
 15A6:0711       L__Ang100Str36Calk__SpecConv
 15A6:06A4       L__Ang100Str36__SpecConv
 4011:015E       L__AngAddSample__Marks
 4011:0032       L__AngResetContiner__Marks
 15A6:0BF8       L__Angle100__SpecConv
 15A6:0D36       L__AngleDeg__SpecConv
 03E0:0B3C       L__AssSim_Alfa__ScannerI
 03E0:0AA9       L__AssSim_Dis__ScannerI
 003C:12EF       L__Assert__MANAGER
 003C:12EF       L__Assert__Scheduler__MANAGER
 382A:0002       L__AssignNil__XMSTable
 213C:0D1C       L__AssignOdniesienie__GeoArithm
 1802:0559       L__AssignPeriodicProc__Monitor_
 1802:0559       L__AssignPeriodicProc__Timer
 1F73:01AD       L__AssignPoint__GrafTypes
 4909:0002       L__AssignRead__Termbase
 1F73:0187       L__AssignRect__GrafTypes
 4909:0184       L__AssignWrite__Termbase
 4765:005F       L__Assign__Strings
 4860:01BF       L__Avail__DynMem
 1746:02D0       L__Available__Storage
 451E:0265       L__Bend_AddSample__VORR_Average
 451E:002A       L__Bend_ClearContainer__VORR_Av
 20C3:05B7       L__BinaryCounter__FIltr1St
 221A:06BA       L__BinaryValSet__DGH_utils
 4881:007D       L__BlockClear__BlockOps
 4881:00B8       L__BlockEqual__BlockOps
 4881:001A       L__BlockMoveBackward__BlockOps
 4881:0000       L__BlockMoveForward__BlockOps
 4881:003B       L__BlockMove__BlockOps
 4881:00D9       L__BlockPosition__BlockOps
 4881:0096       L__BlockSet__BlockOps
 17A2:008A       L__BreakChain__SoftIntHandlingM
 003C:0AAF       L__Broadcast__MANAGER
 003C:0AAF       L__Broadcast__Scheduler__MANAGE
 4948:0046       L__ByteAnd__BitByteOps
 4948:0073       L__ByteNot__BitByteOps
 4948:0055       L__ByteOr__BitByteOps
 4948:00C5       L__ByteRol__BitByteOps
 4948:00B4       L__ByteRor__BitByteOps
 4948:0092       L__ByteSar__BitByteOps
 4948:00A3       L__ByteShl__BitByteOps
 4948:0081       L__ByteShr__BitByteOps
 4948:0064       L__ByteXor__BitByteOps
 1AE1:04B4       L__CD__FIO
 4676:00EF       L__CallInitProc__RTSMain
 2EAF:0D35       L__CallProc__Buttons
 0FA8:0124       L__CallStopButton__Pomiar
 4676:00FD       L__CallTermProc__RTSMain
 2D17:1454       L__CanEnable__GList
 34FD:098B       L__CancelProcess__Mapa
 34FD:098B       L__CancelProcess__monitor__Mapa
 15A6:057F       L__Card100Str__SpecConv
 15A6:033A       L__Card10Str__SpecConv
 35B3:1F1D       L__Card2Real__Wykres
 15A6:0225       L__Card2Str__SpecConv
 15A6:0959       L__Card500Str__SpecConv
 4796:0259       L__CardToString__NumberConversi
 2EAF:09D0       L__ChangeButtonText__Buttons
 2EAF:0959       L__ChangeButton__Buttons
 0C32:1E04       L__ChangeDir__Files
 1E04:0C85       L__Circle__HiLevGraf
 1A67:006D       L__ClearBuffer__ShortCuts
 1A67:006D       L__ClearBuffer__monitor__ShortC
 1E04:1026       L__Clip__HiLevGraf
 4375:0E2F       L__CloseAll__Print
 2872:0E08       L__CloseBuffer__Ini
 0C32:2819       L__CloseCommSigFName__Files
 1E04:0A9F       L__CloseDIB__HiLevGraf
 07DF:0C1E       L__CloseFileRes__N_Files
 0C32:0F3B       L__CloseFiles__Files
 07DF:074D       L__CloseFiles__N_Files
 0C32:17EB       L__CloseSignalFiles__Files
 07DF:0962       L__CloseSignalFiles__N_Files
 422E:06E2       L__Close__DrawEpson
 1AE1:01F2       L__Close__FIO
 45CB:013A       L__CoKtoraPDn__PrintCntroll
 45CB:00D5       L__CoKtoraPUp__PrintCntroll
 4765:02B2       L__CompareStr__Strings
 1104:18F9       L__ConEventButton__Screen
 4765:025B       L__Concat__Strings
 4892:01B4       L__ConditionalOff__Mouse
 3C6A:0063       L__ConsoleEv__Monitor__N_DAcqui
 3C6A:0063       L__ConsoleEv__N_DAcquizition
 4765:001D       L__ConstAssign__Strings
 31FD:0A5E       L__ControlLoop__CocpDsp
 22A5:024E       L__ConvertToStr__Czas
 4765:01E9       L__Copy__Strings
 1CB0:0110       L__Copy__XMSService
 1FB5:005A       L__CountDevErr__N_Odb
 2EAF:0B2D       L__CreateButton__Buttons
 0C32:0273       L__CreateFiles__Files
 07DF:01F8       L__CreateFiles__N_Files
 3123:0002       L__CreateInpLine__InpLine
 2EAF:0C3C       L__CreateRadioButton__Buttons
 1AE1:00FA       L__Create__FIO
 1AE1:08B1       L__CriticalErrorHandlerProc__FI
 03E0:1754       L__CurrGPSAlfaOffset__ScannerI
 1802:051F       L__CurrentPeriod__Monitor__Time
 1802:051F       L__CurrentPeriod__Timer
 003C:17F9       L__CurrentProcess__MANAGER
 0A14:0592       L__CzyDobraOrbita__N_Oblot
 0A14:06B7       L__CzyDobryPromien__N_Oblot
 1746:01B9       L__DEALLOCATE__Storage
 1E04:06E9       L__DIBHeight__HiLevGraf
 1E04:06B5       L__DIBWidth__HiLevGraf
 20B4:0002       L__DMEConvert__Int_DME
 003C:0CE1       L__DOIO__MANAGER
 003C:0CE1       L__DOIO__Scheduler__MANAGER
 497D:0002       L__DOSAlloc__DOSMemory
 497D:01B0       L__DOSAvail__DOSMemory
 497D:00E3       L__DOSDeAlloc__DOSMemory
 497D:0241       L__DOSGetMaxSize__DOSMemory
 497D:01F0       L__DOSSetSize__DOSMemory
 1B86:01B2       L__DP__Graphics
 1B86:01B2       L__DP__InternalMonitor__Graphic
 003C:1A90       L__DUMMYPRO__MANAGER
 4375:0186       L__DalszeOdZera__Print
 3F99:011E       L__Data__HRD_Clock
 4860:0102       L__DeAlloc__DynMem
 1CB0:00EE       L__Deallocate__XMSService
 382A:00F2       L__Deallocate__XMSTable
 0284:0966       L__DecADFFch__Tune
 2872:0006       L__DefaultError__Ini
 1802:04B5       L__DefinePeriod__Monitor__Timer
 1802:04B5       L__DefinePeriod__Timer
 1A67:0612       L__DefineShortCut__ShortCuts
 3123:01CA       L__DeleteInpLine__InpLine
 2872:050E       L__DeleteSection__Ini
 1A67:06DD       L__DeleteShortCut__ShortCuts
 1AE1:046B       L__Delete__FIO
 4765:014C       L__Delete__Strings
 2F8D:1488       L__DialogMouseHandle__Dialog
 1AE1:0700       L__DirQuery__FIO
 4011:0453       L__DisAddSample__Marks
 4011:0041       L__DisResetContiner__Marks
 18CE:0004       L__DisableDisplay__Messages
 2D17:1470       L__Disable__GList
 3A05:04AB       L__DispResults__N_DisResults
 18CE:0181       L__Display__Messages
 2EAF:0AAB       L__DisposeButton__Buttons
 18CE:0164       L__DisposeMessage__Messages
 1802:0A36       L__DisposeMetronome__Timer
 3905:059F       L__DisposeSlupki__PI_ScrUtility
 1802:0B9B       L__DisposeWatchdog__Timer
 397C:0647       L__Dispose__Slupek
 15A6:1755       L__Div__SpecConv
 1F92:0112       L__DoBeep__GrafUtil
 3123:07B4       L__DoNothing__InpLine
 2D17:06B6       L__DodajDoListy__GList
 08E4:06E9       L__DodajOblot__N_Inspekcja
 41C8:04F7       L__DoneSlupek__N_Slupek
 1104:36CD       L__Done__Screen
 29FE:037F       L__Dopasuj__Obloty
 422E:1124       L__DrawText__DrawEpson
 35B3:03D7       L__Draw__Wykres
 1530:0002       L__Druk__PI_Drukuj
 147F:0062       L__DrukujBP__MouseMonitor__PI_A
 29FE:1B8B       L__Dum_Stat_File_Monitor__Oblot
 29FE:1B83       L__Dum_Stat_Size_Monitor__Oblot
 2D17:0020       L__DummyNotification__GList
 1802:0BFF       L__Dummy__Timer
 1AE1:040B       L__EOF__FIO
 2EAF:0CC0       L__EnableButton__Buttons
 2EAF:0D4E       L__EnableDisableAllButtons__But
 18CE:002E       L__EnableDisplay__Messages
 2F8D:167B       L__EnableDlg__Dialog
 2D17:1513       L__Enable__GList
 3123:0183       L__Enable__InpLine
 2F8D:15E7       L__EndDialog__Dialog
 003C:18E5       L__EnterProtectedOp__MANAGER
 3B03:0F04       L__EnumEv__PiszEventy
 08E4:065D       L__EnumObl__N_Inspekcja
 4375:0FE0       L__EvProc__Print
 2BC6:07F2       L__EventDispatcher__BezPrzerwan
 3860:055C       L__EventsMngInit__EventsMng
 4676:0526       L__Execute__RTSMain
 0C32:1DB9       L__ExistDIR__Files
 003C:18ED       L__ExitProtectedOp__MANAGER
 0C32:20C9       L__FInterpolacja__Files
 15A6:08C0       L__Feed500Str__SpecConv
 1B86:025A       L__FillRect__Graphics
 1E04:0F6C       L__FillRect__HiLevGraf
 1B86:025A       L__FillRect__InternalMonitor__G
 20C3:03DA       L__Filtr2Filters__FIltr1St
 20C3:053F       L__FiltrB__FIltr1St
 20C3:0199       L__Filtr__FIltr1St
 3860:02D5       L__FindNextEvent__EventsMng
 3A5C:01D6       L__FlagErr_Anal__FlagAnal
 4892:0002       L__FlagReset__Mouse
 1E04:1268       L__FrameRect__HiLevGraf
 1C99:0068       L__FreeExtMem__XMS
 29FE:0E1A       L__FreeSlot__Obloty
 1C99:0107       L__FreeUpperMemBlock__XMS
 3E56:00AA       L__Free__Semafory
 069B:0225       L__GPSReceive__GPSRead
 34FD:07B3       L__GdzieJest__Mapa
 213C:0719       L__Geo2Kat__GeoArithmetic
 3E9C:003A       L__GetADFAngle__ADFAngle
 0C32:264E       L__GetALfaRefFName__Files
 3C27:0049       L__GetAnRes__N_results
 1CFC:0187       L__GetAnalogVal__DGHInterface
 03E0:069A       L__GetAndCountTEODummy__Scanner
 03E0:0894       L__GetAndCountTEO__ScannerI
 1B86:0191       L__GetBank__Graphics
 1B86:0191       L__GetBank__InternalMonitor__Gr
 1CFC:0226       L__GetBinaryVal__DGHInterface
 4948:0000       L__GetBits__BitByteOps
 4892:006E       L__GetButPres__Mouse
 4892:00A0       L__GetButRel__Mouse
 1E04:115F       L__GetClip__HiLevGraf
 0C32:2735       L__GetCommSigFName__Files
 2D17:1839       L__GetContents__GList
 1CFC:002B       L__GetCurrDataSign__DGHInterfac
 069B:02DA       L__GetCurrDataSign__GPSRead
 0591:05AE       L__GetCurrDataSign__TheodolitRe
 4854:0002       L__GetDeviceStatus__Devices
 46FB:009B       L__GetDeviceStatus__RTSDevice
 2F8D:0006       L__GetDialogDIBHandle__Dialog
 1AE1:05B5       L__GetDir__FIO
 069B:029B       L__GetDirection__GPSRead
 0C32:26C2       L__GetDisRefFName__Files
 382A:01B7       L__GetElem__XMSTable
 22DC:097E       L__GetErrReset__ErrorHand__Kali
 22DC:097E       L__GetErrReset__Kalibracja
 3860:041A       L__GetEventInfo__EventsMng
 1AE1:0685       L__GetFileStamp__FIO
 27E2:05C7       L__GetFrame__GPS_TRIMBLE
 26C2:0CFB       L__GetFrame__GPS_nov
 03E0:0377       L__GetGPSSpread__ScannerI
 03E0:01B8       L__GetGPS__ScannerI
 3ECB:0241       L__GetGSDev__NAVInterface
 3ECB:0190       L__GetLocDev__NAVInterface
 4676:0147       L__GetMessage__RTSMain
 32D6:1B29       L__GetNextAMark__DataCollect
 32D6:1AA3       L__GetNextDMark__DataCollect
 3A5C:0352       L__GetNextFrac__FlagAnal
 3ECB:0022       L__GetOmnibearing__NAVInterface
 03E0:17D3       L__GetPilotEvent__ScannerI
 4892:0037       L__GetPosBut__Mouse
 46FB:0100       L__GetPrioMask__RTSDevice
 2872:035E       L__GetPrivateProfileString__Ini
 057E:0010       L__GetRecName__CommonTypes
 2D17:1819       L__GetRect__GList
 2BC6:0713       L__GetRegionRect__MMMouse
 3905:06BA       L__GetRegionWyk1__PI_ScrUtility
 3905:06FD       L__GetRegionWyk2__PI_ScrUtility
 3905:070D       L__GetRegionWyk3__PI_ScrUtility
 3905:0688       L__GetRegionWykG__PI_ScrUtility
 2EAF:0D0E       L__GetRegion__Buttons
 2D17:1608       L__GetRegion__GList
 3123:0C4D       L__GetRegion__InpLine
 2BC6:06C2       L__GetRegion__MMMouse
 07DF:0C71       L__GetResFileName__N_Files
 2D17:14F4       L__GetSelection__GList
 07DF:0A79       L__GetSigFileName__N_Files
 397C:0666       L__GetSlupRect__Slupek
 0591:0600       L__GetTeoEvent__TheodolitRead
 3123:0388       L__GetText__InpLine
 0591:0700       L__GetTheoI__TheodolitRead
 0591:0654       L__GetTheoR__TheodolitRead
 22A5:00C0       L__GetTimeAndDate__BezPrzerwan_
 22A5:00C0       L__GetTimeAndDate__Czas
 057E:0055       L__GetTranName__CommonTypes
 3860:0366       L__GetUpdNextEvent__EventsMng
 1B86:03B5       L__GetWindow__Graphics
 1B86:03B5       L__GetWindow__InternalMonitor__
 25BE:0002       L__GetWrBufLength__DigiRS
 0A14:0790       L__GlowOdbP__N_Oblot
 08D5:0002       L__GlownyEP__PI_Glowny
 0C32:1E3D       L__GoHomeDir__Files
 2F8D:123F       L__Go__Dialog
 3F99:00A1       L__Godzina__HRD_Clock
 15A6:1178       L__GorszeBoBlisze__SpecConv
 15A6:14AD       L__GorszeBoDalszeOdZera__SpecCo
 15A6:10E9       L__GorszeBoDalszeR__SpecConv
 15A6:1127       L__GorszeBoDalsze__SpecConv
 15A6:142B       L__GorszeBoMniejsze1500__SpecCo
 15A6:1368       L__GorszeBoMniejsze160__SpecCon
 15A6:146C       L__GorszeBoMniejsze2000__SpecCo
 15A6:1327       L__GorszeBoMniejsze300__SpecCon
 15A6:12A5       L__GorszeBoMniejsze400__SpecCon
 15A6:13A9       L__GorszeBoMniejsze5000__SpecCo
 15A6:13EA       L__GorszeBoMniejsze500__SpecCon
 15A6:12E6       L__GorszeBoMniejsze800__SpecCon
 15A6:1264       L__GorszeBoMniejszeM60__SpecCon
 15A6:11C9       L__GorszeBoMniejszePol__SpecCon
 4375:0159       L__GorszeBoMniejsze__Print
 15A6:120A       L__GorszeBoMniejsze__SpecConv
 15A6:1237       L__GorszeBoWieksze__SpecConv
 2D17:128C       L__HandleEvent__GList
 2BC6:00DF       L__HideConditionally__MMMouse
 2BC6:0BDE       L__HideCursor__BezWyszeregowani
 2BC6:0BDE       L__HideCursor__MMMouse
 4892:002B       L__HideCursor__Mouse
 4948:00D6       L__HighNibble__BitByteOps
 1802:06FC       L__IBMIntHandler__Monitor__Time
 0284:0881       L__ILSDecFch__Tune
 0284:0849       L__ILSIncFch__Tune
 0284:07EE       L__ILSfrqString__Tune
 3ACA:014A       L__INCLine__DisResUtilities
 2D17:0A11       L__Idx2Str__GList
 3B03:0A31       L__IleEventow__PiszEventy
 29FE:0242       L__Ile__Obloty
 0284:093F       L__IncADFFch__Tune
 15A6:189B       L__IncRound__SpecConv
 1F92:00BB       L__InfoBeep__GrafUtil
 1F92:0003       L__Info__GrafUtil
 2990:0072       L__Info__MsgBox
 3C6A:050F       L__IniDataOrbit__N_DAcquizition
 3C6A:0537       L__IniDataRadial__N_DAcquizitio
 1FB5:0A91       L__IniData__N_Odb
 41C8:03C2       L__IniSkale__N_Slupek
 3905:066E       L__IniSkale__PI_ScrUtility
 27E2:082D       L__Inicjacja__GPS_TRIMBLE
 26C2:0DCE       L__Inicjacja__GPS_nov
 4011:0636       L__InicjujOpisStanuLuku__Marks
 4375:03D2       L__InitA__Print
 4375:0EC8       L__InitAll__Print
 4375:0821       L__InitB__Print
 003C:176C       L__InitC__MANAGER
 20C3:024F       L__InitCont2Filters__FIltr1St
 20C3:0598       L__InitContBCoun__FIltr1St
 20C3:050E       L__InitContB__FIltr1St
 20C3:00A2       L__InitCont__FIltr1St
 3A5C:02B3       L__InitFlagErr__FlagAnal
 29FE:1A87       L__InitListaUrzadzen__Obloty
 0A14:1952       L__InitLot__N_Oblot
 20C3:0712       L__InitMemFIntContiner__FIltr1S
 20C3:0689       L__InitMemFiltr__FIltr1St
 03E0:17B0       L__InitPilotEventId__ScannerI
 14F4:0046       L__InitPomiar__PI_Pomiar
 0FA8:03EF       L__InitPomiar__Pomiar
 422E:11C0       L__InitPort__DrawEpson
 003C:1782       L__InitS__MANAGER
 057E:0098       L__InitSignalDsc__CommonTypes
 41C8:04B7       L__InitSlupek__N_Slupek
 0591:05DD       L__InitTeoEventId__TheodolitRea
 3905:0613       L__Init_ScrUtility__PI_ScrUtili
 3C27:01C2       L__Init__N_results
 1104:1D6D       L__Init__Screen
 3E56:01B0       L__Init__Semafory
 057E:00B7       L__Init_flgTab__CommonTypes
 2BC6:0AC3       L__InsertEvent__BezPrzerwanOdMy
 2BC6:0AC3       L__InsertEvent__MMMouse
 4765:0096       L__Insert__Strings
 08E4:0E8F       L__InspekcjaEP__N_Inspekcja
 29FE:1042       L__InspekcjeNowyWpis__Obloty
 17A2:0256       L__InstEpilogueHnd__Monitor__So
 17A2:0256       L__InstEpilogueHnd__SoftIntHand
 17A2:009A       L__InstPrologueHnd__Monitor__So
 17A2:009A       L__InstPrologueHnd__SoftIntHand
 4860:0000       L__InstallDynMem__DynMem
 4854:006A       L__InstallHandler__Devices
 46FB:0000       L__InstallHandler__RTSDevice
 1746:03A3       L__InstallHeap__Storage
 4676:007B       L__InstallInitProc__RTSMain
 003C:1815       L__InstallTermProc__MANAGER
 4676:0001       L__InstallTermProc__RTSMain
 15A6:0A8D       L__Int1000Str__SpecConv
 15A6:0535       L__Int100StrCalk__SpecConv
 15A6:0411       L__Int100Str__SpecConv
 15A6:025D       L__Int10Str__SpecConv
 15A6:1948       L__Int2Card__SpecConv
 35B3:1F64       L__Int2Real__Wykres
 15A6:165C       L__Int2StrCntr__SpecConv
 15A6:01ED       L__Int2Str__SpecConv
 15A6:078F       L__Int500Str__SpecConv
 4796:01B9       L__IntToString__NumberConversio
 1F73:0058       L__Intersection__GrafTypes
 1B86:0593       L__InvertW__Graphics
 1B86:0593       L__InvertW__InternalMonitor__Gr
 422E:120D       L__IsAborted__DrawEpson
 2F8D:17AC       L__IsBusy__Dialog
 422E:0322       L__IsDrawn__DrawEpson
 1F73:014B       L__IsEqual__GrafTypes
 2BC6:018A       L__IsHidden__MMMouse
 1F73:0002       L__IsIntersect__GrafTypes
 382A:0039       L__IsValid__XMSTable
 29FE:0A4B       L__KasujPodkartoteke__Obloty
 29FE:068A       L__Kasuj__Obloty
 213C:0AEF       L__Kat2Geo__GeoArithmetic
 18CE:03F9       L__KbdAck__Messages
 18CE:0405       L__KbdDsp__Messages
 1A67:05B8       L__KbdScan__ShortCuts
 4966:0002       L__KeyPressed__Keyboard
 1A67:0002       L__KeyPressed__ShortCuts
 4909:00D7       L__KeyPressed__Termbase
 48EC:0002       L__KeyPressed__Terminal
 1A67:0002       L__KeyPressed__monitor__ShortCu
 3123:03DC       L__Key__InpLine
 2D17:18E1       L__KillContents__GList
 3123:07C4       L__KillFocus__InpLine
 2F8D:0E94       L__KlawiszShiftTab__Dialog
 2F8D:0D8A       L__KlawiszSpacji__Dialog
 2F8D:0E12       L__KlawiszTab__Dialog
 26C2:014D       L__KopijZnakZTeo__GPS_nov
 29FE:15DB       L__KopiujInspekcje__Obloty
 29FE:13F8       L__KopiujPodkartoteke__Obloty
 0C32:19D4       L__KopiujWszystkiePliki__Files
 07DF:097C       L__KopiujWszystkiePliki__N_File
 0C32:016F       L__Kopiuj__Files
 1104:0F7E       L__KursorLewoBP__Dialog__Screen
 1104:0BC1       L__KursorLewoButton__Dialog__Sc
 1104:0D49       L__KursorOnOffBP__Dialog__Scree
 1104:0F54       L__KursorPrawoBP__Dialog__Scree
 1104:0BDA       L__KursorPrawoPar__Dialog__Scre
 1AE1:0389       L__Length__FIO
 4765:0000       L__Length__Strings
 35B3:1F01       L__LessCard__Wykres
 35B3:1EE5       L__LessInt__Wykres
 2D17:0B6F       L__LiczbaElementow__GList
 4892:0194       L__LightPenOff__Mouse
 4892:0188       L__LightPenOn__Mouse
 1E04:0B20       L__LineS__HiLevGraf
 1E04:1234       L__LineTo__HiLevGraf
 422E:06FE       L__Line__DrawEpson
 1E04:0AF4       L__Line__HiLevGraf
 0C32:1BE4       L__LoadAResult__Files
 1E04:03A5       L__LoadDIB__HiLevGraf
 0C32:0CB2       L__LoadData__Files
 07DF:0532       L__LoadData__N_Files
 1522:0002       L__LoadData__PI_ArchDate
 3860:0519       L__LoadDistEvents__EventsMng
 03E0:1725       L__LocationsTogether__ScannerI
 4796:01FE       L__LongIntToString__NumberConve
 3FC0:0002       L__LookupM__Kl_FGenerators
 22DC:0F88       L__Lookup__Kalibracja
 4948:00E6       L__LowNibble__BitByteOps
 3D5D:0E86       L__MakeRaport__N_Print
 1B86:000B       L__MaxHor__Graphics
 1B86:0014       L__MaxVer__Graphics
 422E:00E9       L__MaxX__DrawEpson
 422E:00F8       L__MaxY__DrawEpson
 4375:01C3       L__MaxY__Print
 20C3:06B5       L__MemFiltrInt__FIltr1St
 20C3:0607       L__MemFiltr__FIltr1St
 3A5C:0513       L__MinPoczKonDis__FlagAnal
 3A5C:044F       L__MinPoczKonSig__FlagAnal
 1AE1:0510       L__MkDir__FIO
 422E:11A6       L__Mnoznik__DrawEpson
 2EAF:07E1       L__MouseHandler__Buttons
 2BC6:1031       L__MouseLoop__MMMouse
 1C99:008B       L__MoveExtMemBlock__XMS
 1F73:0100       L__MoveRect__GrafTypes
 1E04:121A       L__MoveTo__HiLevGraf
 15A6:1782       L__Mul__SpecConv
 0238:0029       L__MyErrorHand__ErrorMess
 41C8:0150       L__NapiszSygnaly__N_Slupek
 3905:0606       L__NapiszSygnaly__PI_ScrUtility
 3860:0252       L__NewConsoleEvent__EventsMng
 03E0:155E       L__NewDataAvailable__ScannerI
 3860:0037       L__NewEvent__EventsMng
 18CE:010B       L__NewMessage__Messages
 1802:0940       L__NewMetronome__Timer
 3860:01CF       L__NewPilotEvent__EventsMng
 3860:014C       L__NewTeoEvent__EventsMng
 1802:0A94       L__NewWatchdog__Timer
 0591:0ECB       L__NicNieRob__TheodolitRead
 2EAF:0B27       L__Nic__Buttons
 32D6:21D7       L__NilProc__DataCollect
 397C:0695       L__Nil__Slupek
 1E04:10F4       L__NoClip__HiLevGraf
 47FA:0032       L__NoSound__Sounds
 397C:065C       L__Nothing__Slupek
 003C:0A58       L__Notify__MANAGER
 003C:0A58       L__Notify__Scheduler__MANAGER
 40A5:0E6A       L__NoweCzesciOkregu__Polozenie
 08E4:0CEA       L__NowyOblot__N_Inspekcja
 4796:028D       L__NumToString__NumberConversio
 1FB5:0739       L__Oblicz__N_Odb
 08E4:0D39       L__OblotOK__N_Inspekcja
 45CB:037E       L__Odn__PrintCntroll
 45CB:0232       L__OkP__PrintCntroll
 0A14:03DC       L__Okrag_A__N_Oblot
 0A14:03FB       L__Okrag_B__N_Oblot
 22DC:0E16       L__OmnibearingV__Kalibracja
 0C32:27A8       L__OpenCommSigFName__Files
 07DF:0AEC       L__OpenFileRes__N_Files
 0C32:0638       L__OpenFiles__Files
 07DF:0214       L__OpenFiles__N_Files
 0C32:1096       L__OpenSignalFiles__Files
 07DF:07DE       L__OpenSignalFiles__N_Files
 422E:0670       L__Open__DrawEpson
 1AE1:0002       L__Open__FIO
 35B3:1330       L__OpisLog__Wykres
 1535:028E       L__OpisNadajnika__N_DataBase
 4375:0CF3       L__Opis__Print
 35B3:0B0C       L__Opis__Wykres
 0EEF:07AD       L__Orbit__N_CP_ControlProc
 422E:03D3       L__Out__DrawEpson
 2990:05C9       L__P0__MsgBox
 2990:05EA       L__P1__MsgBox
 45CB:03D5       L__P1__PrintCntroll
 2990:060B       L__P2__MsgBox
 45CB:03F6       L__P2__PrintCntroll
 2990:062C       L__P3__MsgBox
 147F:00C0       L__PWyjscieZProgramuBP__MouseMo
 147F:014D       L__PageDownBP__MouseMonitor__PI
 147F:00EF       L__PageUpBP__MouseMonitor__PI_A
 3B03:0D6B       L__PiszNaDrukarce__PiszEventy
 3B03:0B99       L__PiszNaEkranie__PiszEventy
 0A14:0498       L__PlayP__N_Oblot
 31FD:02E6       L__PodajFormat__CocpDsp
 422E:01C6       L__Point__DrawEpson
 1E04:117A       L__Point__HiLevGraf
 4375:0CBF       L__Point__Print
 34FD:0545       L__PokazKatyLotu__Mapa
 35B3:09B4       L__PokazWykres1__Wykres
 35B3:1B1F       L__PokazWykresNSLog__Wykres
 35B3:14E2       L__PokazWykresNS__Wykres
 35B3:256B       L__PokazWykresZXms__Wykres
 35B3:0758       L__PokazWykres__Wykres
 3C6A:05E2       L__PolV__N_DAcquizition
 0FA8:01F6       L__PolaryzacjaBP__Pomiar
 0FA8:0EC2       L__PomiarEP__Pomiar
 0A14:0770       L__PomiarP__N_Oblot
 1FB5:00F3       L__PoprawDane__N_Odb
 0A14:0A42       L__PoprawPromienA__N_Oblot
 0A14:0A65       L__PoprawPromienB__N_Oblot
 4765:0188       L__Pos__Strings
 2EAF:0AE2       L__PressRadio__Buttons
 4375:1998       L__PrintScreenProc__Print
 003C:1629       L__PriorityDecrease__MANAGER
 08E4:03F9       L__ProbujWstawicOblot__N_Inspek
 0A14:041A       L__Promien_A__N_Oblot
 0A14:0439       L__Promien_B__N_Oblot
 34FD:06B6       L__Promienie__Mapa
 40A5:1084       L__Promienie__Polozenie
 147F:011E       L__PrzelaczPomiaryBP__MouseMoni
 0FA8:013E       L__PrzelaczPomiaryBP__Pomiar
 382A:0142       L__PutElem__XMSTable
 1A67:003B       L__PutKeyStrokeIntoBuffer__Shor
 1A67:003B       L__PutKeyStrokeIntoBuffer__moni
 1C99:0011       L__QueryFreeExtMem__XMS
 15A6:0C58       L__RAngle100__SpecConv
 2D17:0E9F       L__RChoose__GList
 2D17:0D8F       L__RScrollDn__GList
 2D17:0C76       L__RScrollUp__GList
 0EEF:0329       L__Radial__N_CP_ControlProc
 2F8D:02EB       L__RadioBProc__Dialog
 0A14:04B8       L__RaportKoncowyP__N_Oblot
 0A14:0478       L__Raport_PROC__N_Oblot
 1A67:0104       L__Rd__ShortCuts
 1A67:0104       L__Rd__monitor__ShortCuts
 3F01:00BF       L__ReInitialize__ARINC
 48EC:010A       L__ReadAgain__Terminal
 0C32:1729       L__ReadAllSignals__Files
 07DF:0867       L__ReadAllSignals__N_Files
 0C32:2833       L__ReadCommSigFName__Files
 3F01:051B       L__ReadConfiguration__ARINC
 0C32:0240       L__ReadDef__Files
 1AE1:0346       L__ReadExt__FIO
 0C32:16EA       L__ReadFlgs__Files
 4892:013E       L__ReadMotionCounters__Mouse
 221A:063C       L__ReadOmniber__DGH_utils
 3F01:079E       L__ReadRXSlot__ARINC
 25BE:007D       L__ReadString__DigiRS
 48EC:0089       L__ReadString__Terminal
 3F01:0637       L__ReadTXSlot__ARINC
 221A:04A8       L__ReadValue__DGH_utils
 0C32:1685       L__ReadXref__Files
 069B:001A       L__Read_Nic__GPSRead
 069B:002D       L__Read_Nov__GPSRead
 069B:0177       L__Read_Trimble__GPSRead
 1AE1:0301       L__Read__FIO
 4966:0033       L__Read__Keyboard
 1A67:008B       L__Read__ShortCuts
 4909:0088       L__Read__Termbase
 48EC:000E       L__Read__Terminal
 1A67:008B       L__Read__monitor__ShortCuts
 0A14:08F7       L__RealCisnValid__N_Oblot
 25F0:06AC       L__RealToString__RealConversion
 003C:17E6       L__RecoveryTime__MANAGER
 3C6A:039B       L__RedrawMarksReq__N_DAcquiziti
 32D6:004E       L__RedrawReq__DataCollect
 3C6A:034C       L__RedrawReq__N_DAcquizition
 32D6:004E       L__RedrawReq__tablice__DataColl
 2F8D:17EF       L__Redraw__Dialog
 1104:03CA       L__RegionWyk1Button__Dialog__Sc
 1104:037F       L__RegionWyk1Event__Dialog__Scr
 1104:0464       L__RegionWyk2Button__Dialog__Sc
 1104:0419       L__RegionWyk2Event__Dialog__Scr
 1104:04FE       L__RegionWyk3Button__Dialog__Sc
 1104:04B3       L__RegionWyk3Event__Dialog__Scr
 1104:0323       L__RegionWykGButton__Dialog__Sc
 1104:02D8       L__RegionWykGEvent__Dialog__Scr
 2BC6:019E       L__RegisterRegion__MMMouse
 3E56:0120       L__Register__Semafory
 003C:1798       L__Release__MANAGER
 1746:0422       L__RemoveHeap__Storage
 003C:188B       L__RemoveTermProc__MANAGER
 1AE1:0614       L__Rename__FIO
 32D6:2002       L__ResetDataCollect__DataCollec
 32D6:1A69       L__ResetMarks_A__DataCollect
 32D6:1A86       L__ResetMarks_D__DataCollect
 1802:09B7       L__ResetMetronome__Timer
 1C99:00B2       L__ResizeExtMemBlock__XMS
 0FA8:0104       L__RestartBP__Pomiar
 3C6A:0092       L__Restart__Monitor__N_DAcquizi
 3C6A:0092       L__Restart__N_DAcquizition
 17A2:0041       L__RestoreEventHandler__SoftInt
 4854:004D       L__RestoreInterruptVector__Devi
 46FB:00FB       L__RestoreInterruptVector__RTSD
 1802:08B3       L__RestoreTimer__Monitor__Timer
 1AE1:056C       L__RmDir__FIO
 451E:070A       L__Roughness_AddSample__VORR_Av
 451E:0461       L__Roughness_ClearContainer__VO
 40A5:0E09       L__RresetCzesciOkregu__Polozeni
 003C:0892       L__SEND__MANAGER
 003C:0892       L__SEND__Scheduler__MANAGER
 03E0:0F36       L__SIMDATA__ScannerI
 003C:137C       L__STARTPROCESS__MANAGER
 32D6:1867       L__Samp2Dis__DataCollect
 32D6:1867       L__Samp2Dis__tablice__DataColle
 32D6:1968       L__Samp2Kat__DataCollect
 32D6:1968       L__Samp2Kat__tablice__DataColle
 32D6:0002       L__SampleNr__DataCollect
 32D6:0002       L__SampleNr__tablice__DataColle
 0C32:1D15       L__SaveAResult__Files
 3C27:0012       L__SaveAnRes__N_results
 0C32:09FD       L__SaveData__Files
 07DF:02B6       L__SaveData__N_Files
 3860:04AA       L__SaveDistEvents__EventsMng
 4854:002C       L__SaveInterruptVector__Devices
 46FB:00F6       L__SaveInterruptVector__RTSDevi
 22DC:2A2F       L__SaveSegmentTables__Kalibracj
 024D:00A7       L__SaveToDib__PrintScreen
 0A14:1A29       L__SciezkaDoKataloguOpisu__N_Ob
 1104:35A5       L__ScreenStart__Screen
 1AE1:026A       L__Seek__FIO
 4011:0806       L__SegZakonczony__Marks
 3123:0B2F       L__SetActive__InpLine
 1CFC:02BB       L__SetAnalogVal__DGHInterface
 1B86:0136       L__SetBank__Graphics
 1B86:0136       L__SetBank__InternalMonitor__Gr
 25BE:018F       L__SetBaudRate__DigiRS
 1CFC:0392       L__SetBinaryVal__DGHInterface
 4948:0018       L__SetBits__BitByteOps
 1104:190A       L__SetButtons__Screen
 0284:0998       L__SetCPFlags__Tune
 2D17:1860       L__SetContents__GList
 4892:005A       L__SetCursorPos__Mouse
 3123:09E5       L__SetCursor__InpLine
 22A5:021B       L__SetDate__Czas
 4854:0018       L__SetDeviceStatus__Devices
 46FB:00BE       L__SetDeviceStatus__RTSDevice
 422E:1193       L__SetDir__DrawEpson
 03E0:14C3       L__SetEvalPROC__ScannerI
 4892:0157       L__SetEventHandler__Mouse
 17A2:0002       L__SetEventHandler__SoftIntHand
 422E:085C       L__SetFont__DrawEpson
 4892:00FA       L__SetGraphicCursor__Mouse
 4892:00D2       L__SetHorizontalLimits__Mouse
 31FD:058F       L__SetIdleMsg__CocpDsp
 1E04:0AE1       L__SetLineStyle__HiLevGraf
 1CFC:04A0       L__SetMessage__DGHInterface
 4892:01A0       L__SetMickeysPerPixel__Mouse
 2D17:0002       L__SetNotificationProc__GList
 2BC6:02C7       L__SetOnTop__MMMouse
 1E04:0182       L__SetPaletteEntry__HiLevGraf
 2BC6:0780       L__SetParent__MMMouse
 2082:0012       L__SetPressure__AltInterface
 46FB:011F       L__SetPrioMask__RTSDevice
 2D17:1754       L__SetSelectionNotf__GList
 2D17:1772       L__SetSelection__GList
 4892:01CE       L__SetSpeedThreshold__Mouse
 4892:0127       L__SetTextCursor__Mouse
 422E:0849       L__SetTextMode__DrawEpson
 3123:02C9       L__SetText__InpLine
 22A5:01DA       L__SetTime__Czas
 4892:00E6       L__SetVerticalLimits__Mouse
 1B86:0703       L__SetWindow__Graphics
 1B86:0703       L__SetWindow__InternalMonitor__
 31F5:0002       L__Set__FCBS
 3E56:0002       L__Set__Semafory
 41C8:0092       L__ShowCursorDIB__N_Slupek
 3905:0035       L__ShowCursorDIB__PI_ScrUtility
 2BC6:0BB2       L__ShowCursor__BezWyszeregowani
 2BC6:0BB2       L__ShowCursor__MMMouse
 4892:001F       L__ShowCursor__Mouse
 1E04:0785       L__ShowDIB__HiLevGraf
 18CE:0265       L__ShowFirst__Messages
 41C8:0046       L__ShowScreenDIB__N_Slupek
 3905:0002       L__ShowScreenDIB__PI_ScrUtility
 0C32:246E       L__SigInterpolacja__Files
 03E0:0ACE       L__Sim_Alfa__ScannerI
 03E0:098F       L__Sim_Dis__ScannerI
 382A:0018       L__Size__XMSTable
 1104:0E5D       L__SkalaMinusBP__Dialog__Screen
 1104:0D66       L__SkalaPlusBP__Dialog__Screen
 29FE:0B98       L__SkasujInspekcje__Obloty
 29FE:078A       L__SkasujOblot__Obloty
 2D17:033D       L__SkasujWszystko__GList
 2D17:0387       L__Skasuj__GList
 2D17:1698       L__Sortowana__GList
 47FA:0002       L__Sound__Sounds
 0349:033B       L__Sprawdz__PI_Qcheck
 26A3:018D       L__Sqr__Math
 0FA8:00F4       L__StartBP__Pomiar
 0EEF:09A9       L__StartCPLoop__N_CP_ControlPro
 29FE:171F       L__StartInspection__Obloty
 34FD:0951       L__StartProcess__Mapa
 34FD:0951       L__StartProcess__monitor__Mapa
 1802:0AE2       L__StartProtectedOperation__Tim
 003C:17CC       L__StartTimeSlicing__MANAGER
 40A5:08FE       L__Start_Polozenie__Polozenie
 3C6A:055F       L__Start__N_DAcquizition
 1FB5:0A37       L__Start__N_Odb
 03E0:1588       L__Start__ScannerI
 0FA8:012E       L__StopBP__Pomiar
 0EEF:0A72       L__StopCPLoop__N_CP_ControlProc
 1802:0B56       L__StopProtectedOperation__Time
 40A5:0DD7       L__Stop_Polozenie__Polozenie
 3C6A:0034       L__Stop__Monitor__N_DAcquizitio
 3C6A:0034       L__Stop__N_DAcquizition
 03E0:1783       L__Stop__ScannerI
 4796:0522       L__StringToCard__NumberConversi
 4796:04BA       L__StringToInt__NumberConversio
 4796:0587       L__StringToLongInt__NumberConve
 4796:05B5       L__StringToNum__NumberConversio
 25F0:0052       L__StringToReal__RealConversion
 15A6:0F4F       L__SubAng360__SpecConv
 15A6:0DA7       L__SubAngle100__SpecConv
 15A6:180D       L__SubDis__SpecConv
 15A6:10B3       L__SubNormal__SpecConv
 15A6:18A9       L__SubWCheck__SpecConv
 15A6:17DA       L__Sub__SpecConv
 0C32:1F1C       L__SubstituteAngle100__Files
 3A5C:05D7       L__SumaDlugosciSig__FlagAnal
 4948:00F4       L__Swap__BitByteOps
 29FE:051E       L__SzczegolowyPlikOpisu__Obloty
 1802:092C       L__TInOneSecond__Timer
 0220:009C       L__TerminalProcedure__DOSEntry
 4676:068A       L__Terminate__RTSMain
 22A5:02AF       L__Terminator__Czas
 3860:087E       L__Terminator__EventsMng
 1AE1:08BA       L__Terminator__FIO
 1B86:1059       L__Terminator__Graphics
 003C:1973       L__Terminator__MANAGER
 2BC6:133C       L__Terminator__MMMouse
 1746:051E       L__Terminator__Storage
 1CB0:02F4       L__Terminator__XMSService
 0591:01B7       L__TheodolitView__TheodolitRead
 1B86:001D       L__Tryb__Graphics
 0284:014C       L__TuneADF__Tune
 0284:061B       L__TuneDMEforILS__Tune
 0284:05D9       L__TuneDMEforVOR__Tune
 0284:0409       L__TuneILS__Tune
 0284:065D       L__TuneVOR__Tune
 221A:0432       L__TurnOffADFSig__DGH_utils
 0284:009C       L__TurnOffADF__Tune
 221A:0366       L__TurnOffDMESig__DGH_utils
 221A:0002       L__TurnOffILSSig__DGH_utils
 221A:027A       L__TurnOffVORSig__DGH_utils
 0284:00F4       L__TurnOffVOR_ILS__Tune
 1CFC:00A0       L__TurnOff__DGHInterface
 221A:03E4       L__TurnOnADFSig__DGH_utils
 221A:02E8       L__TurnOnDMESig__DGH_utils
 221A:016E       L__TurnOnGSSig__DGH_utils
 221A:00D0       L__TurnOnLOCSig__DGH_utils
 221A:020C       L__TurnOnVORSig__DGH_utils
 1CFC:00F2       L__TurnOn__DGHInterface
 2F8D:0663       L__TworzDialog__Dialog
 3B03:0A53       L__TworzEventy__PiszEventy
 2D17:0028       L__TworzListe__GList
 4909:0127       L__UnAssignRead__Termbase
 4909:023E       L__UnAssignWrite__Termbase
 17A2:0517       L__UnInstallAllHandlers__Monito
 17A2:03FA       L__UnInstallHandler__Monitor__S
 17A2:03FA       L__UnInstallHandler__SoftIntHan
 4854:0080       L__UninstallHandler__Devices
 46FB:0058       L__UninstallHandler__RTSDevice
 2EAF:0790       L__UniversalKBD__Buttons
 2BC6:03E9       L__UnregisterRegion__MMMouse
 3E56:01FC       L__Unregister__Semafory
 41C8:00D0       L__UnverslVal__N_Slupek
 32D6:2171       L__UpdTab800__DataCollect
 40A5:0C2C       L__UpdateM__Polozenie
 3C6A:03C8       L__UpdateMarksOrbit__N_DAcquizi
 3C6A:0427       L__UpdateMarksRadial__N_DAcquiz
 3905:0538       L__UpdateSlupki__PI_ScrUtility
 3860:060A       L__UpdateStrefa__EventsMng
 1104:34A4       L__Update__Screen
 397C:058F       L__Update__Slupek
 45CB:0417       L__UstalSkalowanie__PrintCntrol
 31FD:0002       L__UstawFormat__CocpDsp
 29FE:01EB       L__UstawHomeDir__Obloty
 20C3:0082       L__UstawOkresImpulsowania__FIlt
 31FD:0315       L__UstawZmienne__CocpDsp
 2F8D:0B28       L__UsunDialog__Dialog
 2D17:04C1       L__UsunListe__GList
 08E4:03AA       L__UsunOblotP__N_Inspekcja
 08E4:030F       L__UsunOblot__N_Inspekcja
 0284:08FF       L__VORDecFch__Tune
 0284:08B9       L__VORIncFch__Tune
 45CB:0248       L__ValidPodz__PrintCntroll
 0A14:04D8       L__View_PROC__N_Oblot
 003C:0BEF       L__WAITC__MANAGER
 003C:0BEF       L__WAITC__Scheduler__MANAGER
 003C:0AFD       L__WAITS__MANAGER
 003C:0AFD       L__WAITS__Scheduler__MANAGER
 1802:0309       L__WaitBefProtOper__Monitor__Ti
 1802:0309       L__WaitBefProtOper__Timer
 1CFC:005A       L__WaitForNewData__DGHInterface
 1802:03B8       L__WaitMetronomeBefProtOper__Mo
 1802:03B8       L__WaitMetronomeBefProtOper__Ti
 1802:043F       L__WaitMetronome__Monitor__Time
 1802:043F       L__WaitMetronome__Timer
 1802:0277       L__Wait__Monitor__Timer
 1802:0277       L__Wait__Timer
 2990:0017       L__Warn__MsgBox
 31FD:0C01       L__WatchDogProcess__CocpDsp
 069B:0309       L__WatchDog__GPSRead
 0591:0DF1       L__WatchDog__TheodolitRead
 4220:0069       L__WorseBGreater__WorseBecause
 4220:003E       L__WorseBLessDis__WorseBecause
 4220:0002       L__WorseBLess__WorseBecause
 1E04:144C       L__Wr2StrXY__HiLevGraf
 1E04:1504       L__Wr2fStrXY__HiLevGraf
 3ACA:02AF       L__WrF_TablicaOdci__DisResUtili
 4375:1799       L__WrF_TablicaOdci__Print
 3ACA:0170       L__WrFlagsTableWHeading__DisRes
 4375:15A6       L__WrFlagsTableWHeading__Print
 3ACA:023C       L__WrFlagsTable__DisResUtilitie
 4375:16BA       L__WrFlagsTable__Print
 4375:0360       L__WrLn__Print
 4375:0390       L__WrPrnLn__Print
 4375:02A2       L__WrPrn__Print
 422E:1253       L__WrProc__DrawEpson
 3ACA:00F4       L__WrSPlus__DisResUtilities
 3ACA:00BE       L__WrS__DisResUtilities
 1E04:138A       L__WrStrXY__HiLevGraf
 1E04:12D2       L__WrStr__HiLevGraf
 4375:0232       L__Wr__Print
 3F01:04B2       L__WriteCardMode__ARINC
 07DF:0BDB       L__WriteFileRes__N_Files
 3F01:03F4       L__WriteKillTime__ARINC
 48EC:012C       L__WriteLn__Terminal
 2872:06C6       L__WritePrivateProfileString__I
 25BE:00F3       L__WriteString__DigiRS
 48EC:013B       L__WriteString__Terminal
 3F01:0173       L__WriteTXChannel__ARINC
 3F01:026F       L__WriteTXData__ARINC
 3F01:01F1       L__WriteTXLabel__ARINC
 3F01:00FF       L__WriteTXParity__ARINC
 3F01:032A       L__WriteTXRate__ARINC
 3ACA:000A       L__WriteTab__DisResUtilities
 3A05:00C2       L__WriteTab__N_DisResults
 22A5:0128       L__WriteTime__Czas
 495C:0002       L__Write__Display
 1AE1:02BC       L__Write__FIO
 4909:01F1       L__Write__Termbase
 48EC:011B       L__Write__Terminal
 1CFC:0CCB       L__Writer__DGHInterface
 2F8D:002D       L__WstawButton__Dialog
 2D17:08C9       L__WstawDoListy__GList
 2F8D:03EC       L__WstawInpLine__Dialog
 2F8D:0518       L__WstawListe__Dialog
 2F8D:0156       L__WstawRadioButton__Dialog
 2D17:100F       L__Wybor__GList
 3905:0392       L__WykSlup__PI_ScrUtility
 1104:0B48       L__WykrEvent__Dialog__Screen
 397C:0002       L__WykresSlupkowy__Slupek
 29FE:041D       L__WymInspekcjeDlaUrz__Obloty
 08E4:0687       L__WymienPasujaceObloty__N_Insp
 29FE:04E4       L__WymienWszystkiePasujace__Obl
 4375:183C       L__WypiszStrefy__Print
 3D5D:02EA       L__WypiszTabBledowNamiaru__N_Pr
 1FB5:0A74       L__Wznow__N_Odb
 1C99:0000       L__XmsInstalled__XMS
 15A6:197A       L__ZaokraglicDo500__SpecConv
 147F:0091       L__ZapamietajBP__MouseMonitor__
 0A14:1EAA       L__Zapisz__N_Oblot
 1FB5:0A57       L__Zatrzymaj__N_Odb
 29FE:06B2       L__ZmienISkasuj__Obloty
 2D17:0AC4       L__ZmienListe__GList
 08E4:040F       L__ZmienOblot__N_Inspekcja
 4375:12D3       L__ZnacznikiOdleglosci__Print
 29FE:0FF8       L__ZnajdzInspekcje__Obloty
 1B86:0CF3       L___Wr16StrXY__Graphics
 1B86:0CF3       L___Wr16StrXY__InternalMonitor_
 1B86:0DC9       L___Wr2StrXY__Graphics
 1B86:0DC9       L___Wr2StrXY__InternalMonitor__
 1B86:0F13       L___Wr2fStrXY__Graphics
 1B86:0F13       L___Wr2fStrXY__InternalMonitor_
 1B86:08E1       L___WrStrXY__Graphics
 1B86:08E1       L___WrStrXY__InternalMonitor__G
 0C32:1F61       L__addAngle100__Files
 0C32:203F       L__addNormal__Files
 49A9:04CA       L__arctan__MathLib0
 17A2:0067       L__checkBreak__SoftIntHandlingM
 49A9:03A5       L__cos__MathLib0
 15A6:14EA       L__entierCheck__SpecConv
 49A9:05BE       L__entier__MathLib0
 15A6:15A6       L__entier__SpecConv
 49A9:0098       L__exp__MathLib0
 26C2:109C       L__gpzdaOff__GPS_nov
 2D17:0B8E       L__kbHandler__GList
 49A9:0209       L__ln__MathLib0
 4375:01DE       L__log__Print
 0220:0002       L__onEntryHandler__DOSEntry
 0220:004F       L__onExitHandler__DOSEntry
 49A9:05AC       L__real__MathLib0
 49A9:0251       L__sin__MathLib0
 1919:1383       L__sprintf2__StdIO
 1919:11F3       L__sprintf3__StdIO
 1919:0D80       L__sprintf4__StdIO
 1919:0F81       L__sprintf5__StdIO
 1919:037B       L__sprintf__StdIO
 49A9:002A       L__sqrt__MathLib0
 0C32:1FCB       L__subNormal__Files
 4F16:0062       L_day__GPS_TRIMBLE
 4F16:0049       L_epe__GPS_TRIMBLE
 4F16:0066       L_hour__GPS_TRIMBLE
 4F16:0068       L_min__GPS_TRIMBLE
 4F16:0060       L_month__GPS_TRIMBLE
 4F16:006A       L_sec__GPS_TRIMBLE
 4F16:0064       L_year__GPS_TRIMBLE
 4AE7:0016       LastCreated__MANAGER
 4CA3:0027       LastDTidx__Screen
 4F1E:507D       LastDir__Ini
 4CA3:002E       LastEventIDX__Screen
 4AE7:021C       LastMask__MANAGER
 6779:0784       LastPosition__DrawEpson
 4DA5:000A       LastPosition__HiLevGraf
 5455:0004       LastX__MMMouse
 5455:0006       LastY__MMMouse
 4B36:0013       Last_Diffmode__GPSRead
 4B36:001C       Last_EPE__GPSRead
 4B36:0003       Last_Gdop__GPSRead
 4B36:0005       Last_NumberOfSattelites__GPSRea
 4B36:0007       Last_polGeo__GPSRead
 4B36:0014       Last_tog__GPSRead
 4DB4:004B       LiczBladNam__N_Odb
 5498:0000       ListaDlg__Dialog
 4C41:0011       ListaLokalizacjiBAK__N_Inspekcj
 4C41:000D       ListaLokalizacji__N_Inspekcja
 4C41:0009       ListaOblotowBAK__N_Inspekcja
 4C41:0005       ListaOblotow__N_Inspekcja
 5496:0004       Lista__GList
 4C43:0031       Lista__N_Oblot
 4711:006F       Listen__RTSPriority
 4DC9:0910       LocDev_delay__Kalibracja
 4DC9:0920       LocPrcMod_delay__Kalibracja
 4666:0032       LongIntegerOvf__RTSError
 4AE7:000E       LongestProcess__MANAGER
 4676:0683       M2Halt__RTSMain
 4CC8:0004       MDispl__Messages
 4CC8:0000       MList__Messages
 5455:03F5       MSemafor__MMMouse
 6751:011F       MarkerShapes__Polozenie
 6779:0786       Masks__DrawEpson
 4AE7:000A       MaxNumOfReady__MANAGER
 4AE7:0126       MaxRecTime__MANAGER
 4AE7:000C       MaxRunTime__MANAGER
 6751:0008       MaxVal__Polozenie
 4CC8:0008       MessageSound__Messages
 4DC9:0960       MkrAgc_delay__Kalibracja
 6779:07A4       MnX__DrawEpson
 6779:07A6       MnY__DrawEpson
 4F1E:50E1       Modified__Ini
 4711:0000       MonEntry__RTSPriority
 4711:0043       MonExit__RTSPriority
 5455:0058       MonitoCheck__BezPrzerwanOdMyszy
 4A5A:0036       MonitorExitProc__RTSMonExit
 5455:005A       MouseEvent__BezPrzerwanOdMyszy_
 673D:0071       NAVG_Audio_flg__N_Print
 673D:0073       NAVZ_Audio_flg__N_Print
 6751:011B       NCO__Polozenie
 4CBC:003C       NDB_O_czuloscCP__N_DataBase
 4CBC:003A       NDB_O_czuloscWP__N_DataBase
 4CBC:0040       NDB_R_czuloscCP__N_DataBase
 4CBC:003E       NDB_R_czuloscWP__N_DataBase
 465A:0000       NMIServer
 542F:00D5       NUrzadzDlaDopasuj__Obloty
 0FA8:0B92       N__AlfaRefInfo__PomiarEP__Pomia
 26C2:05E2       N__An_Frame_DOPA__GetFrame__GPS
 26C2:0A2D       N__An_Frame_GPGGA__GetFrame__GP
 26C2:0B25       N__An_Frame_GPVTG__GetFrame__GP
 26C2:0C2E       N__An_Frame_GPZDA__GetFrame__GP
 0591:0107       N__Angle360__TheodolitView__The
 0A14:11BC       N__AssignButt__InitLot__N_Oblot
 07DF:0CBD       N__AssignName__InitLocals__N_Fi
 0591:086F       N__AssignRes__Analizer__Theodol
 35B3:0B8B       N__AutoFormat__OpisLog__Wykres
 1919:031F       N__BuildNumber__sprintf__StdIO
 2BC6:08F0       N__Button2Ev__GetEvent__BezPrze
 1CFC:06B0       N__CHKSRight__Reader__Writer__D
 3CD4:011E       N__ClearAllCont__DoAnaliza__Ana
 0284:052E       N__ConvertFrqTOControlWord__Tun
 26C2:0193       N__ConvertHexChar__ReadGPS__Get
 26C2:0929       N__ConvertStrToWspGeo__GetWspGe
 0591:097D       N__CountCrc__Analizer__Theodoli
 34FD:0260       N__CountMaxDist__resolveSituati
 451E:007A       N__Count__Bend_AddSample__VORR_
 1802:057E       N__Count__IBMIntHandler__Monito
 451E:0511       N__Count__Roughness_AddSample__
 1104:0FD7       N__CurrCursorMode__RuszKursor__
 1104:1236       N__CurrDistance__OpisDla__InitW
 0FA8:0C3F       N__DataLosInfo__PomiarEP__Pomia
 2EAF:043F       N__Dec__DrawInter__Buttons
 1104:1B5E       N__Define__InitSlupki__Screen
 26C2:0426       N__DekomozycjaRamki__GetFrame__
 0FA8:0BD2       N__DeltaRefInfo__PomiarEP__Pomi
 0FA8:0B16       N__DisposeButtons__Done__Pomiar
 1104:3664       N__DisposeButtons__Done__Screen
 3CD4:01AB       N__DoAnaliza__Analiza__N_Count
 0FA8:0B84       N__Done__PomiarEP__Pomiar
 1104:20D1       N__DrawEvent__ShowMarks__Update
 29FE:0DD3       N__ExistDIR__FreeSlot__Obloty
 2F8D:0F3F       N__Expand__Aktywizuj__Dialog
 0A14:1839       N__FillData__InitLot__N_Oblot
 397C:0317       N__FillR__Odswiez__Update__Slup
 03E0:1450       N__FindFree__SetEvalPROC__Scann
 03E0:13C4       N__FindIt__SetEvalPROC__Scanner
 40A5:0120       N__FlipX__InitMarkers__Polozeni
 40A5:005A       N__FlipY__InitMarkers__Polozeni
 26C2:0538       N__GetCardinal__GetFrame__GPS_n
 1535:0597       N__GetCardinal__LoadProgramPar_
 1A67:056C       N__GetChar__KbdScan__ShortCuts
 3CD4:008A       N__GetEvent__DoAnaliza__Analiza
 0FA8:0767       N__GetEvent__PomiarEP__Pomiar
 34FD:0151       N__GetGPS__resolveSituation__Ma
 26C2:058D       N__GetInteger__GetFrame__GPS_no
 0591:09A8       N__GetNum__Analizer__TheodolitR
 1919:0022       N__GetNum__sprintf__StdIO
 26C2:04F0       N__GetReal__GetFrame__GPS_nov
 1535:0147       N__GetStr__OpisNadajnika__N_Dat
 03E0:06AF       N__GetTeo__GetAndCountTEO__Scan
 26C2:09E3       N__GetWspGeo__An_Frame_GPGGA__G
 35B3:1FA0       N__GetX__PokazWykresZXms__Wykre
 35B3:1FC9       N__GetY__PokazWykresZXms__Wykre
 1CFC:065C       N__HexDigit__CHKSRight__Reader_
 0FA8:08A5       N__InitButtony__PomiarEP__Pomia
 0A14:0AB3       N__InitDefault__InitLot__N_Oblo
 3C27:00D6       N__Init_A_OpisOdcinka__Init__N_
 1919:00C8       N__IntConv__sprintf__StdIO
 3CD4:06AF       N__Interpolacja__Analiza__N_Cou
 26C2:06A2       N__Isolate__ConvertStrToWspGeo_
 27E2:01D7       N__Isolate__ReadG__GetFrame__GP
 29FE:09B5       N__KasujPlik__KasujPodkartoteke
 1104:35AE       N__KasujSlupki__Done__Screen
 2EAF:0A36       N__KillButton__DisposeButton__B
 1A67:0691       N__Kill__DeleteShortCut__ShortC
 397C:02EE       N__Kolor__Update__Slupek
 29FE:11EB       N__KopiujPlik__KopiujPodkartote
 40A5:0A88       N__LL__DrawNCO__Polozenie
 0A14:0D58       N__LecianePromienie__InitLot__N
 35B3:1024       N__LineH__OpisLog__Wykres
 35B3:0C63       N__LineV__OpisLog__Wykres
 22DC:17D7       N__LoadChannel__LoadSegmentTabl
 22DC:15EC       N__LoadReal__LoadSegmentTables_
 22DC:1719       N__LoadSegment__LoadChannel__Lo
 22DC:1673       N__LoadTable__LoadSegmentTables
 22DC:14D4       N__LoadValue__LoadSegmentTables
 22DC:09FA       N__Lookup__OmnibearingV__Kalibr
 0A14:10FC       N__Make2__AssignButt__InitLot__
 1104:2CA3       N__MarkDraw__WskazWykresy__Upda
 34FD:0696       N__Min__Promienie__Mapa
 1104:2D80       N__NapiszGPSFlg__NapiszGPS__Upd
 1104:2DE6       N__NapiszGPS__UpdateNapisy__Upd
 1104:30F6       N__NapiszTEO__UpdateNapisy__Upd
 0FA8:06EF       N__NastepnyStan__GetEvent__Pomi
 03E0:0E64       N__OdlegWgPredk__SIMDATA__Scann
 397C:036C       N__Odswiez__Update__Slupek
 1E04:030F       N__OpenF__LoadDIB__HiLevGraf
 1104:13D2       N__OpisDla__InitWykr__Dialog__S
 0A14:17AD       N__Or__FillData__InitLot__N_Obl
 0EEF:05D4       N__OrbitDirection__Orbit__N_CP_
 27E2:0509       N__PodstawWyniki__GetFrame__GPS
 0FA8:05EF       N__PoprawnieUstawButtony__Pomia
 31FD:077A       N__PozWskazowki__SetLOC_G_SCP__
 0A14:16FE       N__Pr__FillData__InitLot__N_Obl
 0A14:1C19       N__ProcIdentifier__Zapisz__N_Ob
 0FA8:0C88       N__PrologAnalyse__PomiarEP__Pom
 0EEF:0149       N__RadialDirection__Radial__N_C
 0591:0915       N__Rd__Analizer__TheodolitRead
 03E0:0DD2       N__ReadALT__SIMDATA__ScannerI
 221A:0480       N__ReadAnalog__ReadValue__DGH_u
 03E0:0C76       N__ReadDME__SIMDATA__ScannerI
 27E2:006A       N__ReadEOL__GetFrame__GPS_TRIMB
 27E2:00C9       N__ReadGPS__GetFrame__GPS_TRIMB
 26C2:0200       N__ReadGPS__GetFrame__GPS_nov
 27E2:0306       N__ReadG__GetFrame__GPS_TRIMBLE
 27E2:0021       N__ReadPacketHead__GetFrame__GP
 1FB5:0362       N__ReadRec__Oblicz__N_Odb
 1CFC:07A4       N__Reader__Writer__DGHInterface
 1104:0BF3       N__RedrawRqs__Xchg__Dialog__Scr
 2EAF:0052       N__Remove__RemoveToKill__MONITO
 1A67:01A0       N__Remove__RemoveToKill__monito
 40A5:0226       N__Rot90__InitMarkers__Polozeni
 40A5:0EEE       N__Rysuj__Promienie__Polozenie
 22DC:243E       N__SaveChannel__SaveSegmentTabl
 0A14:0FEE       N__SaveDefault__InitLot__N_Oblo
 22DC:2293       N__SaveReal__SaveSegmentTables_
 22DC:23A0       N__SaveSegment__SaveChannel__Sa
 22DC:230E       N__SaveTable__SaveSegmentTables
 22DC:219B       N__SaveValue__SaveSegmentTables
 0FA8:015F       N__Sek2__PolaryzacjaBP__Pomiar
 31FD:05AF       N__SendMsg__ControlLoop__CocpDs
 08E4:0DE5       N__SetDefInsp__InspekcjaEP__N_I
 31FD:0823       N__SetLOC_G_SCP__ControlLoop__C
 1104:1AFD       N__ShowCurrDIB__InitSlupki__Scr
 1104:22B6       N__ShowMarks__UpdateWykr__Updat
 32D6:034B       N__ShrinkX__Tablice800__tablice
 32D6:0219       N__Shrink__Tablice800__tablice_
 4011:010A       N__Side__AngAddSample__Marks
 4011:0423       N__Side__DisAddSample__Marks
 35B3:17B3       N__SkalX__PokazWykresNSLog__Wyk
 35B3:222D       N__SkalX__PokazWykresZXms__Wykr
 35B3:062B       N__SkalX__PokazWykres__Wykres
 35B3:0101       N__SkalY__Draw__Wykres
 35B3:0853       N__SkalY__PokazWykres1__Wykres
 35B3:1546       N__SkalY__PokazWykresNSLog__Wyk
 35B3:1FF2       N__SkalY__PokazWykresZXms__Wykr
 35B3:052F       N__SkalY__PokazWykres__Wykres
 397C:0229       N__Skala__Update__Slupek
 22DC:143A       N__Status__Error__Kalibracja
 1919:023F       N__StripSpaces__sprintf__StdIO
 0349:00F2       N__Tlo__Sprawdz__PI_Qcheck
 2872:018F       N__ToEOL__LookForEntry__Ini
 0284:0303       N__TuneGS__TuneILS__Tune
 03E0:0C27       N__TurnDGH_ON__SIMDATA__Scanner
 0C32:1965       N__TworzK__KopiujWszystkiePliki
 27E2:03CB       N__TypGPS__GetFrame__GPS_TRIMBL
 32D6:20FA       N__UpdateAlfaMarks__UpdTab800__
 32D6:2092       N__UpdateDistMarks__UpdTab800__
 32D6:0152       N__UpdateNR__Tablice800__tablic
 1104:3357       N__UpdateNapisy__Update__Screen
 1104:2485       N__UpdateWykr__Update__Screen
 3A5C:0010       N__UsunNajmniejszy__FlagErr_Ana
 2F8D:0A79       N__UsunPola__UsunDialog__Dialog
 2D17:02FB       N__UsunStr__SkasujWszystko__GLi
 0349:01C4       N__WrInt__Sprawdz__PI_Qcheck
 0349:023F       N__WrPrc__Sprawdz__PI_Qcheck
 3D5D:0395       N__WrSignalDesc__OpisPomiaru__N
 2D17:107D       N__WrStr__Draw__GList
 3B03:0AA6       N__WrStr__PiszNaEkranie__PiszEv
 0349:015B       N__WrStr__Sprawdz__PI_Qcheck
 3A05:029C       N__WriteMod__DispResults__N_Dis
 1104:1F5F       N__WriteText__ShowMarks__Update
 1104:2D08       N__WskazWykresy__Update__Screen
 27E2:016D       N__WspGeoPoprawne__ReadG__GetFr
 26C2:0B90       N__Wydziel__An_Frame_GPZDA__Get
 27E2:043F       N__Wydziel__GetFrame__GPS_TRIMB
 3905:033E       N__WykSlupB__WykSlup__PI_ScrUti
 3905:0368       N__WykSlupF__WykSlup__PI_ScrUti
 3A05:0234       N__WypiszTabBledowNamiaru__Writ
 40A5:0959       N__XY__LL__DrawNCO__Polozenie
 0A14:1C81       N__Zaznacz__Zapisz__N_Oblot
 3B03:038B       N__Znacznik__Decode__PiszEventy
 1104:2201       N__ZwKrokOpisuOsi__ShowMarks__U
 0EEF:057C       N__checkDir__OrbitDirection__Or
 0EEF:009B       N__checkDir__RadialDirection__R
 25F0:04DF       N__convDigit__RealToString__Rea
 25F0:0572       N__convertnumber__RealToString_
 25F0:05EA       N__exp10__RealToString__RealCon
 4011:0050       N__findidx__AngAddSample__Marks
 4011:037F       N__findidx__DisAddSample__Marks
 4011:0670       N__findidx__SegZakonczony__Mark
 31FD:090E       N__pozycjaStrzalki__ControlLoop
 451E:04E1       N__sqr__Count__Roughness_AddSam
 0EEF:054F       N__succ__OrbitDirection__Orbit_
 0EEF:006E       N__succ__RadialDirection__Radia
 26C2:03B1       N__szukaniePola__GetFrame__GPS_
 4C47:013F       Nadajnik1__CommonData
 4C47:0140       Nadajnik2__CommonData
 4CBC:0000       NadajnikNDB__N_DataBase
 4C32:00A4       NameRes__N_Files
 4C5D:00B0       NamesAlfa__Files
 4C5D:0008       NamesAn__Files
 4C5D:00E8       NamesComm__Files
 4C5D:0040       NamesDist__Files
 4C32:0004       NamesSig__N_Files
 4C99:006E       NapisB_01__Pomiar
 6751:0020       Narysowany__Polozenie
 4C47:0052       NazwaOblotu__CommonData
 542F:0000       NazwaPlikuIni__Obloty
 4C47:007B       NazwaPlikuOpisu__CommonData
 542F:015B       NazwaPlikuZOpisem__Obloty
 673D:0051       NazwaPliku__N_Print
 4C47:0000       NazwaUrzadz1__CommonData
 4C47:0029       NazwaUrzadz2__CommonData
 471D:0000       NewProcess__RTSCoroutine
 4CA3:002D       NextRedraw__Screen
 4B30:0053       Nie_mozna_uruchomic_kanalu_Teod
 4AE7:0008       NuOfErrorProc__MANAGER
 4AE7:0120       NuOfReady__MANAGER
 4CCA:000B       NumEl__monitor__ShortCuts
 4AE7:001A       NumberOfProc__MANAGER
 4CC2:0000       OCCUPED__Storage
 4B36:0000       ObecnyStan__GPSRead
 673D:0070       Odbiornik__N_Print
 6807:0007       OdnB__PrintCntroll
 4C47:013D       OdnDlaPomBledu__CommonData
 4C47:013E       OdnDlaPomOdl__CommonData
 4DC0:0008       OdniesienieMtx__GeoArithmetic
 6807:0006       Odniesienie__PrintCntroll
 4CA3:007D       OileKursor__Dialog__Screen
 5455:005E       OldButtons__BezPrzerwanOdMyszy_
 4DC9:0968       OmnibearingProgi__Kalibracja
 4DC9:0948       Omnibearing_delay__Kalibracja
 4C43:001D       OrbitaL__N_Oblot
 4C47:0144       Orbita__CommonData
 4C41:0015       OstatniOblot__N_Inspekcja
 4DA3:0014       Ostrzezenie_ze_za_dlugo__DGHInt
 4A5A:0002       PSPAddress__RTSMain
 542D:0006       P_A__MsgBox
 46EE:004D       ParCopy__RTSLanguage
 4DC9:0AF8       Par__Kalibracja
 4DA5:0018       Path__HiLevGraf
 4CC6:000C       PeriodCount__Monitor__Timer
 4CC6:000A       Period__Monitor__Timer
 4CC6:000E       PeriodicProcedure__Monitor__Tim
 6386:0000       PoczatekStrony__PiszEventy
 62BC:0052       PokazywacPolozenie__Mapa
 67F4:0004       PolozenieNapisu__Print
 4B30:0000       PolozenieTeodolitu__TheodolitRe
 4B09:0000       PomiarANieArchiwum__PI_PA
 4C43:002D       Pomiar__N_Oblot
 4C47:0146       Predkosc__CommonData
 4CA3:0032       Predrawmarksreq__Screen
 4CA3:0036       Predrawreq__Screen
 67F4:000A       PrevIdx__Print
 6779:0796       PrevPage__DrawEpson
 5455:0054       PrevReg__MMMouse
 6779:0000       PrnPort__DrawEpson
 67F4:0000       PrnX__Print
 67F4:0002       PrnY__Print
 4C99:0000       ProcPom__Pomiar
 4C3F:0000       Procedura__N_CommonTypes
 6751:011A       ProcesAktywny__Polozenie
 4C43:0021       PromienL__N_Oblot
 4C47:0142       Promien__CommonData
 6751:0006       Promien__Polozenie
 4B24:0058       RUN__ScannerI
 4666:003C       RangeError__RTSError
 4C43:0029       Raport__N_Oblot
 4AE7:0004       ReadyFirst__MANAGER
 4AE7:0118       ReadyLast__MANAGER
 4763:0000       RealError__RTSRealError
 6751:0112       Rect__Polozenie
 4C41:0004       RedrawScr__N_Inspekcja
 4C43:0039       RedrawScr__N_Oblot
 4B24:000A       RefAlfa__ScannerI
 4B24:0022       RefDis__ScannerI
 4CA3:0047       RegionWyk1Created__Screen
 4CA3:0043       RegionWyk1__Screen
 4CA3:004C       RegionWyk2Created__Screen
 4CA3:0048       RegionWyk2__Screen
 4CA3:0051       RegionWyk3Created__Screen
 4CA3:004D       RegionWyk3__Screen
 4CA3:0042       RegionWykGCreated__Screen
 4CA3:003E       RegionWykG__Screen
 4CA3:0052       RegionWykresow__Screen
 5455:0000       Regiony__MMMouse
 6779:07A3       Rotation__DrawEpson
 4C7F:0195       Running__N_CP_ControlProc
 4CA3:006E       RysSytMaxDis__Dialog__Screen
 62BC:0053       RysSytMaxDis__Mapa
 4B20:0000       ST__PI_Qcheck
 18CE:0058       S__ACKMess__Messages
 003C:0002       S__ASSERT__MANAGER
 003C:11B5       S__ActivateProcess__Scheduler__
 2F8D:0FCA       S__Aktywizuj__Dialog
 2872:0F29       S__AllocateBuffer__Ini
 0591:0A73       S__Analizer__TheodolitRead
 0C32:1E70       S__AssignName__Files
 3F99:0002       S__BCD__HRD_Clock
 18CE:0382       S__Beep__Messages
 1CB0:03C4       S__Blad__XMSService
 1802:0C05       S__BreakKey__Timer
 2D17:0FE8       S__CP__GList
 003C:18F5       S__CallTerminatingProcedures__M
 15A6:0163       S__CheckCNil__SpecConv
 15A6:009C       S__CheckINil__SpecConv
 3F99:003A       S__CheckUpdateCycle__HRD_Clock
 03E0:1827       S__Chksimul__ScannerI
 2F8D:15B1       S__ChwilowoZablokujDialog__Dial
 0EEF:04F3       S__ClearAngVelContiner__N_CP_Co
 1FB5:08E9       S__ClearContiners__N_Odb
 0EEF:0012       S__ClearLinVelContiner__N_CP_Co
 003C:04D7       S__ClearQueue__MANAGER
 3C6A:0002       S__CommReq__Monitor__N_DAcquizi
 422E:0942       S__Conv2PL__DrawEpson
 31F5:001A       S__CtrlBreakProc__FCBS
 2F8D:1185       S__CzyMoznaSkonczyc__Dialog
 3B03:0786       S__Decode__PiszEventy
 2BC6:0002       S__DefineStdCursor__MMMouse
 147F:042C       S__DisposeButtons__MouseMonitor
 1104:1876       S__DisposeKursor__Dialog__Scree
 03E0:0104       S__DistR2C__ScannerI
 213C:006A       S__DodajPolozenieGeo__GeoArithm
 422E:0ABD       S__DrawChar0__DrawEpson
 422E:0E1D       S__DrawChar90__DrawEpson
 2BC6:0C8E       S__DrawCursor__BezWyszeregowani
 2EAF:047D       S__DrawInter__Buttons
 40A5:044A       S__DrawMarker__Polozenie
 40A5:0BA8       S__DrawNCO__Polozenie
 422E:0DA0       S__DrawText0__DrawEpson
 422E:10A7       S__DrawText90__DrawEpson
 2D17:1181       S__Draw__GList
 3123:0827       S__Draw__InpLine
 40A5:0855       S__EraseMarker__Polozenie
 22DC:1489       S__Error__Kalibracja
 3E56:02B0       S__ExceptionHandler__Semafory
 2872:0BE2       S__Expand__Ini
 34FD:09DC       S__FillPromieie__Mapa
 0707:08D1       S__FillSignalTable__DGHIni
 2EAF:0205       S__FindAMark__MONITOR__Buttons
 1A67:0424       S__FindAMark__monitor__ShortCut
 1B86:1064       S__FindROMFontAddr__Graphics
 1A67:0382       S__Find__monitor__ShortCuts
 2872:001E       S__FormSectionString__Ini
 1CB0:01F3       S__Free__XMSService
 1746:04FF       S__GetChain__Storage
 1E04:15BC       S__GetDir__HiLevGraf
 2BC6:096B       S__GetEvent__BezPrzerwanOdMyszy
 3C6A:00C1       S__GetEvent__Monitor__N_DAcquiz
 147F:036D       S__GetEvent__MouseMonitor__PI_A
 1B86:09BB       S__GetFontPtr__InternalMonitor_
 3F99:006D       S__GetGodzina__HRD_Clock
 1746:04CB       S__GetStrategia__Storage
 1B86:008B       S__HugeMemCpy__Graphics
 3F01:0002       S__INByte__ARINC
 003C:05E2       S__INSERT__MANAGER
 29FE:0266       S__IleInspekcji__Obloty
 3C6A:0486       S__IniData__N_DAcquizition
 147F:017C       S__InitButtony__MouseMonitor__P
 1104:1983       S__InitButtony__Screen
 03E0:0B61       S__InitDataSimul__ScannerI
 1104:17F1       S__InitDialog__Dialog__Screen
 3860:04F4       S__InitEvents__EventsMng
 1AE1:097A       S__InitFiles__FIO
 1104:1D4C       S__InitKrokOpisuOsi__Screen
 07DF:0D69       S__InitLocals__N_Files
 40A5:032E       S__InitMarkers__Polozenie
 1104:1B9A       S__InitSlupki__Screen
 32D6:15DF       S__InitTab__tablice__DataCollec
 0707:03D8       S__InitTableOfNames__DGHIni
 3E56:03BE       S__InitTbl__Semafory
 1104:1749       S__InitWykr__Dialog__Screen
 0C32:2852       S__Init__Files
 2BC6:00D9       S__Init__MMMouse
 2990:064D       S__Init__MsgBox
 41C8:00FD       S__Init__N_Slupek
 0349:08AC       S__Init__PI_Qcheck
 024D:02FC       S__Init__PrintScreen
 39EB:0002       S__Init__ScreenCTypes
 003C:002D       S__InsertReady__MANAGER
 2EAF:0002       S__Insert__MONITOR__Buttons
 1802:0002       S__Insert__Monitor__Timer
 1A67:013F       S__Insert__monitor__ShortCuts
 003C:1A6A       S__InstallTerminator__MANAGER
 29FE:0B21       S__Kasuj_DelDir__Obloty
 26C2:0170       S__KopZnakDoKanaluMonitora__GPS
 29FE:1564       S__KopiujKartoteke__Obloty
 1104:18A7       S__KursoffOff__Dialog__Screen
 1104:18CD       S__KursoffOn__Dialog__Screen
 1B86:108B       S__LoadPLFonts__Graphics
 1535:0606       S__LoadProgramPar__N_DataBase
 22DC:1E6D       S__LoadSegmentTables__Kalibracj
 35B3:009B       S__Log10__Wykres
 35B3:1DFD       S__LogPos__Wykres
 2872:020F       S__LookForEntry__Ini
 2872:010A       S__LookForSection__Ini
 3D5D:01B2       S__MakeHeader__N_Print
 34FD:0419       S__MakeMAP__Mapa
 422E:0107       S__Map__DrawEpson
 382A:0245       S__Map__XMSTable
 2EAF:0318       S__MarkBut__MONITOR__Buttons
 25BE:004E       S__MarkError__DigiRS
 1E04:0007       S__Max__HiLevGraf
 213C:0601       S__Mile__GeoArithmetic
 1E04:0027       S__Min__HiLevGraf
 0A14:0A88       S__NadajnikCH__N_Oblot
 1E04:0741       S__Norm__HiLevGraf
 3905:02DE       S__NowySlup__PI_ScrUtility
 14F4:003E       S__NullPolV__PI_Pomiar
 3F01:0062       S__OUTByte__ARINC
 18CE:0358       S__OUTMessage__Messages
 213C:01D4       S__OdejmijPolozenieGeo__GeoArit
 213C:04C0       S__Odl2Geo__GeoArithmetic
 213C:012E       S__Odwr__GeoArithmetic
 024D:0013       S__OpenF__PrintScreen
 3D5D:045C       S__OpisPomiaru__N_Print
 4375:0886       S__PointA__Print
 4375:0ADD       S__PointB__Print
 1104:054D       S__PokazWgKursora__Dialog__Scre
 08E4:02E1       S__Pokaz__N_Inspekcja
 0A14:0564       S__Pokaz__N_Oblot
 0A14:09C0       S__PoprawPromien__N_Oblot
 3D5D:072E       S__Print__N_Print
 003C:07D2       S__REMOVE__MANAGER
 213C:03A9       S__Rad__GeoArithmetic
 1FB5:0BA7       S__ReadAnalog__N_Odb
 0707:0CDC       S__ReadDGHIniFile__DGHIni
 0A14:04F8       S__RealVal__N_Oblot
 0A14:0842       S__RealValid__N_Oblot
 1104:01D5       S__RectWykresy__Screen
 34FD:008A       S__RedefineMaxDist__Mapa
 2BC6:0B5F       S__RedrawAt__BezWyszeregowania_
 2D17:1046       S__Redraw__GList
 0C32:1902       S__RemoveBSl__Files
 2BC6:0C0A       S__RemoveCursor__BezWyszeregowa
 003C:0236       S__RemoveReady__MANAGER
 2EAF:01B5       S__RemoveToKill__MONITOR__Butto
 1A67:032C       S__RemoveToKill__monitor__Short
 1802:0159       S__Remove__Monitor__Timer
 1104:10CD       S__RuszKursor__Dialog__Screen
 003C:102A       S__STOPPROCESS__Scheduler__MANA
 0284:049F       S__SendDMECntrlWrd__Tune
 0284:0007       S__Send__Tune
 1746:04E7       S__SetChain__Storage
 1802:07F7       S__SetCount__Monitor__Timer
 22DC:09B6       S__SetError__ErrorHand__Kalibra
 1E04:0230       S__SetPalette__HiLevGraf
 2D17:1790       S__SetPositions__GList
 2D17:16B4       S__SetSelectionInt__GList
 2BC6:0639       S__SetShape__MMMouse
 1746:04B3       S__SetStrategia__Storage
 22A5:00E8       S__SetTimeAndDate__BezPrzerwan_
 1104:0CC9       S__ShowBarCursor__Dialog__Scree
 1535:012F       S__SignalError__N_DataBase
 29FE:0738       S__SkasujKartoteke__Obloty
 213C:02F0       S__SredniPolozenieGeo__GeoArith
 07DF:0081       S__StartFiles__N_Files
 32D6:1BBB       S__Start__DataCollect
 1E04:0047       S__StdPalette__HiLevGraf
 003C:1144       S__StopAError__Scheduler__MANAG
 34FD:0922       S__Stop__monitor__Mapa
 1E04:071E       S__Swap__HiLevGraf
 2BC6:0623       S__Swap__MMMouse
 32D6:0422       S__Tablice800__tablice__DataCol
 0A14:0458       S__TestUP_PROC__N_Oblot
 0284:0697       S__TuneVOR_ILS__Tune
 3905:0063       S__UniversalAB__PI_ScrUtility
 1104:0259       S__UniversalEvent__Dialog__Scre
 3905:01EE       S__UniversalLAB__PI_ScrUtility
 3905:00FE       S__UniversalLAF__PI_ScrUtility
 3905:0266       S__UniversalLBB__PI_ScrUtility
 3905:0176       S__UniversalLBF__PI_ScrUtility
 3905:023E       S__UniversalPAB__PI_ScrUtility
 3905:014E       S__UniversalPAF__PI_ScrUtility
 3905:02B6       S__UniversalPBB__PI_ScrUtility
 3905:01C6       S__UniversalPBF__PI_ScrUtility
 3905:0216       S__UniversalSAB__PI_ScrUtility
 3905:0126       S__UniversalSAF__PI_ScrUtility
 3905:028E       S__UniversalSBB__PI_ScrUtility
 3905:019E       S__UniversalSBF__PI_ScrUtility
 2EAF:03BB       S__Unmark__MONITOR__Buttons
 1A67:04D2       S__Unmark__monitor__ShortCuts
 1104:0FA8       S__UpdateMap__Dialog__Screen
 45CB:01FC       S__UstawLiczbe__PrintCntroll
 45CB:01BC       S__UstawStrony__PrintCntroll
 422E:00A5       S__UstawTrybTekstowy__DrawEpson
 0A14:1B62       S__Wlacz_Wylacz__N_Oblot
 1FB5:0BEE       S__Wlacz__N_Odb
 2BC6:066E       S__WrBit__MMMouse
 2BC6:0651       S__WrIdx__MMMouse
 3B03:1163       S__WrLn__PiszEventy
 3B03:117D       S__WrP__PiszEventy
 3B03:10B0       S__WrStrLn__PiszEventy
 3B03:10DC       S__WrStr__PiszEventy
 1CB0:0412       S__WrWarning__XMSService
 22A5:003B       S__Write__BezPrzerwan__Czas
 29FE:02DC       S__WymienWszystkie__Obloty
 1104:0C7D       S__Xchg__Dialog__Screen
 0A14:075A       S__ZakonczDlg__N_Oblot
 29FE:0EB9       S__ZnajdzNumInspekcji__Obloty
 3B03:0D48       S__min__PiszEventy
 34FD:037D       S__resolveSituation__Mapa
 0591:0852       S__signalError__TheodolitRead
 4CCA:0005       SavedChar__monitor__ShortCuts
 4F1E:5019       SavedFileName__Ini
 4C47:00FC       SciezkaOpisuPomiaru__CommonData
 4CCA:0001       ShortCutList__monitor__ShortCut
 4B39:0F70       SignalDescr__DGHIni
 4B24:0087       Sim_Alfa_CP__ScannerI
 4B24:0083       Sim_Dis_CP__ScannerI
 4B24:0053       Simul__ScannerI
 549E:000C       SkalaCPMax__CocpDsp
 549E:0008       SkalaCP__CocpDsp
 549E:000E       SkalaWPMax__CocpDsp
 549E:000A       Skala__CocpDsp
 46EE:0000       SpecialCASE__RTSLanguage
 542F:01DD       SrcDir__Obloty
 6751:0002       Srodek__Polozenie
 4676:0673       StackCheck__RTSMain
 4676:067C       StackOvf__RTSMain
 6751:0000       StalyKat__Polozenie
 4C99:0054       StanButtonow__Pomiar
 4C99:0075       StanZestawu__Pomiar
 4CC2:0023       StaraStrategia__Storage
 0001:0303       StartModula
 4CC2:0025       StaryCh__Storage
 542F:0044       Stat_File_Monitor__Obloty
 542F:0040       Stat_Size_Monitor__Obloty
 4B30:003D       State__TheodolitRead
 4AE7:001C       Statistic__MANAGER
 4DAC:0000       StatusR__GrafUtil
 5455:01E5       Stored__BezPrzerwanOdMyszy__MMM
 4DC7:0000       StringRect__BezPrzerwan__Czas
 4DA5:0008       Style__HiLevGraf
 4DC9:0940       SubcarPrcMod_delay__Kalibracja
 4DC7:0008       SystemTime__BezPrzerwan__Czas
 4B24:008F       TEOEcounting__ScannerI
 4B24:0028       TEO_A__ScannerI
 4B24:003A       TEO_DGPSpoprawki__ScannerI
 4B24:0030       TEO_E__ScannerI
 4B24:0038       TEO_OK__ScannerI
 4B24:00A7       TEO_dtaSign__ScannerI
 4CC6:0002       TIOS__Timer
 4CC6:0006       TOQueue__Monitor__Timer
 4AE7:0124       TSSInterval__MANAGER
 4DC9:0000       TabKalib2P__Kalibracja
 4B39:08E8       TableOfNames__DGHIni
 6745:0000       TablicaSemaforow__Semafory
 4B24:000C       TeoAlfaF__ScannerI
 4B30:0036       TeoEvNr__TheodolitRead
 4C43:0025       TestUP__N_Oblot
 67F4:0006       TextModeOutProc__Print
 4CA3:0029       ThisDTidx__Screen
 4CC6:0000       TimeCounter__Timer
 4AE7:0128       TimeIntNum__MANAGER
 67F4:00D5       Tmpl__Print
 4DAC:006E       Tone__GrafUtil
 471D:0143       Transfer__RTSCoroutine
 4CC8:000A       TurnBeepOn__Messages
 54A1:0000       VAL1__DataCollect
 4CA3:0000       VAL1__Screen
 54A1:3210       VAL2__DataCollect
 4CA3:0004       VAL2__Screen
 54A1:6420       VAL3__DataCollect
 4CA3:0008       VAL3__Screen
 54A1:9630       VAL4__DataCollect
 4CA3:000C       VAL4__Screen
 54A1:C8A6       VALX__tablice__DataCollect
 4B15:0000       VORfreqCRT__Tune
 4AE7:0208       VarDR__MANAGER
 4DC9:0950       VorAgc_delay__Kalibracja
 4DC9:0930       VorRefPrcMod_delay__Kalibracja
 4DC9:0938       VorVarPrcMod_delay__Kalibracja
 4AE7:0122       WaitForInt__MANAGER
 4DAC:006C       WaitTime__GrafUtil
 4DC9:13F8       WystapilBlad__Kalibracja
 4DA5:0059       XS__HiLevGraf
 4DA5:005B       YS__HiLevGraf
 67F4:0013       ZestawProbekBinDoWyboru__Print
 6807:0004       Zestaw__PrintCntroll
 4CA3:0010       Zestaw__Screen
 4CA3:007F       ZmianaSkaliWpionie__Dialog__Scr
 4F16:0006       actPart__GPS_TRIMBLE
 4F0D:0006       actPart__GPS_nov
 4A5A:001A       activProcess__RTSMain
 4DA3:0010       activated__DGHInterface
 4A79:0000       addProcess__RTSCoroutine
 4DC3:0000       address__DGH_utils
 4DB4:0006       agc__N_Odb
 4CA3:001C       aktFormat360__Screen
 4C7F:0192       aktOrbita__N_CP_ControlProc
 4CA3:0013       aktPromienOdAnt__Screen
 4CA3:0011       aktPromien__Screen
 62BC:0040       aktualny__Mapa
 4C99:0082       alfaOff__Pomiar
 6387:0000       anRes__N_results
 4C7F:00CD       angCont__N_CP_ControlProc
 54A1:C844       angContiner__DataCollect
 6751:011C       angContiner__Polozenie
 4AE6:0009       archData__PN
 48BE:001E       areSetsEQ__Longs
 4DB4:0000       audio_N__N_Odb
 4B24:00A6       azymANieElew__ScannerI
 4C43:0005       bOkrag__N_Oblot
 4C43:000D       bPromien__N_Oblot
 4D8D:0004       bank__InternalMonitor__Graphics
 4D8D:0006       bankstart__InternalMonitor__Gra
 542F:0099       bd_NazwaPliku__Obloty
 542F:00AA       bd_Sekcja__Obloty
 542F:00B5       bd_WpisNazwa__Obloty
 4DB4:0002       berN__N_Odb
 4DC3:0020       binAddress__DGH_utils
 4DA3:0006       binaryDtaSign__DGHInterface
 4A5A:0006       blockList__RTSMain
 4CC5:0000       break__SoftIntHandlingManager
 4F16:0009       bufor__GPS_TRIMBLE
 4F0D:000C       bufor__GPS_nov
 4CA3:0025       by23__Screen
 4F1E:5017       charsInBuffer__Ini
 4F1E:50E2       check__Ini
 4F16:0002       chrCount__GPS_TRIMBLE
 4F0D:0002       chrCount__GPS_nov
 48BE:00B4       complement__Longs
 62C5:0B48       conEnr__EventsMng
 4DB4:000E       cos__N_Odb
 4DA3:0008       csErrorCnt__DGHInterface
 4A5A:0016       curProcess__RTSMain
 54A1:C85E       curr23__tablice__DataCollect
 4B24:00A4       currAlfaOff__ScannerI
 4CB6:0004       currButtonSet__MouseMonitor__PI
 4C99:0058       currButtonSet__Pomiar
 4CA3:003A       currConsoleEv__Screen
 6387:3B13       currDT__N_results
 549E:0019       currErrorCP__CocpDsp
 549E:001D       currErrorGS__CocpDsp
 549E:001B       currErrorWP__CocpDsp
 549E:0002       currFROMflg__CocpDsp
 549E:0000       currGSflg__CocpDsp
 673A:0010       currGlownyOdbiornik__N_DAcquizi
 549E:0015       currLNumber__CocpDsp
 549E:0026       currMsg__CocpDsp
 549E:0001       currNAVflg__CocpDsp
 4B24:0099       currOdnDlaPomBledu__ScannerI
 4B24:0098       currOdnDlaPomOdl__ScannerI
 4B24:009A       currPredkosc__ScannerI
 4B24:00A2       currPromien__ScannerI
 549E:0017       currRNumber__CocpDsp
 549E:0014       currState__CocpDsp
 4B30:003F       currState__TheodolitRead
 549E:0003       currTOflg__CocpDsp
 673A:0008       currUpdMarks__N_DAcquizition
 4C99:0092       currZestaw__Pomiar
 4DA3:0004       currentSign__DGHInterface
 4B36:0001       currentSign__GPSRead
 4B30:0034       currentSign__TheodolitRead
 4F1E:0010       currfile__Ini
 6775:001C       cursorDIB__N_Slupek
 4C99:0093       dataInBuff__Pomiar
 4AE6:0007       dataOk__PN
 4A5A:001E       debuggerRecord__RTSMain
 4CA3:001D       devDistR__Screen
 4A5A:0030       deviceMask__RTSMain
 549E:0004       dirCP__CocpDsp
 4DB4:003D       dirCon__N_Odb
 549E:0006       dirWP__CocpDsp
 4DB4:0012       dir__N_Odb
 4C7F:0000       disCont__N_CP_ControlProc
 54A1:C84C       disContiner__DataCollect
 674C:0000       disableMask__NAVInterface
 4CB6:0000       dispResults__PI_Analiza
 4C99:007E       distOff__Pomiar
 62BC:004A       distRect__Mapa
 54A1:C872       div2n__tablice__DataCollect
 54A1:C876       div3n__tablice__DataCollect
 62BC:0000       doZrobienia__Mapa
 4CCA:000D       done__ShortCuts
 549E:0023       dtaSign__CocpDsp
 4A5A:0032       dyingOverlay__RTSMain
 4B0A:007A       entryTmpPtr__DOSEntry
 4B0A:0000       entryTmp__DOSEntry
 4F0D:007B       eos__GPS_nov
 4DC9:13B8       errDetected__Kalibracja
 4F0D:007E       err_unrec_cnt__GPS_nov
 4A5A:0000       errorCode__RTSMain
 4B0A:007E       exitTmpPtr__DOSEntry
 4B0A:003D       exitTmp__DOSEntry
 4AE7:01F6       expInter__Scheduler__MANAGER
 4DC9:13FF       f__Kalibracja
 4C5D:01A0       filesAlfa__Files
 4C5D:01A8       filesComm__Files
 4C5D:0190       filesDist__Files
 673A:0011       filesNotEmpty__N_DAcquizition
 674C:0004       fineMode__NAVInterface
 4CC5:0001       firstISRDescriptorPtr__Monitor_
 67F4:000E       flgEOF__Print
 4DB4:0016       flg__N_Odb
 4B24:0000       flg__ScannerI
 4DC9:13FB       for_counter__Kalibracja
 549E:0025       force__CocpDsp
 4C99:007C       format360__Pomiar
 4F16:0000       framesWError__GPS_TRIMBLE
 4F0D:0000       framesWError__GPS_nov
 4A5A:0128       freeList__RTSMain
 4F16:0004       frmCount__GPS_TRIMBLE
 4F0D:0004       frmCount__GPS_nov
 4C99:0077       frstBut__Pomiar
 542D:0000       hDlg__MsgBox
 4C41:0000       hDlg__N_Inspekcja
 4C43:0001       hDlg__N_Oblot
 6807:0000       hDlg__PrintCntroll
 673D:0000       header__N_Print
 4CC2:0001       heapList__Storage
 4C5D:01C8       homeDir__Files
 549E:0012       iloscStrzal__CocpDsp
 4F1E:0004       ini__Ini
 4DC9:13BC       inputCoeff__Kalibracja
 4B0A:0082       insideFlag__DOSEntry
 542F:00C0       insp_DirTmp__Obloty
 48BE:009D       intersection__Longs
 54A1:C87A       ix2__tablice__DataCollect
 54A1:C87E       ix3__tablice__DataCollect
 4B24:00AD       ix__ScannerI
 4C99:0079       katPromien__Pomiar
 674C:0005       killTime__NAVInterface
 6807:0011       lPodz__PrintCntroll
 4B15:00A0       lastCPFlags__Tune
 673A:0016       lastComm__Monitor__N_DAcquiziti
 4B30:0046       lastCrc__TheodolitRead
 4B15:00A2       lastDMEfrqBits__Tune
 4CCB:0000       lastErr__FIO
 4DC9:13F9       lastError__ErrorHand__Kalibracj
 4B30:0040       lastNum__TheodolitRead
 6387:3B21       lastline__N_results
 4DB4:0049       licznik__N_Odb
 4B24:0093       locTogether__ScannerI
 4B30:0024       lstAzymuth__TheodolitRead
 4B30:002C       lstElevation__TheodolitRead
 4B30:003A       lstEvent__TheodolitRead
 4B30:003B       lstTracking__TheodolitRead
 5455:01EC       lx__BezWyszeregowania__MMMouse
 5455:01EE       ly__BezWyszeregowania__MMMouse
 4AE6:0000       mainState__PN
 62BC:0042       mapRct__Mapa
 54A1:C857       marks_Con_A__DataCollect
 54A1:C854       marks_Con_D__DataCollect
 4DA3:000E       maxClicks__DGHInterface
 674D:0002       maxCountR__ARINC
 674D:0000       maxCountW__ARINC
 4CCB:0006       maxOpened__FIO
 5455:0050       maxX__MMMouse
 5455:0052       maxY__MMMouse
 4F0A:0000       minWrBufLength__DigiRS
 62BC:005B       myPoint__Mapa
 4C7F:0190       myRadial__N_CP_ControlProc
 549E:001F       newState__CocpDsp
 62BC:0060       noActive__monitor__Mapa
 673A:0012       notify__Monitor__N_DAcquizition
 4CCB:0002       numErr__FIO
 4B30:0048       numPos__TheodolitRead
 4DA3:000A       nvErrorCndF__DGHInterface
 4DA3:000C       nvErrorCndS__DGHInterface
 4AE6:000A       offset__PN
 4DBF:0000       okresImp__FIltr1St
 4A5A:01CE       oldNMIvector
 4CCB:0004       opened__FIO
 4A5A:000E       overlayInitProc__RTSMain
 4A5A:000A       overlayList__RTSMain
 4A5A:0012       overlayTermProc__RTSMain
 6775:0000       parSlupkow__N_Slupek
 62C5:0B44       pilEnr__EventsMng
 4B24:0026       pilErr__ScannerI
 4B24:0082       pilEvBit__ScannerI
 4B24:007E       pilEvCon__ScannerI
 673A:0004       pilotEvId__N_DAcquizition
 4B24:0079       pilotEvNrCOn__ScannerI
 4B24:007C       pilotEvNr__ScannerI
 4AE6:0003       podzielnik__PN
 4AE6:0002       polaryzacjaOK__PN
 4CA3:001B       pomPromieniowy__Screen
 4CA3:007A       popJakieWykr__Dialog__Screen
 4F16:0007       posInRecBuf__GPS_TRIMBLE
 4F0D:000A       posInRecBuf__GPS_nov
 4CC2:0021       prevHeap__Storage
 4A5A:0046       priorityMasks__RTSMain
 54A1:C882       procVAL1__tablice__DataCollect
 54A1:C88A       procVAL2__tablice__DataCollect
 54A1:C892       procVAL3__tablice__DataCollect
 54A1:C89A       procVAL4__tablice__DataCollect
 4A5A:003E       programSize
 4C99:007B       promien__Pomiar
 48BE:0000       pushLSet__Longs
 4C7F:0194       radial__N_CP_ControlProc
 673A:0003       redrawM__N_DAcquizition
 62BC:005F       redraw__Mapa
 673A:0002       redraw__N_DAcquizition
 4DB9:0040       refPress__AltInterface
 542D:0004       ret__MsgBox
 5455:01F0       rx__BezWyszeregowania__MMMouse
 5455:01F2       ry__BezWyszeregowania__MMMouse
 6387:3B1F       s__N_results
 4CA3:002B       samplediv__Screen
 54A1:C85A       samplediv__tablice__DataCollect
 54A1:C8A2       samples__tablice__DataCollect
 67F4:000F       scaleDiv__Print
 6775:0018       screeenDIB__N_Slupek
 4CA3:006A       screenDIB__Screen
 4DA5:000C       semafor__HiLevGraf
 673A:000C       signTabNil__N_DAcquizition
 4B39:0000       signals__DGHIni
 4DB4:000A       sin__N_Odb
 4CA3:0082       skalaWpionie__Dialog__Screen
 637D:0014       slLDib_rec__ScreenCTypes
 637D:000C       slLReg_rec__ScreenCTypes
 637D:0008       slL_pnt__ScreenCTypes
 637D:0000       slL_rec__ScreenCTypes
 637D:004C       slPDib_rec__ScreenCTypes
 637D:0044       slPReg_rec__ScreenCTypes
 637D:0040       slP_pnt__ScreenCTypes
 637D:0038       slP_rec__ScreenCTypes
 637D:0030       slSDib_rec__ScreenCTypes
 637D:0028       slSReg_rec__ScreenCTypes
 637D:0024       slS_pnt__ScreenCTypes
 637D:001C       slS_rec__ScreenCTypes
 637B:000C       slupkiAktywne__PI_ScrUtility
 637B:0000       slupki__PI_ScrUtility
 4AE7:012A       spTab__MANAGER
 674C:0002       speedMask__NAVInterface
 549E:0010       srodekSkali__CocpDsp
 542F:00D3       stat_Files__Obloty
 542F:00CB       stat_Size__Obloty
 4CB6:001D       sthPressed__MouseMonitor__PI_An
 4DAC:0008       str__GrafUtil
 48BE:005E       subSet__Longs
 4F0D:0007       sumaModC__GPS_nov
 4F0D:0008       sumaModF__GPS_nov
 48BE:0036       superSet__Longs
 4AE6:0001       switchAble__PN
 4AE6:0005       synResult__PN
 62C5:0B4C       teoEnr__EventsMng
 4B30:003C       teoEvBit__TheodolitRead
 4B30:004C       teoEvCon__TheodolitRead
 4B30:0050       teoEvNrCOn__TheodolitRead
 48BE:00CF       unionCompl__Longs
 48BE:0086       union__Longs
 4DC9:13FD       void__Kalibracja
 4B30:0038       wd_dgps_currSign__TheodolitRead
 4C5D:01C4       xRefDefV__Files
 4C5D:01C0       xRefFile__Files
 6779:0002       xh__DrawEpson
 62BC:0020       zrobione__Mapa

  Address         Publics by Value

 0000:0000  Abs  KEY__10jul99_1214_OF_Math
 0000:0000  Abs  KEY__10jul99_1214_OF_Marks
 0000:0000  Abs  KEY__21aug96_1223_OF_XMS
 0000:0000  Abs  KEY__10jul99_1214_OF_Messages
 0000:0000  Abs  KEY__10jul99_1214_OF_Mapa
 0000:0000  Abs  KEY__10jul99_1214_OF_Kl_FGenera
 0000:0000  Abs  KEY__10jul99_1214_OF_Kalibracja
 0000:0000  Abs  KEY__10jul99_1214_OF_MMMouse
 0000:0000  Abs  KEY__10jul99_1214_OF_MANAGER
 0000:0000  Abs  KEY__10jul99_1214_OF_MsgBox
 0000:0000  Abs  KEY__10jul99_1214_OF_PI_Drukuj
 0000:0000  Abs  KEY__10jul99_1218_OF_PN
 0000:0000  Abs  KEY__10jul99_1214_OF_PI_PA
 0000:0000  Abs  KEY__10jul99_1214_OF_PI_Glowny
 0000:0000  Abs  KEY__10jul99_1214_OF_PI_ArchDat
 0000:0000  Abs  KEY__12aug87_1620_OF_RTSMain
 0000:0000  Abs  KEY__10jul99_1214_OF_NAVInterfa
 0000:0000  Abs  KEY__10jul99_1214_OF_PI_Analiza
 0000:0000  Abs  KEY__10jul99_1214_OF_Obloty
 0000:0000  Abs  KEY__10jul99_1214_OF_Int_DME
 0000:0000  Abs  KEY__10jul99_1214_OF_FlagAnal
 0000:0000  Abs  KEY__10jul99_1214_OF_Files
 0000:0000  Abs  KEY__10jul99_1214_OF_GPSRead
 0000:0000  Abs  KEY__10jul99_1214_OF_GList
 0000:0000  Abs  KEY__10jul99_1214_OF_FIltr1St
 0000:0000  Abs  KEY__10jul99_1214_OF_EventsMng
 0000:0000  Abs  KEY__10jul99_1214_OF_ErrorMess
 0000:0000  Abs  KEY__10jul99_1214_OF_FIO
 0000:0000  Abs  KEY__10jul99_1214_OF_FCBS
 0000:0000  Abs  KEY__10jul99_1214_OF_GPS_TRIMBL
 0000:0000  Abs  KEY__10jul99_1214_OF_HiLevGraf
 0000:0000  Abs  KEY__10jul99_1214_OF_HRD_Clock
 0000:0000  Abs  KEY__10jul99_1214_OF_InpLine
 0000:0000  Abs  KEY__10jul99_1214_OF_Ini
 0000:0000  Abs  KEY__10jul99_1214_OF_Graphics
 0000:0000  Abs  KEY__10jul99_1214_OF_GeoArithme
 0000:0000  Abs  KEY__10jul99_1214_OF_GPS_nov
 0000:0000  Abs  KEY__10jul99_1214_OF_GrafUtil
 0000:0000  Abs  KEY__10jul99_1214_OF_GrafTypes
 0000:0000  Abs  KEY__10jul99_1214_OF_PI_Pomiar
 0000:0000  Abs  KEY__10jul99_1218_OF_N_Files
 0000:0000  Abs  KEY__10jul99_1214_OF_Tune
 0000:0000  Abs  KEY__10jul99_1214_OF_WorseBecau
 0000:0000  Abs  KEY__10jul99_1214_OF_VORR_Avera
 0000:0000  Abs  KEY__10jul99_1214_OF_Timer
 0000:0000  Abs  KEY__10jul99_1214_OF_SpecConv
 0000:0000  Abs  KEY__10jul99_1214_OF_SoftIntHan
 0000:0000  Abs  KEY__10jul99_1214_OF_TheodolitR
 0000:0000  Abs  KEY__10jul99_1214_OF_StdIO
 0000:0000  Abs  KEY__10jul99_1218_OF_N_DisResul
 0000:0000  Abs  KEY__10jul99_1218_OF_N_CP_Contr
 0000:0000  Abs  KEY__10jul99_1218_OF_N_DAcquizi
 0000:0000  Abs  KEY__10jul99_1218_OF_N_Count
 0000:0000  Abs  KEY__10jul99_1218_OF_N_CommonTy
 0000:0000  Abs  KEY__10jul99_1218_OF_N_DataBase
 0000:0000  Abs  KEY__10jul99_1214_OF_XMSService
 0000:0000  Abs  KEY__10jul99_1214_OF_Wykres
 0000:0000  Abs  KEY__10jul99_1218_OF_ADFAngle
 0000:0000  Abs  KEY__10jul99_1214_OF_XMSTable
 0000:0000  Abs  KEY__10jul99_1214_OF_Slupek
 0000:0000  Abs  KEY__10jul99_1214_OF_Polozenie
 0000:0000  Abs  KEY__10jul99_1218_OF_N_Print
 0000:0000  Abs  KEY__10jul99_1218_OF_N_Odb
 0000:0000  Abs  KEY__10jul99_1214_OF_Pomiar
 0000:0000  Abs  KEY__10jul99_1214_OF_PiszEventy
 0000:0000  Abs  KEY__10jul99_1218_OF_N_results
 0000:0000  Abs  KEY__10jul99_1214_OF_PI_Qcheck
 0000:0000  Abs  KEY__10jul99_1214_OF_PI_ScrUtil
 0000:0000  Abs  KEY__10jul99_1218_OF_N_Slupek
 0000:0000  Abs  KEY__10jul99_1218_OF_N_Oblot
 0000:0000  Abs  KEY__10jul99_1214_OF_ScreenCTyp
 0000:0000  Abs  KEY__10jul99_1218_OF_N_Inspekcj
 0000:0000  Abs  KEY__10jul99_1214_OF_ShortCuts
 0000:0000  Abs  KEY__10jul99_1214_OF_Semafory
 0000:0000  Abs  KEY__10jul99_1214_OF_Screen
 0000:0000  Abs  KEY__10jul99_1214_OF_PrintCntro
 0000:0000  Abs  KEY__10jul99_1214_OF_Print
 0000:0000  Abs  KEY__10jul99_1214_OF_ScannerI
 0000:0000  Abs  KEY__10jul99_1214_OF_PrintScree
 0000:0000  Abs  KEY__10aug87_2031_OF_Strings
 0000:0000  Abs  KEY__10aug87_2031_OF_Storage
 0000:0000  Abs  KEY__10aug87_2031_OF_Terminal
 0000:0000  Abs  KEY__10aug87_2031_OF_Termbase
 0000:0000  Abs  KEY__10aug87_2031_OF_Keyboard
 0000:0000  Abs  KEY__10aug87_2031_OF_DynMem
 0000:0000  Abs  KEY__10aug87_2031_OF_RTSDevice
 0000:0000  Abs  KEY__10aug87_2031_OF_NumberConv
 0000:0000  Abs  KEY__10jul87_1035_OF_RTSMonExit
 0000:0000  Abs  KEY__10aug87_2033_OF_Sounds
 0000:0000  Abs  KEY__10jul99_1214_OF_AltInterfa
 0000:0000  Abs  KEY__10jul99_1214_OF_ARINC
 0000:0000  Abs  KEY__10aug87_2033_OF_Mouse
 0000:0000  Abs  KEY__10aug87_2032_OF_MathLib0
 0000:0000  Abs  KEY__10aug87_2033_OF_RealConver
 0000:0000  Abs  KEY__10aug87_2033_OF_RTSCorouti
 0000:0000  Abs  KEY__10aug87_2031_OF_Display
 0000:0000  Abs  KEY__00xxx00_0000_OF_RTSLanguag
 0000:0000  Abs  KEY__00xxx00_0000_OF_RTSInterru
 0000:0000  Abs  KEY__00xxx00_0000_OF_RTSPriorit
 0000:0000  Abs  KEY__00xxx00_0000_OF_RTSMain
 0000:0000  Abs  KEY__00xxx00_0000_OF_RTS87
 0000:0000  Abs  KEY__00xxx00_0000_OF_DebugPMD
 0000:0000  Abs  KEY__00xxx00_0000_OF_RTSError
 0000:0000  Abs  KEY__00xxx00_0000_OF_RTSCorouti
 0000:0000  Abs  KEY__10aug87_2031_OF_DOSMemory
 0000:0000  Abs  KEY__10aug87_2030_OF_BlockOps
 0000:0000  Abs  KEY__10aug87_2031_OF_Devices
 0000:0000  Abs  KEY__10aug87_2031_OF_DebugPMD
 0000:0000  Abs  KEY__05feb87_1233_OF_Longs
 0000:0000  Abs  KEY__00xxx00_0000_OF_RTSRealErr
 0000:0000  Abs  KEY__10aug87_2030_OF_BitByteOps
 0000:0000  Abs  KEY__10aug87_2030_OF_ASCII
 0000:0000  Abs  KEY__10jul99_1214_OF_DGHIni
 0000:0000  Abs  KEY__10jul99_1214_OF_DGHInterfa
 0000:0000  Abs  KEY__10jul99_1214_OF_DGH_utils
 0000:0000  Abs  KEY__10jul99_1214_OF_CommonData
 0000:0000  Abs  KEY__10jul99_1214_OF_CommonType
 0000:0000  Abs  KEY__10jul99_1214_OF_Czas
 0000:0000  Abs  KEY__10jul99_1214_OF_DigiRS
 0000:0000  Abs  KEY__10jul99_1214_OF_DisResUtil
 0000:0000  Abs  KEY__10jul99_1214_OF_DrawEpson
 0000:0000  Abs  KEY__10jul99_1214_OF_DOSEntry
 0000:0000  Abs  KEY__10jul99_1214_OF_DataCollec
 0000:0000  Abs  KEY__10jul99_1214_OF_Dialog
 0000:0000  Abs  KEY__10jul99_1214_OF_CocpDsp
 0000:0000  Abs  KEY__10jul99_1214_OF_Buttons
 0001:0000       $BM__PN
 0001:0002       $BODY__PN
 0001:0303       StartModula
 0001:03A9       $EM__PN
 003C:0000       $BM__MANAGER
 003C:0002       S__ASSERT__MANAGER
 003C:002D       S__InsertReady__MANAGER
 003C:0236       S__RemoveReady__MANAGER
 003C:04D7       S__ClearQueue__MANAGER
 003C:05E2       S__INSERT__MANAGER
 003C:07D2       S__REMOVE__MANAGER
 003C:0892       L__SEND__Scheduler__MANAGER
 003C:0892       L__SEND__MANAGER
 003C:0A58       L__Notify__Scheduler__MANAGER
 003C:0A58       L__Notify__MANAGER
 003C:0AAF       L__Broadcast__Scheduler__MANAGE
 003C:0AAF       L__Broadcast__MANAGER
 003C:0AFD       L__WAITS__MANAGER
 003C:0AFD       L__WAITS__Scheduler__MANAGER
 003C:0BEF       L__WAITC__MANAGER
 003C:0BEF       L__WAITC__Scheduler__MANAGER
 003C:0CE1       L__DOIO__MANAGER
 003C:0CE1       L__DOIO__Scheduler__MANAGER
 003C:0FB4       L__AWAITEDS__Scheduler__MANAGER
 003C:0FB4       L__AWAITEDS__MANAGER
 003C:0FEF       L__AWAITEDC__MANAGER
 003C:0FEF       L__AWAITEDC__Scheduler__MANAGER
 003C:102A       S__STOPPROCESS__Scheduler__MANA
 003C:1144       S__StopAError__Scheduler__MANAG
 003C:11B5       S__ActivateProcess__Scheduler__
 003C:12EF       L__Assert__Scheduler__MANAGER
 003C:12EF       L__Assert__MANAGER
 003C:1357       $BODY__Scheduler__MANAGER
 003C:137C       L__STARTPROCESS__MANAGER
 003C:1629       L__PriorityDecrease__MANAGER
 003C:176C       L__InitC__MANAGER
 003C:1782       L__InitS__MANAGER
 003C:1798       L__Release__MANAGER
 003C:17CC       L__StartTimeSlicing__MANAGER
 003C:17E6       L__RecoveryTime__MANAGER
 003C:17F9       L__CurrentProcess__MANAGER
 003C:1815       L__InstallTermProc__MANAGER
 003C:188B       L__RemoveTermProc__MANAGER
 003C:18E5       L__EnterProtectedOp__MANAGER
 003C:18ED       L__ExitProtectedOp__MANAGER
 003C:18F5       S__CallTerminatingProcedures__M
 003C:1973       L__Terminator__MANAGER
 003C:1A6A       S__InstallTerminator__MANAGER
 003C:1A90       L__DUMMYPRO__MANAGER
 003C:1B1A       $BODY__MANAGER
 003C:1DCE       $INIT__MANAGER
 003C:1E0C       $EM__MANAGER
 021D:0000       $BM__PI_PA
 021D:0002       $BODY__PI_PA
 021D:0012       $INIT__PI_PA
 021D:002D       $EM__PI_PA
 0220:0000       $BM__DOSEntry
 0220:0002       L__onEntryHandler__DOSEntry
 0220:004F       L__onExitHandler__DOSEntry
 0220:009C       L__TerminalProcedure__DOSEntry
 0220:00C2       $BODY__DOSEntry
 0220:0150       $INIT__DOSEntry
 0220:017A       $EM__DOSEntry
 0238:0000       $BM__ErrorMess
 0238:0029       L__MyErrorHand__ErrorMess
 0238:00E1       $BODY__ErrorMess
 0238:010C       $INIT__ErrorMess
 0238:0145       $EM__ErrorMess
 024D:0000       $BM__PrintScreen
 024D:0013       S__OpenF__PrintScreen
 024D:00A7       L__SaveToDib__PrintScreen
 024D:02FC       S__Init__PrintScreen
 024D:031D       $BODY__PrintScreen
 024D:0326       $INIT__PrintScreen
 024D:036E       $EM__PrintScreen
 0284:0000       $BM__Tune
 0284:0007       S__Send__Tune
 0284:009C       L__TurnOffADF__Tune
 0284:00F4       L__TurnOffVOR_ILS__Tune
 0284:014C       L__TuneADF__Tune
 0284:0303       N__TuneGS__TuneILS__Tune
 0284:0409       L__TuneILS__Tune
 0284:049F       S__SendDMECntrlWrd__Tune
 0284:052E       N__ConvertFrqTOControlWord__Tun
 0284:05D9       L__TuneDMEforVOR__Tune
 0284:061B       L__TuneDMEforILS__Tune
 0284:065D       L__TuneVOR__Tune
 0284:0697       S__TuneVOR_ILS__Tune
 0284:07EE       L__ILSfrqString__Tune
 0284:0849       L__ILSIncFch__Tune
 0284:0881       L__ILSDecFch__Tune
 0284:08B9       L__VORIncFch__Tune
 0284:08FF       L__VORDecFch__Tune
 0284:093F       L__IncADFFch__Tune
 0284:0966       L__DecADFFch__Tune
 0284:0998       L__SetCPFlags__Tune
 0284:0A08       $BODY__Tune
 0284:0C0B       $INIT__Tune
 0284:0C49       $EM__Tune
 0349:0000       $BM__PI_Qcheck
 0349:00F2       N__Tlo__Sprawdz__PI_Qcheck
 0349:015B       N__WrStr__Sprawdz__PI_Qcheck
 0349:01C4       N__WrInt__Sprawdz__PI_Qcheck
 0349:023F       N__WrPrc__Sprawdz__PI_Qcheck
 0349:033B       L__Sprawdz__PI_Qcheck
 0349:08AC       S__Init__PI_Qcheck
 0349:0902       $BODY__PI_Qcheck
 0349:090B       $INIT__PI_Qcheck
 0349:0962       $EM__PI_Qcheck
 03E0:0000       $BM__ScannerI
 03E0:0104       S__DistR2C__ScannerI
 03E0:01B8       L__GetGPS__ScannerI
 03E0:0377       L__GetGPSSpread__ScannerI
 03E0:069A       L__GetAndCountTEODummy__Scanner
 03E0:06AF       N__GetTeo__GetAndCountTEO__Scan
 03E0:0894       L__GetAndCountTEO__ScannerI
 03E0:098F       L__Sim_Dis__ScannerI
 03E0:0AA9       L__AssSim_Dis__ScannerI
 03E0:0ACE       L__Sim_Alfa__ScannerI
 03E0:0B3C       L__AssSim_Alfa__ScannerI
 03E0:0B61       S__InitDataSimul__ScannerI
 03E0:0C27       N__TurnDGH_ON__SIMDATA__Scanner
 03E0:0C76       N__ReadDME__SIMDATA__ScannerI
 03E0:0DD2       N__ReadALT__SIMDATA__ScannerI
 03E0:0E64       N__OdlegWgPredk__SIMDATA__Scann
 03E0:0F36       L__SIMDATA__ScannerI
 03E0:13C4       N__FindIt__SetEvalPROC__Scanner
 03E0:1450       N__FindFree__SetEvalPROC__Scann
 03E0:14C3       L__SetEvalPROC__ScannerI
 03E0:155E       L__NewDataAvailable__ScannerI
 03E0:1588       L__Start__ScannerI
 03E0:1725       L__LocationsTogether__ScannerI
 03E0:1754       L__CurrGPSAlfaOffset__ScannerI
 03E0:1783       L__Stop__ScannerI
 03E0:17B0       L__InitPilotEventId__ScannerI
 03E0:17D3       L__GetPilotEvent__ScannerI
 03E0:1827       S__Chksimul__ScannerI
 03E0:1886       $BODY__ScannerI
 03E0:1954       $INIT__ScannerI
 03E0:19D3       $EM__ScannerI
 057E:0000       $BM__CommonTypes
 057E:0010       L__GetRecName__CommonTypes
 057E:0055       L__GetTranName__CommonTypes
 057E:0098       L__InitSignalDsc__CommonTypes
 057E:00B7       L__Init_flgTab__CommonTypes
 057E:00F4       $BODY__CommonTypes
 057E:00FA       $INIT__CommonTypes
 057E:011F       $EM__CommonTypes
 0591:0000       $BM__TheodolitRead
 0591:0107       N__Angle360__TheodolitView__The
 0591:01B7       L__TheodolitView__TheodolitRead
 0591:05AE       L__GetCurrDataSign__TheodolitRe
 0591:05DD       L__InitTeoEventId__TheodolitRea
 0591:0600       L__GetTeoEvent__TheodolitRead
 0591:0654       L__GetTheoR__TheodolitRead
 0591:0700       L__GetTheoI__TheodolitRead
 0591:0852       S__signalError__TheodolitRead
 0591:086F       N__AssignRes__Analizer__Theodol
 0591:0915       N__Rd__Analizer__TheodolitRead
 0591:097D       N__CountCrc__Analizer__Theodoli
 0591:09A8       N__GetNum__Analizer__TheodolitR
 0591:0A73       S__Analizer__TheodolitRead
 0591:0DF1       L__WatchDog__TheodolitRead
 0591:0ECB       L__NicNieRob__TheodolitRead
 0591:0EE0       $BODY__TheodolitRead
 0591:1039       $INIT__TheodolitRead
 0591:1095       $EM__TheodolitRead
 069B:0000       $BM__GPSRead
 069B:001A       L__Read_Nic__GPSRead
 069B:002D       L__Read_Nov__GPSRead
 069B:0177       L__Read_Trimble__GPSRead
 069B:0225       L__GPSReceive__GPSRead
 069B:029B       L__GetDirection__GPSRead
 069B:02DA       L__GetCurrDataSign__GPSRead
 069B:0309       L__WatchDog__GPSRead
 069B:05FA       $BODY__GPSRead
 069B:0670       $INIT__GPSRead
 069B:06B3       $EM__GPSRead
 0707:0000       $BM__DGHIni
 0707:03D8       S__InitTableOfNames__DGHIni
 0707:08D1       S__FillSignalTable__DGHIni
 0707:0CDC       S__ReadDGHIniFile__DGHIni
 0707:0D08       $BODY__DGHIni
 0707:0D49       $INIT__DGHIni
 0707:0D73       $EM__DGHIni
 07DF:0000       $BM__N_Files
 07DF:0081       S__StartFiles__N_Files
 07DF:01F8       L__CreateFiles__N_Files
 07DF:0214       L__OpenFiles__N_Files
 07DF:02B6       L__SaveData__N_Files
 07DF:0532       L__LoadData__N_Files
 07DF:074D       L__CloseFiles__N_Files
 07DF:07DE       L__OpenSignalFiles__N_Files
 07DF:0867       L__ReadAllSignals__N_Files
 07DF:0962       L__CloseSignalFiles__N_Files
 07DF:097C       L__KopiujWszystkiePliki__N_File
 07DF:0A79       L__GetSigFileName__N_Files
 07DF:0AEC       L__OpenFileRes__N_Files
 07DF:0BDB       L__WriteFileRes__N_Files
 07DF:0C1E       L__CloseFileRes__N_Files
 07DF:0C71       L__GetResFileName__N_Files
 07DF:0CBD       N__AssignName__InitLocals__N_Fi
 07DF:0D69       S__InitLocals__N_Files
 07DF:0EB0       $BODY__N_Files
 07DF:0EB9       $INIT__N_Files
 07DF:0F1F       $EM__N_Files
 08D2:0000       $BM__N_CommonTypes
 08D2:0002       $BODY__N_CommonTypes
 08D2:0008       $INIT__N_CommonTypes
 08D2:0023       $EM__N_CommonTypes
 08D5:0000       $BM__PI_Glowny
 08D5:0002       L__GlownyEP__PI_Glowny
 08D5:009B       $BODY__PI_Glowny
 08D5:00A1       $INIT__PI_Glowny
 08D5:00DF       $EM__PI_Glowny
 08E4:0000       $BM__N_Inspekcja
 08E4:02E1       S__Pokaz__N_Inspekcja
 08E4:030F       L__UsunOblot__N_Inspekcja
 08E4:03AA       L__UsunOblotP__N_Inspekcja
 08E4:03F9       L__ProbujWstawicOblot__N_Inspek
 08E4:040F       L__ZmienOblot__N_Inspekcja
 08E4:065D       L__EnumObl__N_Inspekcja
 08E4:0687       L__WymienPasujaceObloty__N_Insp
 08E4:06E9       L__DodajOblot__N_Inspekcja
 08E4:0CEA       L__NowyOblot__N_Inspekcja
 08E4:0D39       L__OblotOK__N_Inspekcja
 08E4:0DE5       N__SetDefInsp__InspekcjaEP__N_I
 08E4:0E8F       L__InspekcjaEP__N_Inspekcja
 08E4:1222       $BODY__N_Inspekcja
 08E4:1250       $INIT__N_Inspekcja
 08E4:12F2       $EM__N_Inspekcja
 0A14:0000       $BM__N_Oblot
 0A14:03DC       L__Okrag_A__N_Oblot
 0A14:03FB       L__Okrag_B__N_Oblot
 0A14:041A       L__Promien_A__N_Oblot
 0A14:0439       L__Promien_B__N_Oblot
 0A14:0458       S__TestUP_PROC__N_Oblot
 0A14:0478       L__Raport_PROC__N_Oblot
 0A14:0498       L__PlayP__N_Oblot
 0A14:04B8       L__RaportKoncowyP__N_Oblot
 0A14:04D8       L__View_PROC__N_Oblot
 0A14:04F8       S__RealVal__N_Oblot
 0A14:0564       S__Pokaz__N_Oblot
 0A14:0592       L__CzyDobraOrbita__N_Oblot
 0A14:06B7       L__CzyDobryPromien__N_Oblot
 0A14:075A       S__ZakonczDlg__N_Oblot
 0A14:0770       L__PomiarP__N_Oblot
 0A14:0790       L__GlowOdbP__N_Oblot
 0A14:0842       S__RealValid__N_Oblot
 0A14:08F7       L__RealCisnValid__N_Oblot
 0A14:09C0       S__PoprawPromien__N_Oblot
 0A14:0A42       L__PoprawPromienA__N_Oblot
 0A14:0A65       L__PoprawPromienB__N_Oblot
 0A14:0A88       S__NadajnikCH__N_Oblot
 0A14:0AB3       N__InitDefault__InitLot__N_Oblo
 0A14:0D58       N__LecianePromienie__InitLot__N
 0A14:0FEE       N__SaveDefault__InitLot__N_Oblo
 0A14:10FC       N__Make2__AssignButt__InitLot__
 0A14:11BC       N__AssignButt__InitLot__N_Oblot
 0A14:16FE       N__Pr__FillData__InitLot__N_Obl
 0A14:17AD       N__Or__FillData__InitLot__N_Obl
 0A14:1839       N__FillData__InitLot__N_Oblot
 0A14:1952       L__InitLot__N_Oblot
 0A14:1A29       L__SciezkaDoKataloguOpisu__N_Ob
 0A14:1B62       S__Wlacz_Wylacz__N_Oblot
 0A14:1C19       N__ProcIdentifier__Zapisz__N_Ob
 0A14:1C81       N__Zaznacz__Zapisz__N_Oblot
 0A14:1EAA       L__Zapisz__N_Oblot
 0A14:200D       $BODY__N_Oblot
 0A14:2041       $INIT__N_Oblot
 0A14:2101       $EM__N_Oblot
 0C25:0000       $BM__CommonData
 0C25:0012       $BODY__CommonData
 0C25:00A7       $INIT__CommonData
 0C25:00CC       $EM__CommonData
 0C32:0000       $BM__Files
 0C32:016F       L__Kopiuj__Files
 0C32:0240       L__ReadDef__Files
 0C32:0273       L__CreateFiles__Files
 0C32:0638       L__OpenFiles__Files
 0C32:09FD       L__SaveData__Files
 0C32:0CB2       L__LoadData__Files
 0C32:0F3B       L__CloseFiles__Files
 0C32:1096       L__OpenSignalFiles__Files
 0C32:1685       L__ReadXref__Files
 0C32:16EA       L__ReadFlgs__Files
 0C32:1729       L__ReadAllSignals__Files
 0C32:17EB       L__CloseSignalFiles__Files
 0C32:1902       S__RemoveBSl__Files
 0C32:1965       N__TworzK__KopiujWszystkiePliki
 0C32:19D4       L__KopiujWszystkiePliki__Files
 0C32:1BE4       L__LoadAResult__Files
 0C32:1D15       L__SaveAResult__Files
 0C32:1DB9       L__ExistDIR__Files
 0C32:1E04       L__ChangeDir__Files
 0C32:1E3D       L__GoHomeDir__Files
 0C32:1E70       S__AssignName__Files
 0C32:1F1C       L__SubstituteAngle100__Files
 0C32:1F61       L__addAngle100__Files
 0C32:1FCB       L__subNormal__Files
 0C32:203F       L__addNormal__Files
 0C32:20C9       L__FInterpolacja__Files
 0C32:246E       L__SigInterpolacja__Files
 0C32:264E       L__GetALfaRefFName__Files
 0C32:26C2       L__GetDisRefFName__Files
 0C32:2735       L__GetCommSigFName__Files
 0C32:27A8       L__OpenCommSigFName__Files
 0C32:2819       L__CloseCommSigFName__Files
 0C32:2833       L__ReadCommSigFName__Files
 0C32:2852       S__Init__Files
 0C32:2B3D       $BODY__Files
 0C32:2B56       $INIT__Files
 0C32:2BCB       $EM__Files
 0EEF:0000       $BM__N_CP_ControlProc
 0EEF:0012       S__ClearLinVelContiner__N_CP_Co
 0EEF:006E       N__succ__RadialDirection__Radia
 0EEF:009B       N__checkDir__RadialDirection__R
 0EEF:0149       N__RadialDirection__Radial__N_C
 0EEF:0329       L__Radial__N_CP_ControlProc
 0EEF:04F3       S__ClearAngVelContiner__N_CP_Co
 0EEF:054F       N__succ__OrbitDirection__Orbit_
 0EEF:057C       N__checkDir__OrbitDirection__Or
 0EEF:05D4       N__OrbitDirection__Orbit__N_CP_
 0EEF:07AD       L__Orbit__N_CP_ControlProc
 0EEF:09A9       L__StartCPLoop__N_CP_ControlPro
 0EEF:0A72       L__StopCPLoop__N_CP_ControlProc
 0EEF:0ADB       $BODY__N_CP_ControlProc
 0EEF:0B30       $INIT__N_CP_ControlProc
 0EEF:0B8C       $EM__N_CP_ControlProc
 0FA8:0000       $BM__Pomiar
 0FA8:00F4       L__StartBP__Pomiar
 0FA8:0104       L__RestartBP__Pomiar
 0FA8:0114       L__AbortBP__Pomiar
 0FA8:0124       L__CallStopButton__Pomiar
 0FA8:012E       L__StopBP__Pomiar
 0FA8:013E       L__PrzelaczPomiaryBP__Pomiar
 0FA8:014F       L__AkceptacjaBP__Pomiar
 0FA8:015F       N__Sek2__PolaryzacjaBP__Pomiar
 0FA8:01F6       L__PolaryzacjaBP__Pomiar
 0FA8:03EF       L__InitPomiar__Pomiar
 0FA8:05EF       N__PoprawnieUstawButtony__Pomia
 0FA8:06EF       N__NastepnyStan__GetEvent__Pomi
 0FA8:0767       N__GetEvent__PomiarEP__Pomiar
 0FA8:08A5       N__InitButtony__PomiarEP__Pomia
 0FA8:0B16       N__DisposeButtons__Done__Pomiar
 0FA8:0B84       N__Done__PomiarEP__Pomiar
 0FA8:0B92       N__AlfaRefInfo__PomiarEP__Pomia
 0FA8:0BD2       N__DeltaRefInfo__PomiarEP__Pomi
 0FA8:0C3F       N__DataLosInfo__PomiarEP__Pomia
 0FA8:0C88       N__PrologAnalyse__PomiarEP__Pom
 0FA8:0EC2       L__PomiarEP__Pomiar
 0FA8:14E0       $BODY__Pomiar
 0FA8:153F       $INIT__Pomiar
 0FA8:15AF       $EM__Pomiar
 1104:0000       $BM__Screen
 1104:01D5       S__RectWykresy__Screen
 1104:0259       S__UniversalEvent__Dialog__Scre
 1104:02D8       L__RegionWykGEvent__Dialog__Scr
 1104:0323       L__RegionWykGButton__Dialog__Sc
 1104:037F       L__RegionWyk1Event__Dialog__Scr
 1104:03CA       L__RegionWyk1Button__Dialog__Sc
 1104:0419       L__RegionWyk2Event__Dialog__Scr
 1104:0464       L__RegionWyk2Button__Dialog__Sc
 1104:04B3       L__RegionWyk3Event__Dialog__Scr
 1104:04FE       L__RegionWyk3Button__Dialog__Sc
 1104:054D       S__PokazWgKursora__Dialog__Scre
 1104:0B48       L__WykrEvent__Dialog__Screen
 1104:0BC1       L__KursorLewoButton__Dialog__Sc
 1104:0BDA       L__KursorPrawoPar__Dialog__Scre
 1104:0BF3       N__RedrawRqs__Xchg__Dialog__Scr
 1104:0C7D       S__Xchg__Dialog__Screen
 1104:0CC9       S__ShowBarCursor__Dialog__Scree
 1104:0D49       L__KursorOnOffBP__Dialog__Scree
 1104:0D66       L__SkalaPlusBP__Dialog__Screen
 1104:0E5D       L__SkalaMinusBP__Dialog__Screen
 1104:0F54       L__KursorPrawoBP__Dialog__Scree
 1104:0F7E       L__KursorLewoBP__Dialog__Screen
 1104:0FA8       S__UpdateMap__Dialog__Screen
 1104:0FD7       N__CurrCursorMode__RuszKursor__
 1104:10CD       S__RuszKursor__Dialog__Screen
 1104:1236       N__CurrDistance__OpisDla__InitW
 1104:13D2       N__OpisDla__InitWykr__Dialog__S
 1104:1749       S__InitWykr__Dialog__Screen
 1104:17F1       S__InitDialog__Dialog__Screen
 1104:1876       S__DisposeKursor__Dialog__Scree
 1104:18A7       S__KursoffOff__Dialog__Screen
 1104:18CD       S__KursoffOn__Dialog__Screen
 1104:18F9       L__ConEventButton__Screen
 1104:190A       L__SetButtons__Screen
 1104:1983       S__InitButtony__Screen
 1104:1AFD       N__ShowCurrDIB__InitSlupki__Scr
 1104:1B5E       N__Define__InitSlupki__Screen
 1104:1B9A       S__InitSlupki__Screen
 1104:1D4C       S__InitKrokOpisuOsi__Screen
 1104:1D6D       L__Init__Screen
 1104:1F5F       N__WriteText__ShowMarks__Update
 1104:20D1       N__DrawEvent__ShowMarks__Update
 1104:2201       N__ZwKrokOpisuOsi__ShowMarks__U
 1104:22B6       N__ShowMarks__UpdateWykr__Updat
 1104:2485       N__UpdateWykr__Update__Screen
 1104:2CA3       N__MarkDraw__WskazWykresy__Upda
 1104:2D08       N__WskazWykresy__Update__Screen
 1104:2D80       N__NapiszGPSFlg__NapiszGPS__Upd
 1104:2DE6       N__NapiszGPS__UpdateNapisy__Upd
 1104:30F6       N__NapiszTEO__UpdateNapisy__Upd
 1104:3357       N__UpdateNapisy__Update__Screen
 1104:34A4       L__Update__Screen
 1104:35A5       L__ScreenStart__Screen
 1104:35AE       N__KasujSlupki__Done__Screen
 1104:3664       N__DisposeButtons__Done__Screen
 1104:36CD       L__Done__Screen
 1104:36D9       $BODY__Screen
 1104:36F5       $INIT__Screen
 1104:37A6       $EM__Screen
 147F:0000       $BM__PI_Analiza
 147F:0062       L__DrukujBP__MouseMonitor__PI_A
 147F:0091       L__ZapamietajBP__MouseMonitor__
 147F:00C0       L__PWyjscieZProgramuBP__MouseMo
 147F:00EF       L__PageUpBP__MouseMonitor__PI_A
 147F:011E       L__PrzelaczPomiaryBP__MouseMoni
 147F:014D       L__PageDownBP__MouseMonitor__PI
 147F:017C       S__InitButtony__MouseMonitor__P
 147F:036D       S__GetEvent__MouseMonitor__PI_A
 147F:042C       S__DisposeButtons__MouseMonitor
 147F:04A9       $BODY__MouseMonitor__PI_Analiza
 147F:0518       L__AnalizaEP__PI_Analiza
 147F:06CC       $BODY__PI_Analiza
 147F:06D5       $INIT__PI_Analiza
 147F:0745       $EM__PI_Analiza
 14F4:0000       $BM__PI_Pomiar
 14F4:0012       L__Analiza__PI_Pomiar
 14F4:003E       S__NullPolV__PI_Pomiar
 14F4:0046       L__InitPomiar__PI_Pomiar
 14F4:025E       $BODY__PI_Pomiar
 14F4:0264       $INIT__PI_Pomiar
 14F4:02CF       $EM__PI_Pomiar
 1522:0000       $BM__PI_ArchDate
 1522:0002       L__LoadData__PI_ArchDate
 1522:0089       $BODY__PI_ArchDate
 1522:008F       $INIT__PI_ArchDate
 1522:00DC       $EM__PI_ArchDate
 1530:0000       $BM__PI_Drukuj
 1530:0002       L__Druk__PI_Drukuj
 1530:000F       $BODY__PI_Drukuj
 1530:0015       $INIT__PI_Drukuj
 1530:0044       $EM__PI_Drukuj
 1535:0000       $BM__N_DataBase
 1535:012F       S__SignalError__N_DataBase
 1535:0147       N__GetStr__OpisNadajnika__N_Dat
 1535:028E       L__OpisNadajnika__N_DataBase
 1535:0597       N__GetCardinal__LoadProgramPar_
 1535:0606       S__LoadProgramPar__N_DataBase
 1535:0674       $BODY__N_DataBase
 1535:069F       $INIT__N_DataBase
 1535:070A       $EM__N_DataBase
 15A6:0000       $BM__SpecConv
 15A6:009C       S__CheckINil__SpecConv
 15A6:0163       S__CheckCNil__SpecConv
 15A6:01ED       L__Int2Str__SpecConv
 15A6:0225       L__Card2Str__SpecConv
 15A6:025D       L__Int10Str__SpecConv
 15A6:033A       L__Card10Str__SpecConv
 15A6:0411       L__Int100Str__SpecConv
 15A6:0535       L__Int100StrCalk__SpecConv
 15A6:057F       L__Card100Str__SpecConv
 15A6:06A4       L__Ang100Str36__SpecConv
 15A6:0711       L__Ang100Str36Calk__SpecConv
 15A6:078F       L__Int500Str__SpecConv
 15A6:08C0       L__Feed500Str__SpecConv
 15A6:0959       L__Card500Str__SpecConv
 15A6:0A8D       L__Int1000Str__SpecConv
 15A6:0BF8       L__Angle100__SpecConv
 15A6:0C58       L__RAngle100__SpecConv
 15A6:0D36       L__AngleDeg__SpecConv
 15A6:0DA7       L__SubAngle100__SpecConv
 15A6:0E7B       L__AddAngle100__SpecConv
 15A6:0F4F       L__SubAng360__SpecConv
 15A6:101A       L__AfterAngle100__SpecConv
 15A6:10B3       L__SubNormal__SpecConv
 15A6:10CE       L__AddNormal__SpecConv
 15A6:10E9       L__GorszeBoDalszeR__SpecConv
 15A6:1127       L__GorszeBoDalsze__SpecConv
 15A6:1178       L__GorszeBoBlisze__SpecConv
 15A6:11C9       L__GorszeBoMniejszePol__SpecCon
 15A6:120A       L__GorszeBoMniejsze__SpecConv
 15A6:1237       L__GorszeBoWieksze__SpecConv
 15A6:1264       L__GorszeBoMniejszeM60__SpecCon
 15A6:12A5       L__GorszeBoMniejsze400__SpecCon
 15A6:12E6       L__GorszeBoMniejsze800__SpecCon
 15A6:1327       L__GorszeBoMniejsze300__SpecCon
 15A6:1368       L__GorszeBoMniejsze160__SpecCon
 15A6:13A9       L__GorszeBoMniejsze5000__SpecCo
 15A6:13EA       L__GorszeBoMniejsze500__SpecCon
 15A6:142B       L__GorszeBoMniejsze1500__SpecCo
 15A6:146C       L__GorszeBoMniejsze2000__SpecCo
 15A6:14AD       L__GorszeBoDalszeOdZera__SpecCo
 15A6:14EA       L__entierCheck__SpecConv
 15A6:15A6       L__entier__SpecConv
 15A6:165C       L__Int2StrCntr__SpecConv
 15A6:1755       L__Div__SpecConv
 15A6:1782       L__Mul__SpecConv
 15A6:17AE       L__Add__SpecConv
 15A6:17DA       L__Sub__SpecConv
 15A6:180D       L__SubDis__SpecConv
 15A6:1858       L__AddDis__SpecConv
 15A6:189B       L__IncRound__SpecConv
 15A6:18A9       L__SubWCheck__SpecConv
 15A6:1948       L__Int2Card__SpecConv
 15A6:197A       L__ZaokraglicDo500__SpecConv
 15A6:19B9       $BODY__SpecConv
 15A6:19BF       $INIT__SpecConv
 15A6:19F8       $EM__SpecConv
 1746:0000       $BM__Storage
 1746:0002       L__ALLOCATE__Storage
 1746:01B9       L__DEALLOCATE__Storage
 1746:02D0       L__Available__Storage
 1746:03A3       L__InstallHeap__Storage
 1746:0422       L__RemoveHeap__Storage
 1746:04B3       S__SetStrategia__Storage
 1746:04CB       S__GetStrategia__Storage
 1746:04E7       S__SetChain__Storage
 1746:04FF       S__GetChain__Storage
 1746:051E       L__Terminator__Storage
 1746:0544       $BODY__Storage
 1746:058E       $INIT__Storage
 1746:05B8       $EM__Storage
 17A2:0000       $BM__SoftIntHandlingManager
 17A2:0002       L__SetEventHandler__SoftIntHand
 17A2:0041       L__RestoreEventHandler__SoftInt
 17A2:0067       L__checkBreak__SoftIntHandlingM
 17A2:008A       L__BreakChain__SoftIntHandlingM
 17A2:009A       L__InstPrologueHnd__Monitor__So
 17A2:009A       L__InstPrologueHnd__SoftIntHand
 17A2:0256       L__InstEpilogueHnd__Monitor__So
 17A2:0256       L__InstEpilogueHnd__SoftIntHand
 17A2:03FA       L__UnInstallHandler__Monitor__S
 17A2:03FA       L__UnInstallHandler__SoftIntHan
 17A2:0517       L__UnInstallAllHandlers__Monito
 17A2:0590       $BODY__Monitor__SoftIntHandling
 17A2:05BE       $BODY__SoftIntHandlingManager
 17A2:05D1       $INIT__SoftIntHandlingManager
 17A2:05F6       $EM__SoftIntHandlingManager
 1802:0000       $BM__Timer
 1802:0002       S__Insert__Monitor__Timer
 1802:0159       S__Remove__Monitor__Timer
 1802:0277       L__Wait__Monitor__Timer
 1802:0277       L__Wait__Timer
 1802:0309       L__WaitBefProtOper__Monitor__Ti
 1802:0309       L__WaitBefProtOper__Timer
 1802:03B8       L__WaitMetronomeBefProtOper__Ti
 1802:03B8       L__WaitMetronomeBefProtOper__Mo
 1802:043F       L__WaitMetronome__Timer
 1802:043F       L__WaitMetronome__Monitor__Time
 1802:04B5       L__DefinePeriod__Monitor__Timer
 1802:04B5       L__DefinePeriod__Timer
 1802:051F       L__CurrentPeriod__Timer
 1802:051F       L__CurrentPeriod__Monitor__Time
 1802:0559       L__AssignPeriodicProc__Timer
 1802:0559       L__AssignPeriodicProc__Monitor_
 1802:057E       N__Count__IBMIntHandler__Monito
 1802:06FC       L__IBMIntHandler__Monitor__Time
 1802:07F7       S__SetCount__Monitor__Timer
 1802:08B3       L__RestoreTimer__Monitor__Timer
 1802:08D4       $BODY__Monitor__Timer
 1802:092C       L__TInOneSecond__Timer
 1802:0940       L__NewMetronome__Timer
 1802:09B7       L__ResetMetronome__Timer
 1802:0A36       L__DisposeMetronome__Timer
 1802:0A94       L__NewWatchdog__Timer
 1802:0AE2       L__StartProtectedOperation__Tim
 1802:0B56       L__StopProtectedOperation__Time
 1802:0B9B       L__DisposeWatchdog__Timer
 1802:0BFF       L__Dummy__Timer
 1802:0C05       S__BreakKey__Timer
 1802:0C72       $BODY__Timer
 1802:0C8E       $INIT__Timer
 1802:0CBD       $EM__Timer
 18CE:0000       $BM__Messages
 18CE:0004       L__DisableDisplay__Messages
 18CE:002E       L__EnableDisplay__Messages
 18CE:0058       S__ACKMess__Messages
 18CE:010B       L__NewMessage__Messages
 18CE:0164       L__DisposeMessage__Messages
 18CE:0181       L__Display__Messages
 18CE:0265       L__ShowFirst__Messages
 18CE:0312       L__AcknowledgeFirst__Messages
 18CE:0337       L__Acknowledge__Messages
 18CE:0358       S__OUTMessage__Messages
 18CE:0382       S__Beep__Messages
 18CE:03F9       L__KbdAck__Messages
 18CE:0405       L__KbdDsp__Messages
 18CE:0411       $BODY__Messages
 18CE:046A       $INIT__Messages
 18CE:04A8       $EM__Messages
 1919:0000       $BM__StdIO
 1919:0022       N__GetNum__sprintf__StdIO
 1919:00C8       N__IntConv__sprintf__StdIO
 1919:023F       N__StripSpaces__sprintf__StdIO
 1919:031F       N__BuildNumber__sprintf__StdIO
 1919:037B       L__sprintf__StdIO
 1919:0D80       L__sprintf4__StdIO
 1919:0F81       L__sprintf5__StdIO
 1919:11F3       L__sprintf3__StdIO
 1919:1383       L__sprintf2__StdIO
 1919:149F       $BODY__StdIO
 1919:14A5       $INIT__StdIO
 1919:14D9       $EM__StdIO
 1A67:0000       $BM__ShortCuts
 1A67:0002       L__KeyPressed__monitor__ShortCu
 1A67:0002       L__KeyPressed__ShortCuts
 1A67:003B       L__PutKeyStrokeIntoBuffer__moni
 1A67:003B       L__PutKeyStrokeIntoBuffer__Shor
 1A67:006D       L__ClearBuffer__monitor__ShortC
 1A67:006D       L__ClearBuffer__ShortCuts
 1A67:008B       L__Read__monitor__ShortCuts
 1A67:008B       L__Read__ShortCuts
 1A67:0104       L__Rd__monitor__ShortCuts
 1A67:0104       L__Rd__ShortCuts
 1A67:013F       S__Insert__monitor__ShortCuts
 1A67:01A0       N__Remove__RemoveToKill__monito
 1A67:032C       S__RemoveToKill__monitor__Short
 1A67:0382       S__Find__monitor__ShortCuts
 1A67:0424       S__FindAMark__monitor__ShortCut
 1A67:04D2       S__Unmark__monitor__ShortCuts
 1A67:0532       $BODY__monitor__ShortCuts
 1A67:056C       N__GetChar__KbdScan__ShortCuts
 1A67:05B8       L__KbdScan__ShortCuts
 1A67:0612       L__DefineShortCut__ShortCuts
 1A67:0691       N__Kill__DeleteShortCut__ShortC
 1A67:06DD       L__DeleteShortCut__ShortCuts
 1A67:070A       $BODY__ShortCuts
 1A67:0762       $INIT__ShortCuts
 1A67:079B       $EM__ShortCuts
 1AE1:0000       $BM__FIO
 1AE1:0002       L__Open__FIO
 1AE1:00FA       L__Create__FIO
 1AE1:01F2       L__Close__FIO
 1AE1:026A       L__Seek__FIO
 1AE1:02BC       L__Write__FIO
 1AE1:0301       L__Read__FIO
 1AE1:0346       L__ReadExt__FIO
 1AE1:0389       L__Length__FIO
 1AE1:040B       L__EOF__FIO
 1AE1:046B       L__Delete__FIO
 1AE1:04B4       L__CD__FIO
 1AE1:0510       L__MkDir__FIO
 1AE1:056C       L__RmDir__FIO
 1AE1:05B5       L__GetDir__FIO
 1AE1:0614       L__Rename__FIO
 1AE1:0685       L__GetFileStamp__FIO
 1AE1:0700       L__DirQuery__FIO
 1AE1:08B1       L__CriticalErrorHandlerProc__FI
 1AE1:08BA       L__Terminator__FIO
 1AE1:097A       S__InitFiles__FIO
 1AE1:09F0       $BODY__FIO
 1AE1:0A16       $INIT__FIO
 1AE1:0A45       $EM__FIO
 1B86:0000       $BM__Graphics
 1B86:000B       L__MaxHor__Graphics
 1B86:0014       L__MaxVer__Graphics
 1B86:001D       L__Tryb__Graphics
 1B86:008B       S__HugeMemCpy__Graphics
 1B86:0136       L__SetBank__InternalMonitor__Gr
 1B86:0136       L__SetBank__Graphics
 1B86:0191       L__GetBank__Graphics
 1B86:0191       L__GetBank__InternalMonitor__Gr
 1B86:01B2       L__DP__InternalMonitor__Graphic
 1B86:01B2       L__DP__Graphics
 1B86:025A       L__FillRect__InternalMonitor__G
 1B86:025A       L__FillRect__Graphics
 1B86:03B5       L__GetWindow__InternalMonitor__
 1B86:03B5       L__GetWindow__Graphics
 1B86:0593       L__InvertW__Graphics
 1B86:0593       L__InvertW__InternalMonitor__Gr
 1B86:0703       L__SetWindow__Graphics
 1B86:0703       L__SetWindow__InternalMonitor__
 1B86:08E1       L___WrStrXY__InternalMonitor__G
 1B86:08E1       L___WrStrXY__Graphics
 1B86:09BB       S__GetFontPtr__InternalMonitor_
 1B86:0CF3       L___Wr16StrXY__InternalMonitor_
 1B86:0CF3       L___Wr16StrXY__Graphics
 1B86:0DC9       L___Wr2StrXY__Graphics
 1B86:0DC9       L___Wr2StrXY__InternalMonitor__
 1B86:0F13       L___Wr2fStrXY__InternalMonitor_
 1B86:0F13       L___Wr2fStrXY__Graphics
 1B86:1059       L__Terminator__Graphics
 1B86:1064       S__FindROMFontAddr__Graphics
 1B86:108B       S__LoadPLFonts__Graphics
 1B86:10C2       $BODY__Graphics
 1B86:10F2       $INIT__Graphics
 1B86:1121       $EM__Graphics
 1C99:0000       $BM__XMS
 1C99:0000       L__XmsInstalled__XMS
 1C99:0011       L__QueryFreeExtMem__XMS
 1C99:003C       L__AllocateExtMem__XMS
 1C99:0068       L__FreeExtMem__XMS
 1C99:008B       L__MoveExtMemBlock__XMS
 1C99:00B2       L__ResizeExtMemBlock__XMS
 1C99:00D8       L__AllocUpperMemBlock__XMS
 1C99:0107       L__FreeUpperMemBlock__XMS
 1C99:012A       $EM__XMS
 1CAC:0000       $INIT__XMS
 1CB0:0000       $BM__XMSService
 1CB0:004E       L__Allocate__XMSService
 1CB0:00EE       L__Deallocate__XMSService
 1CB0:0110       L__Copy__XMSService
 1CB0:01F3       S__Free__XMSService
 1CB0:02F4       L__Terminator__XMSService
 1CB0:03C4       S__Blad__XMSService
 1CB0:0412       S__WrWarning__XMSService
 1CB0:0450       $BODY__XMSService
 1CB0:0485       $INIT__XMSService
 1CB0:04BE       $EM__XMSService
 1CFC:0000       $BM__DGHInterface
 1CFC:002B       L__GetCurrDataSign__DGHInterfac
 1CFC:005A       L__WaitForNewData__DGHInterface
 1CFC:00A0       L__TurnOff__DGHInterface
 1CFC:00F2       L__TurnOn__DGHInterface
 1CFC:0187       L__GetAnalogVal__DGHInterface
 1CFC:0226       L__GetBinaryVal__DGHInterface
 1CFC:02BB       L__SetAnalogVal__DGHInterface
 1CFC:0392       L__SetBinaryVal__DGHInterface
 1CFC:04A0       L__SetMessage__DGHInterface
 1CFC:065C       N__HexDigit__CHKSRight__Reader_
 1CFC:06B0       N__CHKSRight__Reader__Writer__D
 1CFC:07A4       N__Reader__Writer__DGHInterface
 1CFC:0CCB       L__Writer__DGHInterface
 1CFC:0F7B       $BODY__DGHInterface
 1CFC:102C       $INIT__DGHInterface
 1CFC:1079       $EM__DGHInterface
 1E04:0000       $BM__HiLevGraf
 1E04:0007       S__Max__HiLevGraf
 1E04:0027       S__Min__HiLevGraf
 1E04:0047       S__StdPalette__HiLevGraf
 1E04:0182       L__SetPaletteEntry__HiLevGraf
 1E04:0230       S__SetPalette__HiLevGraf
 1E04:030F       N__OpenF__LoadDIB__HiLevGraf
 1E04:03A5       L__LoadDIB__HiLevGraf
 1E04:06B5       L__DIBWidth__HiLevGraf
 1E04:06E9       L__DIBHeight__HiLevGraf
 1E04:071E       S__Swap__HiLevGraf
 1E04:0741       S__Norm__HiLevGraf
 1E04:0785       L__ShowDIB__HiLevGraf
 1E04:0A9F       L__CloseDIB__HiLevGraf
 1E04:0AE1       L__SetLineStyle__HiLevGraf
 1E04:0AF4       L__Line__HiLevGraf
 1E04:0B20       L__LineS__HiLevGraf
 1E04:0C85       L__Circle__HiLevGraf
 1E04:0F6C       L__FillRect__HiLevGraf
 1E04:1026       L__Clip__HiLevGraf
 1E04:10F4       L__NoClip__HiLevGraf
 1E04:115F       L__GetClip__HiLevGraf
 1E04:117A       L__Point__HiLevGraf
 1E04:121A       L__MoveTo__HiLevGraf
 1E04:1234       L__LineTo__HiLevGraf
 1E04:1268       L__FrameRect__HiLevGraf
 1E04:12D2       L__WrStr__HiLevGraf
 1E04:138A       L__WrStrXY__HiLevGraf
 1E04:144C       L__Wr2StrXY__HiLevGraf
 1E04:1504       L__Wr2fStrXY__HiLevGraf
 1E04:15BC       S__GetDir__HiLevGraf
 1E04:1630       $BODY__HiLevGraf
 1E04:1678       $INIT__HiLevGraf
 1E04:16E3       $EM__HiLevGraf
 1F73:0000       $BM__GrafTypes
 1F73:0002       L__IsIntersect__GrafTypes
 1F73:0058       L__Intersection__GrafTypes
 1F73:0100       L__MoveRect__GrafTypes
 1F73:014B       L__IsEqual__GrafTypes
 1F73:0187       L__AssignRect__GrafTypes
 1F73:01AD       L__AssignPoint__GrafTypes
 1F73:01C5       $BODY__GrafTypes
 1F73:01CB       $INIT__GrafTypes
 1F73:01E6       $EM__GrafTypes
 1F92:0000       $BM__GrafUtil
 1F92:0003       L__Info__GrafUtil
 1F92:00BB       L__InfoBeep__GrafUtil
 1F92:0112       L__DoBeep__GrafUtil
 1F92:017A       $BODY__GrafUtil
 1F92:01D3       $INIT__GrafUtil
 1F92:0220       $EM__GrafUtil
 1FB5:0000       $BM__N_Odb
 1FB5:005A       L__CountDevErr__N_Odb
 1FB5:00F3       L__PoprawDane__N_Odb
 1FB5:0362       N__ReadRec__Oblicz__N_Odb
 1FB5:0739       L__Oblicz__N_Odb
 1FB5:08E9       S__ClearContiners__N_Odb
 1FB5:0A37       L__Start__N_Odb
 1FB5:0A57       L__Zatrzymaj__N_Odb
 1FB5:0A74       L__Wznow__N_Odb
 1FB5:0A91       L__IniData__N_Odb
 1FB5:0BA7       S__ReadAnalog__N_Odb
 1FB5:0BEE       S__Wlacz__N_Odb
 1FB5:0C1F       $BODY__N_Odb
 1FB5:0C54       $INIT__N_Odb
 1FB5:0CC4       $EM__N_Odb
 2082:0000       $BM__AltInterface
 2082:0012       L__SetPressure__AltInterface
 2082:0032       L__ALTConvert__AltInterface
 2082:0214       $BODY__AltInterface
 2082:02DB       $INIT__AltInterface
 2082:030F       $EM__AltInterface
 20B4:0000       $BM__Int_DME
 20B4:0002       L__DMEConvert__Int_DME
 20B4:00C8       $BODY__Int_DME
 20B4:00CE       $INIT__Int_DME
 20B4:00EE       $EM__Int_DME
 20C3:0000       $BM__FIltr1St
 20C3:0082       L__UstawOkresImpulsowania__FIlt
 20C3:00A2       L__InitCont__FIltr1St
 20C3:0199       L__Filtr__FIltr1St
 20C3:024F       L__InitCont2Filters__FIltr1St
 20C3:03DA       L__Filtr2Filters__FIltr1St
 20C3:050E       L__InitContB__FIltr1St
 20C3:053F       L__FiltrB__FIltr1St
 20C3:0598       L__InitContBCoun__FIltr1St
 20C3:05B7       L__BinaryCounter__FIltr1St
 20C3:0607       L__MemFiltr__FIltr1St
 20C3:0689       L__InitMemFiltr__FIltr1St
 20C3:06B5       L__MemFiltrInt__FIltr1St
 20C3:0712       L__InitMemFIntContiner__FIltr1S
 20C3:0737       $BODY__FIltr1St
 20C3:0757       $INIT__FIltr1St
 20C3:0786       $EM__FIltr1St
 213C:0000       $BM__GeoArithmetic
 213C:006A       S__DodajPolozenieGeo__GeoArithm
 213C:012E       S__Odwr__GeoArithmetic
 213C:01D4       S__OdejmijPolozenieGeo__GeoArit
 213C:02F0       S__SredniPolozenieGeo__GeoArith
 213C:03A9       S__Rad__GeoArithmetic
 213C:04C0       S__Odl2Geo__GeoArithmetic
 213C:0601       S__Mile__GeoArithmetic
 213C:0719       L__Geo2Kat__GeoArithmetic
 213C:0AEF       L__Kat2Geo__GeoArithmetic
 213C:0D1C       L__AssignOdniesienie__GeoArithm
 213C:0D90       $BODY__GeoArithmetic
 213C:0DA1       $INIT__GeoArithmetic
 213C:0DD5       $EM__GeoArithmetic
 221A:0000       $BM__DGH_utils
 221A:0002       L__TurnOffILSSig__DGH_utils
 221A:00D0       L__TurnOnLOCSig__DGH_utils
 221A:016E       L__TurnOnGSSig__DGH_utils
 221A:020C       L__TurnOnVORSig__DGH_utils
 221A:027A       L__TurnOffVORSig__DGH_utils
 221A:02E8       L__TurnOnDMESig__DGH_utils
 221A:0366       L__TurnOffDMESig__DGH_utils
 221A:03E4       L__TurnOnADFSig__DGH_utils
 221A:0432       L__TurnOffADFSig__DGH_utils
 221A:0480       N__ReadAnalog__ReadValue__DGH_u
 221A:04A8       L__ReadValue__DGH_utils
 221A:063C       L__ReadOmniber__DGH_utils
 221A:06BA       L__BinaryValSet__DGH_utils
 221A:0734       $BODY__DGH_utils
 221A:084D       $INIT__DGH_utils
 221A:08A4       $EM__DGH_utils
 22A5:0000       $BM__Czas
 22A5:003B       S__Write__BezPrzerwan__Czas
 22A5:00C0       L__GetTimeAndDate__Czas
 22A5:00C0       L__GetTimeAndDate__BezPrzerwan_
 22A5:00E8       S__SetTimeAndDate__BezPrzerwan_
 22A5:0128       L__WriteTime__Czas
 22A5:01DA       L__SetTime__Czas
 22A5:021B       L__SetDate__Czas
 22A5:024E       L__ConvertToStr__Czas
 22A5:02AF       L__Terminator__Czas
 22A5:02E0       $BODY__Czas
 22A5:0308       $INIT__Czas
 22A5:0369       $EM__Czas
 22DC:0000       $BM__Kalibracja
 22DC:097E       L__GetErrReset__ErrorHand__Kali
 22DC:097E       L__GetErrReset__Kalibracja
 22DC:09B6       S__SetError__ErrorHand__Kalibra
 22DC:09DC       $BODY__ErrorHand__Kalibracja
 22DC:09FA       N__Lookup__OmnibearingV__Kalibr
 22DC:0E16       L__OmnibearingV__Kalibracja
 22DC:0F88       L__Lookup__Kalibracja
 22DC:143A       N__Status__Error__Kalibracja
 22DC:1489       S__Error__Kalibracja
 22DC:14D4       N__LoadValue__LoadSegmentTables
 22DC:15EC       N__LoadReal__LoadSegmentTables_
 22DC:1673       N__LoadTable__LoadSegmentTables
 22DC:1719       N__LoadSegment__LoadChannel__Lo
 22DC:17D7       N__LoadChannel__LoadSegmentTabl
 22DC:1E6D       S__LoadSegmentTables__Kalibracj
 22DC:219B       N__SaveValue__SaveSegmentTables
 22DC:2293       N__SaveReal__SaveSegmentTables_
 22DC:230E       N__SaveTable__SaveSegmentTables
 22DC:23A0       N__SaveSegment__SaveChannel__Sa
 22DC:243E       N__SaveChannel__SaveSegmentTabl
 22DC:2A2F       L__SaveSegmentTables__Kalibracj
 22DC:2C81       $BODY__Kalibracja
 22DC:2DA5       $INIT__Kalibracja
 22DC:2E15       $EM__Kalibracja
 25BE:0000       $BM__DigiRS
 25BE:0002       L__GetWrBufLength__DigiRS
 25BE:004E       S__MarkError__DigiRS
 25BE:007D       L__ReadString__DigiRS
 25BE:00F3       L__WriteString__DigiRS
 25BE:018F       L__SetBaudRate__DigiRS
 25BE:02D4       $BODY__DigiRS
 25BE:02F2       $INIT__DigiRS
 25BE:031C       $EM__DigiRS
 25F0:0000       $BM__RealConversions
 25F0:0052       L__StringToReal__RealConversion
 25F0:04DF       N__convDigit__RealToString__Rea
 25F0:0572       N__convertnumber__RealToString_
 25F0:05EA       N__exp10__RealToString__RealCon
 25F0:06AC       L__RealToString__RealConversion
 25F0:0AF9       $BODY__RealConversions
 25F0:0AFF       $INIT__RealConversions
 25F0:0B1F       $EM__RealConversions
 26A3:0000       $BM__Math
 26A3:002A       L__ACos__Math
 26A3:018D       L__Sqr__Math
 26A3:01BD       $BODY__Math
 26A3:01C3       $INIT__Math
 26A3:01E8       $EM__Math
 26C2:0000       $BM__GPS_nov
 26C2:014D       L__KopijZnakZTeo__GPS_nov
 26C2:0170       S__KopZnakDoKanaluMonitora__GPS
 26C2:0193       N__ConvertHexChar__ReadGPS__Get
 26C2:0200       N__ReadGPS__GetFrame__GPS_nov
 26C2:03B1       N__szukaniePola__GetFrame__GPS_
 26C2:0426       N__DekomozycjaRamki__GetFrame__
 26C2:04F0       N__GetReal__GetFrame__GPS_nov
 26C2:0538       N__GetCardinal__GetFrame__GPS_n
 26C2:058D       N__GetInteger__GetFrame__GPS_no
 26C2:05E2       N__An_Frame_DOPA__GetFrame__GPS
 26C2:06A2       N__Isolate__ConvertStrToWspGeo_
 26C2:0929       N__ConvertStrToWspGeo__GetWspGe
 26C2:09E3       N__GetWspGeo__An_Frame_GPGGA__G
 26C2:0A2D       N__An_Frame_GPGGA__GetFrame__GP
 26C2:0B25       N__An_Frame_GPVTG__GetFrame__GP
 26C2:0B90       N__Wydziel__An_Frame_GPZDA__Get
 26C2:0C2E       N__An_Frame_GPZDA__GetFrame__GP
 26C2:0CFB       L__GetFrame__GPS_nov
 26C2:0DCE       L__Inicjacja__GPS_nov
 26C2:109C       L__gpzdaOff__GPS_nov
 26C2:10EC       $BODY__GPS_nov
 26C2:11A6       $INIT__GPS_nov
 26C2:11FD       $EM__GPS_nov
 27E2:0000       $BM__GPS_TRIMBLE
 27E2:0021       N__ReadPacketHead__GetFrame__GP
 27E2:006A       N__ReadEOL__GetFrame__GPS_TRIMB
 27E2:00C9       N__ReadGPS__GetFrame__GPS_TRIMB
 27E2:016D       N__WspGeoPoprawne__ReadG__GetFr
 27E2:01D7       N__Isolate__ReadG__GetFrame__GP
 27E2:0306       N__ReadG__GetFrame__GPS_TRIMBLE
 27E2:03CB       N__TypGPS__GetFrame__GPS_TRIMBL
 27E2:043F       N__Wydziel__GetFrame__GPS_TRIMB
 27E2:0509       N__PodstawWyniki__GetFrame__GPS
 27E2:05C7       L__GetFrame__GPS_TRIMBLE
 27E2:082D       L__Inicjacja__GPS_TRIMBLE
 27E2:084A       $BODY__GPS_TRIMBLE
 27E2:08B5       $INIT__GPS_TRIMBLE
 27E2:08F8       $EM__GPS_TRIMBLE
 2872:0000       $BM__Ini
 2872:0006       L__DefaultError__Ini
 2872:001E       S__FormSectionString__Ini
 2872:010A       S__LookForSection__Ini
 2872:018F       N__ToEOL__LookForEntry__Ini
 2872:020F       S__LookForEntry__Ini
 2872:035E       L__GetPrivateProfileString__Ini
 2872:050E       L__DeleteSection__Ini
 2872:06C6       L__WritePrivateProfileString__I
 2872:0BE2       S__Expand__Ini
 2872:0E08       L__CloseBuffer__Ini
 2872:0F29       S__AllocateBuffer__Ini
 2872:1139       $BODY__Ini
 2872:119F       $INIT__Ini
 2872:11D8       $EM__Ini
 2990:0000       $BM__MsgBox
 2990:0017       L__Warn__MsgBox
 2990:0072       L__Info__MsgBox
 2990:00F2       L__AdvInfo__MsgBox
 2990:05C9       L__P0__MsgBox
 2990:05EA       L__P1__MsgBox
 2990:060B       L__P2__MsgBox
 2990:062C       L__P3__MsgBox
 2990:064D       S__Init__MsgBox
 2990:0680       $BODY__MsgBox
 2990:0689       $INIT__MsgBox
 2990:06DB       $EM__MsgBox
 29FE:0000       $BM__Obloty
 29FE:01EB       L__UstawHomeDir__Obloty
 29FE:0242       L__Ile__Obloty
 29FE:0266       S__IleInspekcji__Obloty
 29FE:02DC       S__WymienWszystkie__Obloty
 29FE:037F       L__Dopasuj__Obloty
 29FE:041D       L__WymInspekcjeDlaUrz__Obloty
 29FE:04E4       L__WymienWszystkiePasujace__Obl
 29FE:051E       L__SzczegolowyPlikOpisu__Obloty
 29FE:068A       L__Kasuj__Obloty
 29FE:06B2       L__ZmienISkasuj__Obloty
 29FE:0738       S__SkasujKartoteke__Obloty
 29FE:078A       L__SkasujOblot__Obloty
 29FE:09B5       N__KasujPlik__KasujPodkartoteke
 29FE:0A4B       L__KasujPodkartoteke__Obloty
 29FE:0B21       S__Kasuj_DelDir__Obloty
 29FE:0B98       L__SkasujInspekcje__Obloty
 29FE:0DD3       N__ExistDIR__FreeSlot__Obloty
 29FE:0E1A       L__FreeSlot__Obloty
 29FE:0EB9       S__ZnajdzNumInspekcji__Obloty
 29FE:0FF8       L__ZnajdzInspekcje__Obloty
 29FE:1042       L__InspekcjeNowyWpis__Obloty
 29FE:11EB       N__KopiujPlik__KopiujPodkartote
 29FE:13F8       L__KopiujPodkartoteke__Obloty
 29FE:1564       S__KopiujKartoteke__Obloty
 29FE:15DB       L__KopiujInspekcje__Obloty
 29FE:171F       L__StartInspection__Obloty
 29FE:1A87       L__InitListaUrzadzen__Obloty
 29FE:1B83       L__Dum_Stat_Size_Monitor__Oblot
 29FE:1B8B       L__Dum_Stat_File_Monitor__Oblot
 29FE:1B9E       $BODY__Obloty
 29FE:1C0F       $INIT__Obloty
 29FE:1C75       $EM__Obloty
 2BC6:0000       $BM__MMMouse
 2BC6:0002       S__DefineStdCursor__MMMouse
 2BC6:00D9       S__Init__MMMouse
 2BC6:00DF       L__HideConditionally__MMMouse
 2BC6:018A       L__IsHidden__MMMouse
 2BC6:019E       L__RegisterRegion__MMMouse
 2BC6:02C7       L__SetOnTop__MMMouse
 2BC6:03E9       L__UnregisterRegion__MMMouse
 2BC6:0623       S__Swap__MMMouse
 2BC6:0639       S__SetShape__MMMouse
 2BC6:0651       S__WrIdx__MMMouse
 2BC6:066E       S__WrBit__MMMouse
 2BC6:06C2       L__GetRegion__MMMouse
 2BC6:0713       L__GetRegionRect__MMMouse
 2BC6:0780       L__SetParent__MMMouse
 2BC6:07F2       L__EventDispatcher__BezPrzerwan
 2BC6:08F0       N__Button2Ev__GetEvent__BezPrze
 2BC6:096B       S__GetEvent__BezPrzerwanOdMyszy
 2BC6:0AC3       L__InsertEvent__BezPrzerwanOdMy
 2BC6:0AC3       L__InsertEvent__MMMouse
 2BC6:0B15       $BODY__BezPrzerwanOdMyszy__MMMo
 2BC6:0B5F       S__RedrawAt__BezWyszeregowania_
 2BC6:0BB2       L__ShowCursor__BezWyszeregowani
 2BC6:0BB2       L__ShowCursor__MMMouse
 2BC6:0BDE       L__HideCursor__MMMouse
 2BC6:0BDE       L__HideCursor__BezWyszeregowani
 2BC6:0C0A       S__RemoveCursor__BezWyszeregowa
 2BC6:0C8E       S__DrawCursor__BezWyszeregowani
 2BC6:1031       L__MouseLoop__MMMouse
 2BC6:133C       L__Terminator__MMMouse
 2BC6:134F       $BODY__MMMouse
 2BC6:14AB       $INIT__MMMouse
 2BC6:1502       $EM__MMMouse
 2D17:0000       $BM__GList
 2D17:0002       L__SetNotificationProc__GList
 2D17:0020       L__DummyNotification__GList
 2D17:0028       L__TworzListe__GList
 2D17:02FB       N__UsunStr__SkasujWszystko__GLi
 2D17:033D       L__SkasujWszystko__GList
 2D17:0387       L__Skasuj__GList
 2D17:04C1       L__UsunListe__GList
 2D17:06B6       L__DodajDoListy__GList
 2D17:08C9       L__WstawDoListy__GList
 2D17:0A11       L__Idx2Str__GList
 2D17:0AC4       L__ZmienListe__GList
 2D17:0B6F       L__LiczbaElementow__GList
 2D17:0B8E       L__kbHandler__GList
 2D17:0C76       L__RScrollUp__GList
 2D17:0D8F       L__RScrollDn__GList
 2D17:0E9F       L__RChoose__GList
 2D17:0FE8       S__CP__GList
 2D17:100F       L__Wybor__GList
 2D17:1046       S__Redraw__GList
 2D17:107D       N__WrStr__Draw__GList
 2D17:1181       S__Draw__GList
 2D17:128C       L__HandleEvent__GList
 2D17:1454       L__CanEnable__GList
 2D17:1470       L__Disable__GList
 2D17:14F4       L__GetSelection__GList
 2D17:1513       L__Enable__GList
 2D17:1608       L__GetRegion__GList
 2D17:1698       L__Sortowana__GList
 2D17:16B4       S__SetSelectionInt__GList
 2D17:1754       L__SetSelectionNotf__GList
 2D17:1772       L__SetSelection__GList
 2D17:1790       S__SetPositions__GList
 2D17:1819       L__GetRect__GList
 2D17:1839       L__GetContents__GList
 2D17:1860       L__SetContents__GList
 2D17:18E1       L__KillContents__GList
 2D17:18FD       $BODY__GList
 2D17:1920       $INIT__GList
 2D17:197C       $EM__GList
 2EAF:0000       $BM__Buttons
 2EAF:0002       S__Insert__MONITOR__Buttons
 2EAF:0052       N__Remove__RemoveToKill__MONITO
 2EAF:01B5       S__RemoveToKill__MONITOR__Butto
 2EAF:0205       S__FindAMark__MONITOR__Buttons
 2EAF:0318       S__MarkBut__MONITOR__Buttons
 2EAF:03BB       S__Unmark__MONITOR__Buttons
 2EAF:041B       $BODY__MONITOR__Buttons
 2EAF:043F       N__Dec__DrawInter__Buttons
 2EAF:047D       S__DrawInter__Buttons
 2EAF:0790       L__UniversalKBD__Buttons
 2EAF:07E1       L__MouseHandler__Buttons
 2EAF:0959       L__ChangeButton__Buttons
 2EAF:09D0       L__ChangeButtonText__Buttons
 2EAF:0A36       N__KillButton__DisposeButton__B
 2EAF:0AAB       L__DisposeButton__Buttons
 2EAF:0AE2       L__PressRadio__Buttons
 2EAF:0B27       L__Nic__Buttons
 2EAF:0B2D       L__CreateButton__Buttons
 2EAF:0C3C       L__CreateRadioButton__Buttons
 2EAF:0CC0       L__EnableButton__Buttons
 2EAF:0D0E       L__GetRegion__Buttons
 2EAF:0D35       L__CallProc__Buttons
 2EAF:0D4E       L__EnableDisableAllButtons__But
 2EAF:0D61       $BODY__Buttons
 2EAF:0D80       $INIT__Buttons
 2EAF:0DD7       $EM__Buttons
 2F8D:0000       $BM__Dialog
 2F8D:0006       L__GetDialogDIBHandle__Dialog
 2F8D:002D       L__WstawButton__Dialog
 2F8D:0156       L__WstawRadioButton__Dialog
 2F8D:02EB       L__RadioBProc__Dialog
 2F8D:03EC       L__WstawInpLine__Dialog
 2F8D:0518       L__WstawListe__Dialog
 2F8D:0663       L__TworzDialog__Dialog
 2F8D:0A79       N__UsunPola__UsunDialog__Dialog
 2F8D:0B28       L__UsunDialog__Dialog
 2F8D:0D8A       L__KlawiszSpacji__Dialog
 2F8D:0E12       L__KlawiszTab__Dialog
 2F8D:0E94       L__KlawiszShiftTab__Dialog
 2F8D:0F3F       N__Expand__Aktywizuj__Dialog
 2F8D:0FCA       S__Aktywizuj__Dialog
 2F8D:1185       S__CzyMoznaSkonczyc__Dialog
 2F8D:123F       L__Go__Dialog
 2F8D:1488       L__DialogMouseHandle__Dialog
 2F8D:15B1       S__ChwilowoZablokujDialog__Dial
 2F8D:15E7       L__EndDialog__Dialog
 2F8D:1666       L__AltF4__Dialog
 2F8D:167B       L__EnableDlg__Dialog
 2F8D:17AC       L__IsBusy__Dialog
 2F8D:17EF       L__Redraw__Dialog
 2F8D:18C2       $BODY__Dialog
 2F8D:18EB       $INIT__Dialog
 2F8D:195B       $EM__Dialog
 3123:0000       $BM__InpLine
 3123:0002       L__CreateInpLine__InpLine
 3123:0183       L__Enable__InpLine
 3123:01CA       L__DeleteInpLine__InpLine
 3123:02C9       L__SetText__InpLine
 3123:0388       L__GetText__InpLine
 3123:03DC       L__Key__InpLine
 3123:07B4       L__DoNothing__InpLine
 3123:07C4       L__KillFocus__InpLine
 3123:0827       S__Draw__InpLine
 3123:09E5       L__SetCursor__InpLine
 3123:0B2F       L__SetActive__InpLine
 3123:0C4D       L__GetRegion__InpLine
 3123:0C9E       $BODY__InpLine
 3123:0CB5       $INIT__InpLine
 3123:0D16       $EM__InpLine
 31F5:0000       $BM__FCBS
 31F5:0002       L__Set__FCBS
 31F5:001A       S__CtrlBreakProc__FCBS
 31F5:0037       $BODY__FCBS
 31F5:004C       $INIT__FCBS
 31F5:0071       $EM__FCBS
 31FD:0000       $BM__CocpDsp
 31FD:0002       L__UstawFormat__CocpDsp
 31FD:02E6       L__PodajFormat__CocpDsp
 31FD:0315       L__UstawZmienne__CocpDsp
 31FD:058F       L__SetIdleMsg__CocpDsp
 31FD:05AF       N__SendMsg__ControlLoop__CocpDs
 31FD:077A       N__PozWskazowki__SetLOC_G_SCP__
 31FD:0823       N__SetLOC_G_SCP__ControlLoop__C
 31FD:090E       N__pozycjaStrzalki__ControlLoop
 31FD:0A5E       L__ControlLoop__CocpDsp
 31FD:0C01       L__WatchDogProcess__CocpDsp
 31FD:0C4D       $BODY__CocpDsp
 31FD:0D49       $INIT__CocpDsp
 31FD:0D8C       $EM__CocpDsp
 32D6:0000       $BM__DataCollect
 32D6:0002       L__SampleNr__tablice__DataColle
 32D6:0002       L__SampleNr__DataCollect
 32D6:004E       L__RedrawReq__DataCollect
 32D6:004E       L__RedrawReq__tablice__DataColl
 32D6:0152       N__UpdateNR__Tablice800__tablic
 32D6:0219       N__Shrink__Tablice800__tablice_
 32D6:034B       N__ShrinkX__Tablice800__tablice
 32D6:0422       S__Tablice800__tablice__DataCol
 32D6:15DF       S__InitTab__tablice__DataCollec
 32D6:1867       L__Samp2Dis__DataCollect
 32D6:1867       L__Samp2Dis__tablice__DataColle
 32D6:1968       L__Samp2Kat__DataCollect
 32D6:1968       L__Samp2Kat__tablice__DataColle
 32D6:1A69       L__ResetMarks_A__DataCollect
 32D6:1A86       L__ResetMarks_D__DataCollect
 32D6:1AA3       L__GetNextDMark__DataCollect
 32D6:1B29       L__GetNextAMark__DataCollect
 32D6:1BBB       S__Start__DataCollect
 32D6:2002       L__ResetDataCollect__DataCollec
 32D6:2092       N__UpdateDistMarks__UpdTab800__
 32D6:20FA       N__UpdateAlfaMarks__UpdTab800__
 32D6:2171       L__UpdTab800__DataCollect
 32D6:21D7       L__NilProc__DataCollect
 32D6:21DF       $BODY__DataCollect
 32D6:2221       $INIT__DataCollect
 32D6:226E       $EM__DataCollect
 34FD:0000       $BM__Mapa
 34FD:008A       S__RedefineMaxDist__Mapa
 34FD:0151       N__GetGPS__resolveSituation__Ma
 34FD:0260       N__CountMaxDist__resolveSituati
 34FD:037D       S__resolveSituation__Mapa
 34FD:0419       S__MakeMAP__Mapa
 34FD:0545       L__PokazKatyLotu__Mapa
 34FD:0696       N__Min__Promienie__Mapa
 34FD:06B6       L__Promienie__Mapa
 34FD:07B3       L__GdzieJest__Mapa
 34FD:0922       S__Stop__monitor__Mapa
 34FD:0951       L__StartProcess__Mapa
 34FD:0951       L__StartProcess__monitor__Mapa
 34FD:098B       L__CancelProcess__Mapa
 34FD:098B       L__CancelProcess__monitor__Mapa
 34FD:09BA       $BODY__monitor__Mapa
 34FD:09DC       S__FillPromieie__Mapa
 34FD:0A4F       $BODY__Mapa
 34FD:0AF4       $INIT__Mapa
 34FD:0B50       $EM__Mapa
 35B3:0000       $BM__Wykres
 35B3:009B       S__Log10__Wykres
 35B3:0101       N__SkalY__Draw__Wykres
 35B3:03D7       L__Draw__Wykres
 35B3:052F       N__SkalY__PokazWykres__Wykres
 35B3:062B       N__SkalX__PokazWykres__Wykres
 35B3:0758       L__PokazWykres__Wykres
 35B3:0853       N__SkalY__PokazWykres1__Wykres
 35B3:09B4       L__PokazWykres1__Wykres
 35B3:0B0C       L__Opis__Wykres
 35B3:0B8B       N__AutoFormat__OpisLog__Wykres
 35B3:0C63       N__LineV__OpisLog__Wykres
 35B3:1024       N__LineH__OpisLog__Wykres
 35B3:1330       L__OpisLog__Wykres
 35B3:14E2       L__PokazWykresNS__Wykres
 35B3:1546       N__SkalY__PokazWykresNSLog__Wyk
 35B3:17B3       N__SkalX__PokazWykresNSLog__Wyk
 35B3:1B1F       L__PokazWykresNSLog__Wykres
 35B3:1DFD       S__LogPos__Wykres
 35B3:1EE5       L__LessInt__Wykres
 35B3:1F01       L__LessCard__Wykres
 35B3:1F1D       L__Card2Real__Wykres
 35B3:1F64       L__Int2Real__Wykres
 35B3:1FA0       N__GetX__PokazWykresZXms__Wykre
 35B3:1FC9       N__GetY__PokazWykresZXms__Wykre
 35B3:1FF2       N__SkalY__PokazWykresZXms__Wykr
 35B3:222D       N__SkalX__PokazWykresZXms__Wykr
 35B3:256B       L__PokazWykresZXms__Wykres
 35B3:270A       $BODY__Wykres
 35B3:2710       $INIT__Wykres
 35B3:2762       $EM__Wykres
 382A:0000       $BM__XMSTable
 382A:0002       L__AssignNil__XMSTable
 382A:0018       L__Size__XMSTable
 382A:0039       L__IsValid__XMSTable
 382A:005D       L__Allocate__XMSTable
 382A:00F2       L__Deallocate__XMSTable
 382A:0142       L__PutElem__XMSTable
 382A:01B7       L__GetElem__XMSTable
 382A:0245       S__Map__XMSTable
 382A:0325       $BODY__XMSTable
 382A:032B       $INIT__XMSTable
 382A:035A       $EM__XMSTable
 3860:0000       $BM__EventsMng
 3860:0037       L__NewEvent__EventsMng
 3860:014C       L__NewTeoEvent__EventsMng
 3860:01CF       L__NewPilotEvent__EventsMng
 3860:0252       L__NewConsoleEvent__EventsMng
 3860:02D5       L__FindNextEvent__EventsMng
 3860:0366       L__GetUpdNextEvent__EventsMng
 3860:041A       L__GetEventInfo__EventsMng
 3860:04AA       L__SaveDistEvents__EventsMng
 3860:04F4       S__InitEvents__EventsMng
 3860:0519       L__LoadDistEvents__EventsMng
 3860:055C       L__EventsMngInit__EventsMng
 3860:060A       L__UpdateStrefa__EventsMng
 3860:087E       L__Terminator__EventsMng
 3860:09B8       $BODY__EventsMng
 3860:09EE       $INIT__EventsMng
 3860:0A4A       $EM__EventsMng
 3905:0000       $BM__PI_ScrUtility
 3905:0002       L__ShowScreenDIB__PI_ScrUtility
 3905:0035       L__ShowCursorDIB__PI_ScrUtility
 3905:0063       S__UniversalAB__PI_ScrUtility
 3905:00FE       S__UniversalLAF__PI_ScrUtility
 3905:0126       S__UniversalSAF__PI_ScrUtility
 3905:014E       S__UniversalPAF__PI_ScrUtility
 3905:0176       S__UniversalLBF__PI_ScrUtility
 3905:019E       S__UniversalSBF__PI_ScrUtility
 3905:01C6       S__UniversalPBF__PI_ScrUtility
 3905:01EE       S__UniversalLAB__PI_ScrUtility
 3905:0216       S__UniversalSAB__PI_ScrUtility
 3905:023E       S__UniversalPAB__PI_ScrUtility
 3905:0266       S__UniversalLBB__PI_ScrUtility
 3905:028E       S__UniversalSBB__PI_ScrUtility
 3905:02B6       S__UniversalPBB__PI_ScrUtility
 3905:02DE       S__NowySlup__PI_ScrUtility
 3905:033E       N__WykSlupB__WykSlup__PI_ScrUti
 3905:0368       N__WykSlupF__WykSlup__PI_ScrUti
 3905:0392       L__WykSlup__PI_ScrUtility
 3905:0538       L__UpdateSlupki__PI_ScrUtility
 3905:059F       L__DisposeSlupki__PI_ScrUtility
 3905:0606       L__NapiszSygnaly__PI_ScrUtility
 3905:0613       L__Init_ScrUtility__PI_ScrUtili
 3905:066E       L__IniSkale__PI_ScrUtility
 3905:0688       L__GetRegionWykG__PI_ScrUtility
 3905:06BA       L__GetRegionWyk1__PI_ScrUtility
 3905:06FD       L__GetRegionWyk2__PI_ScrUtility
 3905:070D       L__GetRegionWyk3__PI_ScrUtility
 3905:071D       $BODY__PI_ScrUtility
 3905:0723       $INIT__PI_ScrUtility
 3905:0766       $EM__PI_ScrUtility
 397C:0000       $BM__Slupek
 397C:0002       L__WykresSlupkowy__Slupek
 397C:0229       N__Skala__Update__Slupek
 397C:02EE       N__Kolor__Update__Slupek
 397C:0317       N__FillR__Odswiez__Update__Slup
 397C:036C       N__Odswiez__Update__Slupek
 397C:058F       L__Update__Slupek
 397C:0647       L__Dispose__Slupek
 397C:065C       L__Nothing__Slupek
 397C:0666       L__GetSlupRect__Slupek
 397C:0695       L__Nil__Slupek
 397C:06A7       $BODY__Slupek
 397C:06AD       $INIT__Slupek
 397C:06E6       $EM__Slupek
 39EB:0000       $BM__ScreenCTypes
 39EB:0002       S__Init__ScreenCTypes
 39EB:016B       $BODY__ScreenCTypes
 39EB:0174       $INIT__ScreenCTypes
 39EB:019E       $EM__ScreenCTypes
 3A05:0000       $BM__N_DisResults
 3A05:00C2       L__WriteTab__N_DisResults
 3A05:0234       N__WypiszTabBledowNamiaru__Writ
 3A05:029C       N__WriteMod__DispResults__N_Dis
 3A05:04AB       L__DispResults__N_DisResults
 3A05:051A       $BODY__N_DisResults
 3A05:0520       $INIT__N_DisResults
 3A05:056D       $EM__N_DisResults
 3A5C:0000       $BM__FlagAnal
 3A5C:0010       N__UsunNajmniejszy__FlagErr_Ana
 3A5C:01D6       L__FlagErr_Anal__FlagAnal
 3A5C:02B3       L__InitFlagErr__FlagAnal
 3A5C:0352       L__GetNextFrac__FlagAnal
 3A5C:044F       L__MinPoczKonSig__FlagAnal
 3A5C:0513       L__MinPoczKonDis__FlagAnal
 3A5C:05D7       L__SumaDlugosciSig__FlagAnal
 3A5C:06A0       $BODY__FlagAnal
 3A5C:06A6       $INIT__FlagAnal
 3A5C:06DA       $EM__FlagAnal
 3ACA:0000       $BM__DisResUtilities
 3ACA:000A       L__WriteTab__DisResUtilities
 3ACA:00BE       L__WrS__DisResUtilities
 3ACA:00F4       L__WrSPlus__DisResUtilities
 3ACA:014A       L__INCLine__DisResUtilities
 3ACA:0170       L__WrFlagsTableWHeading__DisRes
 3ACA:023C       L__WrFlagsTable__DisResUtilitie
 3ACA:02AF       L__WrF_TablicaOdci__DisResUtili
 3ACA:0340       $BODY__DisResUtilities
 3ACA:0346       $INIT__DisResUtilities
 3ACA:0389       $EM__DisResUtilities
 3B03:0000       $BM__PiszEventy
 3B03:038B       N__Znacznik__Decode__PiszEventy
 3B03:0786       S__Decode__PiszEventy
 3B03:0A31       L__IleEventow__PiszEventy
 3B03:0A53       L__TworzEventy__PiszEventy
 3B03:0AA6       N__WrStr__PiszNaEkranie__PiszEv
 3B03:0B99       L__PiszNaEkranie__PiszEventy
 3B03:0D48       S__min__PiszEventy
 3B03:0D6B       L__PiszNaDrukarce__PiszEventy
 3B03:0F04       L__EnumEv__PiszEventy
 3B03:10B0       S__WrStrLn__PiszEventy
 3B03:10DC       S__WrStr__PiszEventy
 3B03:1163       S__WrLn__PiszEventy
 3B03:117D       S__WrP__PiszEventy
 3B03:1199       $BODY__PiszEventy
 3B03:11AA       $INIT__PiszEventy
 3B03:1233       $EM__PiszEventy
 3C27:0000       $BM__N_results
 3C27:0012       L__SaveAnRes__N_results
 3C27:0049       L__GetAnRes__N_results
 3C27:00D6       N__Init_A_OpisOdcinka__Init__N_
 3C27:01C2       L__Init__N_results
 3C27:037C       $BODY__N_results
 3C27:03D9       $INIT__N_results
 3C27:0426       $EM__N_results
 3C6A:0000       $BM__N_DAcquizition
 3C6A:0002       S__CommReq__Monitor__N_DAcquizi
 3C6A:0034       L__Stop__Monitor__N_DAcquizitio
 3C6A:0034       L__Stop__N_DAcquizition
 3C6A:0063       L__ConsoleEv__Monitor__N_DAcqui
 3C6A:0063       L__ConsoleEv__N_DAcquizition
 3C6A:0092       L__Restart__N_DAcquizition
 3C6A:0092       L__Restart__Monitor__N_DAcquizi
 3C6A:00C1       S__GetEvent__Monitor__N_DAcquiz
 3C6A:011B       $BODY__Monitor__N_DAcquizition
 3C6A:0142       L__Acquire__N_DAcquizition
 3C6A:034C       L__RedrawReq__N_DAcquizition
 3C6A:039B       L__RedrawMarksReq__N_DAcquiziti
 3C6A:03C8       L__UpdateMarksOrbit__N_DAcquizi
 3C6A:0427       L__UpdateMarksRadial__N_DAcquiz
 3C6A:0486       S__IniData__N_DAcquizition
 3C6A:050F       L__IniDataOrbit__N_DAcquizition
 3C6A:0537       L__IniDataRadial__N_DAcquizitio
 3C6A:055F       L__Start__N_DAcquizition
 3C6A:05BA       L__Abort__N_DAcquizition
 3C6A:05E2       L__PolV__N_DAcquizition
 3C6A:05EA       $BODY__N_DAcquizition
 3C6A:0619       $INIT__N_DAcquizition
 3C6A:069D       $EM__N_DAcquizition
 3CD4:0000       $BM__N_Count
 3CD4:008A       N__GetEvent__DoAnaliza__Analiza
 3CD4:011E       N__ClearAllCont__DoAnaliza__Ana
 3CD4:01AB       N__DoAnaliza__Analiza__N_Count
 3CD4:06AF       N__Interpolacja__Analiza__N_Cou
 3CD4:0746       L__Analiza__N_Count
 3CD4:0824       $BODY__N_Count
 3CD4:082A       $INIT__N_Count
 3CD4:088B       $EM__N_Count
 3D5D:0000       $BM__N_Print
 3D5D:01B2       S__MakeHeader__N_Print
 3D5D:02EA       L__WypiszTabBledowNamiaru__N_Pr
 3D5D:0395       N__WrSignalDesc__OpisPomiaru__N
 3D5D:045C       S__OpisPomiaru__N_Print
 3D5D:072E       S__Print__N_Print
 3D5D:0E86       L__MakeRaport__N_Print
 3D5D:0EE7       $BODY__N_Print
 3D5D:0EED       $INIT__N_Print
 3D5D:0F80       $EM__N_Print
 3E56:0000       $BM__Semafory
 3E56:0002       L__Set__Semafory
 3E56:00AA       L__Free__Semafory
 3E56:0120       L__Register__Semafory
 3E56:01B0       L__Init__Semafory
 3E56:01FC       L__Unregister__Semafory
 3E56:02B0       S__ExceptionHandler__Semafory
 3E56:03BE       S__InitTbl__Semafory
 3E56:041D       $BODY__Semafory
 3E56:0433       $INIT__Semafory
 3E56:0453       $EM__Semafory
 3E9C:0000       $BM__ADFAngle
 3E9C:003A       L__GetADFAngle__ADFAngle
 3E9C:02AB       $BODY__ADFAngle
 3E9C:02B1       $INIT__ADFAngle
 3E9C:02E0       $EM__ADFAngle
 3ECB:0000       $BM__NAVInterface
 3ECB:0022       L__GetOmnibearing__NAVInterface
 3ECB:0190       L__GetLocDev__NAVInterface
 3ECB:0241       L__GetGSDev__NAVInterface
 3ECB:02F2       $BODY__NAVInterface
 3ECB:0322       $INIT__NAVInterface
 3ECB:0351       $EM__NAVInterface
 3F01:0000       $BM__ARINC
 3F01:0002       S__INByte__ARINC
 3F01:0062       S__OUTByte__ARINC
 3F01:00BF       L__ReInitialize__ARINC
 3F01:00FF       L__WriteTXParity__ARINC
 3F01:0173       L__WriteTXChannel__ARINC
 3F01:01F1       L__WriteTXLabel__ARINC
 3F01:026F       L__WriteTXData__ARINC
 3F01:032A       L__WriteTXRate__ARINC
 3F01:03F4       L__WriteKillTime__ARINC
 3F01:04B2       L__WriteCardMode__ARINC
 3F01:051B       L__ReadConfiguration__ARINC
 3F01:0637       L__ReadTXSlot__ARINC
 3F01:079E       L__ReadRXSlot__ARINC
 3F01:093D       $BODY__ARINC
 3F01:0954       $INIT__ARINC
 3F01:096F       $EM__ARINC
 3F99:0000       $BM__HRD_Clock
 3F99:0002       S__BCD__HRD_Clock
 3F99:003A       S__CheckUpdateCycle__HRD_Clock
 3F99:006D       S__GetGodzina__HRD_Clock
 3F99:00A1       L__Godzina__HRD_Clock
 3F99:011E       L__Data__HRD_Clock
 3F99:0242       $BODY__HRD_Clock
 3F99:0248       $INIT__HRD_Clock
 3F99:026D       $EM__HRD_Clock
 3FC0:0000       $BM__Kl_FGenerators
 3FC0:0002       L__LookupM__Kl_FGenerators
 3FC0:04D9       $BODY__Kl_FGenerators
 3FC0:04DF       $INIT__Kl_FGenerators
 3FC0:04FF       $EM__Kl_FGenerators
 4011:0000       $BM__Marks
 4011:0032       L__AngResetContiner__Marks
 4011:0041       L__DisResetContiner__Marks
 4011:0050       N__findidx__AngAddSample__Marks
 4011:010A       N__Side__AngAddSample__Marks
 4011:015E       L__AngAddSample__Marks
 4011:037F       N__findidx__DisAddSample__Marks
 4011:0423       N__Side__DisAddSample__Marks
 4011:0453       L__DisAddSample__Marks
 4011:0636       L__InicjujOpisStanuLuku__Marks
 4011:0670       N__findidx__SegZakonczony__Mark
 4011:0806       L__SegZakonczony__Marks
 4011:08FD       $BODY__Marks
 4011:0903       $INIT__Marks
 4011:0937       $EM__Marks
 40A5:0000       $BM__Polozenie
 40A5:005A       N__FlipY__InitMarkers__Polozeni
 40A5:0120       N__FlipX__InitMarkers__Polozeni
 40A5:0226       N__Rot90__InitMarkers__Polozeni
 40A5:032E       S__InitMarkers__Polozenie
 40A5:044A       S__DrawMarker__Polozenie
 40A5:0855       S__EraseMarker__Polozenie
 40A5:08FE       L__Start_Polozenie__Polozenie
 40A5:0959       N__XY__LL__DrawNCO__Polozenie
 40A5:0A88       N__LL__DrawNCO__Polozenie
 40A5:0BA8       S__DrawNCO__Polozenie
 40A5:0C2C       L__UpdateM__Polozenie
 40A5:0DD7       L__Stop_Polozenie__Polozenie
 40A5:0E09       L__RresetCzesciOkregu__Polozeni
 40A5:0E6A       L__NoweCzesciOkregu__Polozenie
 40A5:0EEE       N__Rysuj__Promienie__Polozenie
 40A5:1084       L__Promienie__Polozenie
 40A5:1164       $BODY__Polozenie
 40A5:11C4       $INIT__Polozenie
 40A5:1225       $EM__Polozenie
 41C8:0000       $BM__N_Slupek
 41C8:0046       L__ShowScreenDIB__N_Slupek
 41C8:0092       L__ShowCursorDIB__N_Slupek
 41C8:00D0       L__UnverslVal__N_Slupek
 41C8:00FD       S__Init__N_Slupek
 41C8:0150       L__NapiszSygnaly__N_Slupek
 41C8:03C2       L__IniSkale__N_Slupek
 41C8:04B7       L__InitSlupek__N_Slupek
 41C8:04F7       L__DoneSlupek__N_Slupek
 41C8:0523       $BODY__N_Slupek
 41C8:052C       $INIT__N_Slupek
 41C8:0574       $EM__N_Slupek
 4220:0000       $BM__WorseBecause
 4220:0002       L__WorseBLess__WorseBecause
 4220:003E       L__WorseBLessDis__WorseBecause
 4220:0069       L__WorseBGreater__WorseBecause
 4220:00A5       $BODY__WorseBecause
 4220:00AB       $INIT__WorseBecause
 4220:00D0       $EM__WorseBecause
 422E:0000       $BM__DrawEpson
 422E:00A5       S__UstawTrybTekstowy__DrawEpson
 422E:00E9       L__MaxX__DrawEpson
 422E:00F8       L__MaxY__DrawEpson
 422E:0107       S__Map__DrawEpson
 422E:01C6       L__Point__DrawEpson
 422E:0322       L__IsDrawn__DrawEpson
 422E:03D3       L__Out__DrawEpson
 422E:0670       L__Open__DrawEpson
 422E:06E2       L__Close__DrawEpson
 422E:06FE       L__Line__DrawEpson
 422E:0849       L__SetTextMode__DrawEpson
 422E:085C       L__SetFont__DrawEpson
 422E:0942       S__Conv2PL__DrawEpson
 422E:0ABD       S__DrawChar0__DrawEpson
 422E:0DA0       S__DrawText0__DrawEpson
 422E:0E1D       S__DrawChar90__DrawEpson
 422E:10A7       S__DrawText90__DrawEpson
 422E:1124       L__DrawText__DrawEpson
 422E:1193       L__SetDir__DrawEpson
 422E:11A6       L__Mnoznik__DrawEpson
 422E:11C0       L__InitPort__DrawEpson
 422E:120D       L__IsAborted__DrawEpson
 422E:1253       L__WrProc__DrawEpson
 422E:138C       $BODY__DrawEpson
 422E:1415       $INIT__DrawEpson
 422E:1462       $EM__DrawEpson
 4375:0000       $BM__Print
 4375:0159       L__GorszeBoMniejsze__Print
 4375:0186       L__DalszeOdZera__Print
 4375:01C3       L__MaxY__Print
 4375:01DE       L__log__Print
 4375:0232       L__Wr__Print
 4375:02A2       L__WrPrn__Print
 4375:0360       L__WrLn__Print
 4375:0390       L__WrPrnLn__Print
 4375:03D2       L__InitA__Print
 4375:0821       L__InitB__Print
 4375:0886       S__PointA__Print
 4375:0ADD       S__PointB__Print
 4375:0CBF       L__Point__Print
 4375:0CF3       L__Opis__Print
 4375:0E2F       L__CloseAll__Print
 4375:0EC8       L__InitAll__Print
 4375:0FE0       L__EvProc__Print
 4375:12D3       L__ZnacznikiOdleglosci__Print
 4375:15A6       L__WrFlagsTableWHeading__Print
 4375:16BA       L__WrFlagsTable__Print
 4375:1799       L__WrF_TablicaOdci__Print
 4375:183C       L__WypiszStrefy__Print
 4375:1998       L__PrintScreenProc__Print
 4375:19A5       $BODY__Print
 4375:19F2       $INIT__Print
 4375:1A80       $EM__Print
 451E:0000       $BM__VORR_Average
 451E:002A       L__Bend_ClearContainer__VORR_Av
 451E:007A       N__Count__Bend_AddSample__VORR_
 451E:0265       L__Bend_AddSample__VORR_Average
 451E:0461       L__Roughness_ClearContainer__VO
 451E:04E1       N__sqr__Count__Roughness_AddSam
 451E:0511       N__Count__Roughness_AddSample__
 451E:070A       L__Roughness_AddSample__VORR_Av
 451E:0A94       $BODY__VORR_Average
 451E:0A9A       $INIT__VORR_Average
 451E:0ACE       $EM__VORR_Average
 45CB:0000       $BM__PrintCntroll
 45CB:00D5       L__CoKtoraPUp__PrintCntroll
 45CB:013A       L__CoKtoraPDn__PrintCntroll
 45CB:01BC       S__UstawStrony__PrintCntroll
 45CB:01FC       S__UstawLiczbe__PrintCntroll
 45CB:0232       L__OkP__PrintCntroll
 45CB:0248       L__ValidPodz__PrintCntroll
 45CB:037E       L__Odn__PrintCntroll
 45CB:03D5       L__P1__PrintCntroll
 45CB:03F6       L__P2__PrintCntroll
 45CB:0417       L__UstalSkalowanie__PrintCntrol
 45CB:085B       $BODY__PrintCntroll
 45CB:0861       $INIT__PrintCntroll
 45CB:08E0       $EM__PrintCntroll
 465A:0000       NMIServer
 465A:003E       AT87Server
 4660:0000       $INIT__RTS87
 4666:0000       CaseError__RTSError
 4666:000A       FctRetError__RTSError
 4666:0014       AddrOvf__RTSError
 4666:001E       CardOvf__RTSError
 4666:0028       IntegerOvf__RTSError
 4666:0032       LongIntegerOvf__RTSError
 4666:003C       RangeError__RTSError
 4666:0046       DivZero__RTSError
 4673:0000       $INIT__RTSError
 4676:0000       $BM__RTSMain
 4676:0001       L__InstallTermProc__RTSMain
 4676:007B       L__InstallInitProc__RTSMain
 4676:00EF       L__CallInitProc__RTSMain
 4676:00FD       L__CallTermProc__RTSMain
 4676:0147       L__GetMessage__RTSMain
 4676:0526       L__Execute__RTSMain
 4676:0636       Error__RTSMain
 4676:0673       StackCheck__RTSMain
 4676:067C       StackOvf__RTSMain
 4676:0683       M2Halt__RTSMain
 4676:068A       L__Terminate__RTSMain
 4676:0731       $INIT__RTSMain
 4676:0743       $BODY__RTSMain
 4676:076F       $EM__RTSMain
 4676:0770       $INIT__RTSMonExit
 46EE:0000       SpecialCASE__RTSLanguage
 46EE:004D       ParCopy__RTSLanguage
 46EE:0069       DynParCopy__RTSLanguage
 46FA:0000       $INIT__RTSLanguage
 46FB:0000       $BM__RTSDevice
 46FB:0000       L__InstallHandler__RTSDevice
 46FB:0058       L__UninstallHandler__RTSDevice
 46FB:009B       L__GetDeviceStatus__RTSDevice
 46FB:00BE       L__SetDeviceStatus__RTSDevice
 46FB:00F6       L__SaveInterruptVector__RTSDevi
 46FB:00FB       L__RestoreInterruptVector__RTSD
 46FB:0100       L__GetPrioMask__RTSDevice
 46FB:011F       L__SetPrioMask__RTSDevice
 46FB:0140       $EM__RTSDevice
 4710:0000       $INIT__RTSDevice
 4711:0000       MonEntry__RTSPriority
 4711:0043       MonExit__RTSPriority
 4711:006F       Listen__RTSPriority
 471C:0000       $INIT__RTSPriority
 471D:0000       NewProcess__RTSCoroutine
 471D:0000       $BM__RTSCoroutine
 471D:0143       Transfer__RTSCoroutine
 471D:01A7       $EM__RTSCoroutine
 4738:0000       $INIT__RTSCoroutine
 4739:011E       IOTransfer__RTSInterrupt
 475E:0000       $INIT__RTSInterrupt
 4763:0000       RealError__RTSRealError
 4764:0000       $INIT__RTSRealError
 4765:0000       L__Length__Strings
 4765:001D       L__ConstAssign__Strings
 4765:005F       L__Assign__Strings
 4765:0096       L__Insert__Strings
 4765:014C       L__Delete__Strings
 4765:0188       L__Pos__Strings
 4765:01E9       L__Copy__Strings
 4765:025B       L__Concat__Strings
 4765:02B2       L__CompareStr__Strings
 4765:0303       $INIT__Strings
 4796:01B9       L__IntToString__NumberConversio
 4796:01FE       L__LongIntToString__NumberConve
 4796:0259       L__CardToString__NumberConversi
 4796:028D       L__NumToString__NumberConversio
 4796:04BA       L__StringToInt__NumberConversio
 4796:0522       L__StringToCard__NumberConversi
 4796:0587       L__StringToLongInt__NumberConve
 4796:05B5       L__StringToNum__NumberConversio
 4796:0620       $INIT__NumberConversion
 4796:063B       $EM__NumberConversion
 47FA:0002       L__Sound__Sounds
 47FA:0032       L__NoSound__Sounds
 47FA:0046       $INIT__Sounds
 47FA:0061       $EM__Sounds
 484A:0000       $INIT__DebugPMD
 4854:0002       L__GetDeviceStatus__Devices
 4854:0018       L__SetDeviceStatus__Devices
 4854:002C       L__SaveInterruptVector__Devices
 4854:004D       L__RestoreInterruptVector__Devi
 4854:006A       L__InstallHandler__Devices
 4854:0080       L__UninstallHandler__Devices
 4854:009A       $INIT__Devices
 4854:00BA       $EM__Devices
 4860:0000       $BM__DynMem
 4860:0000       L__InstallDynMem__DynMem
 4860:0059       L__Alloc__DynMem
 4860:0102       L__DeAlloc__DynMem
 4860:01BF       L__Avail__DynMem
 4860:0203       $INIT__DynMem
 4860:0204       $EM__DynMem
 4881:0000       L__BlockMoveForward__BlockOps
 4881:0000       $BM__BlockOps
 4881:001A       L__BlockMoveBackward__BlockOps
 4881:003B       L__BlockMove__BlockOps
 4881:007D       L__BlockClear__BlockOps
 4881:0096       L__BlockSet__BlockOps
 4881:00B8       L__BlockEqual__BlockOps
 4881:00D9       L__BlockPosition__BlockOps
 4881:0107       $INIT__BlockOps
 4881:0108       $EM__BlockOps
 4892:0002       L__FlagReset__Mouse
 4892:001F       L__ShowCursor__Mouse
 4892:002B       L__HideCursor__Mouse
 4892:0037       L__GetPosBut__Mouse
 4892:005A       L__SetCursorPos__Mouse
 4892:006E       L__GetButPres__Mouse
 4892:00A0       L__GetButRel__Mouse
 4892:00D2       L__SetHorizontalLimits__Mouse
 4892:00E6       L__SetVerticalLimits__Mouse
 4892:00FA       L__SetGraphicCursor__Mouse
 4892:0127       L__SetTextCursor__Mouse
 4892:013E       L__ReadMotionCounters__Mouse
 4892:0157       L__SetEventHandler__Mouse
 4892:0188       L__LightPenOn__Mouse
 4892:0194       L__LightPenOff__Mouse
 4892:01A0       L__SetMickeysPerPixel__Mouse
 4892:01B4       L__ConditionalOff__Mouse
 4892:01CE       L__SetSpeedThreshold__Mouse
 4892:0296       $INIT__Mouse
 4892:02B1       $EM__Mouse
 48BE:0000       pushLSet__Longs
 48BE:001E       areSetsEQ__Longs
 48BE:0036       superSet__Longs
 48BE:005E       subSet__Longs
 48BE:0086       union__Longs
 48BE:009D       intersection__Longs
 48BE:00B4       complement__Longs
 48BE:00CF       unionCompl__Longs
 48BE:00E6       LMult__Longs
 48BE:018D       LMultU__Longs
 48BE:01F7       LDiv__Longs
 48BE:02DE       $INIT__Longs
 48EC:0002       L__KeyPressed__Terminal
 48EC:000E       L__Read__Terminal
 48EC:0089       L__ReadString__Terminal
 48EC:010A       L__ReadAgain__Terminal
 48EC:011B       L__Write__Terminal
 48EC:012C       L__WriteLn__Terminal
 48EC:013B       L__WriteString__Terminal
 48EC:01A1       $INIT__Terminal
 48EC:01C6       $EM__Terminal
 4909:0002       L__AssignRead__Termbase
 4909:0088       L__Read__Termbase
 4909:00D7       L__KeyPressed__Termbase
 4909:0127       L__UnAssignRead__Termbase
 4909:0184       L__AssignWrite__Termbase
 4909:01F1       L__Write__Termbase
 4909:023E       L__UnAssignWrite__Termbase
 4909:03BB       $INIT__Termbase
 4909:03E5       $EM__Termbase
 4948:0000       $BM__BitByteOps
 4948:0000       L__GetBits__BitByteOps
 4948:0018       L__SetBits__BitByteOps
 4948:0046       L__ByteAnd__BitByteOps
 4948:0055       L__ByteOr__BitByteOps
 4948:0064       L__ByteXor__BitByteOps
 4948:0073       L__ByteNot__BitByteOps
 4948:0081       L__ByteShr__BitByteOps
 4948:0092       L__ByteSar__BitByteOps
 4948:00A3       L__ByteShl__BitByteOps
 4948:00B4       L__ByteRor__BitByteOps
 4948:00C5       L__ByteRol__BitByteOps
 4948:00D6       L__HighNibble__BitByteOps
 4948:00E6       L__LowNibble__BitByteOps
 4948:00F4       L__Swap__BitByteOps
 4948:0108       $INIT__BitByteOps
 4948:0109       $EM__BitByteOps
 4959:0009       $INIT__ASCII
 4959:0024       $EM__ASCII
 495C:0002       L__Write__Display
 495C:007C       $INIT__Display
 495C:009C       $EM__Display
 4966:0002       L__KeyPressed__Keyboard
 4966:0033       L__Read__Keyboard
 4966:0142       $INIT__Keyboard
 4966:0167       $EM__Keyboard
 497D:0002       L__DOSAlloc__DOSMemory
 497D:00E3       L__DOSDeAlloc__DOSMemory
 497D:01B0       L__DOSAvail__DOSMemory
 497D:01F0       L__DOSSetSize__DOSMemory
 497D:0241       L__DOSGetMaxSize__DOSMemory
 497D:0298       $INIT__DOSMemory
 497D:02B8       $EM__DOSMemory
 49A9:0000       $BM__MathLib0
 49A9:002A       L__sqrt__MathLib0
 49A9:0098       L__exp__MathLib0
 49A9:0209       L__ln__MathLib0
 49A9:0251       L__sin__MathLib0
 49A9:03A5       L__cos__MathLib0
 49A9:04CA       L__arctan__MathLib0
 49A9:05AC       L__real__MathLib0
 49A9:05BE       L__entier__MathLib0
 49A9:06AF       $INIT__MathLib0
 49A9:06C4       $EM__MathLib0
 4A16:0000       $OK__10jul99_1218_OF_PN
 4A16:0000       $MN__PN
 4A16:0000       $DD
 4A16:008E       $OK__10jul99_1214_OF_MANAGER
 4A16:0094       $OK__10jul99_1215_OF_PI_PA
 4A16:009A       $OK__10jul99_1214_OF_DOSEntry
 4A16:00A0       $OK__10jul99_1214_OF_ErrorMess
 4A16:00A6       $OK__10jul99_1214_OF_PrintScree
 4A16:00AC       $OK__10jul99_1214_OF_Tune
 4A16:00B2       $OK__10jul99_1218_OF_PI_Qcheck
 4A16:00B8       $OK__10jul99_1215_OF_ScannerI
 4A16:00BE       $OK__10jul99_1214_OF_CommonType
 4A16:00C4       $OK__10jul99_1214_OF_TheodolitR
 4A16:00CA       $OK__10jul99_1215_OF_GPSRead
 4A16:00D0       $OK__10jul99_1214_OF_DGHIni
 4A16:00D6       $OK__10jul99_1218_OF_N_Files
 4A16:00DC       $OK__10jul99_1218_OF_N_CommonTy
 4A16:00E2       $OK__10jul99_1218_OF_PI_Glowny
 4A16:00E8       $OK__10jul99_1218_OF_N_Inspekcj
 4A16:00EE       $OK__10jul99_1218_OF_N_Oblot
 4A16:00F4       $OK__10jul99_1214_OF_CommonData
 4A16:00FA       $OK__10jul99_1215_OF_Files
 4A16:0100       $OK__10jul99_1218_OF_N_CP_Contr
 4A16:0106       $OK__10jul99_1215_OF_Pomiar
 4A16:010C       $OK__10jul99_1215_OF_Screen
 4A16:0112       $OK__10jul99_1218_OF_PI_Analiza
 4A16:0118       $OK__10jul99_1218_OF_PI_Pomiar
 4A16:011E       $OK__10jul99_1218_OF_PI_ArchDat
 4A16:0124       $OK__10jul99_1218_OF_PI_Drukuj
 4A16:012A       $OK__10jul99_1218_OF_N_DataBase
 4A16:0130       $OK__10jul99_1214_OF_SpecConv
 4A16:0136       $OK__10jul99_1214_OF_Storage
 4A16:013C       $OK__10jul99_1214_OF_SoftIntHan
 4A16:0142       $OK__10jul99_1214_OF_Timer
 4A16:0148       $OK__10jul99_1214_OF_Messages
 4A16:014E       $OK__10jul99_1214_OF_StdIO
 4A16:0154       $OK__10jul99_1214_OF_ShortCuts
 4A16:015A       $OK__10jul99_1214_OF_FIO
 4A16:0160       $OK__10jul99_1214_OF_Graphics
 4A16:0166       $OK__10jul99_1214_OF_XMSService
 4A16:016C       $OK__10jul99_1214_OF_DGHInterfa
 4A16:0172       $OK__10jul99_1214_OF_HiLevGraf
 4A16:0178       $OK__10jul99_1214_OF_GrafTypes
 4A16:017E       $OK__10jul99_1214_OF_GrafUtil
 4A16:0184       $OK__10jul99_1218_OF_N_Odb
 4A16:018A       $OK__10jul99_1214_OF_AltInterfa
 4A16:0190       $OK__10jul99_1214_OF_Int_DME
 4A16:0196       $OK__10jul99_1214_OF_FIltr1St
 4A16:019C       $OK__10jul99_1215_OF_GeoArithme
 4A16:01A2       $OK__10jul99_1214_OF_DGH_utils
 4A16:01A8       $OK__10jul99_1214_OF_Czas
 4A16:01AE       $OK__10jul99_1214_OF_Kalibracja
 4A16:01B4       $OK__10jul99_1214_OF_DigiRS
 4A16:01BA       $OK__10jul99_1214_OF_RealConver
 4A16:01C0       $OK__10jul99_1214_OF_Math
 4A16:01C6       $OK__10jul99_1214_OF_GPS_nov
 4A16:01CC       $OK__10jul99_1214_OF_GPS_TRIMBL
 4A16:01D2       $OK__10jul99_1214_OF_Ini
 4A16:01D8       $OK__10jul99_1214_OF_MsgBox
 4A16:01DE       $OK__10jul99_1214_OF_Obloty
 4A16:01E4       $OK__10jul99_1214_OF_MMMouse
 4A16:01EA       $OK__10jul99_1214_OF_GList
 4A16:01F0       $OK__10jul99_1214_OF_Buttons
 4A16:01F6       $OK__10jul99_1214_OF_Dialog
 4A16:01FC       $OK__10jul99_1214_OF_InpLine
 4A16:0202       $OK__10jul99_1214_OF_FCBS
 4A16:0208       $OK__10jul99_1214_OF_CocpDsp
 4A16:020E       $OK__10jul99_1215_OF_DataCollec
 4A16:0214       $OK__10jul99_1215_OF_Mapa
 4A16:021A       $OK__10jul99_1214_OF_Wykres
 4A16:0220       $OK__10jul99_1214_OF_XMSTable
 4A16:0226       $OK__10jul99_1215_OF_EventsMng
 4A16:022C       $OK__10jul99_1218_OF_PI_ScrUtil
 4A16:0232       $OK__10jul99_1215_OF_Slupek
 4A16:0238       $OK__10jul99_1215_OF_ScreenCTyp
 4A16:023E       $OK__10jul99_1218_OF_N_DisResul
 4A16:0244       $OK__10jul99_1214_OF_FlagAnal
 4A16:024A       $OK__10jul99_1215_OF_DisResUtil
 4A16:0250       $OK__10jul99_1215_OF_PiszEventy
 4A16:0256       $OK__10jul99_1218_OF_N_results
 4A16:025C       $OK__10jul99_1218_OF_N_DAcquizi
 4A16:0262       $OK__10jul99_1218_OF_N_Count
 4A16:0268       $OK__10jul99_1218_OF_N_Print
 4A16:026E       $OK__10jul99_1214_OF_Semafory
 4A16:0274       $OK__10jul99_1218_OF_ADFAngle
 4A16:027A       $OK__10jul99_1214_OF_NAVInterfa
 4A16:0280       $OK__10jul99_1214_OF_ARINC
 4A16:0286       $OK__10jul99_1214_OF_HRD_Clock
 4A16:028C       $OK__10jul99_1214_OF_Kl_FGenera
 4A16:0292       $OK__10jul99_1215_OF_Marks
 4A16:0298       $OK__10jul99_1215_OF_Polozenie
 4A16:029E       $OK__10jul99_1218_OF_N_Slupek
 4A16:02A4       $OK__10jul99_1214_OF_WorseBecau
 4A16:02AA       $OK__10jul99_1215_OF_DrawEpson
 4A16:02B0       $OK__10jul99_1215_OF_Print
 4A16:02B6       $OK__10jul99_1215_OF_VORR_Avera
 4A16:02BC       $OK__10jul99_1215_OF_PrintCntro
 4A16:02C2       $OK__10jul87_1403_OF_RTS87
 4A16:02C8       $OK__10jul87_1400_OF_RTSError
 4A16:02CE       $OK__19aug87_1403_OF_RTSMain
 4A16:02D4       $OK__10jul87_1401_OF_RTSLanguag
 4A16:02DA       $OK__15jun87_0924_OF_RTSDevice
 4A16:02E0       $OK__10jul87_1404_OF_RTSPriorit
 4A16:02E6       $OK__15jun87_0924_OF_RTSCorouti
 4A16:02EC       $OK__10jul87_1402_OF_RTSInterru
 4A16:02F2       $OK__10jul87_1400_OF_RTSRealErr
 4A16:02F8       $OK__31jul87_1000_OF_Strings
 4A16:02FE       $OK__01mar90_1621_OF_NumberConv
 4A16:0304       $OK__01mar90_1622_OF_Sounds
 4A16:030A       $OK__16jun87_2059_OF_DebugPMD
 4A16:0310       $OK__01mar90_1622_OF_Devices
 4A16:0316       $OK__16jun87_1952_OF_DynMem
 4A16:031C       $OK__31jul87_1300_OF_BlockOps
 4A16:0322       $OK__01mar90_1622_OF_Mouse
 4A16:0328       $OK__05feb87_1233_OF_Longs
 4A16:032E       $OK__01mar90_1621_OF_Terminal
 4A16:0334       $OK__01mar90_1621_OF_Termbase
 4A16:033A       $OK__31jul87_1100_OF_BitByteOps
 4A16:0340       $OK__01mar90_1621_OF_ASCII
 4A16:0346       $OK__01mar90_1621_OF_Display
 4A16:034C       $OK__01mar90_1621_OF_Keyboard
 4A16:0352       $OK__01mar90_1621_OF_DOSMemory
 4A5A:0000       errorCode__RTSMain
 4A5A:0000       $BD__RTSMain
 4A5A:0002       PSPAddress__RTSMain
 4A5A:0006       blockList__RTSMain
 4A5A:000A       overlayList__RTSMain
 4A5A:000E       overlayInitProc__RTSMain
 4A5A:0012       overlayTermProc__RTSMain
 4A5A:0016       curProcess__RTSMain
 4A5A:001A       activProcess__RTSMain
 4A5A:001E       debuggerRecord__RTSMain
 4A5A:0030       deviceMask__RTSMain
 4A5A:0032       dyingOverlay__RTSMain
 4A5A:0036       MonitorExitProc__RTSMonExit
 4A5A:003E       programSize
 4A5A:0046       priorityMasks__RTSMain
 4A5A:0058       DescInt0__RTSMain
 4A5A:0128       freeList__RTSMain
 4A5A:01CE       oldNMIvector
 4A5A:01DD       $ED__RTSMain
 4A79:0000       addProcess__RTSCoroutine
 4A79:0000       $BD__RTSCoroutine
 4A79:0003       $ED__RTSCoroutine
 4AE6:0000       mainState__PN
 4AE6:0000       $BD__PN
 4AE6:0001       switchAble__PN
 4AE6:0002       polaryzacjaOK__PN
 4AE6:0003       podzielnik__PN
 4AE6:0005       synResult__PN
 4AE6:0007       dataOk__PN
 4AE6:0009       archData__PN
 4AE6:000A       offset__PN
 4AE6:000C       $ED__PN
 4AE7:0000       ErrorQueue__MANAGER
 4AE7:0000       $BD__MANAGER
 4AE7:0004       ReadyFirst__MANAGER
 4AE7:0008       NuOfErrorProc__MANAGER
 4AE7:000A       MaxNumOfReady__MANAGER
 4AE7:000C       MaxRunTime__MANAGER
 4AE7:000E       LongestProcess__MANAGER
 4AE7:0012       ErrorHandler__MANAGER
 4AE7:0016       LastCreated__MANAGER
 4AE7:001A       NumberOfProc__MANAGER
 4AE7:001C       Statistic__MANAGER
 4AE7:0114       CP__MANAGER
 4AE7:0118       ReadyLast__MANAGER
 4AE7:011C       DUMMY__MANAGER
 4AE7:0120       NuOfReady__MANAGER
 4AE7:0122       WaitForInt__MANAGER
 4AE7:0124       TSSInterval__MANAGER
 4AE7:0126       MaxRecTime__MANAGER
 4AE7:0128       TimeIntNum__MANAGER
 4AE7:012A       spTab__MANAGER
 4AE7:01F6       expInter__Scheduler__MANAGER
 4AE7:0208       VarDR__MANAGER
 4AE7:021A       Count__MANAGER
 4AE7:021C       LastMask__MANAGER
 4AE7:021E       $ED__MANAGER
 4B09:0000       $BD__PI_PA
 4B09:0000       PomiarANieArchiwum__PI_PA
 4B09:0001       $ED__PI_PA
 4B0A:0000       entryTmp__DOSEntry
 4B0A:0000       $BD__DOSEntry
 4B0A:003D       exitTmp__DOSEntry
 4B0A:007A       entryTmpPtr__DOSEntry
 4B0A:007E       exitTmpPtr__DOSEntry
 4B0A:0082       insideFlag__DOSEntry
 4B0A:0084       DOSEmpty__DOSEntry
 4B0A:0088       $ED__DOSEntry
 4B13:0000       $ED__ErrorMess
 4B13:0000       $BD__ErrorMess
 4B14:0000       $ED__PrintScreen
 4B14:0000       $BD__PrintScreen
 4B15:0000       VORfreqCRT__Tune
 4B15:0000       $BD__Tune
 4B15:0050       GSfreqCRT__Tune
 4B15:00A0       lastCPFlags__Tune
 4B15:00A2       lastDMEfrqBits__Tune
 4B15:00A6       $ED__Tune
 4B20:0000       ST__PI_Qcheck
 4B20:0000       $BD__PI_Qcheck
 4B20:0030       $ED__PI_Qcheck
 4B24:0000       flg__ScannerI
 4B24:0000       $BD__ScannerI
 4B24:0002       Alfa__ScannerI
 4B24:0006       AlfaF__ScannerI
 4B24:000A       RefAlfa__ScannerI
 4B24:000C       TeoAlfaF__ScannerI
 4B24:000E       Delta__ScannerI
 4B24:0016       DeltaDME__ScannerI
 4B24:001A       DeltaF__ScannerI
 4B24:0022       RefDis__ScannerI
 4B24:0024       ABOVESL__ScannerI
 4B24:0026       pilErr__ScannerI
 4B24:0028       TEO_A__ScannerI
 4B24:0030       TEO_E__ScannerI
 4B24:0038       TEO_OK__ScannerI
 4B24:003A       TEO_DGPSpoprawki__ScannerI
 4B24:003B       GPS_A__ScannerI
 4B24:0043       GPS_R__ScannerI
 4B24:004B       GPS_OK__ScannerI
 4B24:004C       GPS_SAT__ScannerI
 4B24:004E       GPS_GDOP__ScannerI
 4B24:0050       GPS_DIFFMODE__ScannerI
 4B24:0051       GPS_PREC__ScannerI
 4B24:0053       Simul__ScannerI
 4B24:0054       AcqQ__ScannerI
 4B24:0058       RUN__ScannerI
 4B24:0059       AlfaSigma__ScannerI
 4B24:0061       DisSigma__ScannerI
 4B24:0069       EvalPROC__ScannerI
 4B24:0079       pilotEvNrCOn__ScannerI
 4B24:007C       pilotEvNr__ScannerI
 4B24:007E       pilEvCon__ScannerI
 4B24:0082       pilEvBit__ScannerI
 4B24:0083       Sim_Dis_CP__ScannerI
 4B24:0087       Sim_Alfa_CP__ScannerI
 4B24:008B       GPSEcounting__ScannerI
 4B24:008F       TEOEcounting__ScannerI
 4B24:0093       locTogether__ScannerI
 4B24:0094       AlfaGPSWatcDog__ScannerI
 4B24:0096       AlfaTeoWatcDog__ScannerI
 4B24:0098       currOdnDlaPomOdl__ScannerI
 4B24:0099       currOdnDlaPomBledu__ScannerI
 4B24:009A       currPredkosc__ScannerI
 4B24:00A2       currPromien__ScannerI
 4B24:00A4       currAlfaOff__ScannerI
 4B24:00A6       azymANieElew__ScannerI
 4B24:00A7       TEO_dtaSign__ScannerI
 4B24:00AB       GPS_dtaSign__ScannerI
 4B24:00AD       ix__ScannerI
 4B24:00AF       $ED__ScannerI
 4B2F:0000       $ED__CommonTypes
 4B2F:0000       $BD__CommonTypes
 4B30:0000       PolozenieTeodolitu__TheodolitRe
 4B30:0000       $BD__TheodolitRead
 4B30:0010       Kopiowanie__TheodolitRead
 4B30:0014       Azymut__TheodolitRead
 4B30:001C       Elewacja__TheodolitRead
 4B30:0024       lstAzymuth__TheodolitRead
 4B30:002C       lstElevation__TheodolitRead
 4B30:0034       currentSign__TheodolitRead
 4B30:0036       TeoEvNr__TheodolitRead
 4B30:0038       wd_dgps_currSign__TheodolitRead
 4B30:003A       lstEvent__TheodolitRead
 4B30:003B       lstTracking__TheodolitRead
 4B30:003C       teoEvBit__TheodolitRead
 4B30:003D       State__TheodolitRead
 4B30:003F       currState__TheodolitRead
 4B30:0040       lastNum__TheodolitRead
 4B30:0046       lastCrc__TheodolitRead
 4B30:0048       numPos__TheodolitRead
 4B30:004A       CheckSumIdx__TheodolitRead
 4B30:004C       teoEvCon__TheodolitRead
 4B30:0050       teoEvNrCOn__TheodolitRead
 4B30:0053       Nie_mozna_uruchomic_kanalu_Teod
 4B30:0057       $ED__TheodolitRead
 4B36:0000       $BD__GPSRead
 4B36:0000       ObecnyStan__GPSRead
 4B36:0001       currentSign__GPSRead
 4B36:0003       Last_Gdop__GPSRead
 4B36:0005       Last_NumberOfSattelites__GPSRea
 4B36:0007       Last_polGeo__GPSRead
 4B36:0013       Last_Diffmode__GPSRead
 4B36:0014       Last_tog__GPSRead
 4B36:001C       Last_EPE__GPSRead
 4B36:001E       CurrGPSAnalizer__GPSRead
 4B36:0022       $ED__GPSRead
 4B39:0000       signals__DGHIni
 4B39:0000       $BD__DGHIni
 4B39:08E8       TableOfNames__DGHIni
 4B39:0F70       SignalDescr__DGHIni
 4B39:0F8E       $ED__DGHIni
 4C32:0000       $BD__N_Files
 4C32:0000       FileErr__N_Files
 4C32:0004       NamesSig__N_Files
 4C32:0090       FileSig__N_Files
 4C32:00A4       NameRes__N_Files
 4C32:00C0       FileRes__N_Files
 4C32:00C4       FileResCreated__N_Files
 4C32:00C5       $ED__N_Files
 4C3F:0000       $BD__N_CommonTypes
 4C3F:0000       Procedura__N_CommonTypes
 4C3F:0001       $ED__N_CommonTypes
 4C40:0000       $ED__PI_Glowny
 4C40:0000       $BD__PI_Glowny
 4C41:0000       $BD__N_Inspekcja
 4C41:0000       hDlg__N_Inspekcja
 4C41:0004       RedrawScr__N_Inspekcja
 4C41:0005       ListaOblotow__N_Inspekcja
 4C41:0009       ListaOblotowBAK__N_Inspekcja
 4C41:000D       ListaLokalizacji__N_Inspekcja
 4C41:0011       ListaLokalizacjiBAK__N_Inspekcj
 4C41:0015       OstatniOblot__N_Inspekcja
 4C41:0017       $ED__N_Inspekcja
 4C43:0000       CoRobimy__N_Oblot
 4C43:0000       $BD__N_Oblot
 4C43:0001       hDlg__N_Oblot
 4C43:0005       bOkrag__N_Oblot
 4C43:000D       bPromien__N_Oblot
 4C43:0015       GlowOdb__N_Oblot
 4C43:0019       CisnienieOdn__N_Oblot
 4C43:001D       OrbitaL__N_Oblot
 4C43:0021       PromienL__N_Oblot
 4C43:0025       TestUP__N_Oblot
 4C43:0029       Raport__N_Oblot
 4C43:002D       Pomiar__N_Oblot
 4C43:0031       Lista__N_Oblot
 4C43:0039       RedrawScr__N_Oblot
 4C43:003A       $ED__N_Oblot
 4C47:0000       $BD__CommonData
 4C47:0000       NazwaUrzadz1__CommonData
 4C47:0029       NazwaUrzadz2__CommonData
 4C47:0052       NazwaOblotu__CommonData
 4C47:007B       NazwaPlikuOpisu__CommonData
 4C47:00FB       DME__CommonData
 4C47:00FC       SciezkaOpisuPomiaru__CommonData
 4C47:013D       OdnDlaPomBledu__CommonData
 4C47:013E       OdnDlaPomOdl__CommonData
 4C47:013F       Nadajnik1__CommonData
 4C47:0140       Nadajnik2__CommonData
 4C47:0141       GlownyOdbiornik__CommonData
 4C47:0142       Promien__CommonData
 4C47:0144       Orbita__CommonData
 4C47:0146       Predkosc__CommonData
 4C47:014E       CisnienieOdniesienia__CommonDat
 4C47:0156       $ED__CommonData
 4C5D:0000       $BD__Files
 4C5D:0000       FileErr__Files
 4C5D:0004       DirErr__Files
 4C5D:0008       NamesAn__Files
 4C5D:0040       NamesDist__Files
 4C5D:00B0       NamesAlfa__Files
 4C5D:00E8       NamesComm__Files
 4C5D:0190       filesDist__Files
 4C5D:01A0       filesAlfa__Files
 4C5D:01A8       filesComm__Files
 4C5D:01C0       xRefFile__Files
 4C5D:01C4       xRefDefV__Files
 4C5D:01C8       homeDir__Files
 4C5D:0219       $ED__Files
 4C7F:0000       disCont__N_CP_ControlProc
 4C7F:0000       $BD__N_CP_ControlProc
 4C7F:00CD       angCont__N_CP_ControlProc
 4C7F:0190       myRadial__N_CP_ControlProc
 4C7F:0192       aktOrbita__N_CP_ControlProc
 4C7F:0194       radial__N_CP_ControlProc
 4C7F:0195       Running__N_CP_ControlProc
 4C7F:0196       $ED__N_CP_ControlProc
 4C99:0000       $BD__Pomiar
 4C99:0000       ProcPom__Pomiar
 4C99:0050       EtapPolaryzacji__Pomiar
 4C99:0054       StanButtonow__Pomiar
 4C99:0058       currButtonSet__Pomiar
 4C99:005A       B_01__Pomiar
 4C99:005E       B_02__Pomiar
 4C99:0062       B_03__Pomiar
 4C99:0066       B_04__Pomiar
 4C99:006A       B_05__Pomiar
 4C99:006E       NapisB_01__Pomiar
 4C99:0075       StanZestawu__Pomiar
 4C99:0077       frstBut__Pomiar
 4C99:0079       katPromien__Pomiar
 4C99:007B       promien__Pomiar
 4C99:007C       format360__Pomiar
 4C99:007E       distOff__Pomiar
 4C99:0082       alfaOff__Pomiar
 4C99:0092       currZestaw__Pomiar
 4C99:0093       dataInBuff__Pomiar
 4C99:0095       $ED__Pomiar
 4CA3:0000       VAL1__Screen
 4CA3:0000       $BD__Screen
 4CA3:0004       VAL2__Screen
 4CA3:0008       VAL3__Screen
 4CA3:000C       VAL4__Screen
 4CA3:0010       Zestaw__Screen
 4CA3:0011       aktPromien__Screen
 4CA3:0013       aktPromienOdAnt__Screen
 4CA3:001B       pomPromieniowy__Screen
 4CA3:001C       aktFormat360__Screen
 4CA3:001D       devDistR__Screen
 4CA3:0025       by23__Screen
 4CA3:0027       LastDTidx__Screen
 4CA3:0029       ThisDTidx__Screen
 4CA3:002B       samplediv__Screen
 4CA3:002D       NextRedraw__Screen
 4CA3:002E       LastEventIDX__Screen
 4CA3:0030       KrokOpisuOsi__Screen
 4CA3:0032       Predrawmarksreq__Screen
 4CA3:0036       Predrawreq__Screen
 4CA3:003A       currConsoleEv__Screen
 4CA3:003E       RegionWykG__Screen
 4CA3:0042       RegionWykGCreated__Screen
 4CA3:0043       RegionWyk1__Screen
 4CA3:0047       RegionWyk1Created__Screen
 4CA3:0048       RegionWyk2__Screen
 4CA3:004C       RegionWyk2Created__Screen
 4CA3:004D       RegionWyk3__Screen
 4CA3:0051       RegionWyk3Created__Screen
 4CA3:0052       RegionWykresow__Screen
 4CA3:0056       B_CURSOR__Screen
 4CA3:005A       B_LEFT__Screen
 4CA3:005E       B_RIGHT__Screen
 4CA3:0062       B_UP__Screen
 4CA3:0066       B_DOWN__Screen
 4CA3:006A       screenDIB__Screen
 4CA3:006E       RysSytMaxDis__Dialog__Screen
 4CA3:0076       CursorMode__Dialog__Screen
 4CA3:0077       JakijedenWykres__Dialog__Screen
 4CA3:0078       JedenWykres__Dialog__Screen
 4CA3:0079       JakieWykr__Dialog__Screen
 4CA3:007A       popJakieWykr__Dialog__Screen
 4CA3:007B       CursorPos__Dialog__Screen
 4CA3:007D       OileKursor__Dialog__Screen
 4CA3:007F       ZmianaSkaliWpionie__Dialog__Scr
 4CA3:0080       BarOnScreen__Dialog__Screen
 4CA3:0082       skalaWpionie__Dialog__Screen
 4CA3:012C       ChangeKursorMode__Dialog__Scree
 4CA3:012D       $ED__Screen
 4CB6:0000       dispResults__PI_Analiza
 4CB6:0000       $BD__PI_Analiza
 4CB6:0004       currButtonSet__MouseMonitor__PI
 4CB6:0005       B_Drukuj__MouseMonitor__PI_Anal
 4CB6:0009       B_Akceptuj__MouseMonitor__PI_An
 4CB6:000D       B_Abort__MouseMonitor__PI_Anali
 4CB6:0011       B_UP__MouseMonitor__PI_Analiza
 4CB6:0015       B_DOWN__MouseMonitor__PI_Analiz
 4CB6:0019       B_XCHG__MouseMonitor__PI_Analiz
 4CB6:001D       sthPressed__MouseMonitor__PI_An
 4CB6:0021       $ED__PI_Analiza
 4CB9:0000       $BD__PI_Pomiar
 4CB9:0000       $ED__PI_Pomiar
 4CBA:0000       $ED__PI_ArchDate
 4CBA:0000       $BD__PI_ArchDate
 4CBB:0000       $ED__PI_Drukuj
 4CBB:0000       $BD__PI_Drukuj
 4CBC:0000       $BD__N_DataBase
 4CBC:0000       NadajnikNDB__N_DataBase
 4CBC:003A       NDB_O_czuloscWP__N_DataBase
 4CBC:003C       NDB_O_czuloscCP__N_DataBase
 4CBC:003E       NDB_R_czuloscWP__N_DataBase
 4CBC:0040       NDB_R_czuloscCP__N_DataBase
 4CBC:0042       Blad_podczas_wczytywania_Lotnis
 4CBC:0046       $ED__N_DataBase
 4CC1:0000       $BD__SpecConv
 4CC1:0000       $ED__SpecConv
 4CC2:0000       $BD__Storage
 4CC2:0000       OCCUPED__Storage
 4CC2:0001       heapList__Storage
 4CC2:0021       prevHeap__Storage
 4CC2:0023       StaraStrategia__Storage
 4CC2:0025       StaryCh__Storage
 4CC2:0027       $ED__Storage
 4CC5:0000       break__SoftIntHandlingManager
 4CC5:0000       $BD__SoftIntHandlingManager
 4CC5:0001       firstISRDescriptorPtr__Monitor_
 4CC5:0005       $ED__SoftIntHandlingManager
 4CC6:0000       TimeCounter__Timer
 4CC6:0000       $BD__Timer
 4CC6:0002       TIOS__Timer
 4CC6:0004       ClockPer__Timer
 4CC6:0006       TOQueue__Monitor__Timer
 4CC6:000A       Period__Monitor__Timer
 4CC6:000C       PeriodCount__Monitor__Timer
 4CC6:000E       PeriodicProcedure__Monitor__Tim
 4CC6:0012       Dumm__Monitor__Timer
 4CC6:0014       $ED__Timer
 4CC8:0000       $BD__Messages
 4CC8:0000       MList__Messages
 4CC8:0004       MDispl__Messages
 4CC8:0008       MessageSound__Messages
 4CC8:000A       TurnBeepOn__Messages
 4CC8:000E       $ED__Messages
 4CC9:0000       $BD__StdIO
 4CC9:0000       $ED__StdIO
 4CCA:0000       Kill__ShortCuts
 4CCA:0000       $BD__ShortCuts
 4CCA:0001       ShortCutList__monitor__ShortCut
 4CCA:0005       SavedChar__monitor__ShortCuts
 4CCA:0007       FreeKey__monitor__ShortCuts
 4CCA:000B       NumEl__monitor__ShortCuts
 4CCA:000D       done__ShortCuts
 4CCA:000E       $ED__ShortCuts
 4CCB:0000       lastErr__FIO
 4CCB:0000       $BD__FIO
 4CCB:0002       numErr__FIO
 4CCB:0004       opened__FIO
 4CCB:0006       maxOpened__FIO
 4CCB:0008       Files__FIO
 4CCB:0C08       CriticalErrorRec__FIO
 4CCB:0C12       $ED__FIO
 4D8D:0000       $BD__Graphics
 4D8D:0000       FontPtr__Graphics
 4D8D:0004       bank__InternalMonitor__Graphics
 4D8D:0006       bankstart__InternalMonitor__Gra
 4D8D:000A       BKSizeL__InternalMonitor__Graph
 4D8D:000E       BK64Inc__InternalMonitor__Graph
 4D8D:0010       FntTable__Graphics
 4D8D:0130       $ED__Graphics
 4DA1:0000       $BD__XMS
 4DA1:0004       $ED__XMS
 4DA2:0000       $BD__XMSService
 4DA2:0000       GarbageList__XMSService
 4DA2:0004       $ED__XMSService
 4DA3:0000       $BD__DGHInterface
 4DA3:0000       BufferFull__DGHInterface
 4DA3:0004       currentSign__DGHInterface
 4DA3:0006       binaryDtaSign__DGHInterface
 4DA3:0008       csErrorCnt__DGHInterface
 4DA3:000A       nvErrorCndF__DGHInterface
 4DA3:000C       nvErrorCndS__DGHInterface
 4DA3:000E       maxClicks__DGHInterface
 4DA3:0010       activated__DGHInterface
 4DA3:0014       Ostrzezenie_ze_za_dlugo__DGHInt
 4DA3:0018       $ED__DGHInterface
 4DA5:0000       $BD__HiLevGraf
 4DA5:0000       ClipRect__HiLevGraf
 4DA5:0008       Style__HiLevGraf
 4DA5:000A       LastPosition__HiLevGraf
 4DA5:000C       semafor__HiLevGraf
 4DA5:0018       Path__HiLevGraf
 4DA5:0059       XS__HiLevGraf
 4DA5:005B       YS__HiLevGraf
 4DA5:005D       $ED__HiLevGraf
 4DAB:0000       $ED__GrafTypes
 4DAB:0000       $BD__GrafTypes
 4DAC:0000       $BD__GrafUtil
 4DAC:0000       StatusR__GrafUtil
 4DAC:0008       str__GrafUtil
 4DAC:006C       WaitTime__GrafUtil
 4DAC:006E       Tone__GrafUtil
 4DAC:0070       $ED__GrafUtil
 4DB4:0000       audio_N__N_Odb
 4DB4:0000       $BD__N_Odb
 4DB4:0002       berN__N_Odb
 4DB4:0006       agc__N_Odb
 4DB4:000A       sin__N_Odb
 4DB4:000E       cos__N_Odb
 4DB4:0012       dir__N_Odb
 4DB4:0016       flg__N_Odb
 4DB4:0018       DEVVAL__N_Odb
 4DB4:001C       DEVMIN__N_Odb
 4DB4:0020       DEVMAX__N_Odb
 4DB4:0024       DEVAV__N_Odb
 4DB4:0028       DevNr__N_Odb
 4DB4:002C       DevErrSum__N_Odb
 4DB4:003C       CollectData__N_Odb
 4DB4:003D       dirCon__N_Odb
 4DB4:0045       IdSygnalow__N_Odb
 4DB4:0049       licznik__N_Odb
 4DB4:004B       LiczBladNam__N_Odb
 4DB4:004C       $ED__N_Odb
 4DB9:0000       $BD__AltInterface
 4DB9:0000       ALT_Conver_Tab__AltInterface
 4DB9:0020       ALT_Conver_TabC__AltInterface
 4DB9:0040       refPress__AltInterface
 4DB9:0048       $ED__AltInterface
 4DBE:0000       $ED__Int_DME
 4DBE:0000       $BD__Int_DME
 4DBF:0000       $BD__FIltr1St
 4DBF:0000       okresImp__FIltr1St
 4DBF:0008       $ED__FIltr1St
 4DC0:0000       $BD__GeoArithmetic
 4DC0:0000       Deklinacja__GeoArithmetic
 4DC0:0008       OdniesienieMtx__GeoArithmetic
 4DC0:0020       IloscOdniesien__GeoArithmetic
 4DC0:0022       $ED__GeoArithmetic
 4DC3:0000       address__DGH_utils
 4DC3:0000       $BD__DGH_utils
 4DC3:0020       binAddress__DGH_utils
 4DC3:0036       $ED__DGH_utils
 4DC7:0000       StringRect__BezPrzerwan__Czas
 4DC7:0000       $BD__Czas
 4DC7:0008       SystemTime__BezPrzerwan__Czas
 4DC7:0014       $ED__Czas
 4DC9:0000       $BD__Kalibracja
 4DC9:0000       TabKalib2P__Kalibracja
 4DC9:0800       AGCwartosciProgow__Kalibracja
 4DC9:0870       AGCwartosciProgowM__Kalibracja
 4DC9:08C0       AGCwartosciProgowD__Kalibracja
 4DC9:0910       LocDev_delay__Kalibracja
 4DC9:0918       GsDev_delay__Kalibracja
 4DC9:0920       LocPrcMod_delay__Kalibracja
 4DC9:0928       GsPrcMod_delay__Kalibracja
 4DC9:0930       VorRefPrcMod_delay__Kalibracja
 4DC9:0938       VorVarPrcMod_delay__Kalibracja
 4DC9:0940       SubcarPrcMod_delay__Kalibracja
 4DC9:0948       Omnibearing_delay__Kalibracja
 4DC9:0950       VorAgc_delay__Kalibracja
 4DC9:0958       GsAgc_delay__Kalibracja
 4DC9:0960       MkrAgc_delay__Kalibracja
 4DC9:0968       OmnibearingProgi__Kalibracja
 4DC9:0A88       LOC_DEVPuntyKal__Kalibracja
 4DC9:0AC0       GS_DEVPuntyKal__Kalibracja
 4DC9:0AF8       Par__Kalibracja
 4DC9:13B8       errDetected__Kalibracja
 4DC9:13BC       inputCoeff__Kalibracja
 4DC9:13EC       DataOstatniejKalibracji__Kalibr
 4DC9:13F8       WystapilBlad__Kalibracja
 4DC9:13F9       lastError__ErrorHand__Kalibracj
 4DC9:13FB       for_counter__Kalibracja
 4DC9:13FD       void__Kalibracja
 4DC9:13FF       f__Kalibracja
 4DC9:1401       $ED__Kalibracja
 4F0A:0000       $BD__DigiRS
 4F0A:0000       minWrBufLength__DigiRS
 4F0A:0002       $ED__DigiRS
 4F0B:0000       $BD__RealConversions
 4F0B:0000       $ED__RealConversions
 4F0C:0000       $BD__Math
 4F0C:0000       $ED__Math
 4F0D:0000       $BD__GPS_nov
 4F0D:0000       framesWError__GPS_nov
 4F0D:0002       chrCount__GPS_nov
 4F0D:0004       frmCount__GPS_nov
 4F0D:0006       actPart__GPS_nov
 4F0D:0007       sumaModC__GPS_nov
 4F0D:0008       sumaModF__GPS_nov
 4F0D:000A       posInRecBuf__GPS_nov
 4F0D:000C       bufor__GPS_nov
 4F0D:007B       eos__GPS_nov
 4F0D:007E       err_unrec_cnt__GPS_nov
 4F0D:0080       BladKanaluGPS__GPS_nov
 4F0D:0084       $ED__GPS_nov
 4F16:0000       framesWError__GPS_TRIMBLE
 4F16:0000       $BD__GPS_TRIMBLE
 4F16:0002       chrCount__GPS_TRIMBLE
 4F16:0004       frmCount__GPS_TRIMBLE
 4F16:0006       actPart__GPS_TRIMBLE
 4F16:0007       posInRecBuf__GPS_TRIMBLE
 4F16:0009       bufor__GPS_TRIMBLE
 4F16:0049       L_epe__GPS_TRIMBLE
 4F16:004B       L_WspSzerokosc__GPS_TRIMBLE
 4F16:0051       L_WspDlugosc__GPS_TRIMBLE
 4F16:0057       L_Kierunek__GPS_TRIMBLE
 4F16:005F       L_FixNotAvailable__GPS_TRIMBLE
 4F16:0060       L_month__GPS_TRIMBLE
 4F16:0062       L_day__GPS_TRIMBLE
 4F16:0064       L_year__GPS_TRIMBLE
 4F16:0066       L_hour__GPS_TRIMBLE
 4F16:0068       L_min__GPS_TRIMBLE
 4F16:006A       L_sec__GPS_TRIMBLE
 4F16:006C       L_NumberOfSattelites__GPS_TRIMB
 4F16:006E       BladKanaluGPS__GPS_TRIMBLE
 4F16:0072       $ED__GPS_TRIMBLE
 4F1E:0000       $BD__Ini
 4F1E:0000       ErrorProc__Ini
 4F1E:0004       ini__Ini
 4F1E:0010       currfile__Ini
 4F1E:0012       BuffP__Ini
 4F1E:0016       Bufor__Ini
 4F1E:5017       charsInBuffer__Ini
 4F1E:5019       SavedFileName__Ini
 4F1E:507D       LastDir__Ini
 4F1E:50E1       Modified__Ini
 4F1E:50E2       check__Ini
 4F1E:50E4       $ED__Ini
 542D:0000       $BD__MsgBox
 542D:0000       hDlg__MsgBox
 542D:0004       ret__MsgBox
 542D:0006       P_A__MsgBox
 542D:0016       $ED__MsgBox
 542F:0000       NazwaPlikuIni__Obloty
 542F:0000       $BD__Obloty
 542F:0040       Stat_Size_Monitor__Obloty
 542F:0044       Stat_File_Monitor__Obloty
 542F:0048       HomeDir__Obloty
 542F:0058       HomeDirNazwaPlikuIni__Obloty
 542F:0099       bd_NazwaPliku__Obloty
 542F:00AA       bd_Sekcja__Obloty
 542F:00B5       bd_WpisNazwa__Obloty
 542F:00C0       insp_DirTmp__Obloty
 542F:00CB       stat_Size__Obloty
 542F:00D3       stat_Files__Obloty
 542F:00D5       NUrzadzDlaDopasuj__Obloty
 542F:0116       HomeDirDlaDopasuj__Obloty
 542F:0157       CallBackDlaDopasuj__Obloty
 542F:015B       NazwaPlikuZOpisem__Obloty
 542F:019C       DelDir__Obloty
 542F:01DD       SrcDir__Obloty
 542F:021E       DstDir__Obloty
 542F:025F       $ED__Obloty
 5455:0000       Regiony__MMMouse
 5455:0000       $BD__MMMouse
 5455:0004       LastX__MMMouse
 5455:0006       LastY__MMMouse
 5455:0008       CursorShapePtr__MMMouse
 5455:000C       DefaultShape__MMMouse
 5455:0050       maxX__MMMouse
 5455:0052       maxY__MMMouse
 5455:0054       PrevReg__MMMouse
 5455:0058       MonitoCheck__BezPrzerwanOdMyszy
 5455:005A       MouseEvent__BezPrzerwanOdMyszy_
 5455:005E       OldButtons__BezPrzerwanOdMyszy_
 5455:005F       EVF__BezPrzerwanOdMyszy__MMMous
 5455:0061       EVL__BezPrzerwanOdMyszy__MMMous
 5455:0063       EVC__BezPrzerwanOdMyszy__MMMous
 5455:0065       EventBuff__BezPrzerwanOdMyszy__
 5455:01E5       Stored__BezPrzerwanOdMyszy__MMM
 5455:01EC       lx__BezWyszeregowania__MMMouse
 5455:01EE       ly__BezWyszeregowania__MMMouse
 5455:01F0       rx__BezWyszeregowania__MMMouse
 5455:01F2       ry__BezWyszeregowania__MMMouse
 5455:01F4       CursorBuf__BezWyszeregowania__M
 5455:02F4       Hidden__BezWyszeregowania__MMMo
 5455:02F5       CursorB__BezWyszeregowania__MMM
 5455:03F5       MSemafor__MMMouse
 5455:0401       $ED__MMMouse
 5496:0000       $BD__GList
 5496:0000       CurH__GList
 5496:0004       Lista__GList
 5496:0008       $ED__GList
 5497:0000       $BD__Buttons
 5497:0000       KbdButton__Buttons
 5497:0004       AllEnabled__Buttons
 5497:0005       ButtonList__MONITOR__Buttons
 5497:0009       $ED__Buttons
 5498:0000       ListaDlg__Dialog
 5498:0000       $BD__Dialog
 5498:0004       FocusChanged__Dialog
 5498:0008       $ED__Dialog
 5499:0000       $BD__InpLine
 5499:0000       Active__InpLine
 5499:0004       $ED__InpLine
 549A:0000       $BD__FCBS
 549A:0000       Code__FCBS
 549A:003D       $ED__FCBS
 549E:0000       $BD__CocpDsp
 549E:0000       currGSflg__CocpDsp
 549E:0001       currNAVflg__CocpDsp
 549E:0002       currFROMflg__CocpDsp
 549E:0003       currTOflg__CocpDsp
 549E:0004       dirCP__CocpDsp
 549E:0006       dirWP__CocpDsp
 549E:0008       SkalaCP__CocpDsp
 549E:000A       Skala__CocpDsp
 549E:000C       SkalaCPMax__CocpDsp
 549E:000E       SkalaWPMax__CocpDsp
 549E:0010       srodekSkali__CocpDsp
 549E:0012       iloscStrzal__CocpDsp
 549E:0014       currState__CocpDsp
 549E:0015       currLNumber__CocpDsp
 549E:0017       currRNumber__CocpDsp
 549E:0019       currErrorCP__CocpDsp
 549E:001B       currErrorWP__CocpDsp
 549E:001D       currErrorGS__CocpDsp
 549E:001F       newState__CocpDsp
 549E:0023       dtaSign__CocpDsp
 549E:0025       force__CocpDsp
 549E:0026       currMsg__CocpDsp
 549E:0028       $ED__CocpDsp
 54A1:0000       VAL1__DataCollect
 54A1:0000       $BD__DataCollect
 54A1:3210       VAL2__DataCollect
 54A1:6420       VAL3__DataCollect
 54A1:9630       VAL4__DataCollect
 54A1:C840       Idx__DataCollect
 54A1:C844       angContiner__DataCollect
 54A1:C84C       disContiner__DataCollect
 54A1:C854       marks_Con_D__DataCollect
 54A1:C857       marks_Con_A__DataCollect
 54A1:C85A       samplediv__tablice__DataCollect
 54A1:C85E       curr23__tablice__DataCollect
 54A1:C862       IDX3__tablice__DataCollect
 54A1:C866       IDX2__tablice__DataCollect
 54A1:C86A       Div3T__tablice__DataCollect
 54A1:C86E       Div2T__tablice__DataCollect
 54A1:C872       div2n__tablice__DataCollect
 54A1:C876       div3n__tablice__DataCollect
 54A1:C87A       ix2__tablice__DataCollect
 54A1:C87E       ix3__tablice__DataCollect
 54A1:C882       procVAL1__tablice__DataCollect
 54A1:C88A       procVAL2__tablice__DataCollect
 54A1:C892       procVAL3__tablice__DataCollect
 54A1:C89A       procVAL4__tablice__DataCollect
 54A1:C8A2       samples__tablice__DataCollect
 54A1:C8A6       VALX__tablice__DataCollect
 54A1:E1AE       $ED__DataCollect
 62BC:0000       $BD__Mapa
 62BC:0000       doZrobienia__Mapa
 62BC:0020       zrobione__Mapa
 62BC:0040       aktualny__Mapa
 62BC:0042       mapRct__Mapa
 62BC:004A       distRect__Mapa
 62BC:0052       PokazywacPolozenie__Mapa
 62BC:0053       RysSytMaxDis__Mapa
 62BC:005B       myPoint__Mapa
 62BC:005F       redraw__Mapa
 62BC:0060       noActive__monitor__Mapa
 62BC:0064       $ED__Mapa
 62C3:0000       $BD__Wykres
 62C3:0000       $ED__Wykres
 62C4:0000       $BD__XMSTable
 62C4:0000       $ED__XMSTable
 62C5:0000       $BD__EventsMng
 62C5:0000       Events__EventsMng
 62C5:0B44       pilEnr__EventsMng
 62C5:0B48       conEnr__EventsMng
 62C5:0B4C       teoEnr__EventsMng
 62C5:0B50       $ED__EventsMng
 637B:0000       slupki__PI_ScrUtility
 637B:0000       $BD__PI_ScrUtility
 637B:000C       slupkiAktywne__PI_ScrUtility
 637B:000D       $ED__PI_ScrUtility
 637C:0000       $BD__Slupek
 637C:0000       $ED__Slupek
 637D:0000       $BD__ScreenCTypes
 637D:0000       slL_rec__ScreenCTypes
 637D:0008       slL_pnt__ScreenCTypes
 637D:000C       slLReg_rec__ScreenCTypes
 637D:0014       slLDib_rec__ScreenCTypes
 637D:001C       slS_rec__ScreenCTypes
 637D:0024       slS_pnt__ScreenCTypes
 637D:0028       slSReg_rec__ScreenCTypes
 637D:0030       slSDib_rec__ScreenCTypes
 637D:0038       slP_rec__ScreenCTypes
 637D:0040       slP_pnt__ScreenCTypes
 637D:0044       slPReg_rec__ScreenCTypes
 637D:004C       slPDib_rec__ScreenCTypes
 637D:0054       $ED__ScreenCTypes
 6383:0000       $BD__N_DisResults
 6383:0000       $ED__N_DisResults
 6384:0000       $BD__FlagAnal
 6384:0000       $ED__FlagAnal
 6385:0000       $ED__DisResUtilities
 6385:0000       $BD__DisResUtilities
 6386:0000       PoczatekStrony__PiszEventy
 6386:0000       $BD__PiszEventy
 6386:0002       EvPtr__PiszEventy
 6386:0006       $ED__PiszEventy
 6387:0000       anRes__N_results
 6387:0000       $BD__N_results
 6387:3B13       currDT__N_results
 6387:3B1F       s__N_results
 6387:3B21       lastline__N_results
 6387:3B23       $ED__N_results
 673A:0000       ImportantDiv__N_DAcquizition
 673A:0000       $BD__N_DAcquizition
 673A:0002       redraw__N_DAcquizition
 673A:0003       redrawM__N_DAcquizition
 673A:0004       pilotEvId__N_DAcquizition
 673A:0008       currUpdMarks__N_DAcquizition
 673A:000C       signTabNil__N_DAcquizition
 673A:0010       currGlownyOdbiornik__N_DAcquizi
 673A:0011       filesNotEmpty__N_DAcquizition
 673A:0012       notify__Monitor__N_DAcquizition
 673A:0016       lastComm__Monitor__N_DAcquiziti
 673A:0017       $ED__N_DAcquizition
 673C:0000       $BD__N_Count
 673C:0000       $ED__N_Count
 673D:0000       header__N_Print
 673D:0000       $BD__N_Print
 673D:0051       NazwaPliku__N_Print
 673D:0070       Odbiornik__N_Print
 673D:0071       NAVG_Audio_flg__N_Print
 673D:0073       NAVZ_Audio_flg__N_Print
 673D:0075       $ED__N_Print
 6745:0000       $BD__Semafory
 6745:0000       TablicaSemaforow__Semafory
 6745:0054       $ED__Semafory
 674B:0000       $ED__ADFAngle
 674B:0000       $BD__ADFAngle
 674C:0000       disableMask__NAVInterface
 674C:0000       $BD__NAVInterface
 674C:0002       speedMask__NAVInterface
 674C:0004       fineMode__NAVInterface
 674C:0005       killTime__NAVInterface
 674C:0007       $ED__NAVInterface
 674D:0000       maxCountW__ARINC
 674D:0000       $BD__ARINC
 674D:0002       maxCountR__ARINC
 674D:0004       $ED__ARINC
 674E:0000       $ED__HRD_Clock
 674E:0000       $BD__HRD_Clock
 674F:0000       $BD__Kl_FGenerators
 674F:0000       $ED__Kl_FGenerators
 6750:0000       $ED__Marks
 6750:0000       $BD__Marks
 6751:0000       $BD__Polozenie
 6751:0000       StalyKat__Polozenie
 6751:0002       Srodek__Polozenie
 6751:0006       Promien__Polozenie
 6751:0008       MaxVal__Polozenie
 6751:0010       AktOdleglosc__Polozenie
 6751:0018       AktKat__Polozenie
 6751:0020       Narysowany__Polozenie
 6751:0022       Bufor__Polozenie
 6751:0112       Rect__Polozenie
 6751:011A       ProcesAktywny__Polozenie
 6751:011B       NCO__Polozenie
 6751:011C       angContiner__Polozenie
 6751:011F       MarkerShapes__Polozenie
 6751:020F       Dir__Polozenie
 6751:0211       CzesciOkregu__Polozenie
 6751:0235       $ED__Polozenie
 6775:0000       parSlupkow__N_Slupek
 6775:0000       $BD__N_Slupek
 6775:0018       screeenDIB__N_Slupek
 6775:001C       cursorDIB__N_Slupek
 6775:0020       $ED__N_Slupek
 6778:0000       $BD__WorseBecause
 6778:0000       $ED__WorseBecause
 6779:0000       PrnPort__DrawEpson
 6779:0000       $BD__DrawEpson
 6779:0002       xh__DrawEpson
 6779:0004       Bufor__DrawEpson
 6779:0784       LastPosition__DrawEpson
 6779:0786       Masks__DrawEpson
 6779:078E       Adr1__DrawEpson
 6779:0792       Adr2__DrawEpson
 6779:0796       PrevPage__DrawEpson
 6779:0798       CurMode__DrawEpson
 6779:0799       FontAdrN__DrawEpson
 6779:079D       FontAdrA__DrawEpson
 6779:07A1       FontHeight__DrawEpson
 6779:07A3       Rotation__DrawEpson
 6779:07A4       MnX__DrawEpson
 6779:07A6       MnY__DrawEpson
 6779:07A8       JuzNarysowane__DrawEpson
 6779:07A9       $ED__DrawEpson
 67F4:0000       PrnX__Print
 67F4:0000       $BD__Print
 67F4:0002       PrnY__Print
 67F4:0004       PolozenieNapisu__Print
 67F4:0006       TextModeOutProc__Print
 67F4:000A       PrevIdx__Print
 67F4:000C       Flagi__Print
 67F4:000E       flgEOF__Print
 67F4:000F       scaleDiv__Print
 67F4:0011       CoKtoraProbka__Print
 67F4:0013       ZestawProbekBinDoWyboru__Print
 67F4:00D5       Tmpl__Print
 67F4:0112       $ED__Print
 6806:0000       $BD__VORR_Average
 6806:0000       $ED__VORR_Average
 6807:0000       $BD__PrintCntroll
 6807:0000       hDlg__PrintCntroll
 6807:0004       Zestaw__PrintCntroll
 6807:0006       Odniesienie__PrintCntroll
 6807:0007       OdnB__PrintCntroll
 6807:000B       CoKtoraProbka__PrintCntroll
 6807:000D       IleStron__PrintCntroll
 6807:000F       IloscProbek__PrintCntroll
 6807:0011       lPodz__PrintCntroll
 6807:0015       $ED__PrintCntroll
 680C:0000       DriverInstalled__Mouse

Program entry point at 4676:03C9
