
 Start  Stop   Length Name                   Class
 00010H 00740H 00731H PTT_TEXT               CODE
 00750H 0255CH 01E0DH MANAGER_TEXT           CODE
 02560H 0258DH 0002EH PI_PA_TEXT             CODE
 02590H 0270AH 0017BH DOSENTRY_TEXT          CODE
 02710H 02855H 00146H ERRORMESS_TEXT         CODE
 02860H 034A9H 00C4AH TUNE_TEXT              CODE
 034B0H 03F7BH 00ACCH PI_QCHECK_TEXT         CODE
 03F80H 05953H 019D4H SCANNERI_TEXT          CODE
 05960H 05A7FH 00120H COMMONTYPES_TEXT       CODE
 05A90H 06B25H 01096H THEODOLITREAD_TEXT     CODE
 06B30H 071E3H 006B4H GPSREAD_TEXT           CODE
 071F0H 07F63H 00D74H DGHINI_TEXT            CODE
 07F70H 09043H 010D4H V_FILES_TEXT           CODE
 09050H 09A0FH 009C0H VORO_AVRAGE_TEXT       CODE
 09A20H 09A95H 00076H D_COMMONTYPES_TEXT     CODE
 09AA0H 09AC8H 00029H V_COMMONTYPES_TEXT     CODE
 09AD0H 0B4C8H 019F9H SPECCONV_TEXT          CODE
 0B4D0H 0BBAAH 006DBH FLAGANAL_TEXT          CODE
 0BBB0H 0BF19H 0036AH CZAS_TEXT              CODE
 0BF20H 0C4CAH 005ABH V_RESULTS_TEXT         CODE
 0C4D0H 0D2D8H 00E09H D_FILES_TEXT           CODE
 0D2E0H 0D4D4H 001F5H MMA_COUT_TEXT          CODE
 0D4E0H 0D940H 00461H D_RESULTS_TEXT         CODE
 0D950H 0DA26H 000D7H PI_GLOWNY_TEXT         CODE
 0DA30H 0ECA5H 01276H T_OBLOT_TEXT           CODE
 0ECB0H 10173H 014C4H T_INSPEKCJA_TEXT       CODE
 10180H 1024CH 000CDH COMMONDATA_TEXT        CODE
 10250H 12E1BH 02BCCH FILES_TEXT             CODE
 12E20H 139C9H 00BAAH V_CP_CONTROLPROC_TEXT  CODE
 139D0H 14F7FH 015B0H POMIAR_TEXT            CODE
 14F90H 18736H 037A7H SCREEN_TEXT            CODE
 18740H 18EF0H 007B1H PI_ANALIZA_TEXT        CODE
 18F00H 19554H 00655H PI_POMIAR_TEXT         CODE
 19560H 1968BH 0012CH PI_ARCHDATE_TEXT       CODE
 19690H 196E3H 00054H PI_DRUKUJ_TEXT         CODE
 196F0H 19CA8H 005B9H STORAGE_TEXT           CODE
 19CB0H 1A2A6H 005F7H SOFTINTHANDLINGMANAGER_TEXT CODE
 1A2B0H 1AF6DH 00CBEH TIMER_TEXT             CODE
 1AF70H 1B418H 004A9H MESSAGES_TEXT          CODE
 1B420H 1C8F9H 014DAH STDIO_TEXT             CODE
 1C900H 1D979H 0107AH DGHINTERFACE_TEXT      CODE
 1D980H 1F063H 016E4H HILEVGRAF_TEXT         CODE
 1F070H 1F256H 001E7H GRAFTYPES_TEXT         CODE
 1F260H 1F93BH 006DCH MSGBOX_TEXT            CODE
 1F940H 1FB60H 00221H GRAFUTIL_TEXT          CODE
 1FB70H 207D1H 00C62H V_ODB_TEXT             CODE
 207E0H 214B7H 00CD8H NAVGPIB_TEXT           CODE
 214C0H 217CFH 00310H ALTINTERFACE_TEXT      CODE
 217E0H 218CEH 000EFH INT_DME_TEXT           CODE
 218D0H 22056H 00787H FILTR1ST_TEXT          CODE
 22060H 22E35H 00DD6H GEOARITHMETIC_TEXT     CODE
 22E40H 236E4H 008A5H DGH_UTILS_TEXT         CODE
 236F0H 26505H 02E16H KALIBRACJA_TEXT        CODE
 26510H 2682CH 0031DH DIGIRS_TEXT            CODE
 26830H 2734FH 00B20H REALCONVERSIONS_TEXT   CODE
 27360H 27548H 001E9H MATH_TEXT              CODE
 27550H 2874DH 011FEH GPS_NOV_TEXT           CODE
 28750H 29048H 008F9H GPS_TRIMBLE_TEXT       CODE
 29050H 2A228H 011D9H INI_TEXT               CODE
 2A230H 2AC75H 00A46H FIO_TEXT               CODE
 2AC80H 2AD50H 000D1H WORSEBECAUSE_TEXT      CODE
 2AD60H 2BE81H 01122H GRAPHICS_TEXT          CODE
 2BE90H 2BFB9H 0012AH XMS_TEXT               CODE
 2BFC0H 2BFFEH 0003FH XMS_INIT_TEXT          CODE
 2C000H 2C4BEH 004BFH XMSSERVICE_TEXT        CODE
 2C4C0H 2D9C2H 01503H MMMOUSE_TEXT           CODE
 2D9D0H 2E16BH 0079CH SHORTCUTS_TEXT         CODE
 2E170H 2E3DDH 0026EH HRD_CLOCK_TEXT         CODE
 2E3E0H 2EEF8H 00B19H D_ODB_TEXT             CODE
 2EF00H 2FC16H 00D17H INPLINE_TEXT           CODE
 2FC20H 309F7H 00DD8H BUTTONS_TEXT           CODE
 30A00H 31550H 00B51H MAPA_TEXT              CODE
 31560H 32EBBH 0195CH DIALOG_TEXT            CODE
 32EC0H 3483CH 0197DH GLIST_TEXT             CODE
 34840H 364B5H 01C76H OBLOTY_TEXT            CODE
 364C0H 37058H 00B99H V_DATABASE_TEXT        CODE
 37060H 3718EH 0012FH SWITCHCNTRL_TEXT       CODE
 37190H 37201H 00072H FCBS_TEXT              CODE
 37210H 37F9CH 00D8DH COCPDSP_TEXT           CODE
 37FA0H 3A20EH 0226FH DATACOLLECT_TEXT       CODE
 3A210H 3C972H 02763H WYKRES_TEXT            CODE
 3C980H 3CCDAH 0035BH XMSTABLE_TEXT          CODE
 3CCE0H 3D72AH 00A4BH EVENTSMNG_TEXT         CODE
 3D730H 3E05FH 00930H PI_SCRUTILITY_TEXT     CODE
 3E070H 3E756H 006E7H SLUPEK_TEXT            CODE
 3E760H 3E8FEH 0019FH SCREENCTYPES_TEXT      CODE
 3E900H 3F87AH 00F7BH V_DISRESULTS_TEXT      CODE
 3F880H 3FC09H 0038AH DISRESUTILITIES_TEXT   CODE
 3FC10H 401A2H 00593H D_DISRESULTS_TEXT      CODE
 401B0H 413E3H 01234H PISZEVENTY_TEXT        CODE
 413F0H 43AA2H 026B3H V_COUNT_TEXT           CODE
 43AB0H 441E2H 00733H D_COUNT_TEXT           CODE
 441F0H 44839H 0064AH D_DACQUIZITION_TEXT    CODE
 44840H 45063H 00824H V_DACQUIZITION_TEXT    CODE
 45070H 4652EH 014BFH DMEPRINT_TEXT          CODE
 46530H 4823EH 01D0FH VORPRINT_TEXT          CODE
 48240H 48693H 00454H SEMAFORY_TEXT          CODE
 486A0H 48AB0H 00411H RANDOM_TEXT            CODE
 48AC0H 48CA1H 001E2H M_PGPIB_TEXT           CODE
 48CB0H 49001H 00352H NAVINTERFACE_TEXT      CODE
 49010H 4997FH 00970H ARINC_TEXT             CODE
 49990H 49E8FH 00500H KL_FGENERATORS_TEXT    CODE
 49EA0H 4B0C5H 01226H POLOZENIE_TEXT         CODE
 4B0D0H 4BA07H 00938H MARKS_TEXT             CODE
 4BA10H 4C158H 00749H V_SLUPEK_TEXT          CODE
 4C160H 4C8EBH 0078CH D_SLUPEK_TEXT          CODE
 4C8F0H 4DD52H 01463H DRAWEPSON_TEXT         CODE
 4DD60H 4F7E0H 01A81H PRINT_TEXT             CODE
 4F7F0H 502BEH 00ACFH VORR_AVERAGE_TEXT      CODE
 502C0H 50BA0H 008E1H PRINTCNTROLL_TEXT      CODE
 50BB0H 50C0DH 0005EH RTS87_TEXT             CODE
 50C10H 50C69H 0005AH RTS87_INIT_TEXT        CODE
 50C70H 50D36H 000C7H RTSError_TEXT          CODE
 50D40H 50D6EH 0002FH RTSError_INIT_TEXT     CODE
 50D70H 514E0H 00771H RTSMain_TEXT           CODE
 514F0H 515A2H 000B3H RTSLanguage_TEXT       CODE
 515B0H 515B0H 00001H RTSLanguage_INIT_TEXT  CODE
 515C0H 51700H 00141H RTSDevice_TEXT         CODE
 51710H 51710H 00001H RTSDevice_INIT_TEXT    CODE
 51720H 517CEH 000AFH RTSPriority_TEXT       CODE
 517D0H 517D0H 00001H RTSPriority_INIT_TEXT  CODE
 517E0H 51987H 001A8H RTSCoroutine_TEXT      CODE
 51990H 51990H 00001H RTSCoroutine_INIT_TEXT CODE
 519A0H 51BE8H 00249H RTSInterrupt_TEXT      CODE
 51BF0H 51C3CH 0004DH RTSInterrupt_INIT_TEXT CODE
 51C40H 51C49H 0000AH RTSRealError_TEXT      CODE
 51C50H 51C50H 00001H RTSRealError_INIT_TEXT CODE
 51C60H 51F63H 00304H Strings_TEXT           CODE
 51F70H 525ABH 0063CH NUMBERCONVERSION_TEXT  CODE
 525B0H 52611H 00062H SOUNDS_TEXT            CODE
 52620H 52AACH 0048DH DebugPMD_TEXT          CODE
 52AB0H 52B48H 00099H DebugPMD_INIT_TEXT     CODE
 52B50H 52C0AH 000BBH DEVICES_TEXT           CODE
 52C10H 52E13H 00204H DynMem_TEXT            CODE
 52E20H 52F27H 00108H BlockOps_TEXT          CODE
 52F30H 531E1H 002B2H MOUSE_TEXT             CODE
 531F0H 534CEH 002DFH Longs_TEXT             CODE
 534D0H 53696H 001C7H TERMINAL_TEXT          CODE
 536A0H 53A85H 003E6H TERMBASE_TEXT          CODE
 53A90H 53B98H 00109H BitByteOps_TEXT        CODE
 53BA0H 53BC4H 00025H ASCII_TEXT             CODE
 53BD0H 53C6CH 0009DH DISPLAY_TEXT           CODE
 53C70H 53DD7H 00168H KEYBOARD_TEXT          CODE
 53DE0H 54098H 002B9H DOSMEMORY_TEXT         CODE
 540A0H 54763H 006C4H MathLib0_TEXT          CODE
 54770H 54B15H 003A6H MODULE_TABLE_DATA      FAR_DATA
 54B20H 54C16H 000F7H INIT_FLAG_DATA         FAR_DATA
 54C20H 54DFDH 001DEH RTSMain_DATA           FAR_DATA
 54E00H 54E05H 00006H RTS87_DATA             FAR_DATA
 54E10H 54E13H 00004H RTSCoroutine_DATA      FAR_DATA
 54E20H 554C1H 006A2H DebugPMD_DATA          FAR_DATA
 554D0H 554D0H 00000H MathLib0_DATA          FAR_DATA
 554E0H 554F0H 00011H PTT_DATA               FAR_BSS
 55500H 5571DH 0021EH MANAGER_DATA           FAR_BSS
 55720H 55720H 00001H PI_PA_DATA             FAR_BSS
 55730H 557B7H 00088H DOSENTRY_DATA          FAR_BSS
 557C0H 557C0H 00000H ERRORMESS_DATA         FAR_BSS
 557D0H 55875H 000A6H TUNE_DATA              FAR_BSS
 55880H 558E3H 00064H PI_QCHECK_DATA         FAR_BSS
 558F0H 5599EH 000AFH SCANNERI_DATA          FAR_BSS
 559A0H 559A0H 00000H COMMONTYPES_DATA       FAR_BSS
 559B0H 55A06H 00057H THEODOLITREAD_DATA     FAR_BSS
 55A10H 55A31H 00022H GPSREAD_DATA           FAR_BSS
 55A40H 569CDH 00F8EH DGHINI_DATA            FAR_BSS
 569D0H 56AD3H 00104H V_FILES_DATA           FAR_BSS
 56AE0H 56AE0H 00000H VORO_AVRAGE_DATA       FAR_BSS
 56AF0H 56AF0H 00000H D_COMMONTYPES_DATA     FAR_BSS
 56B00H 56B00H 00001H V_COMMONTYPES_DATA     FAR_BSS
 56B10H 56B10H 00000H SPECCONV_DATA          FAR_BSS
 56B20H 56B20H 00000H FLAGANAL_DATA          FAR_BSS
 56B30H 56B43H 00014H CZAS_DATA              FAR_BSS
 56B50H 57100H 005B1H V_RESULTS_DATA         FAR_BSS
 57110H 571B3H 000A4H D_FILES_DATA           FAR_BSS
 571C0H 571C0H 00000H MMA_COUT_DATA          FAR_BSS
 571D0H 59081H 01EB2H D_RESULTS_DATA         FAR_BSS
 59090H 59090H 00000H PI_GLOWNY_DATA         FAR_BSS
 590A0H 590C5H 00026H T_OBLOT_DATA           FAR_BSS
 590D0H 590E6H 00017H T_INSPEKCJA_DATA       FAR_BSS
 590F0H 59245H 00156H COMMONDATA_DATA        FAR_BSS
 59250H 59468H 00219H FILES_DATA             FAR_BSS
 59470H 59605H 00196H V_CP_CONTROLPROC_DATA  FAR_BSS
 59610H 596A4H 00095H POMIAR_DATA            FAR_BSS
 596B0H 597DCH 0012DH SCREEN_DATA            FAR_BSS
 597E0H 59800H 00021H PI_ANALIZA_DATA        FAR_BSS
 59810H 59810H 00000H PI_POMIAR_DATA         FAR_BSS
 59820H 59820H 00000H PI_ARCHDATE_DATA       FAR_BSS
 59830H 59830H 00000H PI_DRUKUJ_DATA         FAR_BSS
 59840H 59866H 00027H STORAGE_DATA           FAR_BSS
 59870H 59874H 00005H SOFTINTHANDLINGMANAGER_DATA FAR_BSS
 59880H 59893H 00014H TIMER_DATA             FAR_BSS
 598A0H 598ADH 0000EH MESSAGES_DATA          FAR_BSS
 598B0H 598B0H 00000H STDIO_DATA             FAR_BSS
 598C0H 598D7H 00018H DGHINTERFACE_DATA      FAR_BSS
 598E0H 5993CH 0005DH HILEVGRAF_DATA         FAR_BSS
 59940H 59940H 00000H GRAFTYPES_DATA         FAR_BSS
 59950H 59965H 00016H MSGBOX_DATA            FAR_BSS
 59970H 599DFH 00070H GRAFUTIL_DATA          FAR_BSS
 599F0H 59A3AH 0004BH V_ODB_DATA             FAR_BSS
 59A40H 59DDFH 003A0H NAVGPIB_DATA           FAR_BSS
 59DF0H 59E37H 00048H ALTINTERFACE_DATA      FAR_BSS
 59E40H 59E40H 00000H INT_DME_DATA           FAR_BSS
 59E50H 59E57H 00008H FILTR1ST_DATA          FAR_BSS
 59E60H 59E81H 00022H GEOARITHMETIC_DATA     FAR_BSS
 59E90H 59EC5H 00036H DGH_UTILS_DATA         FAR_BSS
 59ED0H 5B2D0H 01401H KALIBRACJA_DATA        FAR_BSS
 5B2E0H 5B2E1H 00002H DIGIRS_DATA            FAR_BSS
 5B2F0H 5B2F0H 00000H REALCONVERSIONS_DATA   FAR_BSS
 5B300H 5B300H 00000H MATH_DATA              FAR_BSS
 5B310H 5B393H 00084H GPS_NOV_DATA           FAR_BSS
 5B3A0H 5B411H 00072H GPS_TRIMBLE_DATA       FAR_BSS
 5B420H 60503H 050E4H INI_DATA               FAR_BSS
 60510H 61121H 00C12H FIO_DATA               FAR_BSS
 61130H 61130H 00000H WORSEBECAUSE_DATA      FAR_BSS
 61140H 6126FH 00130H GRAPHICS_DATA          FAR_BSS
 61280H 61283H 00004H XMS_DATA               FAR_BSS
 61290H 61293H 00004H XMSSERVICE_DATA        FAR_BSS
 612A0H 616A0H 00401H MMMOUSE_DATA           FAR_BSS
 616B0H 616BDH 0000EH SHORTCUTS_DATA         FAR_BSS
 616C0H 616C0H 00000H HRD_CLOCK_DATA         FAR_BSS
 616D0H 6170AH 0003BH D_ODB_DATA             FAR_BSS
 61710H 61713H 00004H INPLINE_DATA           FAR_BSS
 61720H 61728H 00009H BUTTONS_DATA           FAR_BSS
 61730H 61793H 00064H MAPA_DATA              FAR_BSS
 617A0H 617A7H 00008H DIALOG_DATA            FAR_BSS
 617B0H 617B7H 00008H GLIST_DATA             FAR_BSS
 617C0H 61A1EH 0025FH OBLOTY_DATA            FAR_BSS
 61A20H 61BFCH 001DDH V_DATABASE_DATA        FAR_BSS
 61C00H 61C0DH 0000EH SWITCHCNTRL_DATA       FAR_BSS
 61C10H 61C4CH 0003DH FCBS_DATA              FAR_BSS
 61C50H 61C77H 00028H COCPDSP_DATA           FAR_BSS
 61C80H 6FE2DH 0E1AEH DATACOLLECT_DATA       FAR_BSS
 6FE30H 6FE30H 00000H WYKRES_DATA            FAR_BSS
 6FE40H 6FE40H 00000H XMSTABLE_DATA          FAR_BSS
 6FE50H 7099FH 00B50H EVENTSMNG_DATA         FAR_BSS
 709B0H 709BCH 0000DH PI_SCRUTILITY_DATA     FAR_BSS
 709C0H 709C0H 00000H SLUPEK_DATA            FAR_BSS
 709D0H 70A23H 00054H SCREENCTYPES_DATA      FAR_BSS
 70A30H 70A3BH 0000CH V_DISRESULTS_DATA      FAR_BSS
 70A40H 70A40H 00000H DISRESUTILITIES_DATA   FAR_BSS
 70A50H 70A50H 00000H D_DISRESULTS_DATA      FAR_BSS
 70A60H 70A65H 00006H PISZEVENTY_DATA        FAR_BSS
 70A70H 7430FH 038A0H V_COUNT_DATA           FAR_BSS
 74320H 74320H 00000H D_COUNT_DATA           FAR_BSS
 74330H 74343H 00014H D_DACQUIZITION_DATA    FAR_BSS
 74350H 74368H 00019H V_DACQUIZITION_DATA    FAR_BSS
 74370H 74370H 00000H DMEPRINT_DATA          FAR_BSS
 74380H 7440FH 00090H VORPRINT_DATA          FAR_BSS
 74420H 74473H 00054H SEMAFORY_DATA          FAR_BSS
 74480H 744F1H 00072H RANDOM_DATA            FAR_BSS
 74500H 74500H 00000H M_PGPIB_DATA           FAR_BSS
 74510H 74516H 00007H NAVINTERFACE_DATA      FAR_BSS
 74520H 74523H 00004H ARINC_DATA             FAR_BSS
 74530H 74530H 00000H KL_FGENERATORS_DATA    FAR_BSS
 74540H 74774H 00235H POLOZENIE_DATA         FAR_BSS
 74780H 74780H 00000H MARKS_DATA             FAR_BSS
 74790H 747AFH 00020H V_SLUPEK_DATA          FAR_BSS
 747C0H 747DFH 00020H D_SLUPEK_DATA          FAR_BSS
 747F0H 74F98H 007A9H DRAWEPSON_DATA         FAR_BSS
 74FA0H 750B1H 00112H PRINT_DATA             FAR_BSS
 750C0H 750C0H 00000H VORR_AVERAGE_DATA      FAR_BSS
 750D0H 750E4H 00015H PRINTCNTROLL_DATA      FAR_BSS
 750F0H 750F0H 00000H NUMBERCONVERSION_DATA  FAR_BSS
 75100H 75100H 00000H SOUNDS_DATA            FAR_BSS
 75110H 75110H 00000H DEVICES_DATA           FAR_BSS
 75120H 7512EH 0000FH MOUSE_DATA             FAR_BSS
 75130H 75131H 00002H TERMINAL_DATA          FAR_BSS
 75140H 751D2H 00093H TERMBASE_DATA          FAR_BSS
 751E0H 751E0H 00000H ASCII_DATA             FAR_BSS
 751F0H 751F0H 00000H DISPLAY_DATA           FAR_BSS
 75200H 75287H 00088H KEYBOARD_DATA          FAR_BSS
 75290H 75290H 00000H DOSMEMORY_DATA         FAR_BSS
 752A0H 78D37H 03A98H STACK                  STACK
 78D40H 78D40H 00000H FREE                   FREE_BSS

 Origin   Group
 554E:0   DGROUP

  Address         Publics by Name

 7452:0000       $BD__ARINC
 59DF:0000       $BD__AltInterface
 6172:0000       $BD__Buttons
 61C5:0000       $BD__CocpDsp
 590F:0000       $BD__CommonData
 559A:0000       $BD__CommonTypes
 56B3:0000       $BD__Czas
 55A4:0000       $BD__DGHIni
 598C:0000       $BD__DGHInterface
 59E9:0000       $BD__DGH_utils
 7437:0000       $BD__DMEPrint
 5573:0000       $BD__DOSEntry
 56AF:0000       $BD__D_CommonTypes
 7432:0000       $BD__D_Count
 7433:0000       $BD__D_DAcquizition
 70A5:0000       $BD__D_DisResults
 5711:0000       $BD__D_Files
 616D:0000       $BD__D_Odb
 747C:0000       $BD__D_Slupek
 571D:0000       $BD__D_results
 61C8:0000       $BD__DataCollect
 617A:0000       $BD__Dialog
 5B2E:0000       $BD__DigiRS
 70A4:0000       $BD__DisResUtilities
 747F:0000       $BD__DrawEpson
 557C:0000       $BD__ErrorMess
 6FE5:0000       $BD__EventsMng
 61C1:0000       $BD__FCBS
 6051:0000       $BD__FIO
 59E5:0000       $BD__FIltr1St
 5925:0000       $BD__Files
 56B2:0000       $BD__FlagAnal
 617B:0000       $BD__GList
 55A1:0000       $BD__GPSRead
 5B3A:0000       $BD__GPS_TRIMBLE
 5B31:0000       $BD__GPS_nov
 59E6:0000       $BD__GeoArithmetic
 5994:0000       $BD__GrafTypes
 5997:0000       $BD__GrafUtil
 6114:0000       $BD__Graphics
 616C:0000       $BD__HRD_Clock
 598E:0000       $BD__HiLevGraf
 5B42:0000       $BD__Ini
 6171:0000       $BD__InpLine
 59E4:0000       $BD__Int_DME
 59ED:0000       $BD__Kalibracja
 7453:0000       $BD__Kl_FGenerators
 5550:0000       $BD__MANAGER
 571C:0000       $BD__MMA_Cout
 612A:0000       $BD__MMMouse
 7450:0000       $BD__M_PGPIB
 6173:0000       $BD__Mapa
 7478:0000       $BD__Marks
 5B30:0000       $BD__Math
 598A:0000       $BD__Messages
 5995:0000       $BD__MsgBox
 59A4:0000       $BD__NAVGPIB
 7451:0000       $BD__NAVInterface
 617C:0000       $BD__Obloty
 597E:0000       $BD__PI_Analiza
 5982:0000       $BD__PI_ArchDate
 5983:0000       $BD__PI_Drukuj
 5909:0000       $BD__PI_Glowny
 5572:0000       $BD__PI_PA
 5981:0000       $BD__PI_Pomiar
 5588:0000       $BD__PI_Qcheck
 709B:0000       $BD__PI_ScrUtility
 554E:0000       $BD__PTT
 70A6:0000       $BD__PiszEventy
 7454:0000       $BD__Polozenie
 5961:0000       $BD__Pomiar
 74FA:0000       $BD__Print
 750D:0000       $BD__PrintCntroll
 54E1:0000       $BD__RTSCoroutine
 54C2:0000       $BD__RTSMain
 7448:0000       $BD__Random
 5B2F:0000       $BD__RealConversions
 558F:0000       $BD__ScannerI
 596B:0000       $BD__Screen
 709D:0000       $BD__ScreenCTypes
 7442:0000       $BD__Semafory
 616B:0000       $BD__ShortCuts
 709C:0000       $BD__Slupek
 5987:0000       $BD__SoftIntHandlingManager
 56B1:0000       $BD__SpecConv
 598B:0000       $BD__StdIO
 5984:0000       $BD__Storage
 61C0:0000       $BD__SwitchCntrl
 590D:0000       $BD__T_Inspekcja
 590A:0000       $BD__T_Oblot
 559B:0000       $BD__TheodolitRead
 5988:0000       $BD__Timer
 557D:0000       $BD__Tune
 56AE:0000       $BD__VORO_avrage
 7438:0000       $BD__VORPrint
 750C:0000       $BD__VORR_Average
 5947:0000       $BD__V_CP_ControlProc
 56B0:0000       $BD__V_CommonTypes
 70A7:0000       $BD__V_Count
 7435:0000       $BD__V_DAcquizition
 61A2:0000       $BD__V_Database
 70A3:0000       $BD__V_DisResults
 569D:0000       $BD__V_Files
 599F:0000       $BD__V_Odb
 7479:0000       $BD__V_Slupek
 56B5:0000       $BD__V_results
 6113:0000       $BD__WorseBecause
 6FE3:0000       $BD__Wykres
 6128:0000       $BD__XMS
 6129:0000       $BD__XMSService
 6FE4:0000       $BD__XMSTable
 4901:0000       $BM__ARINC
 214C:0000       $BM__AltInterface
 53A9:0000       $BM__BitByteOps
 52E2:0000       $BM__BlockOps
 2FC2:0000       $BM__Buttons
 3721:0000       $BM__CocpDsp
 1018:0000       $BM__CommonData
 0596:0000       $BM__CommonTypes
 0BBB:0000       $BM__Czas
 071F:0000       $BM__DGHIni
 1C90:0000       $BM__DGHInterface
 22E4:0000       $BM__DGH_utils
 4507:0000       $BM__DMEPrint
 0259:0000       $BM__DOSEntry
 09A2:0000       $BM__D_CommonTypes
 43AB:0000       $BM__D_Count
 441F:0000       $BM__D_DAcquizition
 3FC1:0000       $BM__D_DisResults
 0C4D:0000       $BM__D_Files
 2E3E:0000       $BM__D_Odb
 4C16:0000       $BM__D_Slupek
 0D4E:0000       $BM__D_results
 37FA:0000       $BM__DataCollect
 3156:0000       $BM__Dialog
 2651:0000       $BM__DigiRS
 3F88:0000       $BM__DisResUtilities
 4C8F:0000       $BM__DrawEpson
 52C1:0000       $BM__DynMem
 0271:0000       $BM__ErrorMess
 3CCE:0000       $BM__EventsMng
 3719:0000       $BM__FCBS
 2A23:0000       $BM__FIO
 218D:0000       $BM__FIltr1St
 1025:0000       $BM__Files
 0B4D:0000       $BM__FlagAnal
 32EC:0000       $BM__GList
 06B3:0000       $BM__GPSRead
 2875:0000       $BM__GPS_TRIMBLE
 2755:0000       $BM__GPS_nov
 2206:0000       $BM__GeoArithmetic
 1F07:0000       $BM__GrafTypes
 1F94:0000       $BM__GrafUtil
 2AD6:0000       $BM__Graphics
 2E17:0000       $BM__HRD_Clock
 1D98:0000       $BM__HiLevGraf
 2905:0000       $BM__Ini
 2EF0:0000       $BM__InpLine
 217E:0000       $BM__Int_DME
 236F:0000       $BM__Kalibracja
 4999:0000       $BM__Kl_FGenerators
 0075:0000       $BM__MANAGER
 0D2E:0000       $BM__MMA_Cout
 2C4C:0000       $BM__MMMouse
 48AC:0000       $BM__M_PGPIB
 30A0:0000       $BM__Mapa
 4B0D:0000       $BM__Marks
 2736:0000       $BM__Math
 540A:0000       $BM__MathLib0
 1AF7:0000       $BM__Messages
 1F26:0000       $BM__MsgBox
 207E:0000       $BM__NAVGPIB
 48CB:0000       $BM__NAVInterface
 3484:0000       $BM__Obloty
 1874:0000       $BM__PI_Analiza
 1956:0000       $BM__PI_ArchDate
 1969:0000       $BM__PI_Drukuj
 0D95:0000       $BM__PI_Glowny
 0256:0000       $BM__PI_PA
 18F0:0000       $BM__PI_Pomiar
 034B:0000       $BM__PI_Qcheck
 3D73:0000       $BM__PI_ScrUtility
 0001:0000       $BM__PTT
 401B:0000       $BM__PiszEventy
 49EA:0000       $BM__Polozenie
 139D:0000       $BM__Pomiar
 4DD6:0000       $BM__Print
 502C:0000       $BM__PrintCntroll
 517E:0000       $BM__RTSCoroutine
 515C:0000       $BM__RTSDevice
 50D7:0000       $BM__RTSMain
 486A:0000       $BM__Random
 2683:0000       $BM__RealConversions
 03F8:0000       $BM__ScannerI
 14F9:0000       $BM__Screen
 3E76:0000       $BM__ScreenCTypes
 4824:0000       $BM__Semafory
 2D9D:0000       $BM__ShortCuts
 3E07:0000       $BM__Slupek
 19CB:0000       $BM__SoftIntHandlingManager
 09AD:0000       $BM__SpecConv
 1B42:0000       $BM__StdIO
 196F:0000       $BM__Storage
 3706:0000       $BM__SwitchCntrl
 0ECB:0000       $BM__T_Inspekcja
 0DA3:0000       $BM__T_Oblot
 05A9:0000       $BM__TheodolitRead
 1A2B:0000       $BM__Timer
 0286:0000       $BM__Tune
 0905:0000       $BM__VORO_avrage
 4653:0000       $BM__VORPrint
 4F7F:0000       $BM__VORR_Average
 12E2:0000       $BM__V_CP_ControlProc
 09AA:0000       $BM__V_CommonTypes
 413F:0000       $BM__V_Count
 4484:0000       $BM__V_DAcquizition
 364C:0000       $BM__V_Database
 3E90:0000       $BM__V_DisResults
 07F7:0000       $BM__V_Files
 1FB7:0000       $BM__V_Odb
 4BA1:0000       $BM__V_Slupek
 0BF2:0000       $BM__V_results
 2AC8:0000       $BM__WorseBecause
 3A21:0000       $BM__Wykres
 2BE9:0000       $BM__XMS
 2C00:0000       $BM__XMSService
 3C98:0000       $BM__XMSTable
 4901:093D       $BODY__ARINC
 214C:0214       $BODY__AltInterface
 2C4C:0B15       $BODY__BezPrzerwanOdMyszy__MMMo
 2FC2:0D61       $BODY__Buttons
 3721:0C4D       $BODY__CocpDsp
 1018:0012       $BODY__CommonData
 0596:00F4       $BODY__CommonTypes
 0BBB:02E0       $BODY__Czas
 071F:0D08       $BODY__DGHIni
 1C90:0F7B       $BODY__DGHInterface
 22E4:0734       $BODY__DGH_utils
 4507:1425       $BODY__DMEPrint
 0259:00C2       $BODY__DOSEntry
 09A2:004A       $BODY__D_CommonTypes
 43AB:06CB       $BODY__D_Count
 441F:0598       $BODY__D_DAcquizition
 3FC1:053A       $BODY__D_DisResults
 0C4D:0D80       $BODY__D_Files
 2E3E:0A98       $BODY__D_Odb
 4C16:071D       $BODY__D_Slupek
 0D4E:038B       $BODY__D_results
 37FA:21DF       $BODY__DataCollect
 3156:18C2       $BODY__Dialog
 2651:02D4       $BODY__DigiRS
 3F88:0340       $BODY__DisResUtilities
 4C8F:138C       $BODY__DrawEpson
 236F:09DC       $BODY__ErrorHand__Kalibracja
 0271:00E1       $BODY__ErrorMess
 3CCE:09B8       $BODY__EventsMng
 3719:0037       $BODY__FCBS
 2A23:09F0       $BODY__FIO
 218D:0737       $BODY__FIltr1St
 1025:2B3D       $BODY__Files
 0B4D:06A0       $BODY__FlagAnal
 32EC:18FD       $BODY__GList
 06B3:05FA       $BODY__GPSRead
 2875:084A       $BODY__GPS_TRIMBLE
 2755:10EC       $BODY__GPS_nov
 2206:0D90       $BODY__GeoArithmetic
 1F07:01C5       $BODY__GrafTypes
 1F94:017A       $BODY__GrafUtil
 2AD6:10C2       $BODY__Graphics
 2E17:0242       $BODY__HRD_Clock
 1D98:1630       $BODY__HiLevGraf
 2905:1139       $BODY__Ini
 2EF0:0C9E       $BODY__InpLine
 217E:00C8       $BODY__Int_DME
 236F:2C81       $BODY__Kalibracja
 4999:04D9       $BODY__Kl_FGenerators
 0075:1B1A       $BODY__MANAGER
 0D2E:01BF       $BODY__MMA_Cout
 2C4C:134F       $BODY__MMMouse
 2FC2:041B       $BODY__MONITOR__Buttons
 48AC:01BB       $BODY__M_PGPIB
 30A0:0A4F       $BODY__Mapa
 4B0D:08FD       $BODY__Marks
 2736:01BD       $BODY__Math
 1AF7:0411       $BODY__Messages
 441F:011B       $BODY__Monitor__D_DAcquizition
 19CB:0590       $BODY__Monitor__SoftIntHandling
 1A2B:08D4       $BODY__Monitor__Timer
 4484:01BA       $BODY__Monitor__V_DAcquizition
 1874:04A9       $BODY__MouseMonitor__PI_Analiza
 1F26:0680       $BODY__MsgBox
 207E:0A79       $BODY__NAVGPIB
 48CB:02F2       $BODY__NAVInterface
 3484:1B9E       $BODY__Obloty
 1874:072D       $BODY__PI_Analiza
 1956:00C4       $BODY__PI_ArchDate
 1969:0028       $BODY__PI_Drukuj
 0D95:0092       $BODY__PI_Glowny
 0256:0002       $BODY__PI_PA
 18F0:05C5       $BODY__PI_Pomiar
 034B:0A66       $BODY__PI_Qcheck
 3D73:08E1       $BODY__PI_ScrUtility
 0001:001F       $BODY__PTT
 401B:1199       $BODY__PiszEventy
 49EA:1164       $BODY__Polozenie
 139D:14E0       $BODY__Pomiar
 4DD6:19A5       $BODY__Print
 502C:085B       $BODY__PrintCntroll
 50D7:0743       $BODY__RTSMain
 486A:03DC       $BODY__Random
 2683:0AF9       $BODY__RealConversions
 03F8:1886       $BODY__ScannerI
 0075:1357       $BODY__Scheduler__MANAGER
 14F9:36D9       $BODY__Screen
 3E76:016B       $BODY__ScreenCTypes
 4824:041D       $BODY__Semafory
 2D9D:070A       $BODY__ShortCuts
 3E07:06A7       $BODY__Slupek
 19CB:05BE       $BODY__SoftIntHandlingManager
 09AD:19B9       $BODY__SpecConv
 1B42:149F       $BODY__StdIO
 196F:0544       $BODY__Storage
 3706:00D4       $BODY__SwitchCntrl
 0ECB:13E8       $BODY__T_Inspekcja
 0DA3:1144       $BODY__T_Oblot
 05A9:0EE0       $BODY__TheodolitRead
 1A2B:0C72       $BODY__Timer
 0286:0A08       $BODY__Tune
 0905:0985       $BODY__VORO_avrage
 4653:1C65       $BODY__VORPrint
 4F7F:0A94       $BODY__VORR_Average
 12E2:0AF3       $BODY__V_CP_ControlProc
 09AA:0002       $BODY__V_CommonTypes
 413F:2637       $BODY__V_Count
 4484:0768       $BODY__V_DAcquizition
 364C:0AF8       $BODY__V_Database
 3E90:0EE2       $BODY__V_DisResults
 07F7:1046       $BODY__V_Files
 1FB7:0BCA       $BODY__V_Odb
 4BA1:06DF       $BODY__V_Slupek
 0BF2:04D3       $BODY__V_results
 2AC8:00A5       $BODY__WorseBecause
 3A21:270A       $BODY__Wykres
 2C00:0450       $BODY__XMSService
 3C98:0325       $BODY__XMSTable
 30A0:09BA       $BODY__monitor__Mapa
 2D9D:0532       $BODY__monitor__ShortCuts
 5477:0000       $DD
 7452:0004       $ED__ARINC
 59DF:0048       $ED__AltInterface
 6172:0009       $ED__Buttons
 61C5:0028       $ED__CocpDsp
 590F:0156       $ED__CommonData
 559A:0000       $ED__CommonTypes
 56B3:0014       $ED__Czas
 55A4:0F8E       $ED__DGHIni
 598C:0018       $ED__DGHInterface
 59E9:0036       $ED__DGH_utils
 7437:0000       $ED__DMEPrint
 5573:0088       $ED__DOSEntry
 56AF:0000       $ED__D_CommonTypes
 7432:0000       $ED__D_Count
 7433:0014       $ED__D_DAcquizition
 70A5:0000       $ED__D_DisResults
 5711:00A4       $ED__D_Files
 616D:003B       $ED__D_Odb
 747C:0020       $ED__D_Slupek
 571D:1EB2       $ED__D_results
 61C8:E1AE       $ED__DataCollect
 617A:0008       $ED__Dialog
 5B2E:0002       $ED__DigiRS
 70A4:0000       $ED__DisResUtilities
 747F:07A9       $ED__DrawEpson
 557C:0000       $ED__ErrorMess
 6FE5:0B50       $ED__EventsMng
 61C1:003D       $ED__FCBS
 6051:0C12       $ED__FIO
 59E5:0008       $ED__FIltr1St
 5925:0219       $ED__Files
 56B2:0000       $ED__FlagAnal
 617B:0008       $ED__GList
 55A1:0022       $ED__GPSRead
 5B3A:0072       $ED__GPS_TRIMBLE
 5B31:0084       $ED__GPS_nov
 59E6:0022       $ED__GeoArithmetic
 5994:0000       $ED__GrafTypes
 5997:0070       $ED__GrafUtil
 6114:0130       $ED__Graphics
 616C:0000       $ED__HRD_Clock
 598E:005D       $ED__HiLevGraf
 5B42:50E4       $ED__Ini
 6171:0004       $ED__InpLine
 59E4:0000       $ED__Int_DME
 59ED:1401       $ED__Kalibracja
 7453:0000       $ED__Kl_FGenerators
 5550:021E       $ED__MANAGER
 571C:0000       $ED__MMA_Cout
 612A:0401       $ED__MMMouse
 7450:0000       $ED__M_PGPIB
 6173:0064       $ED__Mapa
 7478:0000       $ED__Marks
 5B30:0000       $ED__Math
 598A:000E       $ED__Messages
 5995:0016       $ED__MsgBox
 59A4:03A0       $ED__NAVGPIB
 7451:0007       $ED__NAVInterface
 617C:025F       $ED__Obloty
 597E:0021       $ED__PI_Analiza
 5982:0000       $ED__PI_ArchDate
 5983:0000       $ED__PI_Drukuj
 5909:0000       $ED__PI_Glowny
 5572:0001       $ED__PI_PA
 5981:0000       $ED__PI_Pomiar
 5588:0064       $ED__PI_Qcheck
 709B:000D       $ED__PI_ScrUtility
 554E:0011       $ED__PTT
 70A6:0006       $ED__PiszEventy
 7454:0235       $ED__Polozenie
 5961:0095       $ED__Pomiar
 74FA:0112       $ED__Print
 750D:0015       $ED__PrintCntroll
 54E1:0003       $ED__RTSCoroutine
 54C2:01DD       $ED__RTSMain
 7448:0072       $ED__Random
 5B2F:0000       $ED__RealConversions
 558F:00AF       $ED__ScannerI
 596B:012D       $ED__Screen
 709D:0054       $ED__ScreenCTypes
 7442:0054       $ED__Semafory
 616B:000E       $ED__ShortCuts
 709C:0000       $ED__Slupek
 5987:0005       $ED__SoftIntHandlingManager
 56B1:0000       $ED__SpecConv
 598B:0000       $ED__StdIO
 5984:0027       $ED__Storage
 61C0:000E       $ED__SwitchCntrl
 590D:0017       $ED__T_Inspekcja
 590A:0026       $ED__T_Oblot
 559B:0057       $ED__TheodolitRead
 5988:0014       $ED__Timer
 557D:00A6       $ED__Tune
 56AE:0000       $ED__VORO_avrage
 7438:0090       $ED__VORPrint
 750C:0000       $ED__VORR_Average
 5947:0196       $ED__V_CP_ControlProc
 56B0:0001       $ED__V_CommonTypes
 70A7:38A0       $ED__V_Count
 7435:0019       $ED__V_DAcquizition
 61A2:01DD       $ED__V_Database
 70A3:000C       $ED__V_DisResults
 569D:0104       $ED__V_Files
 599F:004B       $ED__V_Odb
 7479:0020       $ED__V_Slupek
 56B5:05B1       $ED__V_results
 6113:0000       $ED__WorseBecause
 6FE3:0000       $ED__Wykres
 6128:0004       $ED__XMS
 6129:0004       $ED__XMSService
 6FE4:0000       $ED__XMSTable
 4901:096F       $EM__ARINC
 53BA:0024       $EM__ASCII
 214C:030F       $EM__AltInterface
 53A9:0109       $EM__BitByteOps
 52E2:0108       $EM__BlockOps
 2FC2:0DD7       $EM__Buttons
 3721:0D8C       $EM__CocpDsp
 1018:00CC       $EM__CommonData
 0596:011F       $EM__CommonTypes
 0BBB:0369       $EM__Czas
 071F:0D73       $EM__DGHIni
 1C90:1079       $EM__DGHInterface
 22E4:08A4       $EM__DGH_utils
 4507:14BE       $EM__DMEPrint
 0259:017A       $EM__DOSEntry
 53DE:02B8       $EM__DOSMemory
 09A2:0075       $EM__D_CommonTypes
 43AB:0732       $EM__D_Count
 441F:0649       $EM__D_DAcquizition
 3FC1:0592       $EM__D_DisResults
 0C4D:0E08       $EM__D_Files
 2E3E:0B18       $EM__D_Odb
 4C16:078B       $EM__D_Slupek
 0D4E:0460       $EM__D_results
 37FA:226E       $EM__DataCollect
 52B5:00BA       $EM__Devices
 3156:195B       $EM__Dialog
 2651:031C       $EM__DigiRS
 3F88:0389       $EM__DisResUtilities
 53BD:009C       $EM__Display
 4C8F:1462       $EM__DrawEpson
 52C1:0204       $EM__DynMem
 0271:0145       $EM__ErrorMess
 3CCE:0A4A       $EM__EventsMng
 3719:0071       $EM__FCBS
 2A23:0A45       $EM__FIO
 218D:0786       $EM__FIltr1St
 1025:2BCB       $EM__Files
 0B4D:06DA       $EM__FlagAnal
 32EC:197C       $EM__GList
 06B3:06B3       $EM__GPSRead
 2875:08F8       $EM__GPS_TRIMBLE
 2755:11FD       $EM__GPS_nov
 2206:0DD5       $EM__GeoArithmetic
 1F07:01E6       $EM__GrafTypes
 1F94:0220       $EM__GrafUtil
 2AD6:1121       $EM__Graphics
 2E17:026D       $EM__HRD_Clock
 1D98:16E3       $EM__HiLevGraf
 2905:11D8       $EM__Ini
 2EF0:0D16       $EM__InpLine
 217E:00EE       $EM__Int_DME
 236F:2E15       $EM__Kalibracja
 53C7:0167       $EM__Keyboard
 4999:04FF       $EM__Kl_FGenerators
 0075:1E0C       $EM__MANAGER
 0D2E:01F4       $EM__MMA_Cout
 2C4C:1502       $EM__MMMouse
 48AC:01E1       $EM__M_PGPIB
 30A0:0B50       $EM__Mapa
 4B0D:0937       $EM__Marks
 2736:01E8       $EM__Math
 540A:06C4       $EM__MathLib0
 1AF7:04A8       $EM__Messages
 52F3:02B1       $EM__Mouse
 1F26:06DB       $EM__MsgBox
 207E:0CD7       $EM__NAVGPIB
 48CB:0351       $EM__NAVInterface
 51F7:063B       $EM__NumberConversion
 3484:1C75       $EM__Obloty
 1874:07B0       $EM__PI_Analiza
 1956:012B       $EM__PI_ArchDate
 1969:0053       $EM__PI_Drukuj
 0D95:00D6       $EM__PI_Glowny
 0256:002D       $EM__PI_PA
 18F0:0654       $EM__PI_Pomiar
 034B:0ACB       $EM__PI_Qcheck
 3D73:092F       $EM__PI_ScrUtility
 0001:0730       $EM__PTT
 401B:1233       $EM__PiszEventy
 49EA:1225       $EM__Polozenie
 139D:15AF       $EM__Pomiar
 4DD6:1A80       $EM__Print
 502C:08E0       $EM__PrintCntroll
 517E:01A7       $EM__RTSCoroutine
 515C:0140       $EM__RTSDevice
 50D7:076F       $EM__RTSMain
 486A:0410       $EM__Random
 2683:0B1F       $EM__RealConversions
 03F8:19D3       $EM__ScannerI
 14F9:37A6       $EM__Screen
 3E76:019E       $EM__ScreenCTypes
 4824:0453       $EM__Semafory
 2D9D:079B       $EM__ShortCuts
 3E07:06E6       $EM__Slupek
 19CB:05F6       $EM__SoftIntHandlingManager
 525B:0061       $EM__Sounds
 09AD:19F8       $EM__SpecConv
 1B42:14D9       $EM__StdIO
 196F:05B8       $EM__Storage
 3706:012E       $EM__SwitchCntrl
 0ECB:14C3       $EM__T_Inspekcja
 0DA3:1275       $EM__T_Oblot
 536A:03E5       $EM__Termbase
 534D:01C6       $EM__Terminal
 05A9:1095       $EM__TheodolitRead
 1A2B:0CBD       $EM__Timer
 0286:0C49       $EM__Tune
 0905:09BF       $EM__VORO_avrage
 4653:1D0E       $EM__VORPrint
 4F7F:0ACE       $EM__VORR_Average
 12E2:0BA9       $EM__V_CP_ControlProc
 09AA:0028       $EM__V_CommonTypes
 413F:26B2       $EM__V_Count
 4484:0823       $EM__V_DAcquizition
 364C:0B98       $EM__V_Database
 3E90:0F7A       $EM__V_DisResults
 07F7:10D3       $EM__V_Files
 1FB7:0C61       $EM__V_Odb
 4BA1:0748       $EM__V_Slupek
 0BF2:05AA       $EM__V_results
 2AC8:00D0       $EM__WorseBecause
 3A21:2762       $EM__Wykres
 2BE9:012A       $EM__XMS
 2C00:04BE       $EM__XMSService
 3C98:035A       $EM__XMSTable
 4901:0954       $INIT__ARINC
 53BA:0009       $INIT__ASCII
 214C:02DB       $INIT__AltInterface
 53A9:0108       $INIT__BitByteOps
 52E2:0107       $INIT__BlockOps
 2FC2:0D80       $INIT__Buttons
 3721:0D49       $INIT__CocpDsp
 1018:00A7       $INIT__CommonData
 0596:00FA       $INIT__CommonTypes
 0BBB:0308       $INIT__Czas
 071F:0D49       $INIT__DGHIni
 1C90:102C       $INIT__DGHInterface
 22E4:084D       $INIT__DGH_utils
 4507:142B       $INIT__DMEPrint
 0259:0150       $INIT__DOSEntry
 53DE:0298       $INIT__DOSMemory
 09A2:0050       $INIT__D_CommonTypes
 43AB:06D1       $INIT__D_Count
 441F:05BB       $INIT__D_DAcquizition
 3FC1:0540       $INIT__D_DisResults
 0C4D:0D89       $INIT__D_Files
 2E3E:0AAD       $INIT__D_Odb
 4C16:0743       $INIT__D_Slupek
 0D4E:0413       $INIT__D_results
 37FA:2221       $INIT__DataCollect
 52AB:0000       $INIT__DebugPMD
 52B5:009A       $INIT__Devices
 3156:18EB       $INIT__Dialog
 2651:02F2       $INIT__DigiRS
 3F88:0346       $INIT__DisResUtilities
 53BD:007C       $INIT__Display
 4C8F:1415       $INIT__DrawEpson
 52C1:0203       $INIT__DynMem
 0271:010C       $INIT__ErrorMess
 3CCE:09EE       $INIT__EventsMng
 3719:004C       $INIT__FCBS
 2A23:0A16       $INIT__FIO
 218D:0757       $INIT__FIltr1St
 1025:2B56       $INIT__Files
 0B4D:06A6       $INIT__FlagAnal
 32EC:1920       $INIT__GList
 06B3:0670       $INIT__GPSRead
 2875:08B5       $INIT__GPS_TRIMBLE
 2755:11A6       $INIT__GPS_nov
 2206:0DA1       $INIT__GeoArithmetic
 1F07:01CB       $INIT__GrafTypes
 1F94:01D3       $INIT__GrafUtil
 2AD6:10F2       $INIT__Graphics
 2E17:0248       $INIT__HRD_Clock
 1D98:1678       $INIT__HiLevGraf
 2905:119F       $INIT__Ini
 2EF0:0CB5       $INIT__InpLine
 217E:00CE       $INIT__Int_DME
 236F:2DA5       $INIT__Kalibracja
 53C7:0142       $INIT__Keyboard
 4999:04DF       $INIT__Kl_FGenerators
 531F:02DE       $INIT__Longs
 0075:1DCE       $INIT__MANAGER
 0D2E:01C5       $INIT__MMA_Cout
 2C4C:14AB       $INIT__MMMouse
 48AC:01C1       $INIT__M_PGPIB
 30A0:0AF4       $INIT__Mapa
 4B0D:0903       $INIT__Marks
 2736:01C3       $INIT__Math
 540A:06AF       $INIT__MathLib0
 1AF7:046A       $INIT__Messages
 52F3:0296       $INIT__Mouse
 1F26:0689       $INIT__MsgBox
 207E:0C8A       $INIT__NAVGPIB
 48CB:0322       $INIT__NAVInterface
 51F7:0620       $INIT__NumberConversion
 3484:1C0F       $INIT__Obloty
 1874:0736       $INIT__PI_Analiza
 1956:00CA       $INIT__PI_ArchDate
 1969:002E       $INIT__PI_Drukuj
 0D95:0098       $INIT__PI_Glowny
 0256:0012       $INIT__PI_PA
 18F0:05CB       $INIT__PI_Pomiar
 034B:0A6F       $INIT__PI_Qcheck
 3D73:08E7       $INIT__PI_ScrUtility
 401B:11AA       $INIT__PiszEventy
 49EA:11C4       $INIT__Polozenie
 139D:153F       $INIT__Pomiar
 4DD6:19F2       $INIT__Print
 502C:0861       $INIT__PrintCntroll
 50C1:0000       $INIT__RTS87
 5199:0000       $INIT__RTSCoroutine
 5171:0000       $INIT__RTSDevice
 50D4:0000       $INIT__RTSError
 51BF:0000       $INIT__RTSInterrupt
 515B:0000       $INIT__RTSLanguage
 50D7:0731       $INIT__RTSMain
 50D7:0770       $INIT__RTSMonExit
 517D:0000       $INIT__RTSPriority
 51C5:0000       $INIT__RTSRealError
 486A:03E6       $INIT__Random
 2683:0AFF       $INIT__RealConversions
 03F8:1954       $INIT__ScannerI
 14F9:36F5       $INIT__Screen
 3E76:0174       $INIT__ScreenCTypes
 4824:0433       $INIT__Semafory
 2D9D:0762       $INIT__ShortCuts
 3E07:06AD       $INIT__Slupek
 19CB:05D1       $INIT__SoftIntHandlingManager
 525B:0046       $INIT__Sounds
 09AD:19BF       $INIT__SpecConv
 1B42:14A5       $INIT__StdIO
 196F:058E       $INIT__Storage
 51C6:0303       $INIT__Strings
 3706:0109       $INIT__SwitchCntrl
 0ECB:1421       $INIT__T_Inspekcja
 0DA3:11A1       $INIT__T_Oblot
 536A:03BB       $INIT__Termbase
 534D:01A1       $INIT__Terminal
 05A9:1039       $INIT__TheodolitRead
 1A2B:0C8E       $INIT__Timer
 0286:0C0B       $INIT__Tune
 0905:098B       $INIT__VORO_avrage
 4653:1C76       $INIT__VORPrint
 4F7F:0A9A       $INIT__VORR_Average
 12E2:0B48       $INIT__V_CP_ControlProc
 09AA:0008       $INIT__V_CommonTypes
 413F:263D       $INIT__V_Count
 4484:078B       $INIT__V_DAcquizition
 364C:0B2D       $INIT__V_Database
 3E90:0F1E       $INIT__V_DisResults
 07F7:104F       $INIT__V_Files
 1FB7:0BFB       $INIT__V_Odb
 4BA1:0705       $INIT__V_Slupek
 0BF2:0558       $INIT__V_results
 2AC8:00AB       $INIT__WorseBecause
 3A21:2710       $INIT__Wykres
 2BFC:0000       $INIT__XMS
 2C00:0485       $INIT__XMSService
 3C98:032B       $INIT__XMSTable
 5477:0000       $MN__PTT
 5477:038E       $OK__01mar90_1621_OF_ASCII
 5477:03A0       $OK__01mar90_1621_OF_DOSMemory
 5477:0394       $OK__01mar90_1621_OF_Display
 5477:039A       $OK__01mar90_1621_OF_Keyboard
 5477:034C       $OK__01mar90_1621_OF_NumberConv
 5477:0382       $OK__01mar90_1621_OF_Termbase
 5477:037C       $OK__01mar90_1621_OF_Terminal
 5477:035E       $OK__01mar90_1622_OF_Devices
 5477:0370       $OK__01mar90_1622_OF_Mouse
 5477:0352       $OK__01mar90_1622_OF_Sounds
 5477:0376       $OK__05feb87_1233_OF_Longs
 5477:0316       $OK__10jul87_1400_OF_RTSError
 5477:0340       $OK__10jul87_1400_OF_RTSRealErr
 5477:0322       $OK__10jul87_1401_OF_RTSLanguag
 5477:033A       $OK__10jul87_1402_OF_RTSInterru
 5477:0310       $OK__10jul87_1403_OF_RTS87
 5477:032E       $OK__10jul87_1404_OF_RTSPriorit
 5477:02D4       $OK__10jul99_1214_OF_ARINC
 5477:01A2       $OK__10jul99_1214_OF_AltInterfa
 5477:0220       $OK__10jul99_1214_OF_Buttons
 5477:0250       $OK__10jul99_1214_OF_CocpDsp
 5477:0124       $OK__10jul99_1214_OF_CommonData
 5477:00B8       $OK__10jul99_1214_OF_CommonType
 5477:00F4       $OK__10jul99_1214_OF_Czas
 5477:00CA       $OK__10jul99_1214_OF_DGHIni
 5477:0178       $OK__10jul99_1214_OF_DGHInterfa
 5477:01BA       $OK__10jul99_1214_OF_DGH_utils
 5477:009A       $OK__10jul99_1214_OF_DOSEntry
 5477:00DC       $OK__10jul99_1214_OF_D_CommonTy
 5477:022C       $OK__10jul99_1214_OF_Dialog
 5477:01C6       $OK__10jul99_1214_OF_DigiRS
 5477:00A0       $OK__10jul99_1214_OF_ErrorMess
 5477:024A       $OK__10jul99_1214_OF_FCBS
 5477:01EA       $OK__10jul99_1214_OF_FIO
 5477:01AE       $OK__10jul99_1214_OF_FIltr1St
 5477:00EE       $OK__10jul99_1214_OF_FlagAnal
 5477:0232       $OK__10jul99_1214_OF_GList
 5477:01DE       $OK__10jul99_1214_OF_GPS_TRIMBL
 5477:01D8       $OK__10jul99_1214_OF_GPS_nov
 5477:0184       $OK__10jul99_1214_OF_GrafTypes
 5477:0190       $OK__10jul99_1214_OF_GrafUtil
 5477:01F6       $OK__10jul99_1214_OF_Graphics
 5477:020E       $OK__10jul99_1214_OF_HRD_Clock
 5477:017E       $OK__10jul99_1214_OF_HiLevGraf
 5477:01E4       $OK__10jul99_1214_OF_Ini
 5477:021A       $OK__10jul99_1214_OF_InpLine
 5477:01A8       $OK__10jul99_1214_OF_Int_DME
 5477:01C0       $OK__10jul99_1214_OF_Kalibracja
 5477:02DA       $OK__10jul99_1214_OF_Kl_FGenera
 5477:008E       $OK__10jul99_1214_OF_MANAGER
 5477:0106       $OK__10jul99_1214_OF_MMA_Cout
 5477:0202       $OK__10jul99_1214_OF_MMMouse
 5477:02C8       $OK__10jul99_1214_OF_M_PGPIB
 5477:01D2       $OK__10jul99_1214_OF_Math
 5477:016C       $OK__10jul99_1214_OF_Messages
 5477:018A       $OK__10jul99_1214_OF_MsgBox
 5477:019C       $OK__10jul99_1214_OF_NAVGPIB
 5477:02CE       $OK__10jul99_1214_OF_NAVInterfa
 5477:0238       $OK__10jul99_1214_OF_Obloty
 5477:01CC       $OK__10jul99_1214_OF_RealConver
 5477:02BC       $OK__10jul99_1214_OF_Semafory
 5477:0208       $OK__10jul99_1214_OF_ShortCuts
 5477:0160       $OK__10jul99_1214_OF_SoftIntHan
 5477:00E8       $OK__10jul99_1214_OF_SpecConv
 5477:0172       $OK__10jul99_1214_OF_StdIO
 5477:015A       $OK__10jul99_1214_OF_Storage
 5477:0244       $OK__10jul99_1214_OF_SwitchCntr
 5477:00BE       $OK__10jul99_1214_OF_TheodolitR
 5477:0166       $OK__10jul99_1214_OF_Timer
 5477:00A6       $OK__10jul99_1214_OF_Tune
 5477:01F0       $OK__10jul99_1214_OF_WorseBecau
 5477:025C       $OK__10jul99_1214_OF_Wykres
 5477:01FC       $OK__10jul99_1214_OF_XMSService
 5477:0262       $OK__10jul99_1214_OF_XMSTable
 5477:02B0       $OK__10jul99_1215_OF_DMEPrint
 5477:029E       $OK__10jul99_1215_OF_D_Count
 5477:02A4       $OK__10jul99_1215_OF_D_DAcquizi
 5477:028C       $OK__10jul99_1215_OF_D_DisResul
 5477:0100       $OK__10jul99_1215_OF_D_Files
 5477:0214       $OK__10jul99_1215_OF_D_Odb
 5477:02F2       $OK__10jul99_1215_OF_D_Slupek
 5477:010C       $OK__10jul99_1215_OF_D_results
 5477:0256       $OK__10jul99_1215_OF_DataCollec
 5477:0286       $OK__10jul99_1215_OF_DisResUtil
 5477:02F8       $OK__10jul99_1215_OF_DrawEpson
 5477:0268       $OK__10jul99_1215_OF_EventsMng
 5477:012A       $OK__10jul99_1215_OF_Files
 5477:00C4       $OK__10jul99_1215_OF_GPSRead
 5477:01B4       $OK__10jul99_1215_OF_GeoArithme
 5477:0226       $OK__10jul99_1215_OF_Mapa
 5477:02E6       $OK__10jul99_1215_OF_Marks
 5477:0142       $OK__10jul99_1215_OF_PI_Analiza
 5477:014E       $OK__10jul99_1215_OF_PI_ArchDat
 5477:0154       $OK__10jul99_1215_OF_PI_Drukuj
 5477:0112       $OK__10jul99_1215_OF_PI_Glowny
 5477:0094       $OK__10jul99_1215_OF_PI_PA
 5477:0148       $OK__10jul99_1215_OF_PI_Pomiar
 5477:00AC       $OK__10jul99_1215_OF_PI_Qcheck
 5477:026E       $OK__10jul99_1215_OF_PI_ScrUtil
 5477:0000       $OK__10jul99_1215_OF_PTT
 5477:0292       $OK__10jul99_1215_OF_PiszEventy
 5477:02E0       $OK__10jul99_1215_OF_Polozenie
 5477:0136       $OK__10jul99_1215_OF_Pomiar
 5477:02FE       $OK__10jul99_1215_OF_Print
 5477:030A       $OK__10jul99_1215_OF_PrintCntro
 5477:02C2       $OK__10jul99_1215_OF_Random
 5477:00B2       $OK__10jul99_1215_OF_ScannerI
 5477:013C       $OK__10jul99_1215_OF_Screen
 5477:027A       $OK__10jul99_1215_OF_ScreenCTyp
 5477:0274       $OK__10jul99_1215_OF_Slupek
 5477:011E       $OK__10jul99_1215_OF_T_Inspekcj
 5477:0118       $OK__10jul99_1215_OF_T_Oblot
 5477:00D6       $OK__10jul99_1215_OF_VORO_avrag
 5477:02B6       $OK__10jul99_1215_OF_VORPrint
 5477:0304       $OK__10jul99_1215_OF_VORR_Avera
 5477:0130       $OK__10jul99_1215_OF_V_CP_Contr
 5477:00E2       $OK__10jul99_1215_OF_V_CommonTy
 5477:0298       $OK__10jul99_1215_OF_V_Count
 5477:02AA       $OK__10jul99_1215_OF_V_DAcquizi
 5477:023E       $OK__10jul99_1215_OF_V_Database
 5477:0280       $OK__10jul99_1215_OF_V_DisResul
 5477:00D0       $OK__10jul99_1215_OF_V_Files
 5477:0196       $OK__10jul99_1215_OF_V_Odb
 5477:02EC       $OK__10jul99_1215_OF_V_Slupek
 5477:00FA       $OK__10jul99_1215_OF_V_results
 5477:0334       $OK__15jun87_0924_OF_RTSCorouti
 5477:0328       $OK__15jun87_0924_OF_RTSDevice
 5477:0364       $OK__16jun87_1952_OF_DynMem
 5477:0358       $OK__16jun87_2059_OF_DebugPMD
 5477:031C       $OK__19aug87_1403_OF_RTSMain
 5477:0346       $OK__31jul87_1000_OF_Strings
 5477:0388       $OK__31jul87_1100_OF_BitByteOps
 5477:036A       $OK__31jul87_1300_OF_BlockOps
 558F:0024       ABOVESL__ScannerI
 59ED:08C0       AGCwartosciProgowD__Kalibracja
 59ED:0870       AGCwartosciProgowM__Kalibracja
 59ED:0800       AGCwartosciProgow__Kalibracja
 59DF:0020       ALT_Conver_TabC__AltInterface
 59DF:0000       ALT_Conver_Tab__AltInterface
 50BB:003E       AT87Server
 558F:0054       AcqQ__ScannerI
 6171:0000       Active__InpLine
 50C7:0014       AddrOvf__RTSError
 747F:078E       Adr1__DrawEpson
 747F:0792       Adr2__DrawEpson
 616D:0010       Agc__D_Odb
 7454:0018       AktKat__Polozenie
 7454:0010       AktOdleglosc__Polozenie
 558F:0006       AlfaF__ScannerI
 558F:0094       AlfaGPSWatcDog__ScannerI
 558F:0059       AlfaSigma__ScannerI
 558F:0096       AlfaTeoWatcDog__ScannerI
 558F:0002       Alfa__ScannerI
 6172:0004       AllEnabled__Buttons
 616D:0014       Audio__D_Odb
 559B:0014       Azymut__TheodolitRead
 6114:000E       BK64Inc__InternalMonitor__Graph
 6114:000A       BKSizeL__InternalMonitor__Graph
 5961:005A       B_01__Pomiar
 5961:005E       B_02__Pomiar
 5961:0062       B_03__Pomiar
 5961:0066       B_04__Pomiar
 5961:006A       B_05__Pomiar
 597E:000D       B_Abort__MouseMonitor__PI_Anali
 597E:0009       B_Akceptuj__MouseMonitor__PI_An
 596B:0056       B_CURSOR__Screen
 597E:0015       B_DOWN__MouseMonitor__PI_Analiz
 596B:0066       B_DOWN__Screen
 597E:0005       B_Drukuj__MouseMonitor__PI_Anal
 596B:005A       B_LEFT__Screen
 596B:005E       B_RIGHT__Screen
 597E:0011       B_UP__MouseMonitor__PI_Analiza
 596B:0062       B_UP__Screen
 597E:0019       B_XCHG__MouseMonitor__PI_Analiz
 596B:0080       BarOnScreen__Dialog__Screen
 5B3A:006E       BladKanaluGPS__GPS_TRIMBLE
 5B31:0080       BladKanaluGPS__GPS_nov
 61A2:01D9       Blad_podczas_wczytywania_opisu_
 5B42:0012       BuffP__Ini
 598C:0000       BufferFull__DGHInterface
 747F:0004       Bufor__DrawEpson
 5B42:0016       Bufor__Ini
 7454:0022       Bufor__Polozenie
 6172:0005       ButtonList__MONITOR__Buttons
 5550:0114       CP__MANAGER
 617C:0157       CallBackDlaDopasuj__Obloty
 50C7:001E       CardOvf__RTSError
 50C7:0000       CaseError__RTSError
 596B:012C       ChangeKursorMode__Dialog__Scree
 559B:004A       CheckSumIdx__TheodolitRead
 590A:0011       CisnienieOdn__T_Oblot
 590F:014E       CisnienieOdniesienia__CommonDat
 598E:0000       ClipRect__HiLevGraf
 5988:0004       ClockPer__Timer
 74FA:0011       CoKtoraProbka__Print
 750D:000B       CoKtoraProbka__PrintCntroll
 590A:0000       CoRobimy__T_Oblot
 61C1:0000       Code__FCBS
 616D:002A       CollectData__D_Odb
 599F:003E       CollectData__V_Odb
 59A4:0398       CommCount__NAVGPIB
 61C0:0000       ControlWords__SwitchCntrl
 5550:021A       Count__MANAGER
 6051:0C08       CriticalErrorRec__FIO
 617B:0000       CurH__GList
 747F:0798       CurMode__DrawEpson
 61A2:0000       CurVor1__V_Database
 61A2:00E8       CurVor2__V_Database
 55A1:001E       CurrGPSAnalizer__GPSRead
 612A:02F5       CursorB__BezWyszeregowania__MMM
 612A:01F4       CursorBuf__BezWyszeregowania__M
 596B:0076       CursorMode__Dialog__Screen
 596B:007B       CursorPos__Dialog__Screen
 612A:0008       CursorShapePtr__MMMouse
 7454:0211       CzesciOkregu__Polozenie
 599F:0026       DEVAV__V_Odb
 599F:0022       DEVMAX__V_Odb
 599F:001E       DEVMIN__V_Odb
 599F:001A       DEVVAL__V_Odb
 590F:00FB       DME__CommonData
 5573:0084       DOSEmpty__DOSEntry
 5550:011C       DUMMY__MANAGER
 59ED:13EC       DataOstatniejKalibracji__Kalibr
 612A:000C       DefaultShape__MMMouse
 59E6:0000       Deklinacja__GeoArithmetic
 617C:019C       DelDir__Obloty
 558F:0016       DeltaDME__ScannerI
 558F:001A       DeltaF__ScannerI
 558F:000E       Delta__ScannerI
 54C2:0058       DescInt0__RTSMain
 599F:002E       DevErrSum__V_Odb
 599F:002A       DevNr__V_Odb
 5925:0004       DirErr__Files
 7454:020F       Dir__Polozenie
 616D:0004       DisI__D_Odb
 558F:0061       DisSigma__ScannerI
 616D:0000       Dis__D_Odb
 61C8:C86E       Div2T__tablice__DataCollect
 61C8:C86A       Div3T__tablice__DataCollect
 50C7:0046       DivZero__RTSError
 7512:0000       DriverInstalled__Mouse
 617C:021E       DstDir__Obloty
 5988:0012       Dumm__Monitor__Timer
 514F:0069       DynParCopy__RTSLanguage
 612A:0063       EVC__BezPrzerwanOdMyszy__MMMous
 612A:005F       EVF__BezPrzerwanOdMyszy__MMMous
 612A:0061       EVL__BezPrzerwanOdMyszy__MMMous
 559B:001C       Elewacja__TheodolitRead
 5550:0012       ErrorHandler__MANAGER
 5B42:0000       ErrorProc__Ini
 5550:0000       ErrorQueue__MANAGER
 50D7:0636       Error__RTSMain
 5961:0050       EtapPolaryzacji__Pomiar
 70A6:0002       EvPtr__PiszEventy
 558F:0069       EvalPROC__ScannerI
 612A:0065       EventBuff__BezPrzerwanOdMyszy__
 6FE5:0000       Events__EventsMng
 50C7:000A       FctRetError__RTSError
 5711:00A0       FileDis__D_Files
 5711:0000       FileErr__D_Files
 5925:0000       FileErr__Files
 569D:0000       FileErr__V_Files
 569D:00F8       FileRes__V_Files
 5711:0090       FileSig__D_Files
 569D:0090       FileSig__V_Files
 6051:0008       Files__FIO
 59A4:0397       FirstLocal__NAVGPIB
 74FA:000C       Flagi__Print
 6114:0010       FntTable__Graphics
 617A:0004       FocusChanged__Dialog
 747F:079D       FontAdrA__DrawEpson
 747F:0799       FontAdrN__DrawEpson
 747F:07A1       FontHeight__DrawEpson
 6114:0000       FontPtr__Graphics
 616B:0007       FreeKey__monitor__ShortCuts
 558F:008B       GPSEcounting__ScannerI
 558F:003B       GPS_A__ScannerI
 558F:0050       GPS_DIFFMODE__ScannerI
 558F:004E       GPS_GDOP__ScannerI
 558F:004B       GPS_OK__ScannerI
 558F:0051       GPS_PREC__ScannerI
 558F:0043       GPS_R__ScannerI
 558F:004C       GPS_SAT__ScannerI
 558F:00AB       GPS_dtaSign__ScannerI
 59ED:0AC0       GS_DEVPuntyKal__Kalibracja
 557D:0050       GSfreqCRT__Tune
 6129:0000       GarbageList__XMSService
 590A:000D       GlowOdb__T_Oblot
 590F:0141       GlownyOdbiornik__CommonData
 59ED:0958       GsAgc_delay__Kalibracja
 59ED:0918       GsDev_delay__Kalibracja
 59ED:0928       GsPrcMod_delay__Kalibracja
 612A:02F4       Hidden__BezWyszeregowania__MMMo
 617C:0116       HomeDirDlaDopasuj__Obloty
 617C:0058       HomeDirNazwaPlikuIni__Obloty
 617C:0048       HomeDir__Obloty
 61C8:C866       IDX2__tablice__DataCollect
 61C8:C862       IDX3__tablice__DataCollect
 519A:011E       IOTransfer__RTSInterrupt
 61C8:C840       Idx__DataCollect
 750D:000D       IleStron__PrintCntroll
 59E6:0020       IloscOdniesien__GeoArithmetic
 750D:000F       IloscProbek__PrintCntroll
 7433:0000       ImportantDiv__D_DAcquizition
 7435:0000       ImportantDiv__V_DAcquizition
 50C7:0028       IntegerOvf__RTSError
 596B:0079       JakieWykr__Dialog__Screen
 596B:0077       JakijedenWykres__Dialog__Screen
 596B:0078       JedenWykres__Dialog__Screen
 747F:07A8       JuzNarysowane__DrawEpson
 0000:0000  Abs  KEY__00xxx00_0000_OF_DebugPMD
 0000:0000  Abs  KEY__00xxx00_0000_OF_RTS87
 0000:0000  Abs  KEY__00xxx00_0000_OF_RTSCorouti
 0000:0000  Abs  KEY__00xxx00_0000_OF_RTSError
 0000:0000  Abs  KEY__00xxx00_0000_OF_RTSInterru
 0000:0000  Abs  KEY__00xxx00_0000_OF_RTSLanguag
 0000:0000  Abs  KEY__00xxx00_0000_OF_RTSMain
 0000:0000  Abs  KEY__00xxx00_0000_OF_RTSPriorit
 0000:0000  Abs  KEY__00xxx00_0000_OF_RTSRealErr
 0000:0000  Abs  KEY__05feb87_1233_OF_Longs
 0000:0000  Abs  KEY__10aug87_2030_OF_ASCII
 0000:0000  Abs  KEY__10aug87_2030_OF_BitByteOps
 0000:0000  Abs  KEY__10aug87_2030_OF_BlockOps
 0000:0000  Abs  KEY__10aug87_2031_OF_DOSMemory
 0000:0000  Abs  KEY__10aug87_2031_OF_DebugPMD
 0000:0000  Abs  KEY__10aug87_2031_OF_Devices
 0000:0000  Abs  KEY__10aug87_2031_OF_Display
 0000:0000  Abs  KEY__10aug87_2031_OF_DynMem
 0000:0000  Abs  KEY__10aug87_2031_OF_Keyboard
 0000:0000  Abs  KEY__10aug87_2031_OF_NumberConv
 0000:0000  Abs  KEY__10aug87_2031_OF_RTSDevice
 0000:0000  Abs  KEY__10aug87_2031_OF_Storage
 0000:0000  Abs  KEY__10aug87_2031_OF_Strings
 0000:0000  Abs  KEY__10aug87_2031_OF_Termbase
 0000:0000  Abs  KEY__10aug87_2031_OF_Terminal
 0000:0000  Abs  KEY__10aug87_2032_OF_MathLib0
 0000:0000  Abs  KEY__10aug87_2033_OF_Mouse
 0000:0000  Abs  KEY__10aug87_2033_OF_RTSCorouti
 0000:0000  Abs  KEY__10aug87_2033_OF_Random
 0000:0000  Abs  KEY__10aug87_2033_OF_RealConver
 0000:0000  Abs  KEY__10aug87_2033_OF_Sounds
 0000:0000  Abs  KEY__10jul87_1035_OF_RTSMonExit
 0000:0000  Abs  KEY__10jul99_1214_OF_ARINC
 0000:0000  Abs  KEY__10jul99_1214_OF_AltInterfa
 0000:0000  Abs  KEY__10jul99_1214_OF_Buttons
 0000:0000  Abs  KEY__10jul99_1214_OF_CocpDsp
 0000:0000  Abs  KEY__10jul99_1214_OF_CommonData
 0000:0000  Abs  KEY__10jul99_1214_OF_CommonType
 0000:0000  Abs  KEY__10jul99_1214_OF_Czas
 0000:0000  Abs  KEY__10jul99_1214_OF_DGHIni
 0000:0000  Abs  KEY__10jul99_1214_OF_DGHInterfa
 0000:0000  Abs  KEY__10jul99_1214_OF_DGH_utils
 0000:0000  Abs  KEY__10jul99_1214_OF_DMEPrint
 0000:0000  Abs  KEY__10jul99_1214_OF_DOSEntry
 0000:0000  Abs  KEY__10jul99_1214_OF_D_CommonTy
 0000:0000  Abs  KEY__10jul99_1214_OF_D_Count
 0000:0000  Abs  KEY__10jul99_1214_OF_D_DAcquizi
 0000:0000  Abs  KEY__10jul99_1214_OF_D_DisResul
 0000:0000  Abs  KEY__10jul99_1214_OF_D_Files
 0000:0000  Abs  KEY__10jul99_1214_OF_D_Odb
 0000:0000  Abs  KEY__10jul99_1214_OF_D_Slupek
 0000:0000  Abs  KEY__10jul99_1214_OF_D_results
 0000:0000  Abs  KEY__10jul99_1214_OF_DataCollec
 0000:0000  Abs  KEY__10jul99_1214_OF_Dialog
 0000:0000  Abs  KEY__10jul99_1214_OF_DigiRS
 0000:0000  Abs  KEY__10jul99_1214_OF_DisResUtil
 0000:0000  Abs  KEY__10jul99_1214_OF_DrawEpson
 0000:0000  Abs  KEY__10jul99_1214_OF_ErrorMess
 0000:0000  Abs  KEY__10jul99_1214_OF_EventsMng
 0000:0000  Abs  KEY__10jul99_1214_OF_FCBS
 0000:0000  Abs  KEY__10jul99_1214_OF_FIO
 0000:0000  Abs  KEY__10jul99_1214_OF_FIltr1St
 0000:0000  Abs  KEY__10jul99_1214_OF_Files
 0000:0000  Abs  KEY__10jul99_1214_OF_FlagAnal
 0000:0000  Abs  KEY__10jul99_1214_OF_GList
 0000:0000  Abs  KEY__10jul99_1214_OF_GPSRead
 0000:0000  Abs  KEY__10jul99_1214_OF_GPS_TRIMBL
 0000:0000  Abs  KEY__10jul99_1214_OF_GPS_nov
 0000:0000  Abs  KEY__10jul99_1214_OF_GeoArithme
 0000:0000  Abs  KEY__10jul99_1214_OF_GrafTypes
 0000:0000  Abs  KEY__10jul99_1214_OF_GrafUtil
 0000:0000  Abs  KEY__10jul99_1214_OF_Graphics
 0000:0000  Abs  KEY__10jul99_1214_OF_HRD_Clock
 0000:0000  Abs  KEY__10jul99_1214_OF_HiLevGraf
 0000:0000  Abs  KEY__10jul99_1214_OF_Ini
 0000:0000  Abs  KEY__10jul99_1214_OF_InpLine
 0000:0000  Abs  KEY__10jul99_1214_OF_Int_DME
 0000:0000  Abs  KEY__10jul99_1214_OF_Kalibracja
 0000:0000  Abs  KEY__10jul99_1214_OF_Kl_FGenera
 0000:0000  Abs  KEY__10jul99_1214_OF_MANAGER
 0000:0000  Abs  KEY__10jul99_1214_OF_MMA_Cout
 0000:0000  Abs  KEY__10jul99_1214_OF_MMMouse
 0000:0000  Abs  KEY__10jul99_1214_OF_M_PGPIB
 0000:0000  Abs  KEY__10jul99_1214_OF_Mapa
 0000:0000  Abs  KEY__10jul99_1214_OF_Marks
 0000:0000  Abs  KEY__10jul99_1214_OF_Math
 0000:0000  Abs  KEY__10jul99_1214_OF_Messages
 0000:0000  Abs  KEY__10jul99_1214_OF_MsgBox
 0000:0000  Abs  KEY__10jul99_1214_OF_NAVGPIB
 0000:0000  Abs  KEY__10jul99_1214_OF_NAVInterfa
 0000:0000  Abs  KEY__10jul99_1214_OF_Obloty
 0000:0000  Abs  KEY__10jul99_1214_OF_PI_Analiza
 0000:0000  Abs  KEY__10jul99_1214_OF_PI_ArchDat
 0000:0000  Abs  KEY__10jul99_1214_OF_PI_Drukuj
 0000:0000  Abs  KEY__10jul99_1214_OF_PI_Glowny
 0000:0000  Abs  KEY__10jul99_1214_OF_PI_PA
 0000:0000  Abs  KEY__10jul99_1214_OF_PI_Pomiar
 0000:0000  Abs  KEY__10jul99_1214_OF_PI_Qcheck
 0000:0000  Abs  KEY__10jul99_1214_OF_PI_ScrUtil
 0000:0000  Abs  KEY__10jul99_1214_OF_PiszEventy
 0000:0000  Abs  KEY__10jul99_1214_OF_Polozenie
 0000:0000  Abs  KEY__10jul99_1214_OF_Pomiar
 0000:0000  Abs  KEY__10jul99_1214_OF_Print
 0000:0000  Abs  KEY__10jul99_1214_OF_PrintCntro
 0000:0000  Abs  KEY__10jul99_1214_OF_ScannerI
 0000:0000  Abs  KEY__10jul99_1214_OF_Screen
 0000:0000  Abs  KEY__10jul99_1214_OF_ScreenCTyp
 0000:0000  Abs  KEY__10jul99_1214_OF_Semafory
 0000:0000  Abs  KEY__10jul99_1214_OF_ShortCuts
 0000:0000  Abs  KEY__10jul99_1214_OF_Slupek
 0000:0000  Abs  KEY__10jul99_1214_OF_SoftIntHan
 0000:0000  Abs  KEY__10jul99_1214_OF_SpecConv
 0000:0000  Abs  KEY__10jul99_1214_OF_StdIO
 0000:0000  Abs  KEY__10jul99_1214_OF_SwitchCntr
 0000:0000  Abs  KEY__10jul99_1214_OF_TheodolitR
 0000:0000  Abs  KEY__10jul99_1214_OF_Timer
 0000:0000  Abs  KEY__10jul99_1214_OF_Tune
 0000:0000  Abs  KEY__10jul99_1214_OF_VORO_avrag
 0000:0000  Abs  KEY__10jul99_1214_OF_VORPrint
 0000:0000  Abs  KEY__10jul99_1214_OF_VORR_Avera
 0000:0000  Abs  KEY__10jul99_1214_OF_V_CP_Contr
 0000:0000  Abs  KEY__10jul99_1214_OF_V_CommonTy
 0000:0000  Abs  KEY__10jul99_1214_OF_V_Count
 0000:0000  Abs  KEY__10jul99_1214_OF_V_DAcquizi
 0000:0000  Abs  KEY__10jul99_1214_OF_V_Database
 0000:0000  Abs  KEY__10jul99_1214_OF_V_DisResul
 0000:0000  Abs  KEY__10jul99_1214_OF_V_Files
 0000:0000  Abs  KEY__10jul99_1214_OF_V_Odb
 0000:0000  Abs  KEY__10jul99_1214_OF_V_Slupek
 0000:0000  Abs  KEY__10jul99_1214_OF_V_results
 0000:0000  Abs  KEY__10jul99_1214_OF_WorseBecau
 0000:0000  Abs  KEY__10jul99_1214_OF_Wykres
 0000:0000  Abs  KEY__10jul99_1214_OF_XMSService
 0000:0000  Abs  KEY__10jul99_1214_OF_XMSTable
 0000:0000  Abs  KEY__10jul99_1215_OF_PTT
 0000:0000  Abs  KEY__10jul99_1215_OF_T_Inspekcj
 0000:0000  Abs  KEY__10jul99_1215_OF_T_Oblot
 0000:0000  Abs  KEY__12aug87_1620_OF_RTSMain
 0000:0000  Abs  KEY__21aug96_1223_OF_XMS
 6172:0000       KbdButton__Buttons
 616B:0000       Kill__ShortCuts
 559B:0010       Kopiowanie__TheodolitRead
 596B:0030       KrokOpisuOsi__Screen
 531F:01F7       LDiv__Longs
 531F:018D       LMultU__Longs
 531F:00E6       LMult__Longs
 59ED:0A88       LOC_DEVPuntyKal__Kalibracja
 5B3A:005F       L_FixNotAvailable__GPS_TRIMBLE
 5B3A:0057       L_Kierunek__GPS_TRIMBLE
 5B3A:006C       L_NumberOfSattelites__GPS_TRIMB
 5B3A:0051       L_WspDlugosc__GPS_TRIMBLE
 5B3A:004B       L_WspSzerokosc__GPS_TRIMBLE
 2736:002A       L__ACos__Math
 196F:0002       L__ALLOCATE__Storage
 214C:0032       L__ALTConvert__AltInterface
 0905:0956       L__AVR10_AddSample__VORO_avrage
 0075:0FEF       L__AWAITEDC__MANAGER
 0075:0FEF       L__AWAITEDC__Scheduler__MANAGER
 0075:0FB4       L__AWAITEDS__MANAGER
 0075:0FB4       L__AWAITEDS__Scheduler__MANAGER
 139D:0114       L__AbortBP__Pomiar
 441F:0570       L__Abort__D_DAcquizition
 4484:0740       L__Abort__V_DAcquizition
 1AF7:0312       L__AcknowledgeFirst__Messages
 1AF7:0337       L__Acknowledge__Messages
 441F:0142       L__Acquire__D_DAcquizition
 4484:031E       L__Acquire__V_DAcquizition
 09AD:0E7B       L__AddAngle100__SpecConv
 09AD:1858       L__AddDis__SpecConv
 09AD:10CE       L__AddNormal__SpecConv
 09AD:17AE       L__Add__SpecConv
 1F26:00F2       L__AdvInfo__MsgBox
 09AD:101A       L__AfterAngle100__SpecConv
 139D:014F       L__AkceptacjaBP__Pomiar
 2BE9:00D8       L__AllocUpperMemBlock__XMS
 52C1:0059       L__Alloc__DynMem
 2BE9:003C       L__AllocateExtMem__XMS
 2C00:004E       L__Allocate__XMSService
 3C98:005D       L__Allocate__XMSTable
 3156:1666       L__AltF4__Dialog
 1874:0518       L__AnalizaEP__PI_Analiza
 43AB:05EE       L__Analiza__D_Count
 413F:250B       L__Analiza__V_Count
 09AD:0711       L__Ang100Str36Calk__SpecConv
 09AD:06A4       L__Ang100Str36__SpecConv
 4B0D:015E       L__AngAddSample__Marks
 4B0D:0032       L__AngResetContiner__Marks
 09AD:0BF8       L__Angle100__SpecConv
 09AD:0D36       L__AngleDeg__SpecConv
 03F8:0B3C       L__AssSim_Alfa__ScannerI
 03F8:0AA9       L__AssSim_Dis__ScannerI
 0075:12EF       L__Assert__MANAGER
 0075:12EF       L__Assert__Scheduler__MANAGER
 3C98:0002       L__AssignNil__XMSTable
 2206:0D1C       L__AssignOdniesienie__GeoArithm
 1A2B:0559       L__AssignPeriodicProc__Monitor_
 1A2B:0559       L__AssignPeriodicProc__Timer
 1F07:01AD       L__AssignPoint__GrafTypes
 536A:0002       L__AssignRead__Termbase
 1F07:0187       L__AssignRect__GrafTypes
 536A:0184       L__AssignWrite__Termbase
 51C6:005F       L__Assign__Strings
 52C1:01BF       L__Avail__DynMem
 196F:02D0       L__Available__Storage
 4F7F:0265       L__Bend_AddSample__VORR_Average
 4F7F:002A       L__Bend_ClearContainer__VORR_Av
 218D:05B7       L__BinaryCounter__FIltr1St
 22E4:06BA       L__BinaryValSet__DGH_utils
 52E2:007D       L__BlockClear__BlockOps
 52E2:00B8       L__BlockEqual__BlockOps
 52E2:001A       L__BlockMoveBackward__BlockOps
 52E2:0000       L__BlockMoveForward__BlockOps
 52E2:003B       L__BlockMove__BlockOps
 52E2:00D9       L__BlockPosition__BlockOps
 52E2:0096       L__BlockSet__BlockOps
 19CB:008A       L__BreakChain__SoftIntHandlingM
 0075:0AAF       L__Broadcast__MANAGER
 0075:0AAF       L__Broadcast__Scheduler__MANAGE
 53A9:0046       L__ByteAnd__BitByteOps
 53A9:0073       L__ByteNot__BitByteOps
 53A9:0055       L__ByteOr__BitByteOps
 53A9:00C5       L__ByteRol__BitByteOps
 53A9:00B4       L__ByteRor__BitByteOps
 53A9:0092       L__ByteSar__BitByteOps
 53A9:00A3       L__ByteShl__BitByteOps
 53A9:0081       L__ByteShr__BitByteOps
 53A9:0064       L__ByteXor__BitByteOps
 2A23:04B4       L__CD__FIO
 50D7:00EF       L__CallInitProc__RTSMain
 2FC2:0D35       L__CallProc__Buttons
 139D:0124       L__CallStopButton__Pomiar
 50D7:00FD       L__CallTermProc__RTSMain
 32EC:1454       L__CanEnable__GList
 30A0:098B       L__CancelProcess__Mapa
 30A0:098B       L__CancelProcess__monitor__Mapa
 09AD:057F       L__Card100Str__SpecConv
 09AD:033A       L__Card10Str__SpecConv
 3A21:1F1D       L__Card2Real__Wykres
 09AD:0225       L__Card2Str__SpecConv
 09AD:0959       L__Card500Str__SpecConv
 51F7:0259       L__CardToString__NumberConversi
 2FC2:09D0       L__ChangeButtonText__Buttons
 2FC2:0959       L__ChangeButton__Buttons
 1025:1E04       L__ChangeDir__Files
 1D98:0C85       L__Circle__HiLevGraf
 2D9D:006D       L__ClearBuffer__ShortCuts
 2D9D:006D       L__ClearBuffer__monitor__ShortC
 0905:00FA       L__ClearContainer__VORO_avrage
 1D98:1026       L__Clip__HiLevGraf
 4DD6:0E2F       L__CloseAll__Print
 2905:0E08       L__CloseBuffer__Ini
 1025:2819       L__CloseCommSigFName__Files
 1D98:0A9F       L__CloseDIB__HiLevGraf
 0C4D:075E       L__CloseFiles__D_Files
 1025:0F3B       L__CloseFiles__Files
 07F7:072B       L__CloseFiles__V_Files
 0C4D:0A2E       L__CloseSignalFiles__D_Files
 1025:17EB       L__CloseSignalFiles__Files
 07F7:097C       L__CloseSignalFiles__V_Files
 4C8F:06E2       L__Close__DrawEpson
 2A23:01F2       L__Close__FIO
 502C:013A       L__CoKtoraPDn__PrintCntroll
 502C:00D5       L__CoKtoraPUp__PrintCntroll
 51C6:02B2       L__CompareStr__Strings
 14F9:18F9       L__ConEventButton__Screen
 51C6:025B       L__Concat__Strings
 52F3:01B4       L__ConditionalOff__Mouse
 441F:0063       L__ConsoleEv__D_DAcquizition
 441F:0063       L__ConsoleEv__Monitor__D_DAcqui
 4484:0102       L__ConsoleEv__Monitor__V_DAcqui
 4484:0102       L__ConsoleEv__V_DAcquizition
 51C6:001D       L__ConstAssign__Strings
 3721:0A5E       L__ControlLoop__CocpDsp
 0BBB:024E       L__ConvertToStr__Czas
 51C6:01E9       L__Copy__Strings
 2C00:0110       L__Copy__XMSService
 0D2E:003F       L__Count_MMA_SignalDsc__MMA_Cou
 2FC2:0B2D       L__CreateButton__Buttons
 0C4D:0231       L__CreateFiles__D_Files
 1025:0273       L__CreateFiles__Files
 07F7:01F6       L__CreateFiles__V_Files
 2EF0:0002       L__CreateInpLine__InpLine
 2FC2:0C3C       L__CreateRadioButton__Buttons
 2A23:00FA       L__Create__FIO
 2A23:08B1       L__CriticalErrorHandlerProc__FI
 03F8:1754       L__CurrGPSAlfaOffset__ScannerI
 1A2B:051F       L__CurrentPeriod__Monitor__Time
 1A2B:051F       L__CurrentPeriod__Timer
 0075:17F9       L__CurrentProcess__MANAGER
 196F:01B9       L__DEALLOCATE__Storage
 1D98:06E9       L__DIBHeight__HiLevGraf
 1D98:06B5       L__DIBWidth__HiLevGraf
 217E:0002       L__DMEConvert__Int_DME
 0075:0CE1       L__DOIO__MANAGER
 0075:0CE1       L__DOIO__Scheduler__MANAGER
 53DE:0002       L__DOSAlloc__DOSMemory
 53DE:01B0       L__DOSAvail__DOSMemory
 53DE:00E3       L__DOSDeAlloc__DOSMemory
 53DE:0241       L__DOSGetMaxSize__DOSMemory
 53DE:01F0       L__DOSSetSize__DOSMemory
 2AD6:01B2       L__DP__Graphics
 2AD6:01B2       L__DP__InternalMonitor__Graphic
 0075:1A90       L__DUMMYPRO__MANAGER
 18F0:0076       L__D_Analiza__PI_Pomiar
 4DD6:0186       L__DalszeOdZera__Print
 2E17:011E       L__Data__HRD_Clock
 52C1:0102       L__DeAlloc__DynMem
 2C00:00EE       L__Deallocate__XMSService
 3C98:00F2       L__Deallocate__XMSTable
 0286:0966       L__DecADFFch__Tune
 2905:0006       L__DefaultError__Ini
 1A2B:04B5       L__DefinePeriod__Monitor__Timer
 1A2B:04B5       L__DefinePeriod__Timer
 2D9D:0612       L__DefineShortCut__ShortCuts
 2EF0:01CA       L__DeleteInpLine__InpLine
 2905:050E       L__DeleteSection__Ini
 2D9D:06DD       L__DeleteShortCut__ShortCuts
 2A23:046B       L__Delete__FIO
 51C6:014C       L__Delete__Strings
 3156:1488       L__DialogMouseHandle__Dialog
 2A23:0700       L__DirQuery__FIO
 4B0D:0453       L__DisAddSample__Marks
 4B0D:0041       L__DisResetContiner__Marks
 1AF7:0004       L__DisableDisplay__Messages
 32EC:1470       L__Disable__GList
 3FC1:04A7       L__DispResults__D_DisResults
 3E90:0E20       L__DispResults__V_DisResults
 1AF7:0181       L__Display__Messages
 2FC2:0AAB       L__DisposeButton__Buttons
 1AF7:0164       L__DisposeMessage__Messages
 1A2B:0A36       L__DisposeMetronome__Timer
 3D73:0708       L__DisposeSlupki__PI_ScrUtility
 1A2B:0B9B       L__DisposeWatchdog__Timer
 3E07:0647       L__Dispose__Slupek
 09AD:1755       L__Div__SpecConv
 1F94:0112       L__DoBeep__GrafUtil
 207E:045A       L__DoCommandRealPar__NAVGPIB
 2EF0:07B4       L__DoNothing__InpLine
 207E:0357       L__DoSimpleComm__NAVGPIB
 32EC:06B6       L__DodajDoListy__GList
 0ECB:07DE       L__DodajOblot__T_Inspekcja
 4C16:06F1       L__DoneSlupek__D_Slupek
 4BA1:06B3       L__DoneSlupek__V_Slupek
 14F9:36CD       L__Done__Screen
 3484:037F       L__Dopasuj__Obloty
 4C8F:1124       L__DrawText__DrawEpson
 3A21:03D7       L__Draw__Wykres
 1969:0002       L__Druk__PI_Drukuj
 1874:0062       L__DrukujBP__MouseMonitor__PI_A
 3484:1B8B       L__Dum_Stat_File_Monitor__Oblot
 3484:1B83       L__Dum_Stat_Size_Monitor__Oblot
 32EC:0020       L__DummyNotification__GList
 1A2B:0BFF       L__Dummy__Timer
 2A23:040B       L__EOF__FIO
 2FC2:0CC0       L__EnableButton__Buttons
 2FC2:0D4E       L__EnableDisableAllButtons__But
 1AF7:002E       L__EnableDisplay__Messages
 3156:167B       L__EnableDlg__Dialog
 32EC:1513       L__Enable__GList
 2EF0:0183       L__Enable__InpLine
 3156:15E7       L__EndDialog__Dialog
 0075:18E5       L__EnterProtectedOp__MANAGER
 401B:0F04       L__EnumEv__PiszEventy
 0ECB:0752       L__EnumObl__T_Inspekcja
 4DD6:0FE0       L__EvProc__Print
 2C4C:07F2       L__EventDispatcher__BezPrzerwan
 3CCE:055C       L__EventsMngInit__EventsMng
 50D7:0526       L__Execute__RTSMain
 1025:1DB9       L__ExistDIR__Files
 0075:18ED       L__ExitProtectedOp__MANAGER
 1025:20C9       L__FInterpolacja__Files
 09AD:08C0       L__Feed500Str__SpecConv
 2AD6:025A       L__FillRect__Graphics
 1D98:0F6C       L__FillRect__HiLevGraf
 2AD6:025A       L__FillRect__InternalMonitor__G
 218D:03DA       L__Filtr2Filters__FIltr1St
 218D:053F       L__FiltrB__FIltr1St
 218D:0199       L__Filtr__FIltr1St
 3CCE:02D5       L__FindNextEvent__EventsMng
 0B4D:01D6       L__FlagErr_Anal__FlagAnal
 52F3:0002       L__FlagReset__Mouse
 1D98:1268       L__FrameRect__HiLevGraf
 2BE9:0068       L__FreeExtMem__XMS
 3484:0E1A       L__FreeSlot__Obloty
 2BE9:0107       L__FreeUpperMemBlock__XMS
 4824:00AA       L__Free__Semafory
 48AC:0036       L__GPIBPresent__M_PGPIB
 06B3:0225       L__GPSReceive__GPSRead
 207E:081B       L__GS_Default__NAVGPIB
 30A0:07B3       L__GdzieJest__Mapa
 2206:0719       L__Geo2Kat__GeoArithmetic
 1025:264E       L__GetALfaRefFName__Files
 0D4E:0054       L__GetAnRes__D_results
 0BF2:005A       L__GetAnRes__V_results
 1C90:0187       L__GetAnalogVal__DGHInterface
 03F8:069A       L__GetAndCountTEODummy__Scanner
 03F8:0894       L__GetAndCountTEO__ScannerI
 2AD6:0191       L__GetBank__Graphics
 2AD6:0191       L__GetBank__InternalMonitor__Gr
 1C90:0226       L__GetBinaryVal__DGHInterface
 53A9:0000       L__GetBits__BitByteOps
 52F3:006E       L__GetButPres__Mouse
 52F3:00A0       L__GetButRel__Mouse
 1D98:115F       L__GetClip__HiLevGraf
 1025:2735       L__GetCommSigFName__Files
 32EC:1839       L__GetContents__GList
 1C90:002B       L__GetCurrDataSign__DGHInterfac
 06B3:02DA       L__GetCurrDataSign__GPSRead
 05A9:05AE       L__GetCurrDataSign__TheodolitRe
 52B5:0002       L__GetDeviceStatus__Devices
 515C:009B       L__GetDeviceStatus__RTSDevice
 3156:0006       L__GetDialogDIBHandle__Dialog
 2A23:05B5       L__GetDir__FIO
 06B3:029B       L__GetDirection__GPSRead
 1025:26C2       L__GetDisRefFName__Files
 3C98:01B7       L__GetElem__XMSTable
 236F:097E       L__GetErrReset__ErrorHand__Kali
 236F:097E       L__GetErrReset__Kalibracja
 3CCE:041A       L__GetEventInfo__EventsMng
 0C4D:0B34       L__GetFileName__D_Files
 2A23:0685       L__GetFileStamp__FIO
 2875:05C7       L__GetFrame__GPS_TRIMBLE
 2755:0CFB       L__GetFrame__GPS_nov
 03F8:0377       L__GetGPSSpread__ScannerI
 03F8:01B8       L__GetGPS__ScannerI
 48CB:0241       L__GetGSDev__NAVInterface
 48CB:0190       L__GetLocDev__NAVInterface
 50D7:0147       L__GetMessage__RTSMain
 37FA:1B29       L__GetNextAMark__DataCollect
 37FA:1AA3       L__GetNextDMark__DataCollect
 0B4D:0352       L__GetNextFrac__FlagAnal
 48CB:0022       L__GetOmnibearing__NAVInterface
 03F8:17D3       L__GetPilotEvent__ScannerI
 52F3:0037       L__GetPosBut__Mouse
 515C:0100       L__GetPrioMask__RTSDevice
 2905:035E       L__GetPrivateProfileString__Ini
 0596:0010       L__GetRecName__CommonTypes
 32EC:1819       L__GetRect__GList
 2C4C:0713       L__GetRegionRect__MMMouse
 3D73:084D       L__GetRegionWyk1__PI_ScrUtility
 3D73:0870       L__GetRegionWyk2__PI_ScrUtility
 3D73:08BE       L__GetRegionWyk3__PI_ScrUtility
 3D73:0812       L__GetRegionWykG__PI_ScrUtility
 2FC2:0D0E       L__GetRegion__Buttons
 32EC:1608       L__GetRegion__GList
 2EF0:0C4D       L__GetRegion__InpLine
 2C4C:06C2       L__GetRegion__MMMouse
 07F7:0D8E       L__GetResFileName__V_Files
 32EC:14F4       L__GetSelection__GList
 07F7:0D1B       L__GetSigFileName__V_Files
 3E07:0666       L__GetSlupRect__Slupek
 05A9:0600       L__GetTeoEvent__TheodolitRead
 2EF0:0388       L__GetText__InpLine
 05A9:0700       L__GetTheoI__TheodolitRead
 05A9:0654       L__GetTheoR__TheodolitRead
 0BBB:00C0       L__GetTimeAndDate__BezPrzerwan_
 0BBB:00C0       L__GetTimeAndDate__Czas
 0596:0055       L__GetTranName__CommonTypes
 3CCE:0366       L__GetUpdNextEvent__EventsMng
 2AD6:03B5       L__GetWindow__Graphics
 2AD6:03B5       L__GetWindow__InternalMonitor__
 2651:0002       L__GetWrBufLength__DigiRS
 0D95:0002       L__GlownyEP__PI_Glowny
 1025:1E3D       L__GoHomeDir__Files
 3156:123F       L__Go__Dialog
 2E17:00A1       L__Godzina__HRD_Clock
 09AD:1178       L__GorszeBoBlisze__SpecConv
 09AD:14AD       L__GorszeBoDalszeOdZera__SpecCo
 09AD:10E9       L__GorszeBoDalszeR__SpecConv
 09AD:1127       L__GorszeBoDalsze__SpecConv
 09AD:142B       L__GorszeBoMniejsze1500__SpecCo
 09AD:1368       L__GorszeBoMniejsze160__SpecCon
 09AD:146C       L__GorszeBoMniejsze2000__SpecCo
 09AD:1327       L__GorszeBoMniejsze300__SpecCon
 09AD:12A5       L__GorszeBoMniejsze400__SpecCon
 09AD:13A9       L__GorszeBoMniejsze5000__SpecCo
 09AD:13EA       L__GorszeBoMniejsze500__SpecCon
 09AD:12E6       L__GorszeBoMniejsze800__SpecCon
 09AD:1264       L__GorszeBoMniejszeM60__SpecCon
 09AD:11C9       L__GorszeBoMniejszePol__SpecCon
 4DD6:0159       L__GorszeBoMniejsze__Print
 09AD:120A       L__GorszeBoMniejsze__SpecConv
 09AD:1237       L__GorszeBoWieksze__SpecConv
 32EC:128C       L__HandleEvent__GList
 2C4C:00DF       L__HideConditionally__MMMouse
 2C4C:0BDE       L__HideCursor__BezWyszeregowani
 2C4C:0BDE       L__HideCursor__MMMouse
 52F3:002B       L__HideCursor__Mouse
 53A9:00D6       L__HighNibble__BitByteOps
 1A2B:06FC       L__IBMIntHandler__Monitor__Time
 0286:0881       L__ILSDecFch__Tune
 0286:0849       L__ILSIncFch__Tune
 0286:07EE       L__ILSfrqString__Tune
 3F88:014A       L__INCLine__DisResUtilities
 48AC:0017       L__IOCheck__M_PGPIB
 32EC:0A11       L__Idx2Str__GList
 401B:0A31       L__IleEventow__PiszEventy
 3484:0242       L__Ile__Obloty
 0286:093F       L__IncADFFch__Tune
 09AD:189B       L__IncRound__SpecConv
 1F94:00BB       L__InfoBeep__GrafUtil
 1F94:0003       L__Info__GrafUtil
 1F26:0072       L__Info__MsgBox
 441F:04E5       L__IniDataOrbit__D_DAcquizition
 4484:06B5       L__IniDataOrbit__V_DAcquizition
 441F:04FD       L__IniDataRadial__D_DAcquizitio
 4484:06CD       L__IniDataRadial__V_DAcquizitio
 2E3E:08E5       L__IniData__D_Odb
 1FB7:0A92       L__IniData__V_Odb
 4C16:04D4       L__IniSkale__D_Slupek
 3D73:07E5       L__IniSkale__PI_ScrUtility
 4BA1:047E       L__IniSkale__V_Slupek
 2875:082D       L__Inicjacja__GPS_TRIMBLE
 2755:0DCE       L__Inicjacja__GPS_nov
 4B0D:0636       L__InicjujOpisStanuLuku__Marks
 0905:0116       L__InicjujOpisStanuLuku__VORO_a
 4DD6:03D2       L__InitA__Print
 4DD6:0EC8       L__InitAll__Print
 4DD6:0821       L__InitB__Print
 0075:176C       L__InitC__MANAGER
 218D:024F       L__InitCont2Filters__FIltr1St
 218D:0598       L__InitContBCoun__FIltr1St
 218D:050E       L__InitContB__FIltr1St
 218D:00A2       L__InitCont__FIltr1St
 0B4D:02B3       L__InitFlagErr__FlagAnal
 3484:1A87       L__InitListaUrzadzen__Obloty
 0DA3:0D5A       L__InitLot__T_Oblot
 218D:0712       L__InitMemFIntContiner__FIltr1S
 218D:0689       L__InitMemFiltr__FIltr1St
 03F8:17B0       L__InitPilotEventId__ScannerI
 18F0:00C8       L__InitPomiar__PI_Pomiar
 139D:03EF       L__InitPomiar__Pomiar
 4C8F:11C0       L__InitPort__DrawEpson
 0075:1782       L__InitS__MANAGER
 0596:0098       L__InitSignalDsc__CommonTypes
 4C16:06B1       L__InitSlupek__D_Slupek
 4BA1:065B       L__InitSlupek__V_Slupek
 05A9:05DD       L__InitTeoEventId__TheodolitRea
 0D2E:00D6       L__Init_AvrDscr__MMA_Cout
 0D2E:000A       L__Init_MMA_SignalDsc__MMA_Cout
 3D73:078A       L__Init_ScrUtility__PI_ScrUtili
 0D4E:0150       L__Init__D_results
 14F9:1D6D       L__Init__Screen
 4824:01B0       L__Init__Semafory
 0BF2:03B4       L__Init__V_results
 0596:00B7       L__Init_flgTab__CommonTypes
 2C4C:0AC3       L__InsertEvent__BezPrzerwanOdMy
 2C4C:0AC3       L__InsertEvent__MMMouse
 51C6:0096       L__Insert__Strings
 0ECB:106A       L__InspekcjaEP__T_Inspekcja
 3484:1042       L__InspekcjeNowyWpis__Obloty
 19CB:0256       L__InstEpilogueHnd__Monitor__So
 19CB:0256       L__InstEpilogueHnd__SoftIntHand
 19CB:009A       L__InstPrologueHnd__Monitor__So
 19CB:009A       L__InstPrologueHnd__SoftIntHand
 52C1:0000       L__InstallDynMem__DynMem
 52B5:006A       L__InstallHandler__Devices
 515C:0000       L__InstallHandler__RTSDevice
 196F:03A3       L__InstallHeap__Storage
 50D7:007B       L__InstallInitProc__RTSMain
 0075:1815       L__InstallTermProc__MANAGER
 50D7:0001       L__InstallTermProc__RTSMain
 09AD:0A8D       L__Int1000Str__SpecConv
 09AD:0535       L__Int100StrCalk__SpecConv
 09AD:0411       L__Int100Str__SpecConv
 09AD:025D       L__Int10Str__SpecConv
 09AD:1948       L__Int2Card__SpecConv
 3A21:1F64       L__Int2Real__Wykres
 09AD:165C       L__Int2StrCntr__SpecConv
 09AD:01ED       L__Int2Str__SpecConv
 09AD:078F       L__Int500Str__SpecConv
 51F7:01B9       L__IntToString__NumberConversio
 1F07:0058       L__Intersection__GrafTypes
 2AD6:0593       L__InvertW__Graphics
 2AD6:0593       L__InvertW__InternalMonitor__Gr
 4C8F:120D       L__IsAborted__DrawEpson
 3156:17AC       L__IsBusy__Dialog
 4C8F:0322       L__IsDrawn__DrawEpson
 1F07:014B       L__IsEqual__GrafTypes
 2C4C:018A       L__IsHidden__MMMouse
 1F07:0002       L__IsIntersect__GrafTypes
 3C98:0039       L__IsValid__XMSTable
 3484:0A4B       L__KasujPodkartoteke__Obloty
 3484:068A       L__Kasuj__Obloty
 2206:0AEF       L__Kat2Geo__GeoArithmetic
 1AF7:03F9       L__KbdAck__Messages
 1AF7:0405       L__KbdDsp__Messages
 2D9D:05B8       L__KbdScan__ShortCuts
 53C7:0002       L__KeyPressed__Keyboard
 2D9D:0002       L__KeyPressed__ShortCuts
 536A:00D7       L__KeyPressed__Termbase
 534D:0002       L__KeyPressed__Terminal
 2D9D:0002       L__KeyPressed__monitor__ShortCu
 2EF0:03DC       L__Key__InpLine
 32EC:18E1       L__KillContents__GList
 2EF0:07C4       L__KillFocus__InpLine
 3156:0E94       L__KlawiszShiftTab__Dialog
 3156:0D8A       L__KlawiszSpacji__Dialog
 3156:0E12       L__KlawiszTab__Dialog
 2755:014D       L__KopijZnakZTeo__GPS_nov
 3484:15DB       L__KopiujInspekcje__Obloty
 3484:13F8       L__KopiujPodkartoteke__Obloty
 0C4D:0A48       L__KopiujWszystkiePliki__D_File
 1025:19D4       L__KopiujWszystkiePliki__Files
 07F7:0BEB       L__KopiujWszystkiePliki__V_File
 1025:016F       L__Kopiuj__Files
 14F9:0F7E       L__KursorLewoBP__Dialog__Screen
 14F9:0BC1       L__KursorLewoButton__Dialog__Sc
 14F9:0D49       L__KursorOnOffBP__Dialog__Scree
 14F9:0F54       L__KursorPrawoBP__Dialog__Scree
 14F9:0BDA       L__KursorPrawoPar__Dialog__Scre
 207E:06B0       L__LOC_Default__NAVGPIB
 2A23:0389       L__Length__FIO
 51C6:0000       L__Length__Strings
 3A21:1F01       L__LessCard__Wykres
 3A21:1EE5       L__LessInt__Wykres
 32EC:0B6F       L__LiczbaElementow__GList
 52F3:0194       L__LightPenOff__Mouse
 52F3:0188       L__LightPenOn__Mouse
 1D98:0B20       L__LineS__HiLevGraf
 1D98:1234       L__LineTo__HiLevGraf
 4C8F:06FE       L__Line__DrawEpson
 1D98:0AF4       L__Line__HiLevGraf
 1025:1BE4       L__LoadAResult__Files
 1D98:03A5       L__LoadDIB__HiLevGraf
 0C4D:0557       L__LoadData__D_Files
 1025:0CB2       L__LoadData__Files
 1956:0002       L__LoadData__PI_ArchDate
 07F7:0524       L__LoadData__V_Files
 3CCE:0519       L__LoadDistEvents__EventsMng
 364C:095E       L__LoadVorData1__V_Database
 364C:09D2       L__LoadVorData2__V_Database
 03F8:1725       L__LocationsTogether__ScannerI
 51F7:01FE       L__LongIntToString__NumberConve
 4999:0002       L__LookupM__Kl_FGenerators
 236F:0F88       L__Lookup__Kalibracja
 53A9:00E6       L__LowNibble__BitByteOps
 207E:096C       L__MKR_Default__NAVGPIB
 2AD6:000B       L__MaxHor__Graphics
 2AD6:0014       L__MaxVer__Graphics
 4C8F:00E9       L__MaxX__DrawEpson
 4C8F:00F8       L__MaxY__DrawEpson
 4DD6:01C3       L__MaxY__Print
 218D:06B5       L__MemFiltrInt__FIltr1St
 218D:0607       L__MemFiltr__FIltr1St
 0D2E:0124       L__MinMaxAvr__MMA_Cout
 0B4D:0513       L__MinPoczKonDis__FlagAnal
 0B4D:044F       L__MinPoczKonSig__FlagAnal
 2A23:0510       L__MkDir__FIO
 4C8F:11A6       L__Mnoznik__DrawEpson
 2FC2:07E1       L__MouseHandler__Buttons
 2C4C:1031       L__MouseLoop__MMMouse
 2BE9:008B       L__MoveExtMemBlock__XMS
 1F07:0100       L__MoveRect__GrafTypes
 1D98:121A       L__MoveTo__HiLevGraf
 09AD:1782       L__Mul__SpecConv
 0271:0029       L__MyErrorHand__ErrorMess
 0DA3:022D       L__NadajnikNaVor1__T_Oblot
 0DA3:02B8       L__NadajnikNaVor2__T_Oblot
 4C16:0264       L__NapiszSygnaly__D_Slupek
 3D73:076F       L__NapiszSygnaly__PI_ScrUtility
 4BA1:0234       L__NapiszSygnaly__V_Slupek
 3CCE:0252       L__NewConsoleEvent__EventsMng
 03F8:155E       L__NewDataAvailable__ScannerI
 3CCE:0037       L__NewEvent__EventsMng
 1AF7:010B       L__NewMessage__Messages
 1A2B:0940       L__NewMetronome__Timer
 3CCE:01CF       L__NewPilotEvent__EventsMng
 3CCE:014C       L__NewTeoEvent__EventsMng
 1A2B:0A94       L__NewWatchdog__Timer
 05A9:0ECB       L__NicNieRob__TheodolitRead
 2FC2:0B27       L__Nic__Buttons
 09A2:0002       L__NilDlaPOdleglosci__D_CommonT
 37FA:21D7       L__NilProc__DataCollect
 3E07:0695       L__Nil__Slupek
 1D98:10F4       L__NoClip__HiLevGraf
 525B:0032       L__NoSound__Sounds
 3E07:065C       L__Nothing__Slupek
 0075:0A58       L__Notify__MANAGER
 0075:0A58       L__Notify__Scheduler__MANAGER
 49EA:0E6A       L__NoweCzesciOkregu__Polozenie
 0ECB:0EC4       L__NowyOblot__T_Inspekcja
 18F0:00C0       L__NullPolV__PI_Pomiar
 51F7:028D       L__NumToString__NumberConversio
 2E3E:04CF       L__Oblicz__D_Odb
 1FB7:0434       L__Oblicz__V_Odb
 0ECB:0F13       L__OblotOK__T_Inspekcja
 502C:037E       L__Odn__PrintCntroll
 502C:0232       L__OkP__PrintCntroll
 236F:0E16       L__OmnibearingV__Kalibracja
 1025:27A8       L__OpenCommSigFName__Files
 0C4D:024D       L__OpenFiles__D_Files
 1025:0638       L__OpenFiles__Files
 07F7:0212       L__OpenFiles__V_Files
 0C4D:081C       L__OpenSignalFiles__D_Files
 1025:1096       L__OpenSignalFiles__Files
 07F7:07BC       L__OpenSignalFiles__V_Files
 4C8F:0670       L__Open__DrawEpson
 2A23:0002       L__Open__FIO
 3A21:1330       L__OpisLog__Wykres
 4DD6:0CF3       L__Opis__Print
 3A21:0B0C       L__Opis__Wykres
 0905:0082       L__OrbitDscClear__VORO_avrage
 12E2:07B7       L__Orbit__V_CP_ControlProc
 4C8F:03D3       L__Out__DrawEpson
 1F26:05C9       L__P0__MsgBox
 1F26:05EA       L__P1__MsgBox
 502C:03D5       L__P1__PrintCntroll
 1F26:060B       L__P2__MsgBox
 502C:03F6       L__P2__PrintCntroll
 1F26:062C       L__P3__MsgBox
 1874:00C0       L__PWyjscieZProgramuBP__MouseMo
 1874:014D       L__PageDownBP__MouseMonitor__PI
 1874:00EF       L__PageUpBP__MouseMonitor__PI_A
 401B:0D6B       L__PiszNaDrukarce__PiszEventy
 401B:0B99       L__PiszNaEkranie__PiszEventy
 0DA3:0383       L__PlayP__T_Oblot
 3721:02E6       L__PodajFormat__CocpDsp
 4C8F:01C6       L__Point__DrawEpson
 1D98:117A       L__Point__HiLevGraf
 4DD6:0CBF       L__Point__Print
 30A0:0545       L__PokazKatyLotu__Mapa
 3A21:09B4       L__PokazWykres1__Wykres
 3A21:1B1F       L__PokazWykresNSLog__Wykres
 3A21:14E2       L__PokazWykresNS__Wykres
 3A21:256B       L__PokazWykresZXms__Wykres
 3A21:0758       L__PokazWykres__Wykres
 4484:0002       L__PolV__V_DAcquizition
 139D:01F6       L__PolaryzacjaBP__Pomiar
 139D:0EC2       L__PomiarEP__Pomiar
 0DA3:0464       L__PomiarP__T_Oblot
 2E3E:071E       L__PoprawDane__D_Odb
 1FB7:063C       L__PoprawDane__V_Odb
 51C6:0188       L__Pos__Strings
 2FC2:0AE2       L__PressRadio__Buttons
 4DD6:1998       L__PrintScreenProc__Print
 0075:1629       L__PriorityDecrease__MANAGER
 0ECB:0472       L__ProbujWstawicOblot__T_Inspek
 30A0:06B6       L__Promienie__Mapa
 49EA:1084       L__Promienie__Polozenie
 1874:011E       L__PrzelaczPomiaryBP__MouseMoni
 139D:013E       L__PrzelaczPomiaryBP__Pomiar
 3C98:0142       L__PutElem__XMSTable
 2D9D:003B       L__PutKeyStrokeIntoBuffer__Shor
 2D9D:003B       L__PutKeyStrokeIntoBuffer__moni
 2BE9:0011       L__QueryFreeExtMem__XMS
 09AD:0C58       L__RAngle100__SpecConv
 32EC:0E9F       L__RChoose__GList
 32EC:0D8F       L__RScrollDn__GList
 32EC:0C76       L__RScrollUp__GList
 12E2:0329       L__Radial__V_CP_ControlProc
 3156:02EB       L__RadioBProc__Dialog
 486A:01A8       L__RandomCard__Random
 486A:00DE       L__RandomInit__Random
 486A:0245       L__RandomInt__Random
 486A:026A       L__RandomReal__Random
 486A:0385       L__Randomize__Random
 0DA3:0363       L__Raport_PROC__T_Oblot
 4507:135C       L__Raport__DMEPrint
 4653:1BB8       L__Raport__VORPrint
 2D9D:0104       L__Rd__ShortCuts
 2D9D:0104       L__Rd__monitor__ShortCuts
 4901:00BF       L__ReInitialize__ARINC
 534D:010A       L__ReadAgain__Terminal
 0C4D:08AC       L__ReadAllSignals__D_Files
 1025:1729       L__ReadAllSignals__Files
 07F7:0857       L__ReadAllSignals__V_Files
 1025:2833       L__ReadCommSigFName__Files
 4901:051B       L__ReadConfiguration__ARINC
 1025:0240       L__ReadDef__Files
 2A23:0346       L__ReadExt__FIO
 1025:16EA       L__ReadFlgs__Files
 52F3:013E       L__ReadMotionCounters__Mouse
 22E4:063C       L__ReadOmniber__DGH_utils
 4901:079E       L__ReadRXSlot__ARINC
 2651:007D       L__ReadString__DigiRS
 534D:0089       L__ReadString__Terminal
 4901:0637       L__ReadTXSlot__ARINC
 22E4:04A8       L__ReadValue__DGH_utils
 1025:1685       L__ReadXref__Files
 06B3:001A       L__Read_Nic__GPSRead
 06B3:002D       L__Read_Nov__GPSRead
 06B3:0177       L__Read_Trimble__GPSRead
 2A23:0301       L__Read__FIO
 53C7:0033       L__Read__Keyboard
 2D9D:008B       L__Read__ShortCuts
 536A:0088       L__Read__Termbase
 534D:000E       L__Read__Terminal
 2D9D:008B       L__Read__monitor__ShortCuts
 0DA3:054D       L__RealCisnValid__T_Oblot
 2683:06AC       L__RealToString__RealConversion
 0075:17E6       L__RecoveryTime__MANAGER
 441F:0361       L__RedrawMarksReq__D_DAcquiziti
 4484:051C       L__RedrawMarksReq__V_DAcquiziti
 441F:0312       L__RedrawReq__D_DAcquizition
 37FA:004E       L__RedrawReq__DataCollect
 4484:04CD       L__RedrawReq__V_DAcquizition
 37FA:004E       L__RedrawReq__tablice__DataColl
 3156:17EF       L__Redraw__Dialog
 14F9:03CA       L__RegionWyk1Button__Dialog__Sc
 14F9:037F       L__RegionWyk1Event__Dialog__Scr
 14F9:0464       L__RegionWyk2Button__Dialog__Sc
 14F9:0419       L__RegionWyk2Event__Dialog__Scr
 14F9:04FE       L__RegionWyk3Button__Dialog__Sc
 14F9:04B3       L__RegionWyk3Event__Dialog__Scr
 14F9:0323       L__RegionWykGButton__Dialog__Sc
 14F9:02D8       L__RegionWykGEvent__Dialog__Scr
 2C4C:019E       L__RegisterRegion__MMMouse
 4824:0120       L__Register__Semafory
 0075:1798       L__Release__MANAGER
 196F:0422       L__RemoveHeap__Storage
 0075:188B       L__RemoveTermProc__MANAGER
 2A23:0614       L__Rename__FIO
 37FA:2002       L__ResetDataCollect__DataCollec
 37FA:1A69       L__ResetMarks_A__DataCollect
 37FA:1A86       L__ResetMarks_D__DataCollect
 1A2B:09B7       L__ResetMetronome__Timer
 2BE9:00B2       L__ResizeExtMemBlock__XMS
 139D:0104       L__RestartBP__Pomiar
 441F:0092       L__Restart__D_DAcquizition
 441F:0092       L__Restart__Monitor__D_DAcquizi
 4484:0131       L__Restart__Monitor__V_DAcquizi
 4484:0131       L__Restart__V_DAcquizition
 19CB:0041       L__RestoreEventHandler__SoftInt
 52B5:004D       L__RestoreInterruptVector__Devi
 515C:00FB       L__RestoreInterruptVector__RTSD
 1A2B:08B3       L__RestoreTimer__Monitor__Timer
 2A23:056C       L__RmDir__FIO
 4F7F:070A       L__Roughness_AddSample__VORR_Av
 4F7F:0461       L__Roughness_ClearContainer__VO
 49EA:0E09       L__RresetCzesciOkregu__Polozeni
 0075:0892       L__SEND__MANAGER
 0075:0892       L__SEND__Scheduler__MANAGER
 03F8:0F36       L__SIMDATA__ScannerI
 0075:137C       L__STARTPROCESS__MANAGER
 37FA:1867       L__Samp2Dis__DataCollect
 37FA:1867       L__Samp2Dis__tablice__DataColle
 37FA:1968       L__Samp2Kat__DataCollect
 37FA:1968       L__Samp2Kat__tablice__DataColle
 37FA:0002       L__SampleNr__DataCollect
 37FA:0002       L__SampleNr__tablice__DataColle
 1025:1D15       L__SaveAResult__Files
 0D4E:0022       L__SaveAnRes__D_results
 0BF2:0028       L__SaveAnRes__V_results
 0C4D:02EF       L__SaveData__D_Files
 1025:09FD       L__SaveData__Files
 07F7:02B4       L__SaveData__V_Files
 3CCE:04AA       L__SaveDistEvents__EventsMng
 52B5:002C       L__SaveInterruptVector__Devices
 515C:00F6       L__SaveInterruptVector__RTSDevi
 236F:2A2F       L__SaveSegmentTables__Kalibracj
 14F9:35A5       L__ScreenStart__Screen
 2A23:026A       L__Seek__FIO
 4B0D:0806       L__SegZakonczony__Marks
 0905:0294       L__SegmentZakonczony__VORO_avra
 2EF0:0B2F       L__SetActive__InpLine
 1C90:02BB       L__SetAnalogVal__DGHInterface
 2AD6:0136       L__SetBank__Graphics
 2AD6:0136       L__SetBank__InternalMonitor__Gr
 2651:018F       L__SetBaudRate__DigiRS
 1C90:0392       L__SetBinaryVal__DGHInterface
 53A9:0018       L__SetBits__BitByteOps
 14F9:190A       L__SetButtons__Screen
 0286:0998       L__SetCPFlags__Tune
 32EC:1860       L__SetContents__GList
 52F3:005A       L__SetCursorPos__Mouse
 2EF0:09E5       L__SetCursor__InpLine
 0BBB:021B       L__SetDate__Czas
 52B5:0018       L__SetDeviceStatus__Devices
 515C:00BE       L__SetDeviceStatus__RTSDevice
 4C8F:1193       L__SetDir__DrawEpson
 03F8:14C3       L__SetEvalPROC__ScannerI
 52F3:0157       L__SetEventHandler__Mouse
 19CB:0002       L__SetEventHandler__SoftIntHand
 4C8F:085C       L__SetFont__DrawEpson
 52F3:00FA       L__SetGraphicCursor__Mouse
 52F3:00D2       L__SetHorizontalLimits__Mouse
 3721:058F       L__SetIdleMsg__CocpDsp
 1D98:0AE1       L__SetLineStyle__HiLevGraf
 1C90:04A0       L__SetMessage__DGHInterface
 52F3:01A0       L__SetMickeysPerPixel__Mouse
 32EC:0002       L__SetNotificationProc__GList
 2C4C:02C7       L__SetOnTop__MMMouse
 1D98:0182       L__SetPaletteEntry__HiLevGraf
 2C4C:0780       L__SetParent__MMMouse
 214C:0012       L__SetPressure__AltInterface
 515C:011F       L__SetPrioMask__RTSDevice
 32EC:1754       L__SetSelectionNotf__GList
 32EC:1772       L__SetSelection__GList
 52F3:01CE       L__SetSpeedThreshold__Mouse
 52F3:0127       L__SetTextCursor__Mouse
 4C8F:0849       L__SetTextMode__DrawEpson
 2EF0:02C9       L__SetText__InpLine
 0BBB:01DA       L__SetTime__Czas
 52F3:00E6       L__SetVerticalLimits__Mouse
 2AD6:0703       L__SetWindow__Graphics
 2AD6:0703       L__SetWindow__InternalMonitor__
 3719:0002       L__Set__FCBS
 4824:0002       L__Set__Semafory
 4C16:00DE       L__ShowCursorDIB__D_Slupek
 3D73:0053       L__ShowCursorDIB__PI_ScrUtility
 4BA1:00CB       L__ShowCursorDIB__V_Slupek
 2C4C:0BB2       L__ShowCursor__BezWyszeregowani
 2C4C:0BB2       L__ShowCursor__MMMouse
 52F3:001F       L__ShowCursor__Mouse
 1D98:0785       L__ShowDIB__HiLevGraf
 1AF7:0265       L__ShowFirst__Messages
 4C16:0092       L__ShowScreenDIB__D_Slupek
 3D73:0002       L__ShowScreenDIB__PI_ScrUtility
 4BA1:007F       L__ShowScreenDIB__V_Slupek
 1025:246E       L__SigInterpolacja__Files
 03F8:0ACE       L__Sim_Alfa__ScannerI
 03F8:098F       L__Sim_Dis__ScannerI
 3C98:0018       L__Size__XMSTable
 14F9:0E5D       L__SkalaMinusBP__Dialog__Screen
 14F9:0D66       L__SkalaPlusBP__Dialog__Screen
 3484:0B98       L__SkasujInspekcje__Obloty
 3484:078A       L__SkasujOblot__Obloty
 32EC:033D       L__SkasujWszystko__GList
 32EC:0387       L__Skasuj__GList
 32EC:1698       L__Sortowana__GList
 525B:0002       L__Sound__Sounds
 034B:0401       L__Sprawdz__PI_Qcheck
 2736:018D       L__Sqr__Math
 139D:00F4       L__StartBP__Pomiar
 12E2:09BD       L__StartCPLoop__V_CP_ControlPro
 07F7:0996       L__StartFileRes__V_Files
 3484:171F       L__StartInspection__Obloty
 30A0:0951       L__StartProcess__Mapa
 30A0:0951       L__StartProcess__monitor__Mapa
 1A2B:0AE2       L__StartProtectedOperation__Tim
 0075:17CC       L__StartTimeSlicing__MANAGER
 49EA:08FE       L__Start_Polozenie__Polozenie
 441F:0515       L__Start__D_DAcquizition
 2E3E:08B2       L__Start__D_Odb
 03F8:1588       L__Start__ScannerI
 4484:06E5       L__Start__V_DAcquizition
 1FB7:0A38       L__Start__V_Odb
 139D:012E       L__StopBP__Pomiar
 12E2:0A8A       L__StopCPLoop__V_CP_ControlProc
 07F7:0B62       L__StopFileRes__V_Files
 1A2B:0B56       L__StopProtectedOperation__Time
 49EA:0DD7       L__Stop_Polozenie__Polozenie
 441F:0034       L__Stop__D_DAcquizition
 441F:0034       L__Stop__Monitor__D_DAcquizitio
 4484:00D3       L__Stop__Monitor__V_DAcquizitio
 03F8:1783       L__Stop__ScannerI
 4484:00D3       L__Stop__V_DAcquizition
 51F7:0522       L__StringToCard__NumberConversi
 51F7:04BA       L__StringToInt__NumberConversio
 51F7:0587       L__StringToLongInt__NumberConve
 51F7:05B5       L__StringToNum__NumberConversio
 2683:0052       L__StringToReal__RealConversion
 09AD:0F4F       L__SubAng360__SpecConv
 09AD:0DA7       L__SubAngle100__SpecConv
 09AD:180D       L__SubDis__SpecConv
 09AD:10B3       L__SubNormal__SpecConv
 09AD:18A9       L__SubWCheck__SpecConv
 09AD:17DA       L__Sub__SpecConv
 1025:1F1C       L__SubstituteAngle100__Files
 0B4D:05D7       L__SumaDlugosciSig__FlagAnal
 53A9:00F4       L__Swap__BitByteOps
 3706:0002       L__SwitchTo__SwitchCntrl
 3484:051E       L__SzczegolowyPlikOpisu__Obloty
 1A2B:092C       L__TInOneSecond__Timer
 0259:009C       L__TerminalProcedure__DOSEntry
 50D7:068A       L__Terminate__RTSMain
 0BBB:02AF       L__Terminator__Czas
 3CCE:087E       L__Terminator__EventsMng
 2A23:08BA       L__Terminator__FIO
 2AD6:1059       L__Terminator__Graphics
 0075:1973       L__Terminator__MANAGER
 2C4C:133C       L__Terminator__MMMouse
 196F:051E       L__Terminator__Storage
 2C00:02F4       L__Terminator__XMSService
 0DA3:0343       L__TestUP_PROC__T_Oblot
 05A9:01B7       L__TheodolitView__TheodolitRead
 2AD6:001D       L__Tryb__Graphics
 0286:014C       L__TuneADF__Tune
 0286:061B       L__TuneDMEforILS__Tune
 0286:05D9       L__TuneDMEforVOR__Tune
 0286:0409       L__TuneILS__Tune
 0286:065D       L__TuneVOR__Tune
 22E4:0432       L__TurnOffADFSig__DGH_utils
 0286:009C       L__TurnOffADF__Tune
 22E4:0366       L__TurnOffDMESig__DGH_utils
 22E4:0002       L__TurnOffILSSig__DGH_utils
 22E4:027A       L__TurnOffVORSig__DGH_utils
 0286:00F4       L__TurnOffVOR_ILS__Tune
 1C90:00A0       L__TurnOff__DGHInterface
 22E4:03E4       L__TurnOnADFSig__DGH_utils
 22E4:02E8       L__TurnOnDMESig__DGH_utils
 22E4:016E       L__TurnOnGSSig__DGH_utils
 22E4:00D0       L__TurnOnLOCSig__DGH_utils
 22E4:020C       L__TurnOnVORSig__DGH_utils
 1C90:00F2       L__TurnOn__DGHInterface
 3156:0663       L__TworzDialog__Dialog
 401B:0A53       L__TworzEventy__PiszEventy
 32EC:0028       L__TworzListe__GList
 536A:0127       L__UnAssignRead__Termbase
 536A:023E       L__UnAssignWrite__Termbase
 19CB:0517       L__UnInstallAllHandlers__Monito
 19CB:03FA       L__UnInstallHandler__Monitor__S
 19CB:03FA       L__UnInstallHandler__SoftIntHan
 52B5:0080       L__UninstallHandler__Devices
 515C:0058       L__UninstallHandler__RTSDevice
 2FC2:0790       L__UniversalKBD__Buttons
 3D73:024B       L__UniversalLAB__PI_ScrUtility
 3D73:015B       L__UniversalLAF__PI_ScrUtility
 3D73:02C3       L__UniversalLBB__PI_ScrUtility
 3D73:01D3       L__UniversalLBF__PI_ScrUtility
 3D73:029B       L__UniversalPAB__PI_ScrUtility
 3D73:01AB       L__UniversalPAF__PI_ScrUtility
 3D73:0313       L__UniversalPBB__PI_ScrUtility
 3D73:0223       L__UniversalPBF__PI_ScrUtility
 3D73:0273       L__UniversalSAB__PI_ScrUtility
 3D73:0183       L__UniversalSAF__PI_ScrUtility
 3D73:02EB       L__UniversalSBB__PI_ScrUtility
 3D73:01FB       L__UniversalSBF__PI_ScrUtility
 2C4C:03E9       L__UnregisterRegion__MMMouse
 4824:01FC       L__Unregister__Semafory
 4C16:011C       L__UnverslVal__D_Slupek
 4BA1:0109       L__UnverslVal__V_Slupek
 37FA:2171       L__UpdTab800__DataCollect
 49EA:0C2C       L__UpdateM__Polozenie
 441F:038E       L__UpdateMarksOrbit__D_DAcquizi
 4484:0549       L__UpdateMarksOrbit__V_DAcquizi
 441F:03F1       L__UpdateMarksRadial__D_DAcquiz
 4484:05AC       L__UpdateMarksRadial__V_DAcquiz
 3D73:06A1       L__UpdateSlupki__PI_ScrUtility
 3CCE:060A       L__UpdateStrefa__EventsMng
 14F9:34A4       L__Update__Screen
 3E07:058F       L__Update__Slupek
 502C:0417       L__UstalSkalowanie__PrintCntrol
 3721:0002       L__UstawFormat__CocpDsp
 3484:01EB       L__UstawHomeDir__Obloty
 218D:0082       L__UstawOkresImpulsowania__FIlt
 3721:0315       L__UstawZmienne__CocpDsp
 3156:0B28       L__UsunDialog__Dialog
 32EC:04C1       L__UsunListe__GList
 0ECB:0423       L__UsunOblotP__T_Inspekcja
 0ECB:0388       L__UsunOblot__T_Inspekcja
 0286:08FF       L__VORDecFch__Tune
 0286:08B9       L__VORIncFch__Tune
 207E:04FA       L__VOR_Default__NAVGPIB
 18F0:0022       L__V_Analiza__PI_Pomiar
 502C:0248       L__ValidPodz__PrintCntroll
 0DA3:03A3       L__View_PROC__T_Oblot
 0075:0BEF       L__WAITC__MANAGER
 0075:0BEF       L__WAITC__Scheduler__MANAGER
 0075:0AFD       L__WAITS__MANAGER
 0075:0AFD       L__WAITS__Scheduler__MANAGER
 1A2B:0309       L__WaitBefProtOper__Monitor__Ti
 1A2B:0309       L__WaitBefProtOper__Timer
 1C90:005A       L__WaitForNewData__DGHInterface
 1A2B:03B8       L__WaitMetronomeBefProtOper__Mo
 1A2B:03B8       L__WaitMetronomeBefProtOper__Ti
 1A2B:043F       L__WaitMetronome__Monitor__Time
 1A2B:043F       L__WaitMetronome__Timer
 1A2B:0277       L__Wait__Monitor__Timer
 1A2B:0277       L__Wait__Timer
 1F26:0017       L__Warn__MsgBox
 3721:0C01       L__WatchDogProcess__CocpDsp
 06B3:0309       L__WatchDog__GPSRead
 05A9:0DF1       L__WatchDog__TheodolitRead
 2AC8:0069       L__WorseBGreater__WorseBecause
 2AC8:003E       L__WorseBLessDis__WorseBecause
 2AC8:0002       L__WorseBLess__WorseBecause
 1D98:144C       L__Wr2StrXY__HiLevGraf
 1D98:1504       L__Wr2fStrXY__HiLevGraf
 3F88:02AF       L__WrF_TablicaOdci__DisResUtili
 4DD6:1799       L__WrF_TablicaOdci__Print
 3F88:0170       L__WrFlagsTableWHeading__DisRes
 4DD6:15A6       L__WrFlagsTableWHeading__Print
 3F88:023C       L__WrFlagsTable__DisResUtilitie
 4DD6:16BA       L__WrFlagsTable__Print
 4DD6:0360       L__WrLn__Print
 4DD6:0390       L__WrPrnLn__Print
 4DD6:02A2       L__WrPrn__Print
 4C8F:1253       L__WrProc__DrawEpson
 3F88:00F4       L__WrSPlus__DisResUtilities
 3F88:00BE       L__WrS__DisResUtilities
 1D98:138A       L__WrStrXY__HiLevGraf
 1D98:12D2       L__WrStr__HiLevGraf
 4DD6:0232       L__Wr__Print
 4901:04B2       L__WriteCardMode__ARINC
 07F7:0AF8       L__WriteFileRes__V_Files
 4901:03F4       L__WriteKillTime__ARINC
 534D:012C       L__WriteLn__Terminal
 2905:06C6       L__WritePrivateProfileString__I
 2651:00F3       L__WriteString__DigiRS
 534D:013B       L__WriteString__Terminal
 4901:0173       L__WriteTXChannel__ARINC
 4901:026F       L__WriteTXData__ARINC
 4901:01F1       L__WriteTXLabel__ARINC
 4901:00FF       L__WriteTXParity__ARINC
 4901:032A       L__WriteTXRate__ARINC
 3FC1:00B4       L__WriteTab__D_DisResults
 3F88:000A       L__WriteTab__DisResUtilities
 3E90:0220       L__WriteTab__V_DisResults
 0BBB:0128       L__WriteTime__Czas
 53BD:0002       L__Write__Display
 2A23:02BC       L__Write__FIO
 536A:01F1       L__Write__Termbase
 534D:011B       L__Write__Terminal
 1C90:0CCB       L__Writer__DGHInterface
 3156:002D       L__WstawButton__Dialog
 32EC:08C9       L__WstawDoListy__GList
 3156:03EC       L__WstawInpLine__Dialog
 3156:0518       L__WstawListe__Dialog
 3156:0156       L__WstawRadioButton__Dialog
 32EC:100F       L__Wybor__GList
 3D73:0545       L__WykSlup__PI_ScrUtility
 14F9:0B48       L__WykrEvent__Dialog__Screen
 3E07:0002       L__WykresSlupkowy__Slupek
 3484:041D       L__WymInspekcjeDlaUrz__Obloty
 0ECB:077C       L__WymienPasujaceObloty__T_Insp
 3484:04E4       L__WymienWszystkiePasujace__Obl
 4DD6:183C       L__WypiszStrefy__Print
 2E3E:08D5       L__Wznow__D_Odb
 1FB7:0A75       L__Wznow__V_Odb
 2BE9:0000       L__XmsInstalled__XMS
 09AD:197A       L__ZaokraglicDo500__SpecConv
 1874:0091       L__ZapamietajBP__MouseMonitor__
 0DA3:1021       L__Zapisz__T_Oblot
 2E3E:08C5       L__Zatrzymaj__D_Odb
 1FB7:0A58       L__Zatrzymaj__V_Odb
 3484:06B2       L__ZmienISkasuj__Obloty
 32EC:0AC4       L__ZmienListe__GList
 0ECB:0488       L__ZmienOblot__T_Inspekcja
 4DD6:12D3       L__ZnacznikiOdleglosci__Print
 3484:0FF8       L__ZnajdzInspekcje__Obloty
 2AD6:0CF3       L___Wr16StrXY__Graphics
 2AD6:0CF3       L___Wr16StrXY__InternalMonitor_
 2AD6:0DC9       L___Wr2StrXY__Graphics
 2AD6:0DC9       L___Wr2StrXY__InternalMonitor__
 2AD6:0F13       L___Wr2fStrXY__Graphics
 2AD6:0F13       L___Wr2fStrXY__InternalMonitor_
 2AD6:08E1       L___WrStrXY__Graphics
 2AD6:08E1       L___WrStrXY__InternalMonitor__G
 1025:1F61       L__addAngle100__Files
 1025:203F       L__addNormal__Files
 540A:04CA       L__arctan__MathLib0
 19CB:0067       L__checkBreak__SoftIntHandlingM
 540A:03A5       L__cos__MathLib0
 09AD:14EA       L__entierCheck__SpecConv
 540A:05BE       L__entier__MathLib0
 09AD:15A6       L__entier__SpecConv
 540A:0098       L__exp__MathLib0
 2755:109C       L__gpzdaOff__GPS_nov
 48AC:009E       L__ieabort__M_PGPIB
 48AC:00BE       L__iedevclr__M_PGPIB
 48AC:01AA       L__iedevice__M_PGPIB
 48AC:008D       L__ieenter__M_PGPIB
 48AC:0188       L__ieentera__M_PGPIB
 48AC:00AD       L__ieeol__M_PGPIB
 48AC:006B       L__ieinit__M_PGPIB
 48AC:00CF       L__iello__M_PGPIB
 48AC:00DE       L__ielocal__M_PGPIB
 48AC:0199       L__ieouta__M_PGPIB
 48AC:007C       L__ieoutput__M_PGPIB
 48AC:00EF       L__ieppoll__M_PGPIB
 48AC:0100       L__ieppollc__M_PGPIB
 48AC:0111       L__ieppollu__M_PGPIB
 48AC:0122       L__ieremote__M_PGPIB
 48AC:0133       L__iesend__M_PGPIB
 48AC:0144       L__iespoll__M_PGPIB
 48AC:0155       L__iestatus__M_PGPIB
 48AC:0166       L__ietimout__M_PGPIB
 48AC:0177       L__ietrig__M_PGPIB
 32EC:0B8E       L__kbHandler__GList
 540A:0209       L__ln__MathLib0
 4DD6:01DE       L__log__Print
 0259:0002       L__onEntryHandler__DOSEntry
 0259:004F       L__onExitHandler__DOSEntry
 540A:05AC       L__real__MathLib0
 540A:0251       L__sin__MathLib0
 1B42:1383       L__sprintf2__StdIO
 1B42:11F3       L__sprintf3__StdIO
 1B42:0D80       L__sprintf4__StdIO
 1B42:0F81       L__sprintf5__StdIO
 1B42:037B       L__sprintf__StdIO
 540A:002A       L__sqrt__MathLib0
 1025:1FCB       L__subNormal__Files
 5B3A:0062       L_day__GPS_TRIMBLE
 5B3A:0049       L_epe__GPS_TRIMBLE
 5B3A:0066       L_hour__GPS_TRIMBLE
 5B3A:0068       L_min__GPS_TRIMBLE
 5B3A:0060       L_month__GPS_TRIMBLE
 5B3A:006A       L_sec__GPS_TRIMBLE
 5B3A:0064       L_year__GPS_TRIMBLE
 5550:0016       LastCreated__MANAGER
 596B:0027       LastDTidx__Screen
 5B42:507D       LastDir__Ini
 596B:002E       LastEventIDX__Screen
 5550:021C       LastMask__MANAGER
 747F:0784       LastPosition__DrawEpson
 598E:000A       LastPosition__HiLevGraf
 612A:0004       LastX__MMMouse
 612A:0006       LastY__MMMouse
 55A1:0013       Last_Diffmode__GPSRead
 55A1:001C       Last_EPE__GPSRead
 55A1:0003       Last_Gdop__GPSRead
 55A1:0005       Last_NumberOfSattelites__GPSRea
 55A1:0007       Last_polGeo__GPSRead
 55A1:0014       Last_tog__GPSRead
 59A4:039E       Line__NAVGPIB
 617A:0000       ListaDlg__Dialog
 590D:0011       ListaLokalizacjiBAK__T_Inspekcj
 590D:000D       ListaLokalizacji__T_Inspekcja
 590D:0009       ListaOblotowBAK__T_Inspekcja
 590D:0005       ListaOblotow__T_Inspekcja
 617B:0004       Lista__GList
 5172:006F       Listen__RTSPriority
 59ED:0910       LocDev_delay__Kalibracja
 59ED:0920       LocPrcMod_delay__Kalibracja
 50C7:0032       LongIntegerOvf__RTSError
 5550:000E       LongestProcess__MANAGER
 50D7:0683       M2Halt__RTSMain
 598A:0004       MDispl__Messages
 598A:0000       MList__Messages
 612A:03F5       MSemafor__MMMouse
 7454:011F       MarkerShapes__Polozenie
 747F:0786       Masks__DrawEpson
 5550:000A       MaxNumOfReady__MANAGER
 5550:0126       MaxRecTime__MANAGER
 5550:000C       MaxRunTime__MANAGER
 7454:0008       MaxVal__Polozenie
 616D:0016       Mem__D_Odb
 598A:0008       MessageSound__Messages
 59ED:0960       MkrAgc_delay__Kalibracja
 747F:07A4       MnX__DrawEpson
 747F:07A6       MnY__DrawEpson
 5B42:50E1       Modified__Ini
 5172:0000       MonEntry__RTSPriority
 5172:0043       MonExit__RTSPriority
 612A:0058       MonitoCheck__BezPrzerwanOdMyszy
 54C2:0036       MonitorExitProc__RTSMonExit
 612A:005A       MouseEvent__BezPrzerwanOdMyszy_
 7438:008C       NAVG_AFlg__VORPrint
 7438:0088       NAVG_flg__VORPrint
 7438:008E       NAVZ_AFlg__VORPrint
 7438:008A       NAVZ_flg__VORPrint
 7454:011B       NCO__Polozenie
 50BB:0000       NMIServer
 617C:00D5       NUrzadzDlaDopasuj__Obloty
 413F:1D2C       N__AddAvrArr__AnalizujWynikiNaL
 413F:1CB4       N__AddAvrDscr__AnalizujWynikiNa
 413F:1E13       N__AddDevAvrArr__AnalizujWyniki
 0905:0528       N__AddSample__AVR10_AddSample__
 139D:0B92       N__AlfaRefInfo__PomiarEP__Pomia
 2755:05E2       N__An_Frame_DOPA__GetFrame__GPS
 2755:0A2D       N__An_Frame_GPGGA__GetFrame__GP
 2755:0B25       N__An_Frame_GPVTG__GetFrame__GP
 2755:0C2E       N__An_Frame_GPZDA__GetFrame__GP
 413F:1EF7       N__AnalizujWynikiNaLuku__O_Anal
 05A9:0107       N__Angle360__TheodolitView__The
 0DA3:079C       N__AssignButt__InitLot__T_Oblot
 0C4D:0BA7       N__AssignName__InitLocals__D_Fi
 07F7:0E01       N__AssignName__InitLocals__V_Fi
 413F:09B3       N__AssignPolRes__R_Analiza__Ana
 05A9:086F       N__AssignRes__Analizer__Theodol
 3A21:0B8B       N__AutoFormat__OpisLog__Wykres
 1B42:031F       N__BuildNumber__sprintf__StdIO
 2C4C:08F0       N__Button2Ev__GetEvent__BezPrze
 1C90:06B0       N__CHKSRight__Reader__Writer__D
 43AB:011E       N__ClearAllCont__DoAnaliza__Ana
 413F:1B1B       N__ClearAllCont__O_Analiza__Ana
 413F:0D43       N__ClearAllCont__R_Analiza__Ana
 0BF2:0102       N__ClearAnRes__Init__V_results
 413F:07FD       N__ClearAvrArr__Analiza__V_Coun
 413F:0888       N__ClearDevAvrArr__Analiza__V_C
 413F:1A68       N__ClearDevOAvr__O_Analiza__Ana
 0286:052E       N__ConvertFrqTOControlWord__Tun
 2755:0193       N__ConvertHexChar__ReadGPS__Get
 2755:0929       N__ConvertStrToWspGeo__GetWspGe
 413F:01F8       N__CountAv__Analiza__V_Count
 413F:0F9F       N__CountBends__R_Analiza__Anali
 05A9:097D       N__CountCrc__Analizer__Theodoli
 413F:00EA       N__CountDev__Analiza__V_Count
 30A0:0260       N__CountMaxDist__resolveSituati
 43AB:01A8       N__CountResult__DoAnaliza__Anal
 4F7F:007A       N__Count__Bend_AddSample__VORR_
 1A2B:057E       N__Count__IBMIntHandler__Monito
 4F7F:0511       N__Count__Roughness_AddSample__
 14F9:0FD7       N__CurrCursorMode__RuszKursor__
 14F9:1236       N__CurrDistance__OpisDla__InitW
 139D:0C3F       N__DataLosInfo__PomiarEP__Pomia
 2FC2:043F       N__Dec__DrawInter__Buttons
 14F9:1B5E       N__Define__InitSlupki__Screen
 2755:0426       N__DekomozycjaRamki__GetFrame__
 139D:0BD2       N__DeltaRefInfo__PomiarEP__Pomi
 139D:0B16       N__DisposeButtons__Done__Pomiar
 14F9:3664       N__DisposeButtons__Done__Screen
 43AB:0235       N__DoAnaliza__Analiza__D_Count
 139D:0B84       N__Done__PomiarEP__Pomiar
 14F9:20D1       N__DrawEvent__ShowMarks__Update
 3484:0DD3       N__ExistDIR__FreeSlot__Obloty
 3156:0F3F       N__Expand__Aktywizuj__Dialog
 0DA3:0B50       N__FillData__InitLot__T_Oblot
 3E07:0317       N__FillR__Odswiez__Update__Slup
 03F8:1450       N__FindFree__SetEvalPROC__Scann
 03F8:13C4       N__FindIt__SetEvalPROC__Scanner
 49EA:0120       N__FlipX__InitMarkers__Polozeni
 49EA:005A       N__FlipY__InitMarkers__Polozeni
 2755:0538       N__GetCardinal__GetFrame__GPS_n
 364C:0A1B       N__GetCardinal__LoadProgramPar_
 2D9D:056C       N__GetChar__KbdScan__ShortCuts
 43AB:008A       N__GetEvent__DoAnaliza__Analiza
 139D:0767       N__GetEvent__PomiarEP__Pomiar
 413F:0912       N__GetEvent__R_Analiza__Analiza
 30A0:0151       N__GetGPS__resolveSituation__Ma
 2755:058D       N__GetInteger__GetFrame__GPS_no
 05A9:09A8       N__GetNum__Analizer__TheodolitR
 1B42:0022       N__GetNum__sprintf__StdIO
 2755:04F0       N__GetReal__GetFrame__GPS_nov
 364C:01BC       N__GetStr__LoadVorData__V_Datab
 03F8:06AF       N__GetTeo__GetAndCountTEO__Scan
 2755:09E3       N__GetWspGeo__An_Frame_GPGGA__G
 3A21:1FA0       N__GetX__PokazWykresZXms__Wykre
 3A21:1FC9       N__GetY__PokazWykresZXms__Wykre
 1C90:065C       N__HexDigit__CHKSRight__Reader_
 413F:19FF       N__Ini_T_WynikAnalizyOrbita__O_
 139D:08A5       N__InitButtony__PomiarEP__Pomia
 0DA3:063D       N__InitDefault__InitLot__T_Oblo
 4484:0266       N__InitEvent__Acquire__V_DAcqui
 0D4E:00FF       N__Init_MMA_SignalDscArr__Init_
 1B42:00C8       N__IntConv__sprintf__StdIO
 4507:089A       N__IntFrac__WrSignalDesc__OpisP
 43AB:05BB       N__Interpolacja__Analiza__D_Cou
 413F:249B       N__Interpolacja__Analiza__V_Cou
 2755:06A2       N__Isolate__ConvertStrToWspGeo_
 2875:01D7       N__Isolate__ReadG__GetFrame__GP
 3484:09B5       N__KasujPlik__KasujPodkartoteke
 14F9:35AE       N__KasujSlupki__Done__Screen
 2FC2:0A36       N__KillButton__DisposeButton__B
 2D9D:0691       N__Kill__DeleteShortCut__ShortC
 3E07:02EE       N__Kolor__Update__Slupek
 3484:11EB       N__KopiujPlik__KopiujPodkartote
 49EA:0A88       N__LL__DrawNCO__Polozenie
 3A21:1024       N__LineH__OpisLog__Wykres
 3A21:0C63       N__LineV__OpisLog__Wykres
 236F:17D7       N__LoadChannel__LoadSegmentTabl
 236F:15EC       N__LoadReal__LoadSegmentTables_
 236F:1719       N__LoadSegment__LoadChannel__Lo
 236F:1673       N__LoadTable__LoadSegmentTables
 236F:14D4       N__LoadValue__LoadSegmentTables
 236F:09FA       N__Lookup__OmnibearingV__Kalibr
 4507:03E8       N__MakeHeader__Raport__DMEPrint
 14F9:2CA3       N__MarkDraw__WskazWykresy__Upda
 30A0:0696       N__Min__Promienie__Mapa
 14F9:2D80       N__NapiszGPSFlg__NapiszGPS__Upd
 14F9:2DE6       N__NapiszGPS__UpdateNapisy__Upd
 14F9:30F6       N__NapiszTEO__UpdateNapisy__Upd
 139D:06EF       N__NastepnyStan__GetEvent__Pomi
 413F:2036       N__O_Analiza__Analiza__V_Count
 0905:08B9       N__O_AvrCountErr__AVR10_AddSamp
 03F8:0E64       N__OdlegWgPredk__SIMDATA__Scann
 3E07:036C       N__Odswiez__Update__Slupek
 1D98:030F       N__OpenF__LoadDIB__HiLevGraf
 4507:0638       N__OpisBleduDME__OpisPomiaru__R
 14F9:13D2       N__OpisDla__InitWykr__Dialog__S
 4507:0B08       N__OpisPomiaru__Raport__DMEPrin
 12E2:05DE       N__OrbitDirection__Orbit__V_CP_
 413F:1C26       N__PodstawWynikNaLuku__O_Analiz
 2875:0509       N__PodstawWyniki__GetFrame__GPS
 413F:0CD7       N__Pol_AddSample__R_Analiza__An
 4653:07B7       N__Pomiar2Str__OpisPomiaru__VOR
 139D:05EF       N__PoprawnieUstawButtony__Pomia
 3721:077A       N__PozWskazowki__SetLOC_G_SCP__
 4507:0C40       N__Print__Raport__DMEPrint
 139D:0C88       N__PrologAnalyse__PomiarEP__Pom
 4507:03C9       N__PromienANieOrbita__Raport__D
 413F:1159       N__R_Analiza__Analiza__V_Count
 12E2:0149       N__RadialDirection__Radial__V_C
 05A9:0915       N__Rd__Analizer__TheodolitRead
 0C4D:0516       N__Rd__LoadData__D_Files
 07F7:04DB       N__Rd__LoadData__V_Files
 03F8:0DD2       N__ReadALT__SIMDATA__ScannerI
 22E4:0480       N__ReadAnalog__ReadValue__DGH_u
 2E3E:01EF       N__ReadDME__Oblicz__D_Odb
 03F8:0C76       N__ReadDME__SIMDATA__ScannerI
 413F:1B68       N__ReadData__O_Analiza__Analiza
 2875:006A       N__ReadEOL__GetFrame__GPS_TRIMB
 2875:00C9       N__ReadGPS__GetFrame__GPS_TRIMB
 2755:0200       N__ReadGPS__GetFrame__GPS_nov
 2875:0306       N__ReadG__GetFrame__GPS_TRIMBLE
 1FB7:002A       N__ReadNAV__Oblicz__V_Odb
 2875:0021       N__ReadPacketHead__GetFrame__GP
 2E3E:001A       N__ReadSimul__ReadDME__Oblicz__
 1C90:07A4       N__Reader__Writer__DGHInterface
 14F9:0BF3       N__RedrawRqs__Xchg__Dialog__Scr
 2FC2:0052       N__Remove__RemoveToKill__MONITO
 2D9D:01A0       N__Remove__RemoveToKill__monito
 49EA:0226       N__Rot90__InitMarkers__Polozeni
 49EA:0EEE       N__Rysuj__Promienie__Polozenie
 236F:243E       N__SaveChannel__SaveSegmentTabl
 0DA3:073A       N__SaveDefault__InitLot__T_Oblo
 236F:2293       N__SaveReal__SaveSegmentTables_
 236F:23A0       N__SaveSegment__SaveChannel__Sa
 236F:230E       N__SaveTable__SaveSegmentTables
 236F:219B       N__SaveValue__SaveSegmentTables
 139D:015F       N__Sek2__PolaryzacjaBP__Pomiar
 3721:05AF       N__SendMsg__ControlLoop__CocpDs
 0ECB:0FC0       N__SetDefInsp__InspekcjaEP__T_I
 3721:0823       N__SetLOC_G_SCP__ControlLoop__C
 14F9:1AFD       N__ShowCurrDIB__InitSlupki__Scr
 14F9:22B6       N__ShowMarks__UpdateWykr__Updat
 37FA:034B       N__ShrinkX__Tablice800__tablice
 37FA:0219       N__Shrink__Tablice800__tablice_
 0905:0495       N__Side__AddSample__AVR10_AddSa
 4B0D:010A       N__Side__AngAddSample__Marks
 4B0D:0423       N__Side__DisAddSample__Marks
 413F:010B       N__SigMaxAvr__Analiza__V_Count
 3A21:17B3       N__SkalX__PokazWykresNSLog__Wyk
 3A21:222D       N__SkalX__PokazWykresZXms__Wykr
 3A21:062B       N__SkalX__PokazWykres__Wykres
 3A21:0101       N__SkalY__Draw__Wykres
 3A21:0853       N__SkalY__PokazWykres1__Wykres
 3A21:1546       N__SkalY__PokazWykresNSLog__Wyk
 3A21:1FF2       N__SkalY__PokazWykresZXms__Wykr
 3A21:052F       N__SkalY__PokazWykres__Wykres
 3E07:0229       N__Skala__Update__Slupek
 236F:143A       N__Status__Error__Kalibracja
 1B42:023F       N__StripSpaces__sprintf__StdIO
 034B:015E       N__Tlo__Sprawdz__PI_Qcheck
 2905:018F       N__ToEOL__LookForEntry__Ini
 0286:0303       N__TuneGS__TuneILS__Tune
 03F8:0C27       N__TurnDGH_ON__SIMDATA__Scanner
 1025:1965       N__TworzK__KopiujWszystkiePliki
 2875:03CB       N__TypGPS__GetFrame__GPS_TRIMBL
 37FA:20FA       N__UpdateAlfaMarks__UpdTab800__
 37FA:2092       N__UpdateDistMarks__UpdTab800__
 37FA:0152       N__UpdateNR__Tablice800__tablic
 14F9:3357       N__UpdateNapisy__Update__Screen
 14F9:2485       N__UpdateWykr__Update__Screen
 0B4D:0010       N__UsunNajmniejszy__FlagErr_Ana
 3156:0A79       N__UsunPola__UsunDialog__Dialog
 32EC:02FB       N__UsunStr__SkasujWszystko__GLi
 4653:05C6       N__Wr4Signals__OpisPomiaru__VOR
 034B:0230       N__WrInt__Sprawdz__PI_Qcheck
 034B:0305       N__WrPrc__Sprawdz__PI_Qcheck
 4507:0533       N__WrSignalDesc__OpisBleduDME__
 4507:098B       N__WrSignalDesc__OpisPomiaru__R
 4653:0718       N__WrSignalDesc__OpisPomiaru__V
 4507:05D9       N__WrSignalInt__OpisBleduDME__O
 32EC:107D       N__WrStr__Draw__GList
 401B:0AA6       N__WrStr__PiszNaEkranie__PiszEv
 034B:01C7       N__WrStr__Sprawdz__PI_Qcheck
 3E90:03F7       N__WriteBends__DispResults__V_D
 3E90:0B25       N__WriteDevOrbit__DispResults__
 3E90:05DF       N__WriteDev__DispResults__V_Dis
 3E90:0DA2       N__WriteFlgAndLowSignal__DispRe
 4653:0936       N__WriteFlgAndLowSignal__OpisPo
 3FC1:027A       N__WriteMod__DispResults__D_Dis
 3E90:0861       N__WriteMod__DispResults__V_Dis
 14F9:1F5F       N__WriteText__ShowMarks__Update
 14F9:2D08       N__WskazWykresy__Update__Screen
 2875:016D       N__WspGeoPoprawne__ReadG__GetFr
 2755:0B90       N__Wydziel__An_Frame_GPZDA__Get
 2875:043F       N__Wydziel__GetFrame__GPS_TRIMB
 3D73:039B       N__WykSlupB__WykSlup__PI_ScrUti
 3D73:0470       N__WykSlupF__WykSlup__PI_ScrUti
 49EA:0959       N__XY__LL__DrawNCO__Polozenie
 413F:1AEF       N__ZerujFlagi__O_Analiza__Anali
 401B:038B       N__Znacznik__Decode__PiszEventy
 4484:01E1       N__ZnacznikiPol__Acquire__V_DAc
 14F9:2201       N__ZwKrokOpisuOsi__ShowMarks__U
 12E2:0586       N__checkDir__OrbitDirection__Or
 12E2:009B       N__checkDir__RadialDirection__R
 2683:04DF       N__convDigit__RealToString__Rea
 2683:0572       N__convertnumber__RealToString_
 2683:05EA       N__exp10__RealToString__RealCon
 0905:0349       N__findidx__AddSample__AVR10_Ad
 4B0D:0050       N__findidx__AngAddSample__Marks
 4B0D:037F       N__findidx__DisAddSample__Marks
 4B0D:0670       N__findidx__SegZakonczony__Mark
 0905:013A       N__findidx__SegmentZakonczony__
 3721:090E       N__pozycjaStrzalki__ControlLoop
 4F7F:04E1       N__sqr__Count__Roughness_AddSam
 12E2:0559       N__succ__OrbitDirection__Orbit_
 12E2:006E       N__succ__RadialDirection__Radia
 2755:03B1       N__szukaniePola__GetFrame__GPS_
 590F:013F       Nadajnik1__CommonData
 590F:0140       Nadajnik2__CommonData
 569D:00A4       NameRes__V_Files
 5925:00B0       NamesAlfa__Files
 5925:0008       NamesAn__Files
 5925:00E8       NamesComm__Files
 5711:0074       NamesDis__D_Files
 5925:0040       NamesDist__Files
 5711:0004       NamesSig__D_Files
 569D:0004       NamesSig__V_Files
 5961:006E       NapisB_01__Pomiar
 7454:0020       Narysowany__Polozenie
 590F:0052       NazwaOblotu__CommonData
 617C:0000       NazwaPlikuIni__Obloty
 590F:007B       NazwaPlikuOpisu__CommonData
 617C:015B       NazwaPlikuZOpisem__Obloty
 7438:0067       NazwaPliku__VORPrint
 590F:0000       NazwaUrzadz1__CommonData
 590F:0029       NazwaUrzadz2__CommonData
 517E:0000       NewProcess__RTSCoroutine
 596B:002D       NextRedraw__Screen
 559B:0053       Nie_mozna_uruchomic_kanalu_Teod
 5550:0008       NuOfErrorProc__MANAGER
 5550:0120       NuOfReady__MANAGER
 616B:000B       NumEl__monitor__ShortCuts
 5550:001A       NumberOfProc__MANAGER
 5984:0000       OCCUPED__Storage
 55A1:0000       ObecnyStan__GPSRead
 750D:0007       OdnB__PrintCntroll
 590F:013D       OdnDlaPomBledu__CommonData
 599F:003F       OdnDlaPomBledu__V_Odb
 590F:013E       OdnDlaPomOdl__CommonData
 59E6:0008       OdniesienieMtx__GeoArithmetic
 750D:0006       Odniesienie__PrintCntroll
 7438:0002       Odniesienie__VORPrint
 596B:007D       OileKursor__Dialog__Screen
 612A:005E       OldButtons__BezPrzerwanOdMyszy_
 59ED:0968       OmnibearingProgi__Kalibracja
 59ED:0948       Omnibearing_delay__Kalibracja
 590F:0144       Orbita__CommonData
 590D:0015       OstatniOblot__T_Inspekcja
 598C:0014       Ostrzezenie_ze_za_dlugo__DGHInt
 54C2:0002       PSPAddress__RTSMain
 5995:0006       P_A__MsgBox
 514F:004D       ParCopy__RTSLanguage
 59ED:0AF8       Par__Kalibracja
 598E:0018       Path__HiLevGraf
 5988:000C       PeriodCount__Monitor__Timer
 5988:000A       Period__Monitor__Timer
 5988:000E       PeriodicProcedure__Monitor__Tim
 70A6:0000       PoczatekStrony__PiszEventy
 6173:0052       PokazywacPolozenie__Mapa
 74FA:0004       PolozenieNapisu__Print
 559B:0000       PolozenieTeodolitu__TheodolitRe
 590A:0021       Pomiar1__T_Oblot
 5572:0000       PomiarANieArchiwum__PI_PA
 590A:001D       Pomiar__T_Oblot
 590F:0146       Predkosc__CommonData
 596B:0032       Predrawmarksreq__Screen
 596B:0036       Predrawreq__Screen
 74FA:000A       PrevIdx__Print
 747F:0796       PrevPage__DrawEpson
 612A:0054       PrevReg__MMMouse
 747F:0000       PrnPort__DrawEpson
 74FA:0000       PrnX__Print
 74FA:0002       PrnY__Print
 5961:0000       ProcPom__Pomiar
 56B0:0000       Procedura__V_CommonTypes
 7454:011A       ProcesAktywny__Polozenie
 590F:0142       Promien__CommonData
 7454:0006       Promien__Polozenie
 558F:0058       RUN__ScannerI
 50C7:003C       RangeError__RTSError
 590A:0019       Raport__T_Oblot
 5550:0004       ReadyFirst__MANAGER
 5550:0118       ReadyLast__MANAGER
 51C4:0000       RealError__RTSRealError
 7454:0112       Rect__Polozenie
 590D:0004       RedrawScr__T_Inspekcja
 590A:0025       RedrawScr__T_Oblot
 558F:000A       RefAlfa__ScannerI
 558F:0022       RefDis__ScannerI
 596B:0047       RegionWyk1Created__Screen
 596B:0043       RegionWyk1__Screen
 596B:004C       RegionWyk2Created__Screen
 596B:0048       RegionWyk2__Screen
 596B:0051       RegionWyk3Created__Screen
 596B:004D       RegionWyk3__Screen
 596B:0042       RegionWykGCreated__Screen
 596B:003E       RegionWykG__Screen
 596B:0052       RegionWykresow__Screen
 612A:0000       Regiony__MMMouse
 616D:0008       Reply__D_Odb
 747F:07A3       Rotation__DrawEpson
 5947:0195       Running__V_CP_ControlProc
 596B:006E       RysSytMaxDis__Dialog__Screen
 6173:0053       RysSytMaxDis__Mapa
 616D:0024       SSmin__D_Odb
 5588:0000       ST__PI_Qcheck
 1AF7:0058       S__ACKMess__Messages
 0075:0002       S__ASSERT__MANAGER
 0075:11B5       S__ActivateProcess__Scheduler__
 3156:0FCA       S__Aktywizuj__Dialog
 2905:0F29       S__AllocateBuffer__Ini
 05A9:0A73       S__Analizer__TheodolitRead
 1025:1E70       S__AssignName__Files
 2E17:0002       S__BCD__HRD_Clock
 1AF7:0382       S__Beep__Messages
 2C00:03C4       S__Blad__XMSService
 1A2B:0C05       S__BreakKey__Timer
 32EC:0FE8       S__CP__GList
 0075:18F5       S__CallTerminatingProcedures__M
 09AD:0163       S__CheckCNil__SpecConv
 09AD:009C       S__CheckINil__SpecConv
 2E17:003A       S__CheckUpdateCycle__HRD_Clock
 03F8:1827       S__Chksimul__ScannerI
 3156:15B1       S__ChwilowoZablokujDialog__Dial
 12E2:04FD       S__ClearAngVelContiner__V_CP_Co
 2E3E:077B       S__ClearContiners__D_Odb
 1FB7:08AB       S__ClearContiners__V_Odb
 12E2:0012       S__ClearLinVelContiner__V_CP_Co
 0075:04D7       S__ClearQueue__MANAGER
 441F:0002       S__CommReq__Monitor__D_DAcquizi
 4484:00A1       S__CommReq__Monitor__V_DAcquizi
 4C8F:0942       S__Conv2PL__DrawEpson
 207E:01F5       S__ConvertTMStr__NAVGPIB
 3719:001A       S__CtrlBreakProc__FCBS
 3156:1185       S__CzyMoznaSkonczyc__Dialog
 401B:0786       S__Decode__PiszEventy
 2C4C:0002       S__DefineStdCursor__MMMouse
 1874:042C       S__DisposeButtons__MouseMonitor
 14F9:1876       S__DisposeKursor__Dialog__Scree
 03F8:0104       S__DistR2C__ScannerI
 2206:006A       S__DodajPolozenieGeo__GeoArithm
 4C8F:0ABD       S__DrawChar0__DrawEpson
 4C8F:0E1D       S__DrawChar90__DrawEpson
 2C4C:0C8E       S__DrawCursor__BezWyszeregowani
 2FC2:047D       S__DrawInter__Buttons
 49EA:044A       S__DrawMarker__Polozenie
 49EA:0BA8       S__DrawNCO__Polozenie
 4C8F:0DA0       S__DrawText0__DrawEpson
 4C8F:10A7       S__DrawText90__DrawEpson
 32EC:1181       S__Draw__GList
 2EF0:0827       S__Draw__InpLine
 49EA:0855       S__EraseMarker__Polozenie
 236F:1489       S__Error__Kalibracja
 4824:02B0       S__ExceptionHandler__Semafory
 2905:0BE2       S__Expand__Ini
 30A0:09DC       S__FillPromieie__Mapa
 071F:08D1       S__FillSignalTable__DGHIni
 2FC2:0205       S__FindAMark__MONITOR__Buttons
 2D9D:0424       S__FindAMark__monitor__ShortCut
 2AD6:1064       S__FindROMFontAddr__Graphics
 2D9D:0382       S__Find__monitor__ShortCuts
 2905:001E       S__FormSectionString__Ini
 2C00:01F3       S__Free__XMSService
 196F:04FF       S__GetChain__Storage
 1D98:15BC       S__GetDir__HiLevGraf
 2C4C:096B       S__GetEvent__BezPrzerwanOdMyszy
 441F:00C1       S__GetEvent__Monitor__D_DAcquiz
 4484:0160       S__GetEvent__Monitor__V_DAcquiz
 1874:036D       S__GetEvent__MouseMonitor__PI_A
 2AD6:09BB       S__GetFontPtr__InternalMonitor_
 2E17:006D       S__GetGodzina__HRD_Clock
 207E:0261       S__GetResponse__NAVGPIB
 196F:04CB       S__GetStrategia__Storage
 2AD6:008B       S__HugeMemCpy__Graphics
 4901:0002       S__INByte__ARINC
 0075:05E2       S__INSERT__MANAGER
 3484:0266       S__IleInspekcji__Obloty
 441F:0454       S__IniData__D_DAcquizition
 4484:060F       S__IniData__V_DAcquizition
 1874:017C       S__InitButtony__MouseMonitor__P
 14F9:1983       S__InitButtony__Screen
 03F8:0B61       S__InitDataSimul__ScannerI
 14F9:17F1       S__InitDialog__Dialog__Screen
 3CCE:04F4       S__InitEvents__EventsMng
 2A23:097A       S__InitFiles__FIO
 14F9:1D4C       S__InitKrokOpisuOsi__Screen
 0C4D:0C53       S__InitLocals__D_Files
 07F7:0EAD       S__InitLocals__V_Files
 49EA:032E       S__InitMarkers__Polozenie
 14F9:1B9A       S__InitSlupki__Screen
 37FA:15DF       S__InitTab__tablice__DataCollec
 071F:03D8       S__InitTableOfNames__DGHIni
 4824:03BE       S__InitTbl__Semafory
 14F9:1749       S__InitWykr__Dialog__Screen
 4C16:0211       S__Init__D_Slupek
 1025:2852       S__Init__Files
 2C4C:00D9       S__Init__MMMouse
 1F26:064D       S__Init__MsgBox
 034B:09E7       S__Init__PI_Qcheck
 3E76:0002       S__Init__ScreenCTypes
 4BA1:01E1       S__Init__V_Slupek
 0075:002D       S__InsertReady__MANAGER
 2FC2:0002       S__Insert__MONITOR__Buttons
 1A2B:0002       S__Insert__Monitor__Timer
 2D9D:013F       S__Insert__monitor__ShortCuts
 0075:1A6A       S__InstallTerminator__MANAGER
 3484:0B21       S__Kasuj_DelDir__Obloty
 2755:0170       S__KopZnakDoKanaluMonitora__GPS
 3484:1564       S__KopiujKartoteke__Obloty
 14F9:18A7       S__KursoffOff__Dialog__Screen
 14F9:18CD       S__KursoffOn__Dialog__Screen
 2AD6:108B       S__LoadPLFonts__Graphics
 364C:0A8A       S__LoadProgramPar__V_Database
 236F:1E6D       S__LoadSegmentTables__Kalibracj
 364C:0303       S__LoadVorData__V_Database
 3A21:009B       S__Log10__Wykres
 3A21:1DFD       S__LogPos__Wykres
 2905:020F       S__LookForEntry__Ini
 2905:010A       S__LookForSection__Ini
 4653:03E2       S__MakeHeader__VORPrint
 30A0:0419       S__MakeMAP__Mapa
 4C8F:0107       S__Map__DrawEpson
 3C98:0245       S__Map__XMSTable
 2FC2:0318       S__MarkBut__MONITOR__Buttons
 2651:004E       S__MarkError__DigiRS
 1D98:0007       S__Max__HiLevGraf
 2206:0601       S__Mile__GeoArithmetic
 1D98:0027       S__Min__HiLevGraf
 0DA3:0616       S__NadajnikCH__T_Oblot
 486A:002A       S__Next__Random
 1D98:0741       S__Norm__HiLevGraf
 3D73:033B       S__NowySlup__PI_ScrUtility
 4901:0062       S__OUTByte__ARINC
 1AF7:0358       S__OUTMessage__Messages
 2206:01D4       S__OdejmijPolozenieGeo__GeoArit
 2206:04C0       S__Odl2Geo__GeoArithmetic
 2206:012E       S__Odwr__GeoArithmetic
 4653:09C0       S__OpisPomiaru__VORPrint
 4DD6:0886       S__PointA__Print
 4DD6:0ADD       S__PointB__Print
 14F9:054D       S__PokazWgKursora__Dialog__Scre
 0ECB:031E       S__Pokaz__T_Inspekcja
 0DA3:0420       S__Pokaz__T_Oblot
 4653:0F86       S__Print__VORPrint
 4653:03C3       S__PromienANieOrbita__VORPrint
 0075:07D2       S__REMOVE__MANAGER
 2206:03A9       S__Rad__GeoArithmetic
 071F:0CDC       S__ReadDGHIniFile__DGHIni
 0DA3:03C3       S__RealVal__T_Oblot
 0DA3:0484       S__RealValid__T_Oblot
 14F9:01D5       S__RectWykresy__Screen
 30A0:008A       S__RedefineMaxDist__Mapa
 2C4C:0B5F       S__RedrawAt__BezWyszeregowania_
 32EC:1046       S__Redraw__GList
 1025:1902       S__RemoveBSl__Files
 2C4C:0C0A       S__RemoveCursor__BezWyszeregowa
 0075:0236       S__RemoveReady__MANAGER
 2FC2:01B5       S__RemoveToKill__MONITOR__Butto
 2D9D:032C       S__RemoveToKill__monitor__Short
 1A2B:0159       S__Remove__Monitor__Timer
 0905:00C8       S__ResetContiner__VORO_avrage
 14F9:10CD       S__RuszKursor__Dialog__Screen
 0075:102A       S__STOPPROCESS__Scheduler__MANA
 0DA3:0E5E       S__SciezkaDoKataloguOpisu__T_Ob
 0286:049F       S__SendDMECntrlWrd__Tune
 0286:0007       S__Send__Tune
 196F:04E7       S__SetChain__Storage
 1A2B:07F7       S__SetCount__Monitor__Timer
 236F:09B6       S__SetError__ErrorHand__Kalibra
 1D98:0230       S__SetPalette__HiLevGraf
 32EC:1790       S__SetPositions__GList
 32EC:16B4       S__SetSelectionInt__GList
 2C4C:0639       S__SetShape__MMMouse
 196F:04B3       S__SetStrategia__Storage
 0BBB:00E8       S__SetTimeAndDate__BezPrzerwan_
 14F9:0CC9       S__ShowBarCursor__Dialog__Scree
 3484:0738       S__SkasujKartoteke__Obloty
 2206:02F0       S__SredniPolozenieGeo__GeoArith
 0C4D:0065       S__StartFiles__D_Files
 07F7:007F       S__StartFiles__V_Files
 37FA:1BBB       S__Start__DataCollect
 1D98:0047       S__StdPalette__HiLevGraf
 0075:1144       S__StopAError__Scheduler__MANAG
 30A0:0922       S__Stop__monitor__Mapa
 1D98:071E       S__Swap__HiLevGraf
 2C4C:0623       S__Swap__MMMouse
 0001:0002       S__SwitchContext__PTT
 37FA:0422       S__Tablice800__tablice__DataCol
 0286:0697       S__TuneVOR_ILS__Tune
 3D73:009A       S__UniversalAB__PI_ScrUtility
 14F9:0259       S__UniversalEvent__Dialog__Scre
 2FC2:03BB       S__Unmark__MONITOR__Buttons
 2D9D:04D2       S__Unmark__monitor__ShortCuts
 14F9:0FA8       S__UpdateMap__Dialog__Screen
 502C:01FC       S__UstawLiczbe__PrintCntroll
 502C:01BC       S__UstawStrony__PrintCntroll
 4C8F:00A5       S__UstawTrybTekstowy__DrawEpson
 0DA3:0F56       S__Wlacz_Wylacz__T_Oblot
 2C4C:066E       S__WrBit__MMMouse
 2C4C:0651       S__WrIdx__MMMouse
 401B:1163       S__WrLn__PiszEventy
 401B:117D       S__WrP__PiszEventy
 401B:10B0       S__WrStrLn__PiszEventy
 401B:10DC       S__WrStr__PiszEventy
 2C00:0412       S__WrWarning__XMSService
 0BBB:003B       S__Write__BezPrzerwan__Czas
 3484:02DC       S__WymienWszystkie__Obloty
 14F9:0C7D       S__Xchg__Dialog__Screen
 0DA3:044E       S__ZakonczDlg__T_Oblot
 3484:0EB9       S__ZnajdzNumInspekcji__Obloty
 401B:0D48       S__min__PiszEventy
 30A0:037D       S__resolveSituation__Mapa
 05A9:0852       S__signalError__TheodolitRead
 616B:0005       SavedChar__monitor__ShortCuts
 5B42:5019       SavedFileName__Ini
 590F:00FC       SciezkaOpisuPomiaru__CommonData
 616B:0001       ShortCutList__monitor__ShortCut
 55A4:0F70       SignalDescr__DGHIni
 558F:0087       Sim_Alfa_CP__ScannerI
 558F:0083       Sim_Dis_CP__ScannerI
 558F:0053       Simul__ScannerI
 61C5:000C       SkalaCPMax__CocpDsp
 61C5:0008       SkalaCP__CocpDsp
 61C5:000E       SkalaWPMax__CocpDsp
 61C5:000A       Skala__CocpDsp
 514F:0000       SpecialCASE__RTSLanguage
 616D:000C       Squitter__D_Odb
 617C:01DD       SrcDir__Obloty
 7454:0002       Srodek__Polozenie
 50D7:0673       StackCheck__RTSMain
 50D7:067C       StackOvf__RTSMain
 7454:0000       StalyKat__Polozenie
 5961:0054       StanButtonow__Pomiar
 5961:0075       StanZestawu__Pomiar
 5984:0023       StaraStrategia__Storage
 0001:066C       StartModula
 5984:0025       StaryCh__Storage
 617C:0044       Stat_File_Monitor__Obloty
 617C:0040       Stat_Size_Monitor__Obloty
 559B:003D       State__TheodolitRead
 5550:001C       Statistic__MANAGER
 5997:0000       StatusR__GrafUtil
 612A:01E5       Stored__BezPrzerwanOdMyszy__MMM
 56B3:0000       StringRect__BezPrzerwan__Czas
 598E:0008       Style__HiLevGraf
 59ED:0940       SubcarPrcMod_delay__Kalibracja
 56B3:0008       SystemTime__BezPrzerwan__Czas
 558F:008F       TEOEcounting__ScannerI
 558F:0028       TEO_A__ScannerI
 558F:003A       TEO_DGPSpoprawki__ScannerI
 558F:0030       TEO_E__ScannerI
 558F:0038       TEO_OK__ScannerI
 558F:00A7       TEO_dtaSign__ScannerI
 5988:0002       TIOS__Timer
 5988:0006       TOQueue__Monitor__Timer
 5550:0124       TSSInterval__MANAGER
 59ED:0000       TabKalib2P__Kalibracja
 55A4:08E8       TableOfNames__DGHIni
 7442:0000       TablicaSemaforow__Semafory
 558F:000C       TeoAlfaF__ScannerI
 559B:0036       TeoEvNr__TheodolitRead
 590A:0015       TestUP__T_Oblot
 74FA:0006       TextModeOutProc__Print
 596B:0029       ThisDTidx__Screen
 5988:0000       TimeCounter__Timer
 5550:0128       TimeIntNum__MANAGER
 74FA:00D5       Tmpl__Print
 5997:006E       Tone__GrafUtil
 616D:0018       Trace__D_Odb
 517E:0143       Transfer__RTSCoroutine
 7435:000E       TrwaPomiarPolaryzacji__V_DAcqui
 598A:000A       TurnBeepOn__Messages
 61C8:0000       VAL1__DataCollect
 596B:0000       VAL1__Screen
 61C8:3210       VAL2__DataCollect
 596B:0004       VAL2__Screen
 61C8:6420       VAL3__DataCollect
 596B:0008       VAL3__Screen
 61C8:9630       VAL4__DataCollect
 596B:000C       VAL4__Screen
 61C8:C8A6       VALX__tablice__DataCollect
 61A2:01D3       VOR_O_czuloscCP__V_Database
 61A2:01D1       VOR_O_czuloscWP__V_Database
 61A2:01D7       VOR_R_czuloscCP__V_Database
 61A2:01D5       VOR_R_czuloscWP__V_Database
 557D:0000       VORfreqCRT__Tune
 5550:0208       VarDR__MANAGER
 59ED:0950       VorAgc_delay__Kalibracja
 59ED:0930       VorRefPrcMod_delay__Kalibracja
 59ED:0938       VorVarPrcMod_delay__Kalibracja
 5550:0122       WaitForInt__MANAGER
 5997:006C       WaitTime__GrafUtil
 59ED:13F8       WystapilBlad__Kalibracja
 598E:0059       XS__HiLevGraf
 598E:005B       YS__HiLevGraf
 74FA:0013       ZestawProbekBinDoWyboru__Print
 554E:0003       Zestaw__PTT
 750D:0004       Zestaw__PrintCntroll
 596B:0010       Zestaw__Screen
 7438:0000       Zestaw__VORPrint
 596B:007F       ZmianaSkaliWpionie__Dialog__Scr
 7448:0000       a__Random
 5B3A:0006       actPart__GPS_TRIMBLE
 5B31:0006       actPart__GPS_nov
 54C2:001A       activProcess__RTSMain
 598C:0010       activated__DGHInterface
 54E1:0000       addProcess__RTSCoroutine
 59E9:0000       address__DGH_utils
 599F:0014       agc__V_Odb
 596B:001C       aktFormat360__Screen
 5947:0192       aktOrbita__V_CP_ControlProc
 596B:0013       aktPromienOdAnt__Screen
 596B:0011       aktPromien__Screen
 6173:0040       aktualny__Mapa
 5961:0082       alfaOff__Pomiar
 571D:0000       anRes__D_results
 56B5:0000       anRes__V_results
 5947:00CD       angCont__V_CP_ControlProc
 61C8:C844       angContiner__DataCollect
 7454:011C       angContiner__Polozenie
 554E:0010       archData__PTT
 531F:001E       areSetsEQ__Longs
 599F:0002       audio__V_Odb
 558F:00A6       azymANieElew__ScannerI
 590A:0005       bNadajnik__T_Oblot
 6114:0004       bank__InternalMonitor__Graphics
 6114:0006       bankstart__InternalMonitor__Gra
 617C:0099       bd_NazwaPliku__Obloty
 617C:00AA       bd_Sekcja__Obloty
 617C:00B5       bd_WpisNazwa__Obloty
 70A7:00FC       bendsCon__V_Count
 59E9:0020       binAddress__DGH_utils
 598C:0006       binaryDtaSign__DGHInterface
 54C2:0006       blockList__RTSMain
 5987:0000       break__SoftIntHandlingManager
 5B3A:0009       bufor__GPS_TRIMBLE
 5B31:000C       bufor__GPS_nov
 596B:0025       by23__Screen
 5B42:5017       charsInBuffer__Ini
 5B42:50E2       check__Ini
 5B3A:0002       chrCount__GPS_TRIMBLE
 5B31:0002       chrCount__GPS_nov
 70A3:0000       colPos__V_DisResults
 531F:00B4       complement__Longs
 6FE5:0B48       conEnr__EventsMng
 598C:0008       csErrorCnt__DGHInterface
 54C2:0016       curProcess__RTSMain
 61C8:C85E       curr23__tablice__DataCollect
 558F:00A4       currAlfaOff__ScannerI
 597E:0004       currButtonSet__MouseMonitor__PI
 5961:0058       currButtonSet__Pomiar
 596B:003A       currConsoleEv__Screen
 571D:1EA4       currDT__D_results
 56B5:05A3       currDT__V_results
 61C5:0019       currErrorCP__CocpDsp
 61C5:001D       currErrorGS__CocpDsp
 61C5:001B       currErrorWP__CocpDsp
 61C5:0002       currFROMflg__CocpDsp
 61C5:0000       currGSflg__CocpDsp
 61C5:0015       currLNumber__CocpDsp
 61C5:0026       currMsg__CocpDsp
 61C5:0001       currNAVflg__CocpDsp
 558F:0099       currOdnDlaPomBledu__ScannerI
 558F:0098       currOdnDlaPomOdl__ScannerI
 558F:009A       currPredkosc__ScannerI
 558F:00A2       currPromien__ScannerI
 61C5:0017       currRNumber__CocpDsp
 61C5:0014       currState__CocpDsp
 559B:003F       currState__TheodolitRead
 61C5:0003       currTOflg__CocpDsp
 7433:000A       currUpdMarks__D_DAcquizition
 7435:000A       currUpdMarks__V_DAcquizition
 5961:0092       currZestaw__Pomiar
 598C:0004       currentSign__DGHInterface
 55A1:0001       currentSign__GPSRead
 559B:0034       currentSign__TheodolitRead
 5B42:0010       currfile__Ini
 747C:001C       cursorDIB__D_Slupek
 7479:001C       cursorDIB__V_Slupek
 5961:0093       dataInBuff__Pomiar
 554E:000E       dataOk__PTT
 54C2:001E       debuggerRecord__RTSMain
 596B:001D       devDistR__Screen
 54C2:0030       deviceMask__RTSMain
 61C5:0004       dirCP__CocpDsp
 61C5:0006       dirWP__CocpDsp
 5947:0000       disCont__V_CP_ControlProc
 61C8:C84C       disContiner__DataCollect
 7451:0000       disableMask__NAVInterface
 597E:0000       dispResults__PI_Analiza
 616D:002B       distErrF_MemFIntContiner__D_Odb
 616D:0020       distErrF__D_Odb
 616D:001C       distErr__D_Odb
 5961:007E       distOff__Pomiar
 6173:004A       distRect__Mapa
 61C8:C872       div2n__tablice__DataCollect
 61C8:C876       div3n__tablice__DataCollect
 6173:0000       doZrobienia__Mapa
 616B:000D       done__ShortCuts
 61C5:0023       dtaSign__CocpDsp
 70A7:0000       dvAVcont__V_Count
 54C2:0032       dyingOverlay__RTSMain
 5573:007A       entryTmpPtr__DOSEntry
 5573:0000       entryTmp__DOSEntry
 5B31:007B       eos__GPS_nov
 59ED:13B8       errDetected__Kalibracja
 5B31:007E       err_unrec_cnt__GPS_nov
 54C2:0000       errorCode__RTSMain
 5573:007E       exitTmpPtr__DOSEntry
 5573:003D       exitTmp__DOSEntry
 5550:01F6       expInter__Scheduler__MANAGER
 59ED:13FF       f__Kalibracja
 5925:01A0       filesAlfa__Files
 5925:01A8       filesComm__Files
 5925:0190       filesDist__Files
 7433:000E       filesNotEmpty__D_DAcquizition
 7435:0018       filesNotEmpty__V_DAcquizition
 7451:0004       fineMode__NAVInterface
 5987:0001       firstISRDescriptorPtr__Monitor_
 74FA:000E       flgEOF__Print
 616D:001A       flg__D_Odb
 558F:0000       flg__ScannerI
 599F:0018       flg__V_Odb
 59ED:13FB       for_counter__Kalibracja
 61C5:0025       force__CocpDsp
 5961:007C       format360__Pomiar
 5B3A:0000       framesWError__GPS_TRIMBLE
 5B31:0000       framesWError__GPS_nov
 54C2:0128       freeList__RTSMain
 5B3A:0004       frmCount__GPS_TRIMBLE
 5B31:0004       frmCount__GPS_nov
 5961:0077       frstBut__Pomiar
 7438:0086       gOdb__VORPrint
 5995:0000       hDlg__MsgBox
 750D:0000       hDlg__PrintCntroll
 590D:0000       hDlg__T_Inspekcja
 590A:0001       hDlg__T_Oblot
 7438:0003       header__VORPrint
 5984:0001       heapList__Storage
 5925:01C8       homeDir__Files
 61C5:0012       iloscStrzal__CocpDsp
 5B42:0004       ini__Ini
 59ED:13BC       inputCoeff__Kalibracja
 5573:0082       insideFlag__DOSEntry
 617C:00C0       insp_DirTmp__Obloty
 531F:009D       intersection__Longs
 61C8:C87A       ix2__tablice__DataCollect
 61C8:C87E       ix3__tablice__DataCollect
 558F:00AD       ix__ScannerI
 7448:006E       j__Random
 7448:0070       k__Random
 5961:0079       katPromien__Pomiar
 7451:0005       killTime__NAVInterface
 750D:0011       lPodz__PrintCntroll
 557D:00A0       lastCPFlags__Tune
 7433:0013       lastComm__Monitor__D_DAcquiziti
 7435:0017       lastComm__Monitor__V_DAcquiziti
 559B:0046       lastCrc__TheodolitRead
 557D:00A2       lastDMEfrqBits__Tune
 6051:0000       lastErr__FIO
 59ED:13F9       lastError__ErrorHand__Kalibracj
 59A4:0353       lastGPIBCommand__NAVGPIB
 59A4:0000       lastGPIBError__NAVGPIB
 59A4:0374       lastGPIBResponse__NAVGPIB
 559B:0040       lastNum__TheodolitRead
 599F:0049       licznik__V_Odb
 558F:0093       locTogether__ScannerI
 599F:0048       locationsTogether__V_Odb
 59A4:039A       loopCount__NAVGPIB
 59A4:039C       loopCountmax__NAVGPIB
 559B:0024       lstAzymuth__TheodolitRead
 559B:002C       lstElevation__TheodolitRead
 559B:003A       lstEvent__TheodolitRead
 559B:003B       lstTracking__TheodolitRead
 612A:01EC       lx__BezWyszeregowania__MMMouse
 612A:01EE       ly__BezWyszeregowania__MMMouse
 554E:0000       mainState__PTT
 6173:0042       mapRct__Mapa
 61C8:C857       marks_Con_A__DataCollect
 61C8:C854       marks_Con_D__DataCollect
 598C:000E       maxClicks__DGHInterface
 7452:0002       maxCountR__ARINC
 7452:0000       maxCountW__ARINC
 6051:0006       maxOpened__FIO
 612A:0050       maxX__MMMouse
 612A:0052       maxY__MMMouse
 5B2E:0000       minWrBufLength__DigiRS
 6173:005B       myPoint__Mapa
 5947:0190       myRadial__V_CP_ControlProc
 599F:0040       navFlgCon__V_Odb
 599F:0000       navFlg__V_Odb
 61C5:001F       newState__CocpDsp
 6173:0060       noActive__monitor__Mapa
 7433:000F       notify__Monitor__D_DAcquizition
 7435:0013       notify__Monitor__V_DAcquizition
 6051:0002       numErr__FIO
 559B:0048       numPos__TheodolitRead
 598C:000A       nvErrorCndF__DGHInterface
 598C:000C       nvErrorCndS__DGHInterface
 599F:0004       obr__V_Odb
 59E5:0000       okresImp__FIltr1St
 54C2:01CE       oldNMIvector
 6051:0004       opened__FIO
 54C2:000E       overlayInitProc__RTSMain
 54C2:000A       overlayList__RTSMain
 54C2:0012       overlayTermProc__RTSMain
 747C:0000       parSlupkow__D_Slupek
 7479:0000       parSlupkow__V_Slupek
 6FE5:0B44       pilEnr__EventsMng
 558F:0026       pilErr__ScannerI
 558F:0082       pilEvBit__ScannerI
 558F:007E       pilEvCon__ScannerI
 7433:0004       pilotEvId__D_DAcquizition
 7435:0004       pilotEvId__V_DAcquizition
 558F:0079       pilotEvNrCOn__ScannerI
 558F:007C       pilotEvNr__ScannerI
 554E:0006       podzielnik__PTT
 554E:0004       polaryzacjaOK__PTT
 7435:000F       polvfaza__V_DAcquizition
 7435:0011       pom2sek__V_DAcquizition
 596B:001B       pomPromieniowy__Screen
 596B:007A       popJakieWykr__Dialog__Screen
 5B3A:0007       posInRecBuf__GPS_TRIMBLE
 5B31:000A       posInRecBuf__GPS_nov
 5984:0021       prevHeap__Storage
 54C2:0046       priorityMasks__RTSMain
 61C8:C882       procVAL1__tablice__DataCollect
 61C8:C88A       procVAL2__tablice__DataCollect
 61C8:C892       procVAL3__tablice__DataCollect
 61C8:C89A       procVAL4__tablice__DataCollect
 54C2:003E       programSize
 5961:007B       promien__Pomiar
 531F:0000       pushLSet__Longs
 5947:0194       radial__V_CP_ControlProc
 59A4:0221       realComm__NAVGPIB
 7433:0003       redrawM__D_DAcquizition
 7435:0003       redrawM__V_DAcquizition
 7433:0002       redraw__D_DAcquizition
 6173:005F       redraw__Mapa
 7435:0002       redraw__V_DAcquizition
 59DF:0040       refPress__AltInterface
 599F:000C       ref__V_Odb
 5995:0004       ret__MsgBox
 70A7:34F8       roughnessCon__V_Count
 612A:01F0       rx__BezWyszeregowania__MMMouse
 612A:01F2       ry__BezWyszeregowania__MMMouse
 596B:002B       samplediv__Screen
 61C8:C85A       samplediv__tablice__DataCollect
 616D:0028       samples__D_Odb
 61C8:C8A2       samples__tablice__DataCollect
 74FA:000F       scaleDiv__Print
 747C:0018       screeenDIB__D_Slupek
 7479:0018       screeenDIB__V_Slupek
 596B:006A       screenDIB__Screen
 571D:1EB0       sec__D_results
 56B5:05AF       sec__V_results
 598E:000C       semafor__HiLevGraf
 70A7:006C       signalsAVcont__V_Count
 55A4:0000       signals__DGHIni
 59A4:0001       simpleComm__NAVGPIB
 596B:0082       skalaWpionie__Dialog__Screen
 709D:0014       slLDib_rec__ScreenCTypes
 709D:000C       slLReg_rec__ScreenCTypes
 709D:0008       slL_pnt__ScreenCTypes
 709D:0000       slL_rec__ScreenCTypes
 709D:004C       slPDib_rec__ScreenCTypes
 709D:0044       slPReg_rec__ScreenCTypes
 709D:0040       slP_pnt__ScreenCTypes
 709D:0038       slP_rec__ScreenCTypes
 709D:0030       slSDib_rec__ScreenCTypes
 709D:0028       slSReg_rec__ScreenCTypes
 709D:0024       slS_pnt__ScreenCTypes
 709D:001C       slS_rec__ScreenCTypes
 709B:000C       slupkiAktywne__PI_ScrUtility
 709B:0000       slupki__PI_ScrUtility
 5550:012A       spTab__MANAGER
 7451:0002       speedMask__NAVInterface
 61C5:0010       srodekSkali__CocpDsp
 617C:00D3       stat_Files__Obloty
 617C:00CB       stat_Size__Obloty
 59A4:0395       status__NAVGPIB
 597E:001D       sthPressed__MouseMonitor__PI_An
 5997:0008       str__GrafUtil
 531F:005E       subSet__Longs
 599F:0010       sub__V_Odb
 5B31:0007       sumaModC__GPS_nov
 5B31:0008       sumaModF__GPS_nov
 531F:0036       superSet__Longs
 554E:0002       switchAble__PTT
 554E:000A       synResult__PTT
 6FE5:0B4C       teoEnr__EventsMng
 559B:003C       teoEvBit__TheodolitRead
 559B:004C       teoEvCon__TheodolitRead
 7433:0008       teoEvId__D_DAcquizition
 7435:0008       teoEvId__V_DAcquizition
 559B:0050       teoEvNrCOn__TheodolitRead
 61A2:01D0       twoLocations__V_Database
 531F:00CF       unionCompl__Longs
 531F:0086       union__Longs
 599F:0008       var__V_Odb
 59ED:13FD       void__Kalibracja
 559B:0038       wd_dgps_currSign__TheodolitRead
 5925:01C4       xRefDefV__Files
 5925:01C0       xRefFile__Files
 747F:0002       xh__DrawEpson
 7438:0087       zOdb__VORPrint
 6173:0020       zrobione__Mapa

  Address         Publics by Value

 0000:0000  Abs  KEY__10jul99_1214_OF_ErrorMess
 0000:0000  Abs  KEY__10jul99_1214_OF_EventsMng
 0000:0000  Abs  KEY__10jul99_1214_OF_DrawEpson
 0000:0000  Abs  KEY__10jul99_1214_OF_DigiRS
 0000:0000  Abs  KEY__10jul99_1214_OF_DisResUtil
 0000:0000  Abs  KEY__10jul99_1214_OF_Files
 0000:0000  Abs  KEY__10jul99_1214_OF_FlagAnal
 0000:0000  Abs  KEY__10jul99_1214_OF_FIltr1St
 0000:0000  Abs  KEY__10jul99_1214_OF_FCBS
 0000:0000  Abs  KEY__10jul99_1214_OF_FIO
 0000:0000  Abs  KEY__10jul99_1214_OF_Dialog
 0000:0000  Abs  KEY__10jul99_1214_OF_D_DAcquizi
 0000:0000  Abs  KEY__10jul99_1214_OF_D_DisResul
 0000:0000  Abs  KEY__10jul99_1214_OF_D_Count
 0000:0000  Abs  KEY__10jul99_1214_OF_DOSEntry
 0000:0000  Abs  KEY__10jul99_1214_OF_D_CommonTy
 0000:0000  Abs  KEY__10jul99_1214_OF_D_results
 0000:0000  Abs  KEY__10jul99_1214_OF_DataCollec
 0000:0000  Abs  KEY__10jul99_1214_OF_D_Slupek
 0000:0000  Abs  KEY__10jul99_1214_OF_D_Files
 0000:0000  Abs  KEY__10jul99_1214_OF_D_Odb
 0000:0000  Abs  KEY__10jul99_1214_OF_Kl_FGenera
 0000:0000  Abs  KEY__10jul99_1214_OF_MANAGER
 0000:0000  Abs  KEY__10jul99_1214_OF_Kalibracja
 0000:0000  Abs  KEY__10jul99_1214_OF_InpLine
 0000:0000  Abs  KEY__10jul99_1214_OF_Int_DME
 0000:0000  Abs  KEY__10jul99_1214_OF_Mapa
 0000:0000  Abs  KEY__10jul99_1214_OF_Marks
 0000:0000  Abs  KEY__10jul99_1214_OF_M_PGPIB
 0000:0000  Abs  KEY__10jul99_1214_OF_MMA_Cout
 0000:0000  Abs  KEY__10jul99_1214_OF_MMMouse
 0000:0000  Abs  KEY__10jul99_1214_OF_Ini
 0000:0000  Abs  KEY__10jul99_1214_OF_GPS_nov
 0000:0000  Abs  KEY__10jul99_1214_OF_GeoArithme
 0000:0000  Abs  KEY__10jul99_1214_OF_GPS_TRIMBL
 0000:0000  Abs  KEY__10jul99_1214_OF_GList
 0000:0000  Abs  KEY__10jul99_1214_OF_GPSRead
 0000:0000  Abs  KEY__10jul99_1214_OF_HRD_Clock
 0000:0000  Abs  KEY__10jul99_1214_OF_HiLevGraf
 0000:0000  Abs  KEY__10jul99_1214_OF_Graphics
 0000:0000  Abs  KEY__10jul99_1214_OF_GrafTypes
 0000:0000  Abs  KEY__10jul99_1214_OF_GrafUtil
 0000:0000  Abs  KEY__10jul99_1214_OF_DMEPrint
 0000:0000  Abs  KEY__10aug87_2031_OF_DebugPMD
 0000:0000  Abs  KEY__10aug87_2031_OF_Devices
 0000:0000  Abs  KEY__10aug87_2031_OF_DOSMemory
 0000:0000  Abs  KEY__10aug87_2030_OF_BitByteOps
 0000:0000  Abs  KEY__10aug87_2030_OF_BlockOps
 0000:0000  Abs  KEY__10aug87_2031_OF_NumberConv
 0000:0000  Abs  KEY__10aug87_2031_OF_RTSDevice
 0000:0000  Abs  KEY__10aug87_2031_OF_Keyboard
 0000:0000  Abs  KEY__10aug87_2031_OF_Display
 0000:0000  Abs  KEY__10aug87_2031_OF_DynMem
 0000:0000  Abs  KEY__10aug87_2030_OF_ASCII
 0000:0000  Abs  KEY__00xxx00_0000_OF_RTSError
 0000:0000  Abs  KEY__00xxx00_0000_OF_RTSInterru
 0000:0000  Abs  KEY__00xxx00_0000_OF_RTSCorouti
 0000:0000  Abs  KEY__00xxx00_0000_OF_DebugPMD
 0000:0000  Abs  KEY__00xxx00_0000_OF_RTS87
 0000:0000  Abs  KEY__00xxx00_0000_OF_RTSRealErr
 0000:0000  Abs  KEY__05feb87_1233_OF_Longs
 0000:0000  Abs  KEY__00xxx00_0000_OF_RTSPriorit
 0000:0000  Abs  KEY__00xxx00_0000_OF_RTSLanguag
 0000:0000  Abs  KEY__00xxx00_0000_OF_RTSMain
 0000:0000  Abs  KEY__10jul99_1214_OF_CocpDsp
 0000:0000  Abs  KEY__10jul99_1214_OF_CommonData
 0000:0000  Abs  KEY__10jul99_1214_OF_Buttons
 0000:0000  Abs  KEY__10jul99_1214_OF_ARINC
 0000:0000  Abs  KEY__10jul99_1214_OF_AltInterfa
 0000:0000  Abs  KEY__10jul99_1214_OF_DGHInterfa
 0000:0000  Abs  KEY__10jul99_1214_OF_DGH_utils
 0000:0000  Abs  KEY__10jul99_1214_OF_DGHIni
 0000:0000  Abs  KEY__10jul99_1214_OF_CommonType
 0000:0000  Abs  KEY__10jul99_1214_OF_Czas
 0000:0000  Abs  KEY__10jul87_1035_OF_RTSMonExit
 0000:0000  Abs  KEY__10aug87_2031_OF_Terminal
 0000:0000  Abs  KEY__10aug87_2032_OF_MathLib0
 0000:0000  Abs  KEY__10aug87_2031_OF_Termbase
 0000:0000  Abs  KEY__10aug87_2031_OF_Storage
 0000:0000  Abs  KEY__10aug87_2031_OF_Strings
 0000:0000  Abs  KEY__10aug87_2033_OF_RealConver
 0000:0000  Abs  KEY__10aug87_2033_OF_Sounds
 0000:0000  Abs  KEY__10aug87_2033_OF_Random
 0000:0000  Abs  KEY__10aug87_2033_OF_Mouse
 0000:0000  Abs  KEY__10aug87_2033_OF_RTSCorouti
 0000:0000  Abs  KEY__10jul99_1214_OF_Math
 0000:0000  Abs  KEY__10jul99_1214_OF_V_CP_Contr
 0000:0000  Abs  KEY__10jul99_1214_OF_VORR_Avera
 0000:0000  Abs  KEY__10jul99_1214_OF_VORPrint
 0000:0000  Abs  KEY__10jul99_1214_OF_V_CommonTy
 0000:0000  Abs  KEY__10jul99_1214_OF_V_Database
 0000:0000  Abs  KEY__10jul99_1214_OF_V_DAcquizi
 0000:0000  Abs  KEY__10jul99_1214_OF_V_Count
 0000:0000  Abs  KEY__10jul99_1214_OF_SwitchCntr
 0000:0000  Abs  KEY__10jul99_1214_OF_StdIO
 0000:0000  Abs  KEY__10jul99_1214_OF_SpecConv
 0000:0000  Abs  KEY__10jul99_1214_OF_TheodolitR
 0000:0000  Abs  KEY__10jul99_1214_OF_VORO_avrag
 0000:0000  Abs  KEY__10jul99_1214_OF_Tune
 0000:0000  Abs  KEY__10jul99_1214_OF_Timer
 0000:0000  Abs  KEY__10jul99_1215_OF_PTT
 0000:0000  Abs  KEY__10jul99_1214_OF_XMSTable
 0000:0000  Abs  KEY__10jul99_1214_OF_XMSService
 0000:0000  Abs  KEY__10jul99_1215_OF_T_Inspekcj
 0000:0000  Abs  KEY__21aug96_1223_OF_XMS
 0000:0000  Abs  KEY__12aug87_1620_OF_RTSMain
 0000:0000  Abs  KEY__10jul99_1215_OF_T_Oblot
 0000:0000  Abs  KEY__10jul99_1214_OF_V_Odb
 0000:0000  Abs  KEY__10jul99_1214_OF_V_Files
 0000:0000  Abs  KEY__10jul99_1214_OF_V_DisResul
 0000:0000  Abs  KEY__10jul99_1214_OF_V_Slupek
 0000:0000  Abs  KEY__10jul99_1214_OF_Wykres
 0000:0000  Abs  KEY__10jul99_1214_OF_WorseBecau
 0000:0000  Abs  KEY__10jul99_1214_OF_V_results
 0000:0000  Abs  KEY__10jul99_1214_OF_PI_ScrUtil
 0000:0000  Abs  KEY__10jul99_1214_OF_PI_Qcheck
 0000:0000  Abs  KEY__10jul99_1214_OF_PI_Pomiar
 0000:0000  Abs  KEY__10jul99_1214_OF_PiszEventy
 0000:0000  Abs  KEY__10jul99_1214_OF_Print
 0000:0000  Abs  KEY__10jul99_1214_OF_Pomiar
 0000:0000  Abs  KEY__10jul99_1214_OF_Polozenie
 0000:0000  Abs  KEY__10jul99_1214_OF_PI_PA
 0000:0000  Abs  KEY__10jul99_1214_OF_PI_Analiza
 0000:0000  Abs  KEY__10jul99_1214_OF_Obloty
 0000:0000  Abs  KEY__10jul99_1214_OF_NAVInterfa
 0000:0000  Abs  KEY__10jul99_1214_OF_PI_ArchDat
 0000:0000  Abs  KEY__10jul99_1214_OF_PI_Glowny
 0000:0000  Abs  KEY__10jul99_1214_OF_NAVGPIB
 0000:0000  Abs  KEY__10jul99_1214_OF_PI_Drukuj
 0000:0000  Abs  KEY__10jul99_1214_OF_PrintCntro
 0000:0000  Abs  KEY__10jul99_1214_OF_Semafory
 0000:0000  Abs  KEY__10jul99_1214_OF_ScreenCTyp
 0000:0000  Abs  KEY__10jul99_1214_OF_Screen
 0000:0000  Abs  KEY__10jul99_1214_OF_SoftIntHan
 0000:0000  Abs  KEY__10jul99_1214_OF_Slupek
 0000:0000  Abs  KEY__10jul99_1214_OF_ShortCuts
 0000:0000  Abs  KEY__10jul99_1214_OF_ScannerI
 0000:0000  Abs  KEY__10jul99_1214_OF_Messages
 0000:0000  Abs  KEY__10jul99_1214_OF_MsgBox
 0001:0000       $BM__PTT
 0001:0002       S__SwitchContext__PTT
 0001:001F       $BODY__PTT
 0001:066C       StartModula
 0001:0730       $EM__PTT
 0075:0000       $BM__MANAGER
 0075:0002       S__ASSERT__MANAGER
 0075:002D       S__InsertReady__MANAGER
 0075:0236       S__RemoveReady__MANAGER
 0075:04D7       S__ClearQueue__MANAGER
 0075:05E2       S__INSERT__MANAGER
 0075:07D2       S__REMOVE__MANAGER
 0075:0892       L__SEND__MANAGER
 0075:0892       L__SEND__Scheduler__MANAGER
 0075:0A58       L__Notify__MANAGER
 0075:0A58       L__Notify__Scheduler__MANAGER
 0075:0AAF       L__Broadcast__Scheduler__MANAGE
 0075:0AAF       L__Broadcast__MANAGER
 0075:0AFD       L__WAITS__Scheduler__MANAGER
 0075:0AFD       L__WAITS__MANAGER
 0075:0BEF       L__WAITC__MANAGER
 0075:0BEF       L__WAITC__Scheduler__MANAGER
 0075:0CE1       L__DOIO__MANAGER
 0075:0CE1       L__DOIO__Scheduler__MANAGER
 0075:0FB4       L__AWAITEDS__MANAGER
 0075:0FB4       L__AWAITEDS__Scheduler__MANAGER
 0075:0FEF       L__AWAITEDC__MANAGER
 0075:0FEF       L__AWAITEDC__Scheduler__MANAGER
 0075:102A       S__STOPPROCESS__Scheduler__MANA
 0075:1144       S__StopAError__Scheduler__MANAG
 0075:11B5       S__ActivateProcess__Scheduler__
 0075:12EF       L__Assert__MANAGER
 0075:12EF       L__Assert__Scheduler__MANAGER
 0075:1357       $BODY__Scheduler__MANAGER
 0075:137C       L__STARTPROCESS__MANAGER
 0075:1629       L__PriorityDecrease__MANAGER
 0075:176C       L__InitC__MANAGER
 0075:1782       L__InitS__MANAGER
 0075:1798       L__Release__MANAGER
 0075:17CC       L__StartTimeSlicing__MANAGER
 0075:17E6       L__RecoveryTime__MANAGER
 0075:17F9       L__CurrentProcess__MANAGER
 0075:1815       L__InstallTermProc__MANAGER
 0075:188B       L__RemoveTermProc__MANAGER
 0075:18E5       L__EnterProtectedOp__MANAGER
 0075:18ED       L__ExitProtectedOp__MANAGER
 0075:18F5       S__CallTerminatingProcedures__M
 0075:1973       L__Terminator__MANAGER
 0075:1A6A       S__InstallTerminator__MANAGER
 0075:1A90       L__DUMMYPRO__MANAGER
 0075:1B1A       $BODY__MANAGER
 0075:1DCE       $INIT__MANAGER
 0075:1E0C       $EM__MANAGER
 0256:0000       $BM__PI_PA
 0256:0002       $BODY__PI_PA
 0256:0012       $INIT__PI_PA
 0256:002D       $EM__PI_PA
 0259:0000       $BM__DOSEntry
 0259:0002       L__onEntryHandler__DOSEntry
 0259:004F       L__onExitHandler__DOSEntry
 0259:009C       L__TerminalProcedure__DOSEntry
 0259:00C2       $BODY__DOSEntry
 0259:0150       $INIT__DOSEntry
 0259:017A       $EM__DOSEntry
 0271:0000       $BM__ErrorMess
 0271:0029       L__MyErrorHand__ErrorMess
 0271:00E1       $BODY__ErrorMess
 0271:010C       $INIT__ErrorMess
 0271:0145       $EM__ErrorMess
 0286:0000       $BM__Tune
 0286:0007       S__Send__Tune
 0286:009C       L__TurnOffADF__Tune
 0286:00F4       L__TurnOffVOR_ILS__Tune
 0286:014C       L__TuneADF__Tune
 0286:0303       N__TuneGS__TuneILS__Tune
 0286:0409       L__TuneILS__Tune
 0286:049F       S__SendDMECntrlWrd__Tune
 0286:052E       N__ConvertFrqTOControlWord__Tun
 0286:05D9       L__TuneDMEforVOR__Tune
 0286:061B       L__TuneDMEforILS__Tune
 0286:065D       L__TuneVOR__Tune
 0286:0697       S__TuneVOR_ILS__Tune
 0286:07EE       L__ILSfrqString__Tune
 0286:0849       L__ILSIncFch__Tune
 0286:0881       L__ILSDecFch__Tune
 0286:08B9       L__VORIncFch__Tune
 0286:08FF       L__VORDecFch__Tune
 0286:093F       L__IncADFFch__Tune
 0286:0966       L__DecADFFch__Tune
 0286:0998       L__SetCPFlags__Tune
 0286:0A08       $BODY__Tune
 0286:0C0B       $INIT__Tune
 0286:0C49       $EM__Tune
 034B:0000       $BM__PI_Qcheck
 034B:015E       N__Tlo__Sprawdz__PI_Qcheck
 034B:01C7       N__WrStr__Sprawdz__PI_Qcheck
 034B:0230       N__WrInt__Sprawdz__PI_Qcheck
 034B:0305       N__WrPrc__Sprawdz__PI_Qcheck
 034B:0401       L__Sprawdz__PI_Qcheck
 034B:09E7       S__Init__PI_Qcheck
 034B:0A66       $BODY__PI_Qcheck
 034B:0A6F       $INIT__PI_Qcheck
 034B:0ACB       $EM__PI_Qcheck
 03F8:0000       $BM__ScannerI
 03F8:0104       S__DistR2C__ScannerI
 03F8:01B8       L__GetGPS__ScannerI
 03F8:0377       L__GetGPSSpread__ScannerI
 03F8:069A       L__GetAndCountTEODummy__Scanner
 03F8:06AF       N__GetTeo__GetAndCountTEO__Scan
 03F8:0894       L__GetAndCountTEO__ScannerI
 03F8:098F       L__Sim_Dis__ScannerI
 03F8:0AA9       L__AssSim_Dis__ScannerI
 03F8:0ACE       L__Sim_Alfa__ScannerI
 03F8:0B3C       L__AssSim_Alfa__ScannerI
 03F8:0B61       S__InitDataSimul__ScannerI
 03F8:0C27       N__TurnDGH_ON__SIMDATA__Scanner
 03F8:0C76       N__ReadDME__SIMDATA__ScannerI
 03F8:0DD2       N__ReadALT__SIMDATA__ScannerI
 03F8:0E64       N__OdlegWgPredk__SIMDATA__Scann
 03F8:0F36       L__SIMDATA__ScannerI
 03F8:13C4       N__FindIt__SetEvalPROC__Scanner
 03F8:1450       N__FindFree__SetEvalPROC__Scann
 03F8:14C3       L__SetEvalPROC__ScannerI
 03F8:155E       L__NewDataAvailable__ScannerI
 03F8:1588       L__Start__ScannerI
 03F8:1725       L__LocationsTogether__ScannerI
 03F8:1754       L__CurrGPSAlfaOffset__ScannerI
 03F8:1783       L__Stop__ScannerI
 03F8:17B0       L__InitPilotEventId__ScannerI
 03F8:17D3       L__GetPilotEvent__ScannerI
 03F8:1827       S__Chksimul__ScannerI
 03F8:1886       $BODY__ScannerI
 03F8:1954       $INIT__ScannerI
 03F8:19D3       $EM__ScannerI
 0596:0000       $BM__CommonTypes
 0596:0010       L__GetRecName__CommonTypes
 0596:0055       L__GetTranName__CommonTypes
 0596:0098       L__InitSignalDsc__CommonTypes
 0596:00B7       L__Init_flgTab__CommonTypes
 0596:00F4       $BODY__CommonTypes
 0596:00FA       $INIT__CommonTypes
 0596:011F       $EM__CommonTypes
 05A9:0000       $BM__TheodolitRead
 05A9:0107       N__Angle360__TheodolitView__The
 05A9:01B7       L__TheodolitView__TheodolitRead
 05A9:05AE       L__GetCurrDataSign__TheodolitRe
 05A9:05DD       L__InitTeoEventId__TheodolitRea
 05A9:0600       L__GetTeoEvent__TheodolitRead
 05A9:0654       L__GetTheoR__TheodolitRead
 05A9:0700       L__GetTheoI__TheodolitRead
 05A9:0852       S__signalError__TheodolitRead
 05A9:086F       N__AssignRes__Analizer__Theodol
 05A9:0915       N__Rd__Analizer__TheodolitRead
 05A9:097D       N__CountCrc__Analizer__Theodoli
 05A9:09A8       N__GetNum__Analizer__TheodolitR
 05A9:0A73       S__Analizer__TheodolitRead
 05A9:0DF1       L__WatchDog__TheodolitRead
 05A9:0ECB       L__NicNieRob__TheodolitRead
 05A9:0EE0       $BODY__TheodolitRead
 05A9:1039       $INIT__TheodolitRead
 05A9:1095       $EM__TheodolitRead
 06B3:0000       $BM__GPSRead
 06B3:001A       L__Read_Nic__GPSRead
 06B3:002D       L__Read_Nov__GPSRead
 06B3:0177       L__Read_Trimble__GPSRead
 06B3:0225       L__GPSReceive__GPSRead
 06B3:029B       L__GetDirection__GPSRead
 06B3:02DA       L__GetCurrDataSign__GPSRead
 06B3:0309       L__WatchDog__GPSRead
 06B3:05FA       $BODY__GPSRead
 06B3:0670       $INIT__GPSRead
 06B3:06B3       $EM__GPSRead
 071F:0000       $BM__DGHIni
 071F:03D8       S__InitTableOfNames__DGHIni
 071F:08D1       S__FillSignalTable__DGHIni
 071F:0CDC       S__ReadDGHIniFile__DGHIni
 071F:0D08       $BODY__DGHIni
 071F:0D49       $INIT__DGHIni
 071F:0D73       $EM__DGHIni
 07F7:0000       $BM__V_Files
 07F7:007F       S__StartFiles__V_Files
 07F7:01F6       L__CreateFiles__V_Files
 07F7:0212       L__OpenFiles__V_Files
 07F7:02B4       L__SaveData__V_Files
 07F7:04DB       N__Rd__LoadData__V_Files
 07F7:0524       L__LoadData__V_Files
 07F7:072B       L__CloseFiles__V_Files
 07F7:07BC       L__OpenSignalFiles__V_Files
 07F7:0857       L__ReadAllSignals__V_Files
 07F7:097C       L__CloseSignalFiles__V_Files
 07F7:0996       L__StartFileRes__V_Files
 07F7:0AF8       L__WriteFileRes__V_Files
 07F7:0B62       L__StopFileRes__V_Files
 07F7:0BEB       L__KopiujWszystkiePliki__V_File
 07F7:0D1B       L__GetSigFileName__V_Files
 07F7:0D8E       L__GetResFileName__V_Files
 07F7:0E01       N__AssignName__InitLocals__V_Fi
 07F7:0EAD       S__InitLocals__V_Files
 07F7:1046       $BODY__V_Files
 07F7:104F       $INIT__V_Files
 07F7:10D3       $EM__V_Files
 0905:0000       $BM__VORO_avrage
 0905:0082       L__OrbitDscClear__VORO_avrage
 0905:00C8       S__ResetContiner__VORO_avrage
 0905:00FA       L__ClearContainer__VORO_avrage
 0905:0116       L__InicjujOpisStanuLuku__VORO_a
 0905:013A       N__findidx__SegmentZakonczony__
 0905:0294       L__SegmentZakonczony__VORO_avra
 0905:0349       N__findidx__AddSample__AVR10_Ad
 0905:0495       N__Side__AddSample__AVR10_AddSa
 0905:0528       N__AddSample__AVR10_AddSample__
 0905:08B9       N__O_AvrCountErr__AVR10_AddSamp
 0905:0956       L__AVR10_AddSample__VORO_avrage
 0905:0985       $BODY__VORO_avrage
 0905:098B       $INIT__VORO_avrage
 0905:09BF       $EM__VORO_avrage
 09A2:0000       $BM__D_CommonTypes
 09A2:0002       L__NilDlaPOdleglosci__D_CommonT
 09A2:004A       $BODY__D_CommonTypes
 09A2:0050       $INIT__D_CommonTypes
 09A2:0075       $EM__D_CommonTypes
 09AA:0000       $BM__V_CommonTypes
 09AA:0002       $BODY__V_CommonTypes
 09AA:0008       $INIT__V_CommonTypes
 09AA:0028       $EM__V_CommonTypes
 09AD:0000       $BM__SpecConv
 09AD:009C       S__CheckINil__SpecConv
 09AD:0163       S__CheckCNil__SpecConv
 09AD:01ED       L__Int2Str__SpecConv
 09AD:0225       L__Card2Str__SpecConv
 09AD:025D       L__Int10Str__SpecConv
 09AD:033A       L__Card10Str__SpecConv
 09AD:0411       L__Int100Str__SpecConv
 09AD:0535       L__Int100StrCalk__SpecConv
 09AD:057F       L__Card100Str__SpecConv
 09AD:06A4       L__Ang100Str36__SpecConv
 09AD:0711       L__Ang100Str36Calk__SpecConv
 09AD:078F       L__Int500Str__SpecConv
 09AD:08C0       L__Feed500Str__SpecConv
 09AD:0959       L__Card500Str__SpecConv
 09AD:0A8D       L__Int1000Str__SpecConv
 09AD:0BF8       L__Angle100__SpecConv
 09AD:0C58       L__RAngle100__SpecConv
 09AD:0D36       L__AngleDeg__SpecConv
 09AD:0DA7       L__SubAngle100__SpecConv
 09AD:0E7B       L__AddAngle100__SpecConv
 09AD:0F4F       L__SubAng360__SpecConv
 09AD:101A       L__AfterAngle100__SpecConv
 09AD:10B3       L__SubNormal__SpecConv
 09AD:10CE       L__AddNormal__SpecConv
 09AD:10E9       L__GorszeBoDalszeR__SpecConv
 09AD:1127       L__GorszeBoDalsze__SpecConv
 09AD:1178       L__GorszeBoBlisze__SpecConv
 09AD:11C9       L__GorszeBoMniejszePol__SpecCon
 09AD:120A       L__GorszeBoMniejsze__SpecConv
 09AD:1237       L__GorszeBoWieksze__SpecConv
 09AD:1264       L__GorszeBoMniejszeM60__SpecCon
 09AD:12A5       L__GorszeBoMniejsze400__SpecCon
 09AD:12E6       L__GorszeBoMniejsze800__SpecCon
 09AD:1327       L__GorszeBoMniejsze300__SpecCon
 09AD:1368       L__GorszeBoMniejsze160__SpecCon
 09AD:13A9       L__GorszeBoMniejsze5000__SpecCo
 09AD:13EA       L__GorszeBoMniejsze500__SpecCon
 09AD:142B       L__GorszeBoMniejsze1500__SpecCo
 09AD:146C       L__GorszeBoMniejsze2000__SpecCo
 09AD:14AD       L__GorszeBoDalszeOdZera__SpecCo
 09AD:14EA       L__entierCheck__SpecConv
 09AD:15A6       L__entier__SpecConv
 09AD:165C       L__Int2StrCntr__SpecConv
 09AD:1755       L__Div__SpecConv
 09AD:1782       L__Mul__SpecConv
 09AD:17AE       L__Add__SpecConv
 09AD:17DA       L__Sub__SpecConv
 09AD:180D       L__SubDis__SpecConv
 09AD:1858       L__AddDis__SpecConv
 09AD:189B       L__IncRound__SpecConv
 09AD:18A9       L__SubWCheck__SpecConv
 09AD:1948       L__Int2Card__SpecConv
 09AD:197A       L__ZaokraglicDo500__SpecConv
 09AD:19B9       $BODY__SpecConv
 09AD:19BF       $INIT__SpecConv
 09AD:19F8       $EM__SpecConv
 0B4D:0000       $BM__FlagAnal
 0B4D:0010       N__UsunNajmniejszy__FlagErr_Ana
 0B4D:01D6       L__FlagErr_Anal__FlagAnal
 0B4D:02B3       L__InitFlagErr__FlagAnal
 0B4D:0352       L__GetNextFrac__FlagAnal
 0B4D:044F       L__MinPoczKonSig__FlagAnal
 0B4D:0513       L__MinPoczKonDis__FlagAnal
 0B4D:05D7       L__SumaDlugosciSig__FlagAnal
 0B4D:06A0       $BODY__FlagAnal
 0B4D:06A6       $INIT__FlagAnal
 0B4D:06DA       $EM__FlagAnal
 0BBB:0000       $BM__Czas
 0BBB:003B       S__Write__BezPrzerwan__Czas
 0BBB:00C0       L__GetTimeAndDate__Czas
 0BBB:00C0       L__GetTimeAndDate__BezPrzerwan_
 0BBB:00E8       S__SetTimeAndDate__BezPrzerwan_
 0BBB:0128       L__WriteTime__Czas
 0BBB:01DA       L__SetTime__Czas
 0BBB:021B       L__SetDate__Czas
 0BBB:024E       L__ConvertToStr__Czas
 0BBB:02AF       L__Terminator__Czas
 0BBB:02E0       $BODY__Czas
 0BBB:0308       $INIT__Czas
 0BBB:0369       $EM__Czas
 0BF2:0000       $BM__V_results
 0BF2:0028       L__SaveAnRes__V_results
 0BF2:005A       L__GetAnRes__V_results
 0BF2:0102       N__ClearAnRes__Init__V_results
 0BF2:03B4       L__Init__V_results
 0BF2:04D3       $BODY__V_results
 0BF2:0558       $INIT__V_results
 0BF2:05AA       $EM__V_results
 0C4D:0000       $BM__D_Files
 0C4D:0065       S__StartFiles__D_Files
 0C4D:0231       L__CreateFiles__D_Files
 0C4D:024D       L__OpenFiles__D_Files
 0C4D:02EF       L__SaveData__D_Files
 0C4D:0516       N__Rd__LoadData__D_Files
 0C4D:0557       L__LoadData__D_Files
 0C4D:075E       L__CloseFiles__D_Files
 0C4D:081C       L__OpenSignalFiles__D_Files
 0C4D:08AC       L__ReadAllSignals__D_Files
 0C4D:0A2E       L__CloseSignalFiles__D_Files
 0C4D:0A48       L__KopiujWszystkiePliki__D_File
 0C4D:0B34       L__GetFileName__D_Files
 0C4D:0BA7       N__AssignName__InitLocals__D_Fi
 0C4D:0C53       S__InitLocals__D_Files
 0C4D:0D80       $BODY__D_Files
 0C4D:0D89       $INIT__D_Files
 0C4D:0E08       $EM__D_Files
 0D2E:0000       $BM__MMA_Cout
 0D2E:000A       L__Init_MMA_SignalDsc__MMA_Cout
 0D2E:003F       L__Count_MMA_SignalDsc__MMA_Cou
 0D2E:00D6       L__Init_AvrDscr__MMA_Cout
 0D2E:0124       L__MinMaxAvr__MMA_Cout
 0D2E:01BF       $BODY__MMA_Cout
 0D2E:01C5       $INIT__MMA_Cout
 0D2E:01F4       $EM__MMA_Cout
 0D4E:0000       $BM__D_results
 0D4E:0022       L__SaveAnRes__D_results
 0D4E:0054       L__GetAnRes__D_results
 0D4E:00FF       N__Init_MMA_SignalDscArr__Init_
 0D4E:0150       L__Init__D_results
 0D4E:038B       $BODY__D_results
 0D4E:0413       $INIT__D_results
 0D4E:0460       $EM__D_results
 0D95:0000       $BM__PI_Glowny
 0D95:0002       L__GlownyEP__PI_Glowny
 0D95:0092       $BODY__PI_Glowny
 0D95:0098       $INIT__PI_Glowny
 0D95:00D6       $EM__PI_Glowny
 0DA3:0000       $BM__T_Oblot
 0DA3:022D       L__NadajnikNaVor1__T_Oblot
 0DA3:02B8       L__NadajnikNaVor2__T_Oblot
 0DA3:0343       L__TestUP_PROC__T_Oblot
 0DA3:0363       L__Raport_PROC__T_Oblot
 0DA3:0383       L__PlayP__T_Oblot
 0DA3:03A3       L__View_PROC__T_Oblot
 0DA3:03C3       S__RealVal__T_Oblot
 0DA3:0420       S__Pokaz__T_Oblot
 0DA3:044E       S__ZakonczDlg__T_Oblot
 0DA3:0464       L__PomiarP__T_Oblot
 0DA3:0484       S__RealValid__T_Oblot
 0DA3:054D       L__RealCisnValid__T_Oblot
 0DA3:0616       S__NadajnikCH__T_Oblot
 0DA3:063D       N__InitDefault__InitLot__T_Oblo
 0DA3:073A       N__SaveDefault__InitLot__T_Oblo
 0DA3:079C       N__AssignButt__InitLot__T_Oblot
 0DA3:0B50       N__FillData__InitLot__T_Oblot
 0DA3:0D5A       L__InitLot__T_Oblot
 0DA3:0E5E       S__SciezkaDoKataloguOpisu__T_Ob
 0DA3:0F56       S__Wlacz_Wylacz__T_Oblot
 0DA3:1021       L__Zapisz__T_Oblot
 0DA3:1144       $BODY__T_Oblot
 0DA3:11A1       $INIT__T_Oblot
 0DA3:1275       $EM__T_Oblot
 0ECB:0000       $BM__T_Inspekcja
 0ECB:031E       S__Pokaz__T_Inspekcja
 0ECB:0388       L__UsunOblot__T_Inspekcja
 0ECB:0423       L__UsunOblotP__T_Inspekcja
 0ECB:0472       L__ProbujWstawicOblot__T_Inspek
 0ECB:0488       L__ZmienOblot__T_Inspekcja
 0ECB:0752       L__EnumObl__T_Inspekcja
 0ECB:077C       L__WymienPasujaceObloty__T_Insp
 0ECB:07DE       L__DodajOblot__T_Inspekcja
 0ECB:0EC4       L__NowyOblot__T_Inspekcja
 0ECB:0F13       L__OblotOK__T_Inspekcja
 0ECB:0FC0       N__SetDefInsp__InspekcjaEP__T_I
 0ECB:106A       L__InspekcjaEP__T_Inspekcja
 0ECB:13E8       $BODY__T_Inspekcja
 0ECB:1421       $INIT__T_Inspekcja
 0ECB:14C3       $EM__T_Inspekcja
 1018:0000       $BM__CommonData
 1018:0012       $BODY__CommonData
 1018:00A7       $INIT__CommonData
 1018:00CC       $EM__CommonData
 1025:0000       $BM__Files
 1025:016F       L__Kopiuj__Files
 1025:0240       L__ReadDef__Files
 1025:0273       L__CreateFiles__Files
 1025:0638       L__OpenFiles__Files
 1025:09FD       L__SaveData__Files
 1025:0CB2       L__LoadData__Files
 1025:0F3B       L__CloseFiles__Files
 1025:1096       L__OpenSignalFiles__Files
 1025:1685       L__ReadXref__Files
 1025:16EA       L__ReadFlgs__Files
 1025:1729       L__ReadAllSignals__Files
 1025:17EB       L__CloseSignalFiles__Files
 1025:1902       S__RemoveBSl__Files
 1025:1965       N__TworzK__KopiujWszystkiePliki
 1025:19D4       L__KopiujWszystkiePliki__Files
 1025:1BE4       L__LoadAResult__Files
 1025:1D15       L__SaveAResult__Files
 1025:1DB9       L__ExistDIR__Files
 1025:1E04       L__ChangeDir__Files
 1025:1E3D       L__GoHomeDir__Files
 1025:1E70       S__AssignName__Files
 1025:1F1C       L__SubstituteAngle100__Files
 1025:1F61       L__addAngle100__Files
 1025:1FCB       L__subNormal__Files
 1025:203F       L__addNormal__Files
 1025:20C9       L__FInterpolacja__Files
 1025:246E       L__SigInterpolacja__Files
 1025:264E       L__GetALfaRefFName__Files
 1025:26C2       L__GetDisRefFName__Files
 1025:2735       L__GetCommSigFName__Files
 1025:27A8       L__OpenCommSigFName__Files
 1025:2819       L__CloseCommSigFName__Files
 1025:2833       L__ReadCommSigFName__Files
 1025:2852       S__Init__Files
 1025:2B3D       $BODY__Files
 1025:2B56       $INIT__Files
 1025:2BCB       $EM__Files
 12E2:0000       $BM__V_CP_ControlProc
 12E2:0012       S__ClearLinVelContiner__V_CP_Co
 12E2:006E       N__succ__RadialDirection__Radia
 12E2:009B       N__checkDir__RadialDirection__R
 12E2:0149       N__RadialDirection__Radial__V_C
 12E2:0329       L__Radial__V_CP_ControlProc
 12E2:04FD       S__ClearAngVelContiner__V_CP_Co
 12E2:0559       N__succ__OrbitDirection__Orbit_
 12E2:0586       N__checkDir__OrbitDirection__Or
 12E2:05DE       N__OrbitDirection__Orbit__V_CP_
 12E2:07B7       L__Orbit__V_CP_ControlProc
 12E2:09BD       L__StartCPLoop__V_CP_ControlPro
 12E2:0A8A       L__StopCPLoop__V_CP_ControlProc
 12E2:0AF3       $BODY__V_CP_ControlProc
 12E2:0B48       $INIT__V_CP_ControlProc
 12E2:0BA9       $EM__V_CP_ControlProc
 139D:0000       $BM__Pomiar
 139D:00F4       L__StartBP__Pomiar
 139D:0104       L__RestartBP__Pomiar
 139D:0114       L__AbortBP__Pomiar
 139D:0124       L__CallStopButton__Pomiar
 139D:012E       L__StopBP__Pomiar
 139D:013E       L__PrzelaczPomiaryBP__Pomiar
 139D:014F       L__AkceptacjaBP__Pomiar
 139D:015F       N__Sek2__PolaryzacjaBP__Pomiar
 139D:01F6       L__PolaryzacjaBP__Pomiar
 139D:03EF       L__InitPomiar__Pomiar
 139D:05EF       N__PoprawnieUstawButtony__Pomia
 139D:06EF       N__NastepnyStan__GetEvent__Pomi
 139D:0767       N__GetEvent__PomiarEP__Pomiar
 139D:08A5       N__InitButtony__PomiarEP__Pomia
 139D:0B16       N__DisposeButtons__Done__Pomiar
 139D:0B84       N__Done__PomiarEP__Pomiar
 139D:0B92       N__AlfaRefInfo__PomiarEP__Pomia
 139D:0BD2       N__DeltaRefInfo__PomiarEP__Pomi
 139D:0C3F       N__DataLosInfo__PomiarEP__Pomia
 139D:0C88       N__PrologAnalyse__PomiarEP__Pom
 139D:0EC2       L__PomiarEP__Pomiar
 139D:14E0       $BODY__Pomiar
 139D:153F       $INIT__Pomiar
 139D:15AF       $EM__Pomiar
 14F9:0000       $BM__Screen
 14F9:01D5       S__RectWykresy__Screen
 14F9:0259       S__UniversalEvent__Dialog__Scre
 14F9:02D8       L__RegionWykGEvent__Dialog__Scr
 14F9:0323       L__RegionWykGButton__Dialog__Sc
 14F9:037F       L__RegionWyk1Event__Dialog__Scr
 14F9:03CA       L__RegionWyk1Button__Dialog__Sc
 14F9:0419       L__RegionWyk2Event__Dialog__Scr
 14F9:0464       L__RegionWyk2Button__Dialog__Sc
 14F9:04B3       L__RegionWyk3Event__Dialog__Scr
 14F9:04FE       L__RegionWyk3Button__Dialog__Sc
 14F9:054D       S__PokazWgKursora__Dialog__Scre
 14F9:0B48       L__WykrEvent__Dialog__Screen
 14F9:0BC1       L__KursorLewoButton__Dialog__Sc
 14F9:0BDA       L__KursorPrawoPar__Dialog__Scre
 14F9:0BF3       N__RedrawRqs__Xchg__Dialog__Scr
 14F9:0C7D       S__Xchg__Dialog__Screen
 14F9:0CC9       S__ShowBarCursor__Dialog__Scree
 14F9:0D49       L__KursorOnOffBP__Dialog__Scree
 14F9:0D66       L__SkalaPlusBP__Dialog__Screen
 14F9:0E5D       L__SkalaMinusBP__Dialog__Screen
 14F9:0F54       L__KursorPrawoBP__Dialog__Scree
 14F9:0F7E       L__KursorLewoBP__Dialog__Screen
 14F9:0FA8       S__UpdateMap__Dialog__Screen
 14F9:0FD7       N__CurrCursorMode__RuszKursor__
 14F9:10CD       S__RuszKursor__Dialog__Screen
 14F9:1236       N__CurrDistance__OpisDla__InitW
 14F9:13D2       N__OpisDla__InitWykr__Dialog__S
 14F9:1749       S__InitWykr__Dialog__Screen
 14F9:17F1       S__InitDialog__Dialog__Screen
 14F9:1876       S__DisposeKursor__Dialog__Scree
 14F9:18A7       S__KursoffOff__Dialog__Screen
 14F9:18CD       S__KursoffOn__Dialog__Screen
 14F9:18F9       L__ConEventButton__Screen
 14F9:190A       L__SetButtons__Screen
 14F9:1983       S__InitButtony__Screen
 14F9:1AFD       N__ShowCurrDIB__InitSlupki__Scr
 14F9:1B5E       N__Define__InitSlupki__Screen
 14F9:1B9A       S__InitSlupki__Screen
 14F9:1D4C       S__InitKrokOpisuOsi__Screen
 14F9:1D6D       L__Init__Screen
 14F9:1F5F       N__WriteText__ShowMarks__Update
 14F9:20D1       N__DrawEvent__ShowMarks__Update
 14F9:2201       N__ZwKrokOpisuOsi__ShowMarks__U
 14F9:22B6       N__ShowMarks__UpdateWykr__Updat
 14F9:2485       N__UpdateWykr__Update__Screen
 14F9:2CA3       N__MarkDraw__WskazWykresy__Upda
 14F9:2D08       N__WskazWykresy__Update__Screen
 14F9:2D80       N__NapiszGPSFlg__NapiszGPS__Upd
 14F9:2DE6       N__NapiszGPS__UpdateNapisy__Upd
 14F9:30F6       N__NapiszTEO__UpdateNapisy__Upd
 14F9:3357       N__UpdateNapisy__Update__Screen
 14F9:34A4       L__Update__Screen
 14F9:35A5       L__ScreenStart__Screen
 14F9:35AE       N__KasujSlupki__Done__Screen
 14F9:3664       N__DisposeButtons__Done__Screen
 14F9:36CD       L__Done__Screen
 14F9:36D9       $BODY__Screen
 14F9:36F5       $INIT__Screen
 14F9:37A6       $EM__Screen
 1874:0000       $BM__PI_Analiza
 1874:0062       L__DrukujBP__MouseMonitor__PI_A
 1874:0091       L__ZapamietajBP__MouseMonitor__
 1874:00C0       L__PWyjscieZProgramuBP__MouseMo
 1874:00EF       L__PageUpBP__MouseMonitor__PI_A
 1874:011E       L__PrzelaczPomiaryBP__MouseMoni
 1874:014D       L__PageDownBP__MouseMonitor__PI
 1874:017C       S__InitButtony__MouseMonitor__P
 1874:036D       S__GetEvent__MouseMonitor__PI_A
 1874:042C       S__DisposeButtons__MouseMonitor
 1874:04A9       $BODY__MouseMonitor__PI_Analiza
 1874:0518       L__AnalizaEP__PI_Analiza
 1874:072D       $BODY__PI_Analiza
 1874:0736       $INIT__PI_Analiza
 1874:07B0       $EM__PI_Analiza
 18F0:0000       $BM__PI_Pomiar
 18F0:0022       L__V_Analiza__PI_Pomiar
 18F0:0076       L__D_Analiza__PI_Pomiar
 18F0:00C0       L__NullPolV__PI_Pomiar
 18F0:00C8       L__InitPomiar__PI_Pomiar
 18F0:05C5       $BODY__PI_Pomiar
 18F0:05CB       $INIT__PI_Pomiar
 18F0:0654       $EM__PI_Pomiar
 1956:0000       $BM__PI_ArchDate
 1956:0002       L__LoadData__PI_ArchDate
 1956:00C4       $BODY__PI_ArchDate
 1956:00CA       $INIT__PI_ArchDate
 1956:012B       $EM__PI_ArchDate
 1969:0000       $BM__PI_Drukuj
 1969:0002       L__Druk__PI_Drukuj
 1969:0028       $BODY__PI_Drukuj
 1969:002E       $INIT__PI_Drukuj
 1969:0053       $EM__PI_Drukuj
 196F:0000       $BM__Storage
 196F:0002       L__ALLOCATE__Storage
 196F:01B9       L__DEALLOCATE__Storage
 196F:02D0       L__Available__Storage
 196F:03A3       L__InstallHeap__Storage
 196F:0422       L__RemoveHeap__Storage
 196F:04B3       S__SetStrategia__Storage
 196F:04CB       S__GetStrategia__Storage
 196F:04E7       S__SetChain__Storage
 196F:04FF       S__GetChain__Storage
 196F:051E       L__Terminator__Storage
 196F:0544       $BODY__Storage
 196F:058E       $INIT__Storage
 196F:05B8       $EM__Storage
 19CB:0000       $BM__SoftIntHandlingManager
 19CB:0002       L__SetEventHandler__SoftIntHand
 19CB:0041       L__RestoreEventHandler__SoftInt
 19CB:0067       L__checkBreak__SoftIntHandlingM
 19CB:008A       L__BreakChain__SoftIntHandlingM
 19CB:009A       L__InstPrologueHnd__SoftIntHand
 19CB:009A       L__InstPrologueHnd__Monitor__So
 19CB:0256       L__InstEpilogueHnd__SoftIntHand
 19CB:0256       L__InstEpilogueHnd__Monitor__So
 19CB:03FA       L__UnInstallHandler__Monitor__S
 19CB:03FA       L__UnInstallHandler__SoftIntHan
 19CB:0517       L__UnInstallAllHandlers__Monito
 19CB:0590       $BODY__Monitor__SoftIntHandling
 19CB:05BE       $BODY__SoftIntHandlingManager
 19CB:05D1       $INIT__SoftIntHandlingManager
 19CB:05F6       $EM__SoftIntHandlingManager
 1A2B:0000       $BM__Timer
 1A2B:0002       S__Insert__Monitor__Timer
 1A2B:0159       S__Remove__Monitor__Timer
 1A2B:0277       L__Wait__Monitor__Timer
 1A2B:0277       L__Wait__Timer
 1A2B:0309       L__WaitBefProtOper__Timer
 1A2B:0309       L__WaitBefProtOper__Monitor__Ti
 1A2B:03B8       L__WaitMetronomeBefProtOper__Mo
 1A2B:03B8       L__WaitMetronomeBefProtOper__Ti
 1A2B:043F       L__WaitMetronome__Monitor__Time
 1A2B:043F       L__WaitMetronome__Timer
 1A2B:04B5       L__DefinePeriod__Monitor__Timer
 1A2B:04B5       L__DefinePeriod__Timer
 1A2B:051F       L__CurrentPeriod__Monitor__Time
 1A2B:051F       L__CurrentPeriod__Timer
 1A2B:0559       L__AssignPeriodicProc__Monitor_
 1A2B:0559       L__AssignPeriodicProc__Timer
 1A2B:057E       N__Count__IBMIntHandler__Monito
 1A2B:06FC       L__IBMIntHandler__Monitor__Time
 1A2B:07F7       S__SetCount__Monitor__Timer
 1A2B:08B3       L__RestoreTimer__Monitor__Timer
 1A2B:08D4       $BODY__Monitor__Timer
 1A2B:092C       L__TInOneSecond__Timer
 1A2B:0940       L__NewMetronome__Timer
 1A2B:09B7       L__ResetMetronome__Timer
 1A2B:0A36       L__DisposeMetronome__Timer
 1A2B:0A94       L__NewWatchdog__Timer
 1A2B:0AE2       L__StartProtectedOperation__Tim
 1A2B:0B56       L__StopProtectedOperation__Time
 1A2B:0B9B       L__DisposeWatchdog__Timer
 1A2B:0BFF       L__Dummy__Timer
 1A2B:0C05       S__BreakKey__Timer
 1A2B:0C72       $BODY__Timer
 1A2B:0C8E       $INIT__Timer
 1A2B:0CBD       $EM__Timer
 1AF7:0000       $BM__Messages
 1AF7:0004       L__DisableDisplay__Messages
 1AF7:002E       L__EnableDisplay__Messages
 1AF7:0058       S__ACKMess__Messages
 1AF7:010B       L__NewMessage__Messages
 1AF7:0164       L__DisposeMessage__Messages
 1AF7:0181       L__Display__Messages
 1AF7:0265       L__ShowFirst__Messages
 1AF7:0312       L__AcknowledgeFirst__Messages
 1AF7:0337       L__Acknowledge__Messages
 1AF7:0358       S__OUTMessage__Messages
 1AF7:0382       S__Beep__Messages
 1AF7:03F9       L__KbdAck__Messages
 1AF7:0405       L__KbdDsp__Messages
 1AF7:0411       $BODY__Messages
 1AF7:046A       $INIT__Messages
 1AF7:04A8       $EM__Messages
 1B42:0000       $BM__StdIO
 1B42:0022       N__GetNum__sprintf__StdIO
 1B42:00C8       N__IntConv__sprintf__StdIO
 1B42:023F       N__StripSpaces__sprintf__StdIO
 1B42:031F       N__BuildNumber__sprintf__StdIO
 1B42:037B       L__sprintf__StdIO
 1B42:0D80       L__sprintf4__StdIO
 1B42:0F81       L__sprintf5__StdIO
 1B42:11F3       L__sprintf3__StdIO
 1B42:1383       L__sprintf2__StdIO
 1B42:149F       $BODY__StdIO
 1B42:14A5       $INIT__StdIO
 1B42:14D9       $EM__StdIO
 1C90:0000       $BM__DGHInterface
 1C90:002B       L__GetCurrDataSign__DGHInterfac
 1C90:005A       L__WaitForNewData__DGHInterface
 1C90:00A0       L__TurnOff__DGHInterface
 1C90:00F2       L__TurnOn__DGHInterface
 1C90:0187       L__GetAnalogVal__DGHInterface
 1C90:0226       L__GetBinaryVal__DGHInterface
 1C90:02BB       L__SetAnalogVal__DGHInterface
 1C90:0392       L__SetBinaryVal__DGHInterface
 1C90:04A0       L__SetMessage__DGHInterface
 1C90:065C       N__HexDigit__CHKSRight__Reader_
 1C90:06B0       N__CHKSRight__Reader__Writer__D
 1C90:07A4       N__Reader__Writer__DGHInterface
 1C90:0CCB       L__Writer__DGHInterface
 1C90:0F7B       $BODY__DGHInterface
 1C90:102C       $INIT__DGHInterface
 1C90:1079       $EM__DGHInterface
 1D98:0000       $BM__HiLevGraf
 1D98:0007       S__Max__HiLevGraf
 1D98:0027       S__Min__HiLevGraf
 1D98:0047       S__StdPalette__HiLevGraf
 1D98:0182       L__SetPaletteEntry__HiLevGraf
 1D98:0230       S__SetPalette__HiLevGraf
 1D98:030F       N__OpenF__LoadDIB__HiLevGraf
 1D98:03A5       L__LoadDIB__HiLevGraf
 1D98:06B5       L__DIBWidth__HiLevGraf
 1D98:06E9       L__DIBHeight__HiLevGraf
 1D98:071E       S__Swap__HiLevGraf
 1D98:0741       S__Norm__HiLevGraf
 1D98:0785       L__ShowDIB__HiLevGraf
 1D98:0A9F       L__CloseDIB__HiLevGraf
 1D98:0AE1       L__SetLineStyle__HiLevGraf
 1D98:0AF4       L__Line__HiLevGraf
 1D98:0B20       L__LineS__HiLevGraf
 1D98:0C85       L__Circle__HiLevGraf
 1D98:0F6C       L__FillRect__HiLevGraf
 1D98:1026       L__Clip__HiLevGraf
 1D98:10F4       L__NoClip__HiLevGraf
 1D98:115F       L__GetClip__HiLevGraf
 1D98:117A       L__Point__HiLevGraf
 1D98:121A       L__MoveTo__HiLevGraf
 1D98:1234       L__LineTo__HiLevGraf
 1D98:1268       L__FrameRect__HiLevGraf
 1D98:12D2       L__WrStr__HiLevGraf
 1D98:138A       L__WrStrXY__HiLevGraf
 1D98:144C       L__Wr2StrXY__HiLevGraf
 1D98:1504       L__Wr2fStrXY__HiLevGraf
 1D98:15BC       S__GetDir__HiLevGraf
 1D98:1630       $BODY__HiLevGraf
 1D98:1678       $INIT__HiLevGraf
 1D98:16E3       $EM__HiLevGraf
 1F07:0000       $BM__GrafTypes
 1F07:0002       L__IsIntersect__GrafTypes
 1F07:0058       L__Intersection__GrafTypes
 1F07:0100       L__MoveRect__GrafTypes
 1F07:014B       L__IsEqual__GrafTypes
 1F07:0187       L__AssignRect__GrafTypes
 1F07:01AD       L__AssignPoint__GrafTypes
 1F07:01C5       $BODY__GrafTypes
 1F07:01CB       $INIT__GrafTypes
 1F07:01E6       $EM__GrafTypes
 1F26:0000       $BM__MsgBox
 1F26:0017       L__Warn__MsgBox
 1F26:0072       L__Info__MsgBox
 1F26:00F2       L__AdvInfo__MsgBox
 1F26:05C9       L__P0__MsgBox
 1F26:05EA       L__P1__MsgBox
 1F26:060B       L__P2__MsgBox
 1F26:062C       L__P3__MsgBox
 1F26:064D       S__Init__MsgBox
 1F26:0680       $BODY__MsgBox
 1F26:0689       $INIT__MsgBox
 1F26:06DB       $EM__MsgBox
 1F94:0000       $BM__GrafUtil
 1F94:0003       L__Info__GrafUtil
 1F94:00BB       L__InfoBeep__GrafUtil
 1F94:0112       L__DoBeep__GrafUtil
 1F94:017A       $BODY__GrafUtil
 1F94:01D3       $INIT__GrafUtil
 1F94:0220       $EM__GrafUtil
 1FB7:0000       $BM__V_Odb
 1FB7:002A       N__ReadNAV__Oblicz__V_Odb
 1FB7:0434       L__Oblicz__V_Odb
 1FB7:063C       L__PoprawDane__V_Odb
 1FB7:08AB       S__ClearContiners__V_Odb
 1FB7:0A38       L__Start__V_Odb
 1FB7:0A58       L__Zatrzymaj__V_Odb
 1FB7:0A75       L__Wznow__V_Odb
 1FB7:0A92       L__IniData__V_Odb
 1FB7:0BCA       $BODY__V_Odb
 1FB7:0BFB       $INIT__V_Odb
 1FB7:0C61       $EM__V_Odb
 207E:0000       $BM__NAVGPIB
 207E:01F5       S__ConvertTMStr__NAVGPIB
 207E:0261       S__GetResponse__NAVGPIB
 207E:0357       L__DoSimpleComm__NAVGPIB
 207E:045A       L__DoCommandRealPar__NAVGPIB
 207E:04FA       L__VOR_Default__NAVGPIB
 207E:06B0       L__LOC_Default__NAVGPIB
 207E:081B       L__GS_Default__NAVGPIB
 207E:096C       L__MKR_Default__NAVGPIB
 207E:0A79       $BODY__NAVGPIB
 207E:0C8A       $INIT__NAVGPIB
 207E:0CD7       $EM__NAVGPIB
 214C:0000       $BM__AltInterface
 214C:0012       L__SetPressure__AltInterface
 214C:0032       L__ALTConvert__AltInterface
 214C:0214       $BODY__AltInterface
 214C:02DB       $INIT__AltInterface
 214C:030F       $EM__AltInterface
 217E:0000       $BM__Int_DME
 217E:0002       L__DMEConvert__Int_DME
 217E:00C8       $BODY__Int_DME
 217E:00CE       $INIT__Int_DME
 217E:00EE       $EM__Int_DME
 218D:0000       $BM__FIltr1St
 218D:0082       L__UstawOkresImpulsowania__FIlt
 218D:00A2       L__InitCont__FIltr1St
 218D:0199       L__Filtr__FIltr1St
 218D:024F       L__InitCont2Filters__FIltr1St
 218D:03DA       L__Filtr2Filters__FIltr1St
 218D:050E       L__InitContB__FIltr1St
 218D:053F       L__FiltrB__FIltr1St
 218D:0598       L__InitContBCoun__FIltr1St
 218D:05B7       L__BinaryCounter__FIltr1St
 218D:0607       L__MemFiltr__FIltr1St
 218D:0689       L__InitMemFiltr__FIltr1St
 218D:06B5       L__MemFiltrInt__FIltr1St
 218D:0712       L__InitMemFIntContiner__FIltr1S
 218D:0737       $BODY__FIltr1St
 218D:0757       $INIT__FIltr1St
 218D:0786       $EM__FIltr1St
 2206:0000       $BM__GeoArithmetic
 2206:006A       S__DodajPolozenieGeo__GeoArithm
 2206:012E       S__Odwr__GeoArithmetic
 2206:01D4       S__OdejmijPolozenieGeo__GeoArit
 2206:02F0       S__SredniPolozenieGeo__GeoArith
 2206:03A9       S__Rad__GeoArithmetic
 2206:04C0       S__Odl2Geo__GeoArithmetic
 2206:0601       S__Mile__GeoArithmetic
 2206:0719       L__Geo2Kat__GeoArithmetic
 2206:0AEF       L__Kat2Geo__GeoArithmetic
 2206:0D1C       L__AssignOdniesienie__GeoArithm
 2206:0D90       $BODY__GeoArithmetic
 2206:0DA1       $INIT__GeoArithmetic
 2206:0DD5       $EM__GeoArithmetic
 22E4:0000       $BM__DGH_utils
 22E4:0002       L__TurnOffILSSig__DGH_utils
 22E4:00D0       L__TurnOnLOCSig__DGH_utils
 22E4:016E       L__TurnOnGSSig__DGH_utils
 22E4:020C       L__TurnOnVORSig__DGH_utils
 22E4:027A       L__TurnOffVORSig__DGH_utils
 22E4:02E8       L__TurnOnDMESig__DGH_utils
 22E4:0366       L__TurnOffDMESig__DGH_utils
 22E4:03E4       L__TurnOnADFSig__DGH_utils
 22E4:0432       L__TurnOffADFSig__DGH_utils
 22E4:0480       N__ReadAnalog__ReadValue__DGH_u
 22E4:04A8       L__ReadValue__DGH_utils
 22E4:063C       L__ReadOmniber__DGH_utils
 22E4:06BA       L__BinaryValSet__DGH_utils
 22E4:0734       $BODY__DGH_utils
 22E4:084D       $INIT__DGH_utils
 22E4:08A4       $EM__DGH_utils
 236F:0000       $BM__Kalibracja
 236F:097E       L__GetErrReset__Kalibracja
 236F:097E       L__GetErrReset__ErrorHand__Kali
 236F:09B6       S__SetError__ErrorHand__Kalibra
 236F:09DC       $BODY__ErrorHand__Kalibracja
 236F:09FA       N__Lookup__OmnibearingV__Kalibr
 236F:0E16       L__OmnibearingV__Kalibracja
 236F:0F88       L__Lookup__Kalibracja
 236F:143A       N__Status__Error__Kalibracja
 236F:1489       S__Error__Kalibracja
 236F:14D4       N__LoadValue__LoadSegmentTables
 236F:15EC       N__LoadReal__LoadSegmentTables_
 236F:1673       N__LoadTable__LoadSegmentTables
 236F:1719       N__LoadSegment__LoadChannel__Lo
 236F:17D7       N__LoadChannel__LoadSegmentTabl
 236F:1E6D       S__LoadSegmentTables__Kalibracj
 236F:219B       N__SaveValue__SaveSegmentTables
 236F:2293       N__SaveReal__SaveSegmentTables_
 236F:230E       N__SaveTable__SaveSegmentTables
 236F:23A0       N__SaveSegment__SaveChannel__Sa
 236F:243E       N__SaveChannel__SaveSegmentTabl
 236F:2A2F       L__SaveSegmentTables__Kalibracj
 236F:2C81       $BODY__Kalibracja
 236F:2DA5       $INIT__Kalibracja
 236F:2E15       $EM__Kalibracja
 2651:0000       $BM__DigiRS
 2651:0002       L__GetWrBufLength__DigiRS
 2651:004E       S__MarkError__DigiRS
 2651:007D       L__ReadString__DigiRS
 2651:00F3       L__WriteString__DigiRS
 2651:018F       L__SetBaudRate__DigiRS
 2651:02D4       $BODY__DigiRS
 2651:02F2       $INIT__DigiRS
 2651:031C       $EM__DigiRS
 2683:0000       $BM__RealConversions
 2683:0052       L__StringToReal__RealConversion
 2683:04DF       N__convDigit__RealToString__Rea
 2683:0572       N__convertnumber__RealToString_
 2683:05EA       N__exp10__RealToString__RealCon
 2683:06AC       L__RealToString__RealConversion
 2683:0AF9       $BODY__RealConversions
 2683:0AFF       $INIT__RealConversions
 2683:0B1F       $EM__RealConversions
 2736:0000       $BM__Math
 2736:002A       L__ACos__Math
 2736:018D       L__Sqr__Math
 2736:01BD       $BODY__Math
 2736:01C3       $INIT__Math
 2736:01E8       $EM__Math
 2755:0000       $BM__GPS_nov
 2755:014D       L__KopijZnakZTeo__GPS_nov
 2755:0170       S__KopZnakDoKanaluMonitora__GPS
 2755:0193       N__ConvertHexChar__ReadGPS__Get
 2755:0200       N__ReadGPS__GetFrame__GPS_nov
 2755:03B1       N__szukaniePola__GetFrame__GPS_
 2755:0426       N__DekomozycjaRamki__GetFrame__
 2755:04F0       N__GetReal__GetFrame__GPS_nov
 2755:0538       N__GetCardinal__GetFrame__GPS_n
 2755:058D       N__GetInteger__GetFrame__GPS_no
 2755:05E2       N__An_Frame_DOPA__GetFrame__GPS
 2755:06A2       N__Isolate__ConvertStrToWspGeo_
 2755:0929       N__ConvertStrToWspGeo__GetWspGe
 2755:09E3       N__GetWspGeo__An_Frame_GPGGA__G
 2755:0A2D       N__An_Frame_GPGGA__GetFrame__GP
 2755:0B25       N__An_Frame_GPVTG__GetFrame__GP
 2755:0B90       N__Wydziel__An_Frame_GPZDA__Get
 2755:0C2E       N__An_Frame_GPZDA__GetFrame__GP
 2755:0CFB       L__GetFrame__GPS_nov
 2755:0DCE       L__Inicjacja__GPS_nov
 2755:109C       L__gpzdaOff__GPS_nov
 2755:10EC       $BODY__GPS_nov
 2755:11A6       $INIT__GPS_nov
 2755:11FD       $EM__GPS_nov
 2875:0000       $BM__GPS_TRIMBLE
 2875:0021       N__ReadPacketHead__GetFrame__GP
 2875:006A       N__ReadEOL__GetFrame__GPS_TRIMB
 2875:00C9       N__ReadGPS__GetFrame__GPS_TRIMB
 2875:016D       N__WspGeoPoprawne__ReadG__GetFr
 2875:01D7       N__Isolate__ReadG__GetFrame__GP
 2875:0306       N__ReadG__GetFrame__GPS_TRIMBLE
 2875:03CB       N__TypGPS__GetFrame__GPS_TRIMBL
 2875:043F       N__Wydziel__GetFrame__GPS_TRIMB
 2875:0509       N__PodstawWyniki__GetFrame__GPS
 2875:05C7       L__GetFrame__GPS_TRIMBLE
 2875:082D       L__Inicjacja__GPS_TRIMBLE
 2875:084A       $BODY__GPS_TRIMBLE
 2875:08B5       $INIT__GPS_TRIMBLE
 2875:08F8       $EM__GPS_TRIMBLE
 2905:0000       $BM__Ini
 2905:0006       L__DefaultError__Ini
 2905:001E       S__FormSectionString__Ini
 2905:010A       S__LookForSection__Ini
 2905:018F       N__ToEOL__LookForEntry__Ini
 2905:020F       S__LookForEntry__Ini
 2905:035E       L__GetPrivateProfileString__Ini
 2905:050E       L__DeleteSection__Ini
 2905:06C6       L__WritePrivateProfileString__I
 2905:0BE2       S__Expand__Ini
 2905:0E08       L__CloseBuffer__Ini
 2905:0F29       S__AllocateBuffer__Ini
 2905:1139       $BODY__Ini
 2905:119F       $INIT__Ini
 2905:11D8       $EM__Ini
 2A23:0000       $BM__FIO
 2A23:0002       L__Open__FIO
 2A23:00FA       L__Create__FIO
 2A23:01F2       L__Close__FIO
 2A23:026A       L__Seek__FIO
 2A23:02BC       L__Write__FIO
 2A23:0301       L__Read__FIO
 2A23:0346       L__ReadExt__FIO
 2A23:0389       L__Length__FIO
 2A23:040B       L__EOF__FIO
 2A23:046B       L__Delete__FIO
 2A23:04B4       L__CD__FIO
 2A23:0510       L__MkDir__FIO
 2A23:056C       L__RmDir__FIO
 2A23:05B5       L__GetDir__FIO
 2A23:0614       L__Rename__FIO
 2A23:0685       L__GetFileStamp__FIO
 2A23:0700       L__DirQuery__FIO
 2A23:08B1       L__CriticalErrorHandlerProc__FI
 2A23:08BA       L__Terminator__FIO
 2A23:097A       S__InitFiles__FIO
 2A23:09F0       $BODY__FIO
 2A23:0A16       $INIT__FIO
 2A23:0A45       $EM__FIO
 2AC8:0000       $BM__WorseBecause
 2AC8:0002       L__WorseBLess__WorseBecause
 2AC8:003E       L__WorseBLessDis__WorseBecause
 2AC8:0069       L__WorseBGreater__WorseBecause
 2AC8:00A5       $BODY__WorseBecause
 2AC8:00AB       $INIT__WorseBecause
 2AC8:00D0       $EM__WorseBecause
 2AD6:0000       $BM__Graphics
 2AD6:000B       L__MaxHor__Graphics
 2AD6:0014       L__MaxVer__Graphics
 2AD6:001D       L__Tryb__Graphics
 2AD6:008B       S__HugeMemCpy__Graphics
 2AD6:0136       L__SetBank__InternalMonitor__Gr
 2AD6:0136       L__SetBank__Graphics
 2AD6:0191       L__GetBank__InternalMonitor__Gr
 2AD6:0191       L__GetBank__Graphics
 2AD6:01B2       L__DP__Graphics
 2AD6:01B2       L__DP__InternalMonitor__Graphic
 2AD6:025A       L__FillRect__Graphics
 2AD6:025A       L__FillRect__InternalMonitor__G
 2AD6:03B5       L__GetWindow__InternalMonitor__
 2AD6:03B5       L__GetWindow__Graphics
 2AD6:0593       L__InvertW__Graphics
 2AD6:0593       L__InvertW__InternalMonitor__Gr
 2AD6:0703       L__SetWindow__Graphics
 2AD6:0703       L__SetWindow__InternalMonitor__
 2AD6:08E1       L___WrStrXY__Graphics
 2AD6:08E1       L___WrStrXY__InternalMonitor__G
 2AD6:09BB       S__GetFontPtr__InternalMonitor_
 2AD6:0CF3       L___Wr16StrXY__InternalMonitor_
 2AD6:0CF3       L___Wr16StrXY__Graphics
 2AD6:0DC9       L___Wr2StrXY__Graphics
 2AD6:0DC9       L___Wr2StrXY__InternalMonitor__
 2AD6:0F13       L___Wr2fStrXY__InternalMonitor_
 2AD6:0F13       L___Wr2fStrXY__Graphics
 2AD6:1059       L__Terminator__Graphics
 2AD6:1064       S__FindROMFontAddr__Graphics
 2AD6:108B       S__LoadPLFonts__Graphics
 2AD6:10C2       $BODY__Graphics
 2AD6:10F2       $INIT__Graphics
 2AD6:1121       $EM__Graphics
 2BE9:0000       $BM__XMS
 2BE9:0000       L__XmsInstalled__XMS
 2BE9:0011       L__QueryFreeExtMem__XMS
 2BE9:003C       L__AllocateExtMem__XMS
 2BE9:0068       L__FreeExtMem__XMS
 2BE9:008B       L__MoveExtMemBlock__XMS
 2BE9:00B2       L__ResizeExtMemBlock__XMS
 2BE9:00D8       L__AllocUpperMemBlock__XMS
 2BE9:0107       L__FreeUpperMemBlock__XMS
 2BE9:012A       $EM__XMS
 2BFC:0000       $INIT__XMS
 2C00:0000       $BM__XMSService
 2C00:004E       L__Allocate__XMSService
 2C00:00EE       L__Deallocate__XMSService
 2C00:0110       L__Copy__XMSService
 2C00:01F3       S__Free__XMSService
 2C00:02F4       L__Terminator__XMSService
 2C00:03C4       S__Blad__XMSService
 2C00:0412       S__WrWarning__XMSService
 2C00:0450       $BODY__XMSService
 2C00:0485       $INIT__XMSService
 2C00:04BE       $EM__XMSService
 2C4C:0000       $BM__MMMouse
 2C4C:0002       S__DefineStdCursor__MMMouse
 2C4C:00D9       S__Init__MMMouse
 2C4C:00DF       L__HideConditionally__MMMouse
 2C4C:018A       L__IsHidden__MMMouse
 2C4C:019E       L__RegisterRegion__MMMouse
 2C4C:02C7       L__SetOnTop__MMMouse
 2C4C:03E9       L__UnregisterRegion__MMMouse
 2C4C:0623       S__Swap__MMMouse
 2C4C:0639       S__SetShape__MMMouse
 2C4C:0651       S__WrIdx__MMMouse
 2C4C:066E       S__WrBit__MMMouse
 2C4C:06C2       L__GetRegion__MMMouse
 2C4C:0713       L__GetRegionRect__MMMouse
 2C4C:0780       L__SetParent__MMMouse
 2C4C:07F2       L__EventDispatcher__BezPrzerwan
 2C4C:08F0       N__Button2Ev__GetEvent__BezPrze
 2C4C:096B       S__GetEvent__BezPrzerwanOdMyszy
 2C4C:0AC3       L__InsertEvent__MMMouse
 2C4C:0AC3       L__InsertEvent__BezPrzerwanOdMy
 2C4C:0B15       $BODY__BezPrzerwanOdMyszy__MMMo
 2C4C:0B5F       S__RedrawAt__BezWyszeregowania_
 2C4C:0BB2       L__ShowCursor__MMMouse
 2C4C:0BB2       L__ShowCursor__BezWyszeregowani
 2C4C:0BDE       L__HideCursor__MMMouse
 2C4C:0BDE       L__HideCursor__BezWyszeregowani
 2C4C:0C0A       S__RemoveCursor__BezWyszeregowa
 2C4C:0C8E       S__DrawCursor__BezWyszeregowani
 2C4C:1031       L__MouseLoop__MMMouse
 2C4C:133C       L__Terminator__MMMouse
 2C4C:134F       $BODY__MMMouse
 2C4C:14AB       $INIT__MMMouse
 2C4C:1502       $EM__MMMouse
 2D9D:0000       $BM__ShortCuts
 2D9D:0002       L__KeyPressed__ShortCuts
 2D9D:0002       L__KeyPressed__monitor__ShortCu
 2D9D:003B       L__PutKeyStrokeIntoBuffer__Shor
 2D9D:003B       L__PutKeyStrokeIntoBuffer__moni
 2D9D:006D       L__ClearBuffer__ShortCuts
 2D9D:006D       L__ClearBuffer__monitor__ShortC
 2D9D:008B       L__Read__monitor__ShortCuts
 2D9D:008B       L__Read__ShortCuts
 2D9D:0104       L__Rd__ShortCuts
 2D9D:0104       L__Rd__monitor__ShortCuts
 2D9D:013F       S__Insert__monitor__ShortCuts
 2D9D:01A0       N__Remove__RemoveToKill__monito
 2D9D:032C       S__RemoveToKill__monitor__Short
 2D9D:0382       S__Find__monitor__ShortCuts
 2D9D:0424       S__FindAMark__monitor__ShortCut
 2D9D:04D2       S__Unmark__monitor__ShortCuts
 2D9D:0532       $BODY__monitor__ShortCuts
 2D9D:056C       N__GetChar__KbdScan__ShortCuts
 2D9D:05B8       L__KbdScan__ShortCuts
 2D9D:0612       L__DefineShortCut__ShortCuts
 2D9D:0691       N__Kill__DeleteShortCut__ShortC
 2D9D:06DD       L__DeleteShortCut__ShortCuts
 2D9D:070A       $BODY__ShortCuts
 2D9D:0762       $INIT__ShortCuts
 2D9D:079B       $EM__ShortCuts
 2E17:0000       $BM__HRD_Clock
 2E17:0002       S__BCD__HRD_Clock
 2E17:003A       S__CheckUpdateCycle__HRD_Clock
 2E17:006D       S__GetGodzina__HRD_Clock
 2E17:00A1       L__Godzina__HRD_Clock
 2E17:011E       L__Data__HRD_Clock
 2E17:0242       $BODY__HRD_Clock
 2E17:0248       $INIT__HRD_Clock
 2E17:026D       $EM__HRD_Clock
 2E3E:0000       $BM__D_Odb
 2E3E:001A       N__ReadSimul__ReadDME__Oblicz__
 2E3E:01EF       N__ReadDME__Oblicz__D_Odb
 2E3E:04CF       L__Oblicz__D_Odb
 2E3E:071E       L__PoprawDane__D_Odb
 2E3E:077B       S__ClearContiners__D_Odb
 2E3E:08B2       L__Start__D_Odb
 2E3E:08C5       L__Zatrzymaj__D_Odb
 2E3E:08D5       L__Wznow__D_Odb
 2E3E:08E5       L__IniData__D_Odb
 2E3E:0A98       $BODY__D_Odb
 2E3E:0AAD       $INIT__D_Odb
 2E3E:0B18       $EM__D_Odb
 2EF0:0000       $BM__InpLine
 2EF0:0002       L__CreateInpLine__InpLine
 2EF0:0183       L__Enable__InpLine
 2EF0:01CA       L__DeleteInpLine__InpLine
 2EF0:02C9       L__SetText__InpLine
 2EF0:0388       L__GetText__InpLine
 2EF0:03DC       L__Key__InpLine
 2EF0:07B4       L__DoNothing__InpLine
 2EF0:07C4       L__KillFocus__InpLine
 2EF0:0827       S__Draw__InpLine
 2EF0:09E5       L__SetCursor__InpLine
 2EF0:0B2F       L__SetActive__InpLine
 2EF0:0C4D       L__GetRegion__InpLine
 2EF0:0C9E       $BODY__InpLine
 2EF0:0CB5       $INIT__InpLine
 2EF0:0D16       $EM__InpLine
 2FC2:0000       $BM__Buttons
 2FC2:0002       S__Insert__MONITOR__Buttons
 2FC2:0052       N__Remove__RemoveToKill__MONITO
 2FC2:01B5       S__RemoveToKill__MONITOR__Butto
 2FC2:0205       S__FindAMark__MONITOR__Buttons
 2FC2:0318       S__MarkBut__MONITOR__Buttons
 2FC2:03BB       S__Unmark__MONITOR__Buttons
 2FC2:041B       $BODY__MONITOR__Buttons
 2FC2:043F       N__Dec__DrawInter__Buttons
 2FC2:047D       S__DrawInter__Buttons
 2FC2:0790       L__UniversalKBD__Buttons
 2FC2:07E1       L__MouseHandler__Buttons
 2FC2:0959       L__ChangeButton__Buttons
 2FC2:09D0       L__ChangeButtonText__Buttons
 2FC2:0A36       N__KillButton__DisposeButton__B
 2FC2:0AAB       L__DisposeButton__Buttons
 2FC2:0AE2       L__PressRadio__Buttons
 2FC2:0B27       L__Nic__Buttons
 2FC2:0B2D       L__CreateButton__Buttons
 2FC2:0C3C       L__CreateRadioButton__Buttons
 2FC2:0CC0       L__EnableButton__Buttons
 2FC2:0D0E       L__GetRegion__Buttons
 2FC2:0D35       L__CallProc__Buttons
 2FC2:0D4E       L__EnableDisableAllButtons__But
 2FC2:0D61       $BODY__Buttons
 2FC2:0D80       $INIT__Buttons
 2FC2:0DD7       $EM__Buttons
 30A0:0000       $BM__Mapa
 30A0:008A       S__RedefineMaxDist__Mapa
 30A0:0151       N__GetGPS__resolveSituation__Ma
 30A0:0260       N__CountMaxDist__resolveSituati
 30A0:037D       S__resolveSituation__Mapa
 30A0:0419       S__MakeMAP__Mapa
 30A0:0545       L__PokazKatyLotu__Mapa
 30A0:0696       N__Min__Promienie__Mapa
 30A0:06B6       L__Promienie__Mapa
 30A0:07B3       L__GdzieJest__Mapa
 30A0:0922       S__Stop__monitor__Mapa
 30A0:0951       L__StartProcess__monitor__Mapa
 30A0:0951       L__StartProcess__Mapa
 30A0:098B       L__CancelProcess__monitor__Mapa
 30A0:098B       L__CancelProcess__Mapa
 30A0:09BA       $BODY__monitor__Mapa
 30A0:09DC       S__FillPromieie__Mapa
 30A0:0A4F       $BODY__Mapa
 30A0:0AF4       $INIT__Mapa
 30A0:0B50       $EM__Mapa
 3156:0000       $BM__Dialog
 3156:0006       L__GetDialogDIBHandle__Dialog
 3156:002D       L__WstawButton__Dialog
 3156:0156       L__WstawRadioButton__Dialog
 3156:02EB       L__RadioBProc__Dialog
 3156:03EC       L__WstawInpLine__Dialog
 3156:0518       L__WstawListe__Dialog
 3156:0663       L__TworzDialog__Dialog
 3156:0A79       N__UsunPola__UsunDialog__Dialog
 3156:0B28       L__UsunDialog__Dialog
 3156:0D8A       L__KlawiszSpacji__Dialog
 3156:0E12       L__KlawiszTab__Dialog
 3156:0E94       L__KlawiszShiftTab__Dialog
 3156:0F3F       N__Expand__Aktywizuj__Dialog
 3156:0FCA       S__Aktywizuj__Dialog
 3156:1185       S__CzyMoznaSkonczyc__Dialog
 3156:123F       L__Go__Dialog
 3156:1488       L__DialogMouseHandle__Dialog
 3156:15B1       S__ChwilowoZablokujDialog__Dial
 3156:15E7       L__EndDialog__Dialog
 3156:1666       L__AltF4__Dialog
 3156:167B       L__EnableDlg__Dialog
 3156:17AC       L__IsBusy__Dialog
 3156:17EF       L__Redraw__Dialog
 3156:18C2       $BODY__Dialog
 3156:18EB       $INIT__Dialog
 3156:195B       $EM__Dialog
 32EC:0000       $BM__GList
 32EC:0002       L__SetNotificationProc__GList
 32EC:0020       L__DummyNotification__GList
 32EC:0028       L__TworzListe__GList
 32EC:02FB       N__UsunStr__SkasujWszystko__GLi
 32EC:033D       L__SkasujWszystko__GList
 32EC:0387       L__Skasuj__GList
 32EC:04C1       L__UsunListe__GList
 32EC:06B6       L__DodajDoListy__GList
 32EC:08C9       L__WstawDoListy__GList
 32EC:0A11       L__Idx2Str__GList
 32EC:0AC4       L__ZmienListe__GList
 32EC:0B6F       L__LiczbaElementow__GList
 32EC:0B8E       L__kbHandler__GList
 32EC:0C76       L__RScrollUp__GList
 32EC:0D8F       L__RScrollDn__GList
 32EC:0E9F       L__RChoose__GList
 32EC:0FE8       S__CP__GList
 32EC:100F       L__Wybor__GList
 32EC:1046       S__Redraw__GList
 32EC:107D       N__WrStr__Draw__GList
 32EC:1181       S__Draw__GList
 32EC:128C       L__HandleEvent__GList
 32EC:1454       L__CanEnable__GList
 32EC:1470       L__Disable__GList
 32EC:14F4       L__GetSelection__GList
 32EC:1513       L__Enable__GList
 32EC:1608       L__GetRegion__GList
 32EC:1698       L__Sortowana__GList
 32EC:16B4       S__SetSelectionInt__GList
 32EC:1754       L__SetSelectionNotf__GList
 32EC:1772       L__SetSelection__GList
 32EC:1790       S__SetPositions__GList
 32EC:1819       L__GetRect__GList
 32EC:1839       L__GetContents__GList
 32EC:1860       L__SetContents__GList
 32EC:18E1       L__KillContents__GList
 32EC:18FD       $BODY__GList
 32EC:1920       $INIT__GList
 32EC:197C       $EM__GList
 3484:0000       $BM__Obloty
 3484:01EB       L__UstawHomeDir__Obloty
 3484:0242       L__Ile__Obloty
 3484:0266       S__IleInspekcji__Obloty
 3484:02DC       S__WymienWszystkie__Obloty
 3484:037F       L__Dopasuj__Obloty
 3484:041D       L__WymInspekcjeDlaUrz__Obloty
 3484:04E4       L__WymienWszystkiePasujace__Obl
 3484:051E       L__SzczegolowyPlikOpisu__Obloty
 3484:068A       L__Kasuj__Obloty
 3484:06B2       L__ZmienISkasuj__Obloty
 3484:0738       S__SkasujKartoteke__Obloty
 3484:078A       L__SkasujOblot__Obloty
 3484:09B5       N__KasujPlik__KasujPodkartoteke
 3484:0A4B       L__KasujPodkartoteke__Obloty
 3484:0B21       S__Kasuj_DelDir__Obloty
 3484:0B98       L__SkasujInspekcje__Obloty
 3484:0DD3       N__ExistDIR__FreeSlot__Obloty
 3484:0E1A       L__FreeSlot__Obloty
 3484:0EB9       S__ZnajdzNumInspekcji__Obloty
 3484:0FF8       L__ZnajdzInspekcje__Obloty
 3484:1042       L__InspekcjeNowyWpis__Obloty
 3484:11EB       N__KopiujPlik__KopiujPodkartote
 3484:13F8       L__KopiujPodkartoteke__Obloty
 3484:1564       S__KopiujKartoteke__Obloty
 3484:15DB       L__KopiujInspekcje__Obloty
 3484:171F       L__StartInspection__Obloty
 3484:1A87       L__InitListaUrzadzen__Obloty
 3484:1B83       L__Dum_Stat_Size_Monitor__Oblot
 3484:1B8B       L__Dum_Stat_File_Monitor__Oblot
 3484:1B9E       $BODY__Obloty
 3484:1C0F       $INIT__Obloty
 3484:1C75       $EM__Obloty
 364C:0000       $BM__V_Database
 364C:01BC       N__GetStr__LoadVorData__V_Datab
 364C:0303       S__LoadVorData__V_Database
 364C:095E       L__LoadVorData1__V_Database
 364C:09D2       L__LoadVorData2__V_Database
 364C:0A1B       N__GetCardinal__LoadProgramPar_
 364C:0A8A       S__LoadProgramPar__V_Database
 364C:0AF8       $BODY__V_Database
 364C:0B2D       $INIT__V_Database
 364C:0B98       $EM__V_Database
 3706:0000       $BM__SwitchCntrl
 3706:0002       L__SwitchTo__SwitchCntrl
 3706:00D4       $BODY__SwitchCntrl
 3706:0109       $INIT__SwitchCntrl
 3706:012E       $EM__SwitchCntrl
 3719:0000       $BM__FCBS
 3719:0002       L__Set__FCBS
 3719:001A       S__CtrlBreakProc__FCBS
 3719:0037       $BODY__FCBS
 3719:004C       $INIT__FCBS
 3719:0071       $EM__FCBS
 3721:0000       $BM__CocpDsp
 3721:0002       L__UstawFormat__CocpDsp
 3721:02E6       L__PodajFormat__CocpDsp
 3721:0315       L__UstawZmienne__CocpDsp
 3721:058F       L__SetIdleMsg__CocpDsp
 3721:05AF       N__SendMsg__ControlLoop__CocpDs
 3721:077A       N__PozWskazowki__SetLOC_G_SCP__
 3721:0823       N__SetLOC_G_SCP__ControlLoop__C
 3721:090E       N__pozycjaStrzalki__ControlLoop
 3721:0A5E       L__ControlLoop__CocpDsp
 3721:0C01       L__WatchDogProcess__CocpDsp
 3721:0C4D       $BODY__CocpDsp
 3721:0D49       $INIT__CocpDsp
 3721:0D8C       $EM__CocpDsp
 37FA:0000       $BM__DataCollect
 37FA:0002       L__SampleNr__tablice__DataColle
 37FA:0002       L__SampleNr__DataCollect
 37FA:004E       L__RedrawReq__DataCollect
 37FA:004E       L__RedrawReq__tablice__DataColl
 37FA:0152       N__UpdateNR__Tablice800__tablic
 37FA:0219       N__Shrink__Tablice800__tablice_
 37FA:034B       N__ShrinkX__Tablice800__tablice
 37FA:0422       S__Tablice800__tablice__DataCol
 37FA:15DF       S__InitTab__tablice__DataCollec
 37FA:1867       L__Samp2Dis__tablice__DataColle
 37FA:1867       L__Samp2Dis__DataCollect
 37FA:1968       L__Samp2Kat__tablice__DataColle
 37FA:1968       L__Samp2Kat__DataCollect
 37FA:1A69       L__ResetMarks_A__DataCollect
 37FA:1A86       L__ResetMarks_D__DataCollect
 37FA:1AA3       L__GetNextDMark__DataCollect
 37FA:1B29       L__GetNextAMark__DataCollect
 37FA:1BBB       S__Start__DataCollect
 37FA:2002       L__ResetDataCollect__DataCollec
 37FA:2092       N__UpdateDistMarks__UpdTab800__
 37FA:20FA       N__UpdateAlfaMarks__UpdTab800__
 37FA:2171       L__UpdTab800__DataCollect
 37FA:21D7       L__NilProc__DataCollect
 37FA:21DF       $BODY__DataCollect
 37FA:2221       $INIT__DataCollect
 37FA:226E       $EM__DataCollect
 3A21:0000       $BM__Wykres
 3A21:009B       S__Log10__Wykres
 3A21:0101       N__SkalY__Draw__Wykres
 3A21:03D7       L__Draw__Wykres
 3A21:052F       N__SkalY__PokazWykres__Wykres
 3A21:062B       N__SkalX__PokazWykres__Wykres
 3A21:0758       L__PokazWykres__Wykres
 3A21:0853       N__SkalY__PokazWykres1__Wykres
 3A21:09B4       L__PokazWykres1__Wykres
 3A21:0B0C       L__Opis__Wykres
 3A21:0B8B       N__AutoFormat__OpisLog__Wykres
 3A21:0C63       N__LineV__OpisLog__Wykres
 3A21:1024       N__LineH__OpisLog__Wykres
 3A21:1330       L__OpisLog__Wykres
 3A21:14E2       L__PokazWykresNS__Wykres
 3A21:1546       N__SkalY__PokazWykresNSLog__Wyk
 3A21:17B3       N__SkalX__PokazWykresNSLog__Wyk
 3A21:1B1F       L__PokazWykresNSLog__Wykres
 3A21:1DFD       S__LogPos__Wykres
 3A21:1EE5       L__LessInt__Wykres
 3A21:1F01       L__LessCard__Wykres
 3A21:1F1D       L__Card2Real__Wykres
 3A21:1F64       L__Int2Real__Wykres
 3A21:1FA0       N__GetX__PokazWykresZXms__Wykre
 3A21:1FC9       N__GetY__PokazWykresZXms__Wykre
 3A21:1FF2       N__SkalY__PokazWykresZXms__Wykr
 3A21:222D       N__SkalX__PokazWykresZXms__Wykr
 3A21:256B       L__PokazWykresZXms__Wykres
 3A21:270A       $BODY__Wykres
 3A21:2710       $INIT__Wykres
 3A21:2762       $EM__Wykres
 3C98:0000       $BM__XMSTable
 3C98:0002       L__AssignNil__XMSTable
 3C98:0018       L__Size__XMSTable
 3C98:0039       L__IsValid__XMSTable
 3C98:005D       L__Allocate__XMSTable
 3C98:00F2       L__Deallocate__XMSTable
 3C98:0142       L__PutElem__XMSTable
 3C98:01B7       L__GetElem__XMSTable
 3C98:0245       S__Map__XMSTable
 3C98:0325       $BODY__XMSTable
 3C98:032B       $INIT__XMSTable
 3C98:035A       $EM__XMSTable
 3CCE:0000       $BM__EventsMng
 3CCE:0037       L__NewEvent__EventsMng
 3CCE:014C       L__NewTeoEvent__EventsMng
 3CCE:01CF       L__NewPilotEvent__EventsMng
 3CCE:0252       L__NewConsoleEvent__EventsMng
 3CCE:02D5       L__FindNextEvent__EventsMng
 3CCE:0366       L__GetUpdNextEvent__EventsMng
 3CCE:041A       L__GetEventInfo__EventsMng
 3CCE:04AA       L__SaveDistEvents__EventsMng
 3CCE:04F4       S__InitEvents__EventsMng
 3CCE:0519       L__LoadDistEvents__EventsMng
 3CCE:055C       L__EventsMngInit__EventsMng
 3CCE:060A       L__UpdateStrefa__EventsMng
 3CCE:087E       L__Terminator__EventsMng
 3CCE:09B8       $BODY__EventsMng
 3CCE:09EE       $INIT__EventsMng
 3CCE:0A4A       $EM__EventsMng
 3D73:0000       $BM__PI_ScrUtility
 3D73:0002       L__ShowScreenDIB__PI_ScrUtility
 3D73:0053       L__ShowCursorDIB__PI_ScrUtility
 3D73:009A       S__UniversalAB__PI_ScrUtility
 3D73:015B       L__UniversalLAF__PI_ScrUtility
 3D73:0183       L__UniversalSAF__PI_ScrUtility
 3D73:01AB       L__UniversalPAF__PI_ScrUtility
 3D73:01D3       L__UniversalLBF__PI_ScrUtility
 3D73:01FB       L__UniversalSBF__PI_ScrUtility
 3D73:0223       L__UniversalPBF__PI_ScrUtility
 3D73:024B       L__UniversalLAB__PI_ScrUtility
 3D73:0273       L__UniversalSAB__PI_ScrUtility
 3D73:029B       L__UniversalPAB__PI_ScrUtility
 3D73:02C3       L__UniversalLBB__PI_ScrUtility
 3D73:02EB       L__UniversalSBB__PI_ScrUtility
 3D73:0313       L__UniversalPBB__PI_ScrUtility
 3D73:033B       S__NowySlup__PI_ScrUtility
 3D73:039B       N__WykSlupB__WykSlup__PI_ScrUti
 3D73:0470       N__WykSlupF__WykSlup__PI_ScrUti
 3D73:0545       L__WykSlup__PI_ScrUtility
 3D73:06A1       L__UpdateSlupki__PI_ScrUtility
 3D73:0708       L__DisposeSlupki__PI_ScrUtility
 3D73:076F       L__NapiszSygnaly__PI_ScrUtility
 3D73:078A       L__Init_ScrUtility__PI_ScrUtili
 3D73:07E5       L__IniSkale__PI_ScrUtility
 3D73:0812       L__GetRegionWykG__PI_ScrUtility
 3D73:084D       L__GetRegionWyk1__PI_ScrUtility
 3D73:0870       L__GetRegionWyk2__PI_ScrUtility
 3D73:08BE       L__GetRegionWyk3__PI_ScrUtility
 3D73:08E1       $BODY__PI_ScrUtility
 3D73:08E7       $INIT__PI_ScrUtility
 3D73:092F       $EM__PI_ScrUtility
 3E07:0000       $BM__Slupek
 3E07:0002       L__WykresSlupkowy__Slupek
 3E07:0229       N__Skala__Update__Slupek
 3E07:02EE       N__Kolor__Update__Slupek
 3E07:0317       N__FillR__Odswiez__Update__Slup
 3E07:036C       N__Odswiez__Update__Slupek
 3E07:058F       L__Update__Slupek
 3E07:0647       L__Dispose__Slupek
 3E07:065C       L__Nothing__Slupek
 3E07:0666       L__GetSlupRect__Slupek
 3E07:0695       L__Nil__Slupek
 3E07:06A7       $BODY__Slupek
 3E07:06AD       $INIT__Slupek
 3E07:06E6       $EM__Slupek
 3E76:0000       $BM__ScreenCTypes
 3E76:0002       S__Init__ScreenCTypes
 3E76:016B       $BODY__ScreenCTypes
 3E76:0174       $INIT__ScreenCTypes
 3E76:019E       $EM__ScreenCTypes
 3E90:0000       $BM__V_DisResults
 3E90:0220       L__WriteTab__V_DisResults
 3E90:03F7       N__WriteBends__DispResults__V_D
 3E90:05DF       N__WriteDev__DispResults__V_Dis
 3E90:0861       N__WriteMod__DispResults__V_Dis
 3E90:0B25       N__WriteDevOrbit__DispResults__
 3E90:0DA2       N__WriteFlgAndLowSignal__DispRe
 3E90:0E20       L__DispResults__V_DisResults
 3E90:0EE2       $BODY__V_DisResults
 3E90:0F1E       $INIT__V_DisResults
 3E90:0F7A       $EM__V_DisResults
 3F88:0000       $BM__DisResUtilities
 3F88:000A       L__WriteTab__DisResUtilities
 3F88:00BE       L__WrS__DisResUtilities
 3F88:00F4       L__WrSPlus__DisResUtilities
 3F88:014A       L__INCLine__DisResUtilities
 3F88:0170       L__WrFlagsTableWHeading__DisRes
 3F88:023C       L__WrFlagsTable__DisResUtilitie
 3F88:02AF       L__WrF_TablicaOdci__DisResUtili
 3F88:0340       $BODY__DisResUtilities
 3F88:0346       $INIT__DisResUtilities
 3F88:0389       $EM__DisResUtilities
 3FC1:0000       $BM__D_DisResults
 3FC1:00B4       L__WriteTab__D_DisResults
 3FC1:027A       N__WriteMod__DispResults__D_Dis
 3FC1:04A7       L__DispResults__D_DisResults
 3FC1:053A       $BODY__D_DisResults
 3FC1:0540       $INIT__D_DisResults
 3FC1:0592       $EM__D_DisResults
 401B:0000       $BM__PiszEventy
 401B:038B       N__Znacznik__Decode__PiszEventy
 401B:0786       S__Decode__PiszEventy
 401B:0A31       L__IleEventow__PiszEventy
 401B:0A53       L__TworzEventy__PiszEventy
 401B:0AA6       N__WrStr__PiszNaEkranie__PiszEv
 401B:0B99       L__PiszNaEkranie__PiszEventy
 401B:0D48       S__min__PiszEventy
 401B:0D6B       L__PiszNaDrukarce__PiszEventy
 401B:0F04       L__EnumEv__PiszEventy
 401B:10B0       S__WrStrLn__PiszEventy
 401B:10DC       S__WrStr__PiszEventy
 401B:1163       S__WrLn__PiszEventy
 401B:117D       S__WrP__PiszEventy
 401B:1199       $BODY__PiszEventy
 401B:11AA       $INIT__PiszEventy
 401B:1233       $EM__PiszEventy
 413F:0000       $BM__V_Count
 413F:00EA       N__CountDev__Analiza__V_Count
 413F:010B       N__SigMaxAvr__Analiza__V_Count
 413F:01F8       N__CountAv__Analiza__V_Count
 413F:07FD       N__ClearAvrArr__Analiza__V_Coun
 413F:0888       N__ClearDevAvrArr__Analiza__V_C
 413F:0912       N__GetEvent__R_Analiza__Analiza
 413F:09B3       N__AssignPolRes__R_Analiza__Ana
 413F:0CD7       N__Pol_AddSample__R_Analiza__An
 413F:0D43       N__ClearAllCont__R_Analiza__Ana
 413F:0F9F       N__CountBends__R_Analiza__Anali
 413F:1159       N__R_Analiza__Analiza__V_Count
 413F:19FF       N__Ini_T_WynikAnalizyOrbita__O_
 413F:1A68       N__ClearDevOAvr__O_Analiza__Ana
 413F:1AEF       N__ZerujFlagi__O_Analiza__Anali
 413F:1B1B       N__ClearAllCont__O_Analiza__Ana
 413F:1B68       N__ReadData__O_Analiza__Analiza
 413F:1C26       N__PodstawWynikNaLuku__O_Analiz
 413F:1CB4       N__AddAvrDscr__AnalizujWynikiNa
 413F:1D2C       N__AddAvrArr__AnalizujWynikiNaL
 413F:1E13       N__AddDevAvrArr__AnalizujWyniki
 413F:1EF7       N__AnalizujWynikiNaLuku__O_Anal
 413F:2036       N__O_Analiza__Analiza__V_Count
 413F:249B       N__Interpolacja__Analiza__V_Cou
 413F:250B       L__Analiza__V_Count
 413F:2637       $BODY__V_Count
 413F:263D       $INIT__V_Count
 413F:26B2       $EM__V_Count
 43AB:0000       $BM__D_Count
 43AB:008A       N__GetEvent__DoAnaliza__Analiza
 43AB:011E       N__ClearAllCont__DoAnaliza__Ana
 43AB:01A8       N__CountResult__DoAnaliza__Anal
 43AB:0235       N__DoAnaliza__Analiza__D_Count
 43AB:05BB       N__Interpolacja__Analiza__D_Cou
 43AB:05EE       L__Analiza__D_Count
 43AB:06CB       $BODY__D_Count
 43AB:06D1       $INIT__D_Count
 43AB:0732       $EM__D_Count
 441F:0000       $BM__D_DAcquizition
 441F:0002       S__CommReq__Monitor__D_DAcquizi
 441F:0034       L__Stop__Monitor__D_DAcquizitio
 441F:0034       L__Stop__D_DAcquizition
 441F:0063       L__ConsoleEv__D_DAcquizition
 441F:0063       L__ConsoleEv__Monitor__D_DAcqui
 441F:0092       L__Restart__D_DAcquizition
 441F:0092       L__Restart__Monitor__D_DAcquizi
 441F:00C1       S__GetEvent__Monitor__D_DAcquiz
 441F:011B       $BODY__Monitor__D_DAcquizition
 441F:0142       L__Acquire__D_DAcquizition
 441F:0312       L__RedrawReq__D_DAcquizition
 441F:0361       L__RedrawMarksReq__D_DAcquiziti
 441F:038E       L__UpdateMarksOrbit__D_DAcquizi
 441F:03F1       L__UpdateMarksRadial__D_DAcquiz
 441F:0454       S__IniData__D_DAcquizition
 441F:04E5       L__IniDataOrbit__D_DAcquizition
 441F:04FD       L__IniDataRadial__D_DAcquizitio
 441F:0515       L__Start__D_DAcquizition
 441F:0570       L__Abort__D_DAcquizition
 441F:0598       $BODY__D_DAcquizition
 441F:05BB       $INIT__D_DAcquizition
 441F:0649       $EM__D_DAcquizition
 4484:0000       $BM__V_DAcquizition
 4484:0002       L__PolV__V_DAcquizition
 4484:00A1       S__CommReq__Monitor__V_DAcquizi
 4484:00D3       L__Stop__Monitor__V_DAcquizitio
 4484:00D3       L__Stop__V_DAcquizition
 4484:0102       L__ConsoleEv__Monitor__V_DAcqui
 4484:0102       L__ConsoleEv__V_DAcquizition
 4484:0131       L__Restart__V_DAcquizition
 4484:0131       L__Restart__Monitor__V_DAcquizi
 4484:0160       S__GetEvent__Monitor__V_DAcquiz
 4484:01BA       $BODY__Monitor__V_DAcquizition
 4484:01E1       N__ZnacznikiPol__Acquire__V_DAc
 4484:0266       N__InitEvent__Acquire__V_DAcqui
 4484:031E       L__Acquire__V_DAcquizition
 4484:04CD       L__RedrawReq__V_DAcquizition
 4484:051C       L__RedrawMarksReq__V_DAcquiziti
 4484:0549       L__UpdateMarksOrbit__V_DAcquizi
 4484:05AC       L__UpdateMarksRadial__V_DAcquiz
 4484:060F       S__IniData__V_DAcquizition
 4484:06B5       L__IniDataOrbit__V_DAcquizition
 4484:06CD       L__IniDataRadial__V_DAcquizitio
 4484:06E5       L__Start__V_DAcquizition
 4484:0740       L__Abort__V_DAcquizition
 4484:0768       $BODY__V_DAcquizition
 4484:078B       $INIT__V_DAcquizition
 4484:0823       $EM__V_DAcquizition
 4507:0000       $BM__DMEPrint
 4507:03C9       N__PromienANieOrbita__Raport__D
 4507:03E8       N__MakeHeader__Raport__DMEPrint
 4507:0533       N__WrSignalDesc__OpisBleduDME__
 4507:05D9       N__WrSignalInt__OpisBleduDME__O
 4507:0638       N__OpisBleduDME__OpisPomiaru__R
 4507:089A       N__IntFrac__WrSignalDesc__OpisP
 4507:098B       N__WrSignalDesc__OpisPomiaru__R
 4507:0B08       N__OpisPomiaru__Raport__DMEPrin
 4507:0C40       N__Print__Raport__DMEPrint
 4507:135C       L__Raport__DMEPrint
 4507:1425       $BODY__DMEPrint
 4507:142B       $INIT__DMEPrint
 4507:14BE       $EM__DMEPrint
 4653:0000       $BM__VORPrint
 4653:03C3       S__PromienANieOrbita__VORPrint
 4653:03E2       S__MakeHeader__VORPrint
 4653:05C6       N__Wr4Signals__OpisPomiaru__VOR
 4653:0718       N__WrSignalDesc__OpisPomiaru__V
 4653:07B7       N__Pomiar2Str__OpisPomiaru__VOR
 4653:0936       N__WriteFlgAndLowSignal__OpisPo
 4653:09C0       S__OpisPomiaru__VORPrint
 4653:0F86       S__Print__VORPrint
 4653:1BB8       L__Raport__VORPrint
 4653:1C65       $BODY__VORPrint
 4653:1C76       $INIT__VORPrint
 4653:1D0E       $EM__VORPrint
 4824:0000       $BM__Semafory
 4824:0002       L__Set__Semafory
 4824:00AA       L__Free__Semafory
 4824:0120       L__Register__Semafory
 4824:01B0       L__Init__Semafory
 4824:01FC       L__Unregister__Semafory
 4824:02B0       S__ExceptionHandler__Semafory
 4824:03BE       S__InitTbl__Semafory
 4824:041D       $BODY__Semafory
 4824:0433       $INIT__Semafory
 4824:0453       $EM__Semafory
 486A:0000       $BM__Random
 486A:002A       S__Next__Random
 486A:00DE       L__RandomInit__Random
 486A:01A8       L__RandomCard__Random
 486A:0245       L__RandomInt__Random
 486A:026A       L__RandomReal__Random
 486A:0385       L__Randomize__Random
 486A:03DC       $BODY__Random
 486A:03E6       $INIT__Random
 486A:0410       $EM__Random
 48AC:0000       $BM__M_PGPIB
 48AC:0017       L__IOCheck__M_PGPIB
 48AC:0036       L__GPIBPresent__M_PGPIB
 48AC:006B       L__ieinit__M_PGPIB
 48AC:007C       L__ieoutput__M_PGPIB
 48AC:008D       L__ieenter__M_PGPIB
 48AC:009E       L__ieabort__M_PGPIB
 48AC:00AD       L__ieeol__M_PGPIB
 48AC:00BE       L__iedevclr__M_PGPIB
 48AC:00CF       L__iello__M_PGPIB
 48AC:00DE       L__ielocal__M_PGPIB
 48AC:00EF       L__ieppoll__M_PGPIB
 48AC:0100       L__ieppollc__M_PGPIB
 48AC:0111       L__ieppollu__M_PGPIB
 48AC:0122       L__ieremote__M_PGPIB
 48AC:0133       L__iesend__M_PGPIB
 48AC:0144       L__iespoll__M_PGPIB
 48AC:0155       L__iestatus__M_PGPIB
 48AC:0166       L__ietimout__M_PGPIB
 48AC:0177       L__ietrig__M_PGPIB
 48AC:0188       L__ieentera__M_PGPIB
 48AC:0199       L__ieouta__M_PGPIB
 48AC:01AA       L__iedevice__M_PGPIB
 48AC:01BB       $BODY__M_PGPIB
 48AC:01C1       $INIT__M_PGPIB
 48AC:01E1       $EM__M_PGPIB
 48CB:0000       $BM__NAVInterface
 48CB:0022       L__GetOmnibearing__NAVInterface
 48CB:0190       L__GetLocDev__NAVInterface
 48CB:0241       L__GetGSDev__NAVInterface
 48CB:02F2       $BODY__NAVInterface
 48CB:0322       $INIT__NAVInterface
 48CB:0351       $EM__NAVInterface
 4901:0000       $BM__ARINC
 4901:0002       S__INByte__ARINC
 4901:0062       S__OUTByte__ARINC
 4901:00BF       L__ReInitialize__ARINC
 4901:00FF       L__WriteTXParity__ARINC
 4901:0173       L__WriteTXChannel__ARINC
 4901:01F1       L__WriteTXLabel__ARINC
 4901:026F       L__WriteTXData__ARINC
 4901:032A       L__WriteTXRate__ARINC
 4901:03F4       L__WriteKillTime__ARINC
 4901:04B2       L__WriteCardMode__ARINC
 4901:051B       L__ReadConfiguration__ARINC
 4901:0637       L__ReadTXSlot__ARINC
 4901:079E       L__ReadRXSlot__ARINC
 4901:093D       $BODY__ARINC
 4901:0954       $INIT__ARINC
 4901:096F       $EM__ARINC
 4999:0000       $BM__Kl_FGenerators
 4999:0002       L__LookupM__Kl_FGenerators
 4999:04D9       $BODY__Kl_FGenerators
 4999:04DF       $INIT__Kl_FGenerators
 4999:04FF       $EM__Kl_FGenerators
 49EA:0000       $BM__Polozenie
 49EA:005A       N__FlipY__InitMarkers__Polozeni
 49EA:0120       N__FlipX__InitMarkers__Polozeni
 49EA:0226       N__Rot90__InitMarkers__Polozeni
 49EA:032E       S__InitMarkers__Polozenie
 49EA:044A       S__DrawMarker__Polozenie
 49EA:0855       S__EraseMarker__Polozenie
 49EA:08FE       L__Start_Polozenie__Polozenie
 49EA:0959       N__XY__LL__DrawNCO__Polozenie
 49EA:0A88       N__LL__DrawNCO__Polozenie
 49EA:0BA8       S__DrawNCO__Polozenie
 49EA:0C2C       L__UpdateM__Polozenie
 49EA:0DD7       L__Stop_Polozenie__Polozenie
 49EA:0E09       L__RresetCzesciOkregu__Polozeni
 49EA:0E6A       L__NoweCzesciOkregu__Polozenie
 49EA:0EEE       N__Rysuj__Promienie__Polozenie
 49EA:1084       L__Promienie__Polozenie
 49EA:1164       $BODY__Polozenie
 49EA:11C4       $INIT__Polozenie
 49EA:1225       $EM__Polozenie
 4B0D:0000       $BM__Marks
 4B0D:0032       L__AngResetContiner__Marks
 4B0D:0041       L__DisResetContiner__Marks
 4B0D:0050       N__findidx__AngAddSample__Marks
 4B0D:010A       N__Side__AngAddSample__Marks
 4B0D:015E       L__AngAddSample__Marks
 4B0D:037F       N__findidx__DisAddSample__Marks
 4B0D:0423       N__Side__DisAddSample__Marks
 4B0D:0453       L__DisAddSample__Marks
 4B0D:0636       L__InicjujOpisStanuLuku__Marks
 4B0D:0670       N__findidx__SegZakonczony__Mark
 4B0D:0806       L__SegZakonczony__Marks
 4B0D:08FD       $BODY__Marks
 4B0D:0903       $INIT__Marks
 4B0D:0937       $EM__Marks
 4BA1:0000       $BM__V_Slupek
 4BA1:007F       L__ShowScreenDIB__V_Slupek
 4BA1:00CB       L__ShowCursorDIB__V_Slupek
 4BA1:0109       L__UnverslVal__V_Slupek
 4BA1:01E1       S__Init__V_Slupek
 4BA1:0234       L__NapiszSygnaly__V_Slupek
 4BA1:047E       L__IniSkale__V_Slupek
 4BA1:065B       L__InitSlupek__V_Slupek
 4BA1:06B3       L__DoneSlupek__V_Slupek
 4BA1:06DF       $BODY__V_Slupek
 4BA1:0705       $INIT__V_Slupek
 4BA1:0748       $EM__V_Slupek
 4C16:0000       $BM__D_Slupek
 4C16:0092       L__ShowScreenDIB__D_Slupek
 4C16:00DE       L__ShowCursorDIB__D_Slupek
 4C16:011C       L__UnverslVal__D_Slupek
 4C16:0211       S__Init__D_Slupek
 4C16:0264       L__NapiszSygnaly__D_Slupek
 4C16:04D4       L__IniSkale__D_Slupek
 4C16:06B1       L__InitSlupek__D_Slupek
 4C16:06F1       L__DoneSlupek__D_Slupek
 4C16:071D       $BODY__D_Slupek
 4C16:0743       $INIT__D_Slupek
 4C16:078B       $EM__D_Slupek
 4C8F:0000       $BM__DrawEpson
 4C8F:00A5       S__UstawTrybTekstowy__DrawEpson
 4C8F:00E9       L__MaxX__DrawEpson
 4C8F:00F8       L__MaxY__DrawEpson
 4C8F:0107       S__Map__DrawEpson
 4C8F:01C6       L__Point__DrawEpson
 4C8F:0322       L__IsDrawn__DrawEpson
 4C8F:03D3       L__Out__DrawEpson
 4C8F:0670       L__Open__DrawEpson
 4C8F:06E2       L__Close__DrawEpson
 4C8F:06FE       L__Line__DrawEpson
 4C8F:0849       L__SetTextMode__DrawEpson
 4C8F:085C       L__SetFont__DrawEpson
 4C8F:0942       S__Conv2PL__DrawEpson
 4C8F:0ABD       S__DrawChar0__DrawEpson
 4C8F:0DA0       S__DrawText0__DrawEpson
 4C8F:0E1D       S__DrawChar90__DrawEpson
 4C8F:10A7       S__DrawText90__DrawEpson
 4C8F:1124       L__DrawText__DrawEpson
 4C8F:1193       L__SetDir__DrawEpson
 4C8F:11A6       L__Mnoznik__DrawEpson
 4C8F:11C0       L__InitPort__DrawEpson
 4C8F:120D       L__IsAborted__DrawEpson
 4C8F:1253       L__WrProc__DrawEpson
 4C8F:138C       $BODY__DrawEpson
 4C8F:1415       $INIT__DrawEpson
 4C8F:1462       $EM__DrawEpson
 4DD6:0000       $BM__Print
 4DD6:0159       L__GorszeBoMniejsze__Print
 4DD6:0186       L__DalszeOdZera__Print
 4DD6:01C3       L__MaxY__Print
 4DD6:01DE       L__log__Print
 4DD6:0232       L__Wr__Print
 4DD6:02A2       L__WrPrn__Print
 4DD6:0360       L__WrLn__Print
 4DD6:0390       L__WrPrnLn__Print
 4DD6:03D2       L__InitA__Print
 4DD6:0821       L__InitB__Print
 4DD6:0886       S__PointA__Print
 4DD6:0ADD       S__PointB__Print
 4DD6:0CBF       L__Point__Print
 4DD6:0CF3       L__Opis__Print
 4DD6:0E2F       L__CloseAll__Print
 4DD6:0EC8       L__InitAll__Print
 4DD6:0FE0       L__EvProc__Print
 4DD6:12D3       L__ZnacznikiOdleglosci__Print
 4DD6:15A6       L__WrFlagsTableWHeading__Print
 4DD6:16BA       L__WrFlagsTable__Print
 4DD6:1799       L__WrF_TablicaOdci__Print
 4DD6:183C       L__WypiszStrefy__Print
 4DD6:1998       L__PrintScreenProc__Print
 4DD6:19A5       $BODY__Print
 4DD6:19F2       $INIT__Print
 4DD6:1A80       $EM__Print
 4F7F:0000       $BM__VORR_Average
 4F7F:002A       L__Bend_ClearContainer__VORR_Av
 4F7F:007A       N__Count__Bend_AddSample__VORR_
 4F7F:0265       L__Bend_AddSample__VORR_Average
 4F7F:0461       L__Roughness_ClearContainer__VO
 4F7F:04E1       N__sqr__Count__Roughness_AddSam
 4F7F:0511       N__Count__Roughness_AddSample__
 4F7F:070A       L__Roughness_AddSample__VORR_Av
 4F7F:0A94       $BODY__VORR_Average
 4F7F:0A9A       $INIT__VORR_Average
 4F7F:0ACE       $EM__VORR_Average
 502C:0000       $BM__PrintCntroll
 502C:00D5       L__CoKtoraPUp__PrintCntroll
 502C:013A       L__CoKtoraPDn__PrintCntroll
 502C:01BC       S__UstawStrony__PrintCntroll
 502C:01FC       S__UstawLiczbe__PrintCntroll
 502C:0232       L__OkP__PrintCntroll
 502C:0248       L__ValidPodz__PrintCntroll
 502C:037E       L__Odn__PrintCntroll
 502C:03D5       L__P1__PrintCntroll
 502C:03F6       L__P2__PrintCntroll
 502C:0417       L__UstalSkalowanie__PrintCntrol
 502C:085B       $BODY__PrintCntroll
 502C:0861       $INIT__PrintCntroll
 502C:08E0       $EM__PrintCntroll
 50BB:0000       NMIServer
 50BB:003E       AT87Server
 50C1:0000       $INIT__RTS87
 50C7:0000       CaseError__RTSError
 50C7:000A       FctRetError__RTSError
 50C7:0014       AddrOvf__RTSError
 50C7:001E       CardOvf__RTSError
 50C7:0028       IntegerOvf__RTSError
 50C7:0032       LongIntegerOvf__RTSError
 50C7:003C       RangeError__RTSError
 50C7:0046       DivZero__RTSError
 50D4:0000       $INIT__RTSError
 50D7:0000       $BM__RTSMain
 50D7:0001       L__InstallTermProc__RTSMain
 50D7:007B       L__InstallInitProc__RTSMain
 50D7:00EF       L__CallInitProc__RTSMain
 50D7:00FD       L__CallTermProc__RTSMain
 50D7:0147       L__GetMessage__RTSMain
 50D7:0526       L__Execute__RTSMain
 50D7:0636       Error__RTSMain
 50D7:0673       StackCheck__RTSMain
 50D7:067C       StackOvf__RTSMain
 50D7:0683       M2Halt__RTSMain
 50D7:068A       L__Terminate__RTSMain
 50D7:0731       $INIT__RTSMain
 50D7:0743       $BODY__RTSMain
 50D7:076F       $EM__RTSMain
 50D7:0770       $INIT__RTSMonExit
 514F:0000       SpecialCASE__RTSLanguage
 514F:004D       ParCopy__RTSLanguage
 514F:0069       DynParCopy__RTSLanguage
 515B:0000       $INIT__RTSLanguage
 515C:0000       $BM__RTSDevice
 515C:0000       L__InstallHandler__RTSDevice
 515C:0058       L__UninstallHandler__RTSDevice
 515C:009B       L__GetDeviceStatus__RTSDevice
 515C:00BE       L__SetDeviceStatus__RTSDevice
 515C:00F6       L__SaveInterruptVector__RTSDevi
 515C:00FB       L__RestoreInterruptVector__RTSD
 515C:0100       L__GetPrioMask__RTSDevice
 515C:011F       L__SetPrioMask__RTSDevice
 515C:0140       $EM__RTSDevice
 5171:0000       $INIT__RTSDevice
 5172:0000       MonEntry__RTSPriority
 5172:0043       MonExit__RTSPriority
 5172:006F       Listen__RTSPriority
 517D:0000       $INIT__RTSPriority
 517E:0000       $BM__RTSCoroutine
 517E:0000       NewProcess__RTSCoroutine
 517E:0143       Transfer__RTSCoroutine
 517E:01A7       $EM__RTSCoroutine
 5199:0000       $INIT__RTSCoroutine
 519A:011E       IOTransfer__RTSInterrupt
 51BF:0000       $INIT__RTSInterrupt
 51C4:0000       RealError__RTSRealError
 51C5:0000       $INIT__RTSRealError
 51C6:0000       L__Length__Strings
 51C6:001D       L__ConstAssign__Strings
 51C6:005F       L__Assign__Strings
 51C6:0096       L__Insert__Strings
 51C6:014C       L__Delete__Strings
 51C6:0188       L__Pos__Strings
 51C6:01E9       L__Copy__Strings
 51C6:025B       L__Concat__Strings
 51C6:02B2       L__CompareStr__Strings
 51C6:0303       $INIT__Strings
 51F7:01B9       L__IntToString__NumberConversio
 51F7:01FE       L__LongIntToString__NumberConve
 51F7:0259       L__CardToString__NumberConversi
 51F7:028D       L__NumToString__NumberConversio
 51F7:04BA       L__StringToInt__NumberConversio
 51F7:0522       L__StringToCard__NumberConversi
 51F7:0587       L__StringToLongInt__NumberConve
 51F7:05B5       L__StringToNum__NumberConversio
 51F7:0620       $INIT__NumberConversion
 51F7:063B       $EM__NumberConversion
 525B:0002       L__Sound__Sounds
 525B:0032       L__NoSound__Sounds
 525B:0046       $INIT__Sounds
 525B:0061       $EM__Sounds
 52AB:0000       $INIT__DebugPMD
 52B5:0002       L__GetDeviceStatus__Devices
 52B5:0018       L__SetDeviceStatus__Devices
 52B5:002C       L__SaveInterruptVector__Devices
 52B5:004D       L__RestoreInterruptVector__Devi
 52B5:006A       L__InstallHandler__Devices
 52B5:0080       L__UninstallHandler__Devices
 52B5:009A       $INIT__Devices
 52B5:00BA       $EM__Devices
 52C1:0000       L__InstallDynMem__DynMem
 52C1:0000       $BM__DynMem
 52C1:0059       L__Alloc__DynMem
 52C1:0102       L__DeAlloc__DynMem
 52C1:01BF       L__Avail__DynMem
 52C1:0203       $INIT__DynMem
 52C1:0204       $EM__DynMem
 52E2:0000       $BM__BlockOps
 52E2:0000       L__BlockMoveForward__BlockOps
 52E2:001A       L__BlockMoveBackward__BlockOps
 52E2:003B       L__BlockMove__BlockOps
 52E2:007D       L__BlockClear__BlockOps
 52E2:0096       L__BlockSet__BlockOps
 52E2:00B8       L__BlockEqual__BlockOps
 52E2:00D9       L__BlockPosition__BlockOps
 52E2:0107       $INIT__BlockOps
 52E2:0108       $EM__BlockOps
 52F3:0002       L__FlagReset__Mouse
 52F3:001F       L__ShowCursor__Mouse
 52F3:002B       L__HideCursor__Mouse
 52F3:0037       L__GetPosBut__Mouse
 52F3:005A       L__SetCursorPos__Mouse
 52F3:006E       L__GetButPres__Mouse
 52F3:00A0       L__GetButRel__Mouse
 52F3:00D2       L__SetHorizontalLimits__Mouse
 52F3:00E6       L__SetVerticalLimits__Mouse
 52F3:00FA       L__SetGraphicCursor__Mouse
 52F3:0127       L__SetTextCursor__Mouse
 52F3:013E       L__ReadMotionCounters__Mouse
 52F3:0157       L__SetEventHandler__Mouse
 52F3:0188       L__LightPenOn__Mouse
 52F3:0194       L__LightPenOff__Mouse
 52F3:01A0       L__SetMickeysPerPixel__Mouse
 52F3:01B4       L__ConditionalOff__Mouse
 52F3:01CE       L__SetSpeedThreshold__Mouse
 52F3:0296       $INIT__Mouse
 52F3:02B1       $EM__Mouse
 531F:0000       pushLSet__Longs
 531F:001E       areSetsEQ__Longs
 531F:0036       superSet__Longs
 531F:005E       subSet__Longs
 531F:0086       union__Longs
 531F:009D       intersection__Longs
 531F:00B4       complement__Longs
 531F:00CF       unionCompl__Longs
 531F:00E6       LMult__Longs
 531F:018D       LMultU__Longs
 531F:01F7       LDiv__Longs
 531F:02DE       $INIT__Longs
 534D:0002       L__KeyPressed__Terminal
 534D:000E       L__Read__Terminal
 534D:0089       L__ReadString__Terminal
 534D:010A       L__ReadAgain__Terminal
 534D:011B       L__Write__Terminal
 534D:012C       L__WriteLn__Terminal
 534D:013B       L__WriteString__Terminal
 534D:01A1       $INIT__Terminal
 534D:01C6       $EM__Terminal
 536A:0002       L__AssignRead__Termbase
 536A:0088       L__Read__Termbase
 536A:00D7       L__KeyPressed__Termbase
 536A:0127       L__UnAssignRead__Termbase
 536A:0184       L__AssignWrite__Termbase
 536A:01F1       L__Write__Termbase
 536A:023E       L__UnAssignWrite__Termbase
 536A:03BB       $INIT__Termbase
 536A:03E5       $EM__Termbase
 53A9:0000       L__GetBits__BitByteOps
 53A9:0000       $BM__BitByteOps
 53A9:0018       L__SetBits__BitByteOps
 53A9:0046       L__ByteAnd__BitByteOps
 53A9:0055       L__ByteOr__BitByteOps
 53A9:0064       L__ByteXor__BitByteOps
 53A9:0073       L__ByteNot__BitByteOps
 53A9:0081       L__ByteShr__BitByteOps
 53A9:0092       L__ByteSar__BitByteOps
 53A9:00A3       L__ByteShl__BitByteOps
 53A9:00B4       L__ByteRor__BitByteOps
 53A9:00C5       L__ByteRol__BitByteOps
 53A9:00D6       L__HighNibble__BitByteOps
 53A9:00E6       L__LowNibble__BitByteOps
 53A9:00F4       L__Swap__BitByteOps
 53A9:0108       $INIT__BitByteOps
 53A9:0109       $EM__BitByteOps
 53BA:0009       $INIT__ASCII
 53BA:0024       $EM__ASCII
 53BD:0002       L__Write__Display
 53BD:007C       $INIT__Display
 53BD:009C       $EM__Display
 53C7:0002       L__KeyPressed__Keyboard
 53C7:0033       L__Read__Keyboard
 53C7:0142       $INIT__Keyboard
 53C7:0167       $EM__Keyboard
 53DE:0002       L__DOSAlloc__DOSMemory
 53DE:00E3       L__DOSDeAlloc__DOSMemory
 53DE:01B0       L__DOSAvail__DOSMemory
 53DE:01F0       L__DOSSetSize__DOSMemory
 53DE:0241       L__DOSGetMaxSize__DOSMemory
 53DE:0298       $INIT__DOSMemory
 53DE:02B8       $EM__DOSMemory
 540A:0000       $BM__MathLib0
 540A:002A       L__sqrt__MathLib0
 540A:0098       L__exp__MathLib0
 540A:0209       L__ln__MathLib0
 540A:0251       L__sin__MathLib0
 540A:03A5       L__cos__MathLib0
 540A:04CA       L__arctan__MathLib0
 540A:05AC       L__real__MathLib0
 540A:05BE       L__entier__MathLib0
 540A:06AF       $INIT__MathLib0
 540A:06C4       $EM__MathLib0
 5477:0000       $DD
 5477:0000       $OK__10jul99_1215_OF_PTT
 5477:0000       $MN__PTT
 5477:008E       $OK__10jul99_1214_OF_MANAGER
 5477:0094       $OK__10jul99_1215_OF_PI_PA
 5477:009A       $OK__10jul99_1214_OF_DOSEntry
 5477:00A0       $OK__10jul99_1214_OF_ErrorMess
 5477:00A6       $OK__10jul99_1214_OF_Tune
 5477:00AC       $OK__10jul99_1215_OF_PI_Qcheck
 5477:00B2       $OK__10jul99_1215_OF_ScannerI
 5477:00B8       $OK__10jul99_1214_OF_CommonType
 5477:00BE       $OK__10jul99_1214_OF_TheodolitR
 5477:00C4       $OK__10jul99_1215_OF_GPSRead
 5477:00CA       $OK__10jul99_1214_OF_DGHIni
 5477:00D0       $OK__10jul99_1215_OF_V_Files
 5477:00D6       $OK__10jul99_1215_OF_VORO_avrag
 5477:00DC       $OK__10jul99_1214_OF_D_CommonTy
 5477:00E2       $OK__10jul99_1215_OF_V_CommonTy
 5477:00E8       $OK__10jul99_1214_OF_SpecConv
 5477:00EE       $OK__10jul99_1214_OF_FlagAnal
 5477:00F4       $OK__10jul99_1214_OF_Czas
 5477:00FA       $OK__10jul99_1215_OF_V_results
 5477:0100       $OK__10jul99_1215_OF_D_Files
 5477:0106       $OK__10jul99_1214_OF_MMA_Cout
 5477:010C       $OK__10jul99_1215_OF_D_results
 5477:0112       $OK__10jul99_1215_OF_PI_Glowny
 5477:0118       $OK__10jul99_1215_OF_T_Oblot
 5477:011E       $OK__10jul99_1215_OF_T_Inspekcj
 5477:0124       $OK__10jul99_1214_OF_CommonData
 5477:012A       $OK__10jul99_1215_OF_Files
 5477:0130       $OK__10jul99_1215_OF_V_CP_Contr
 5477:0136       $OK__10jul99_1215_OF_Pomiar
 5477:013C       $OK__10jul99_1215_OF_Screen
 5477:0142       $OK__10jul99_1215_OF_PI_Analiza
 5477:0148       $OK__10jul99_1215_OF_PI_Pomiar
 5477:014E       $OK__10jul99_1215_OF_PI_ArchDat
 5477:0154       $OK__10jul99_1215_OF_PI_Drukuj
 5477:015A       $OK__10jul99_1214_OF_Storage
 5477:0160       $OK__10jul99_1214_OF_SoftIntHan
 5477:0166       $OK__10jul99_1214_OF_Timer
 5477:016C       $OK__10jul99_1214_OF_Messages
 5477:0172       $OK__10jul99_1214_OF_StdIO
 5477:0178       $OK__10jul99_1214_OF_DGHInterfa
 5477:017E       $OK__10jul99_1214_OF_HiLevGraf
 5477:0184       $OK__10jul99_1214_OF_GrafTypes
 5477:018A       $OK__10jul99_1214_OF_MsgBox
 5477:0190       $OK__10jul99_1214_OF_GrafUtil
 5477:0196       $OK__10jul99_1215_OF_V_Odb
 5477:019C       $OK__10jul99_1214_OF_NAVGPIB
 5477:01A2       $OK__10jul99_1214_OF_AltInterfa
 5477:01A8       $OK__10jul99_1214_OF_Int_DME
 5477:01AE       $OK__10jul99_1214_OF_FIltr1St
 5477:01B4       $OK__10jul99_1215_OF_GeoArithme
 5477:01BA       $OK__10jul99_1214_OF_DGH_utils
 5477:01C0       $OK__10jul99_1214_OF_Kalibracja
 5477:01C6       $OK__10jul99_1214_OF_DigiRS
 5477:01CC       $OK__10jul99_1214_OF_RealConver
 5477:01D2       $OK__10jul99_1214_OF_Math
 5477:01D8       $OK__10jul99_1214_OF_GPS_nov
 5477:01DE       $OK__10jul99_1214_OF_GPS_TRIMBL
 5477:01E4       $OK__10jul99_1214_OF_Ini
 5477:01EA       $OK__10jul99_1214_OF_FIO
 5477:01F0       $OK__10jul99_1214_OF_WorseBecau
 5477:01F6       $OK__10jul99_1214_OF_Graphics
 5477:01FC       $OK__10jul99_1214_OF_XMSService
 5477:0202       $OK__10jul99_1214_OF_MMMouse
 5477:0208       $OK__10jul99_1214_OF_ShortCuts
 5477:020E       $OK__10jul99_1214_OF_HRD_Clock
 5477:0214       $OK__10jul99_1215_OF_D_Odb
 5477:021A       $OK__10jul99_1214_OF_InpLine
 5477:0220       $OK__10jul99_1214_OF_Buttons
 5477:0226       $OK__10jul99_1215_OF_Mapa
 5477:022C       $OK__10jul99_1214_OF_Dialog
 5477:0232       $OK__10jul99_1214_OF_GList
 5477:0238       $OK__10jul99_1214_OF_Obloty
 5477:023E       $OK__10jul99_1215_OF_V_Database
 5477:0244       $OK__10jul99_1214_OF_SwitchCntr
 5477:024A       $OK__10jul99_1214_OF_FCBS
 5477:0250       $OK__10jul99_1214_OF_CocpDsp
 5477:0256       $OK__10jul99_1215_OF_DataCollec
 5477:025C       $OK__10jul99_1214_OF_Wykres
 5477:0262       $OK__10jul99_1214_OF_XMSTable
 5477:0268       $OK__10jul99_1215_OF_EventsMng
 5477:026E       $OK__10jul99_1215_OF_PI_ScrUtil
 5477:0274       $OK__10jul99_1215_OF_Slupek
 5477:027A       $OK__10jul99_1215_OF_ScreenCTyp
 5477:0280       $OK__10jul99_1215_OF_V_DisResul
 5477:0286       $OK__10jul99_1215_OF_DisResUtil
 5477:028C       $OK__10jul99_1215_OF_D_DisResul
 5477:0292       $OK__10jul99_1215_OF_PiszEventy
 5477:0298       $OK__10jul99_1215_OF_V_Count
 5477:029E       $OK__10jul99_1215_OF_D_Count
 5477:02A4       $OK__10jul99_1215_OF_D_DAcquizi
 5477:02AA       $OK__10jul99_1215_OF_V_DAcquizi
 5477:02B0       $OK__10jul99_1215_OF_DMEPrint
 5477:02B6       $OK__10jul99_1215_OF_VORPrint
 5477:02BC       $OK__10jul99_1214_OF_Semafory
 5477:02C2       $OK__10jul99_1215_OF_Random
 5477:02C8       $OK__10jul99_1214_OF_M_PGPIB
 5477:02CE       $OK__10jul99_1214_OF_NAVInterfa
 5477:02D4       $OK__10jul99_1214_OF_ARINC
 5477:02DA       $OK__10jul99_1214_OF_Kl_FGenera
 5477:02E0       $OK__10jul99_1215_OF_Polozenie
 5477:02E6       $OK__10jul99_1215_OF_Marks
 5477:02EC       $OK__10jul99_1215_OF_V_Slupek
 5477:02F2       $OK__10jul99_1215_OF_D_Slupek
 5477:02F8       $OK__10jul99_1215_OF_DrawEpson
 5477:02FE       $OK__10jul99_1215_OF_Print
 5477:0304       $OK__10jul99_1215_OF_VORR_Avera
 5477:030A       $OK__10jul99_1215_OF_PrintCntro
 5477:0310       $OK__10jul87_1403_OF_RTS87
 5477:0316       $OK__10jul87_1400_OF_RTSError
 5477:031C       $OK__19aug87_1403_OF_RTSMain
 5477:0322       $OK__10jul87_1401_OF_RTSLanguag
 5477:0328       $OK__15jun87_0924_OF_RTSDevice
 5477:032E       $OK__10jul87_1404_OF_RTSPriorit
 5477:0334       $OK__15jun87_0924_OF_RTSCorouti
 5477:033A       $OK__10jul87_1402_OF_RTSInterru
 5477:0340       $OK__10jul87_1400_OF_RTSRealErr
 5477:0346       $OK__31jul87_1000_OF_Strings
 5477:034C       $OK__01mar90_1621_OF_NumberConv
 5477:0352       $OK__01mar90_1622_OF_Sounds
 5477:0358       $OK__16jun87_2059_OF_DebugPMD
 5477:035E       $OK__01mar90_1622_OF_Devices
 5477:0364       $OK__16jun87_1952_OF_DynMem
 5477:036A       $OK__31jul87_1300_OF_BlockOps
 5477:0370       $OK__01mar90_1622_OF_Mouse
 5477:0376       $OK__05feb87_1233_OF_Longs
 5477:037C       $OK__01mar90_1621_OF_Terminal
 5477:0382       $OK__01mar90_1621_OF_Termbase
 5477:0388       $OK__31jul87_1100_OF_BitByteOps
 5477:038E       $OK__01mar90_1621_OF_ASCII
 5477:0394       $OK__01mar90_1621_OF_Display
 5477:039A       $OK__01mar90_1621_OF_Keyboard
 5477:03A0       $OK__01mar90_1621_OF_DOSMemory
 54C2:0000       $BD__RTSMain
 54C2:0000       errorCode__RTSMain
 54C2:0002       PSPAddress__RTSMain
 54C2:0006       blockList__RTSMain
 54C2:000A       overlayList__RTSMain
 54C2:000E       overlayInitProc__RTSMain
 54C2:0012       overlayTermProc__RTSMain
 54C2:0016       curProcess__RTSMain
 54C2:001A       activProcess__RTSMain
 54C2:001E       debuggerRecord__RTSMain
 54C2:0030       deviceMask__RTSMain
 54C2:0032       dyingOverlay__RTSMain
 54C2:0036       MonitorExitProc__RTSMonExit
 54C2:003E       programSize
 54C2:0046       priorityMasks__RTSMain
 54C2:0058       DescInt0__RTSMain
 54C2:0128       freeList__RTSMain
 54C2:01CE       oldNMIvector
 54C2:01DD       $ED__RTSMain
 54E1:0000       $BD__RTSCoroutine
 54E1:0000       addProcess__RTSCoroutine
 54E1:0003       $ED__RTSCoroutine
 554E:0000       mainState__PTT
 554E:0000       $BD__PTT
 554E:0002       switchAble__PTT
 554E:0003       Zestaw__PTT
 554E:0004       polaryzacjaOK__PTT
 554E:0006       podzielnik__PTT
 554E:000A       synResult__PTT
 554E:000E       dataOk__PTT
 554E:0010       archData__PTT
 554E:0011       $ED__PTT
 5550:0000       $BD__MANAGER
 5550:0000       ErrorQueue__MANAGER
 5550:0004       ReadyFirst__MANAGER
 5550:0008       NuOfErrorProc__MANAGER
 5550:000A       MaxNumOfReady__MANAGER
 5550:000C       MaxRunTime__MANAGER
 5550:000E       LongestProcess__MANAGER
 5550:0012       ErrorHandler__MANAGER
 5550:0016       LastCreated__MANAGER
 5550:001A       NumberOfProc__MANAGER
 5550:001C       Statistic__MANAGER
 5550:0114       CP__MANAGER
 5550:0118       ReadyLast__MANAGER
 5550:011C       DUMMY__MANAGER
 5550:0120       NuOfReady__MANAGER
 5550:0122       WaitForInt__MANAGER
 5550:0124       TSSInterval__MANAGER
 5550:0126       MaxRecTime__MANAGER
 5550:0128       TimeIntNum__MANAGER
 5550:012A       spTab__MANAGER
 5550:01F6       expInter__Scheduler__MANAGER
 5550:0208       VarDR__MANAGER
 5550:021A       Count__MANAGER
 5550:021C       LastMask__MANAGER
 5550:021E       $ED__MANAGER
 5572:0000       $BD__PI_PA
 5572:0000       PomiarANieArchiwum__PI_PA
 5572:0001       $ED__PI_PA
 5573:0000       entryTmp__DOSEntry
 5573:0000       $BD__DOSEntry
 5573:003D       exitTmp__DOSEntry
 5573:007A       entryTmpPtr__DOSEntry
 5573:007E       exitTmpPtr__DOSEntry
 5573:0082       insideFlag__DOSEntry
 5573:0084       DOSEmpty__DOSEntry
 5573:0088       $ED__DOSEntry
 557C:0000       $BD__ErrorMess
 557C:0000       $ED__ErrorMess
 557D:0000       $BD__Tune
 557D:0000       VORfreqCRT__Tune
 557D:0050       GSfreqCRT__Tune
 557D:00A0       lastCPFlags__Tune
 557D:00A2       lastDMEfrqBits__Tune
 557D:00A6       $ED__Tune
 5588:0000       ST__PI_Qcheck
 5588:0000       $BD__PI_Qcheck
 5588:0064       $ED__PI_Qcheck
 558F:0000       $BD__ScannerI
 558F:0000       flg__ScannerI
 558F:0002       Alfa__ScannerI
 558F:0006       AlfaF__ScannerI
 558F:000A       RefAlfa__ScannerI
 558F:000C       TeoAlfaF__ScannerI
 558F:000E       Delta__ScannerI
 558F:0016       DeltaDME__ScannerI
 558F:001A       DeltaF__ScannerI
 558F:0022       RefDis__ScannerI
 558F:0024       ABOVESL__ScannerI
 558F:0026       pilErr__ScannerI
 558F:0028       TEO_A__ScannerI
 558F:0030       TEO_E__ScannerI
 558F:0038       TEO_OK__ScannerI
 558F:003A       TEO_DGPSpoprawki__ScannerI
 558F:003B       GPS_A__ScannerI
 558F:0043       GPS_R__ScannerI
 558F:004B       GPS_OK__ScannerI
 558F:004C       GPS_SAT__ScannerI
 558F:004E       GPS_GDOP__ScannerI
 558F:0050       GPS_DIFFMODE__ScannerI
 558F:0051       GPS_PREC__ScannerI
 558F:0053       Simul__ScannerI
 558F:0054       AcqQ__ScannerI
 558F:0058       RUN__ScannerI
 558F:0059       AlfaSigma__ScannerI
 558F:0061       DisSigma__ScannerI
 558F:0069       EvalPROC__ScannerI
 558F:0079       pilotEvNrCOn__ScannerI
 558F:007C       pilotEvNr__ScannerI
 558F:007E       pilEvCon__ScannerI
 558F:0082       pilEvBit__ScannerI
 558F:0083       Sim_Dis_CP__ScannerI
 558F:0087       Sim_Alfa_CP__ScannerI
 558F:008B       GPSEcounting__ScannerI
 558F:008F       TEOEcounting__ScannerI
 558F:0093       locTogether__ScannerI
 558F:0094       AlfaGPSWatcDog__ScannerI
 558F:0096       AlfaTeoWatcDog__ScannerI
 558F:0098       currOdnDlaPomOdl__ScannerI
 558F:0099       currOdnDlaPomBledu__ScannerI
 558F:009A       currPredkosc__ScannerI
 558F:00A2       currPromien__ScannerI
 558F:00A4       currAlfaOff__ScannerI
 558F:00A6       azymANieElew__ScannerI
 558F:00A7       TEO_dtaSign__ScannerI
 558F:00AB       GPS_dtaSign__ScannerI
 558F:00AD       ix__ScannerI
 558F:00AF       $ED__ScannerI
 559A:0000       $BD__CommonTypes
 559A:0000       $ED__CommonTypes
 559B:0000       $BD__TheodolitRead
 559B:0000       PolozenieTeodolitu__TheodolitRe
 559B:0010       Kopiowanie__TheodolitRead
 559B:0014       Azymut__TheodolitRead
 559B:001C       Elewacja__TheodolitRead
 559B:0024       lstAzymuth__TheodolitRead
 559B:002C       lstElevation__TheodolitRead
 559B:0034       currentSign__TheodolitRead
 559B:0036       TeoEvNr__TheodolitRead
 559B:0038       wd_dgps_currSign__TheodolitRead
 559B:003A       lstEvent__TheodolitRead
 559B:003B       lstTracking__TheodolitRead
 559B:003C       teoEvBit__TheodolitRead
 559B:003D       State__TheodolitRead
 559B:003F       currState__TheodolitRead
 559B:0040       lastNum__TheodolitRead
 559B:0046       lastCrc__TheodolitRead
 559B:0048       numPos__TheodolitRead
 559B:004A       CheckSumIdx__TheodolitRead
 559B:004C       teoEvCon__TheodolitRead
 559B:0050       teoEvNrCOn__TheodolitRead
 559B:0053       Nie_mozna_uruchomic_kanalu_Teod
 559B:0057       $ED__TheodolitRead
 55A1:0000       $BD__GPSRead
 55A1:0000       ObecnyStan__GPSRead
 55A1:0001       currentSign__GPSRead
 55A1:0003       Last_Gdop__GPSRead
 55A1:0005       Last_NumberOfSattelites__GPSRea
 55A1:0007       Last_polGeo__GPSRead
 55A1:0013       Last_Diffmode__GPSRead
 55A1:0014       Last_tog__GPSRead
 55A1:001C       Last_EPE__GPSRead
 55A1:001E       CurrGPSAnalizer__GPSRead
 55A1:0022       $ED__GPSRead
 55A4:0000       $BD__DGHIni
 55A4:0000       signals__DGHIni
 55A4:08E8       TableOfNames__DGHIni
 55A4:0F70       SignalDescr__DGHIni
 55A4:0F8E       $ED__DGHIni
 569D:0000       FileErr__V_Files
 569D:0000       $BD__V_Files
 569D:0004       NamesSig__V_Files
 569D:0090       FileSig__V_Files
 569D:00A4       NameRes__V_Files
 569D:00F8       FileRes__V_Files
 569D:0104       $ED__V_Files
 56AE:0000       $BD__VORO_avrage
 56AE:0000       $ED__VORO_avrage
 56AF:0000       $ED__D_CommonTypes
 56AF:0000       $BD__D_CommonTypes
 56B0:0000       Procedura__V_CommonTypes
 56B0:0000       $BD__V_CommonTypes
 56B0:0001       $ED__V_CommonTypes
 56B1:0000       $ED__SpecConv
 56B1:0000       $BD__SpecConv
 56B2:0000       $BD__FlagAnal
 56B2:0000       $ED__FlagAnal
 56B3:0000       StringRect__BezPrzerwan__Czas
 56B3:0000       $BD__Czas
 56B3:0008       SystemTime__BezPrzerwan__Czas
 56B3:0014       $ED__Czas
 56B5:0000       anRes__V_results
 56B5:0000       $BD__V_results
 56B5:05A3       currDT__V_results
 56B5:05AF       sec__V_results
 56B5:05B1       $ED__V_results
 5711:0000       $BD__D_Files
 5711:0000       FileErr__D_Files
 5711:0004       NamesSig__D_Files
 5711:0074       NamesDis__D_Files
 5711:0090       FileSig__D_Files
 5711:00A0       FileDis__D_Files
 5711:00A4       $ED__D_Files
 571C:0000       $BD__MMA_Cout
 571C:0000       $ED__MMA_Cout
 571D:0000       anRes__D_results
 571D:0000       $BD__D_results
 571D:1EA4       currDT__D_results
 571D:1EB0       sec__D_results
 571D:1EB2       $ED__D_results
 5909:0000       $BD__PI_Glowny
 5909:0000       $ED__PI_Glowny
 590A:0000       CoRobimy__T_Oblot
 590A:0000       $BD__T_Oblot
 590A:0001       hDlg__T_Oblot
 590A:0005       bNadajnik__T_Oblot
 590A:000D       GlowOdb__T_Oblot
 590A:0011       CisnienieOdn__T_Oblot
 590A:0015       TestUP__T_Oblot
 590A:0019       Raport__T_Oblot
 590A:001D       Pomiar__T_Oblot
 590A:0021       Pomiar1__T_Oblot
 590A:0025       RedrawScr__T_Oblot
 590A:0026       $ED__T_Oblot
 590D:0000       $BD__T_Inspekcja
 590D:0000       hDlg__T_Inspekcja
 590D:0004       RedrawScr__T_Inspekcja
 590D:0005       ListaOblotow__T_Inspekcja
 590D:0009       ListaOblotowBAK__T_Inspekcja
 590D:000D       ListaLokalizacji__T_Inspekcja
 590D:0011       ListaLokalizacjiBAK__T_Inspekcj
 590D:0015       OstatniOblot__T_Inspekcja
 590D:0017       $ED__T_Inspekcja
 590F:0000       NazwaUrzadz1__CommonData
 590F:0000       $BD__CommonData
 590F:0029       NazwaUrzadz2__CommonData
 590F:0052       NazwaOblotu__CommonData
 590F:007B       NazwaPlikuOpisu__CommonData
 590F:00FB       DME__CommonData
 590F:00FC       SciezkaOpisuPomiaru__CommonData
 590F:013D       OdnDlaPomBledu__CommonData
 590F:013E       OdnDlaPomOdl__CommonData
 590F:013F       Nadajnik1__CommonData
 590F:0140       Nadajnik2__CommonData
 590F:0141       GlownyOdbiornik__CommonData
 590F:0142       Promien__CommonData
 590F:0144       Orbita__CommonData
 590F:0146       Predkosc__CommonData
 590F:014E       CisnienieOdniesienia__CommonDat
 590F:0156       $ED__CommonData
 5925:0000       $BD__Files
 5925:0000       FileErr__Files
 5925:0004       DirErr__Files
 5925:0008       NamesAn__Files
 5925:0040       NamesDist__Files
 5925:00B0       NamesAlfa__Files
 5925:00E8       NamesComm__Files
 5925:0190       filesDist__Files
 5925:01A0       filesAlfa__Files
 5925:01A8       filesComm__Files
 5925:01C0       xRefFile__Files
 5925:01C4       xRefDefV__Files
 5925:01C8       homeDir__Files
 5925:0219       $ED__Files
 5947:0000       disCont__V_CP_ControlProc
 5947:0000       $BD__V_CP_ControlProc
 5947:00CD       angCont__V_CP_ControlProc
 5947:0190       myRadial__V_CP_ControlProc
 5947:0192       aktOrbita__V_CP_ControlProc
 5947:0194       radial__V_CP_ControlProc
 5947:0195       Running__V_CP_ControlProc
 5947:0196       $ED__V_CP_ControlProc
 5961:0000       $BD__Pomiar
 5961:0000       ProcPom__Pomiar
 5961:0050       EtapPolaryzacji__Pomiar
 5961:0054       StanButtonow__Pomiar
 5961:0058       currButtonSet__Pomiar
 5961:005A       B_01__Pomiar
 5961:005E       B_02__Pomiar
 5961:0062       B_03__Pomiar
 5961:0066       B_04__Pomiar
 5961:006A       B_05__Pomiar
 5961:006E       NapisB_01__Pomiar
 5961:0075       StanZestawu__Pomiar
 5961:0077       frstBut__Pomiar
 5961:0079       katPromien__Pomiar
 5961:007B       promien__Pomiar
 5961:007C       format360__Pomiar
 5961:007E       distOff__Pomiar
 5961:0082       alfaOff__Pomiar
 5961:0092       currZestaw__Pomiar
 5961:0093       dataInBuff__Pomiar
 5961:0095       $ED__Pomiar
 596B:0000       VAL1__Screen
 596B:0000       $BD__Screen
 596B:0004       VAL2__Screen
 596B:0008       VAL3__Screen
 596B:000C       VAL4__Screen
 596B:0010       Zestaw__Screen
 596B:0011       aktPromien__Screen
 596B:0013       aktPromienOdAnt__Screen
 596B:001B       pomPromieniowy__Screen
 596B:001C       aktFormat360__Screen
 596B:001D       devDistR__Screen
 596B:0025       by23__Screen
 596B:0027       LastDTidx__Screen
 596B:0029       ThisDTidx__Screen
 596B:002B       samplediv__Screen
 596B:002D       NextRedraw__Screen
 596B:002E       LastEventIDX__Screen
 596B:0030       KrokOpisuOsi__Screen
 596B:0032       Predrawmarksreq__Screen
 596B:0036       Predrawreq__Screen
 596B:003A       currConsoleEv__Screen
 596B:003E       RegionWykG__Screen
 596B:0042       RegionWykGCreated__Screen
 596B:0043       RegionWyk1__Screen
 596B:0047       RegionWyk1Created__Screen
 596B:0048       RegionWyk2__Screen
 596B:004C       RegionWyk2Created__Screen
 596B:004D       RegionWyk3__Screen
 596B:0051       RegionWyk3Created__Screen
 596B:0052       RegionWykresow__Screen
 596B:0056       B_CURSOR__Screen
 596B:005A       B_LEFT__Screen
 596B:005E       B_RIGHT__Screen
 596B:0062       B_UP__Screen
 596B:0066       B_DOWN__Screen
 596B:006A       screenDIB__Screen
 596B:006E       RysSytMaxDis__Dialog__Screen
 596B:0076       CursorMode__Dialog__Screen
 596B:0077       JakijedenWykres__Dialog__Screen
 596B:0078       JedenWykres__Dialog__Screen
 596B:0079       JakieWykr__Dialog__Screen
 596B:007A       popJakieWykr__Dialog__Screen
 596B:007B       CursorPos__Dialog__Screen
 596B:007D       OileKursor__Dialog__Screen
 596B:007F       ZmianaSkaliWpionie__Dialog__Scr
 596B:0080       BarOnScreen__Dialog__Screen
 596B:0082       skalaWpionie__Dialog__Screen
 596B:012C       ChangeKursorMode__Dialog__Scree
 596B:012D       $ED__Screen
 597E:0000       dispResults__PI_Analiza
 597E:0000       $BD__PI_Analiza
 597E:0004       currButtonSet__MouseMonitor__PI
 597E:0005       B_Drukuj__MouseMonitor__PI_Anal
 597E:0009       B_Akceptuj__MouseMonitor__PI_An
 597E:000D       B_Abort__MouseMonitor__PI_Anali
 597E:0011       B_UP__MouseMonitor__PI_Analiza
 597E:0015       B_DOWN__MouseMonitor__PI_Analiz
 597E:0019       B_XCHG__MouseMonitor__PI_Analiz
 597E:001D       sthPressed__MouseMonitor__PI_An
 597E:0021       $ED__PI_Analiza
 5981:0000       $BD__PI_Pomiar
 5981:0000       $ED__PI_Pomiar
 5982:0000       $BD__PI_ArchDate
 5982:0000       $ED__PI_ArchDate
 5983:0000       $BD__PI_Drukuj
 5983:0000       $ED__PI_Drukuj
 5984:0000       OCCUPED__Storage
 5984:0000       $BD__Storage
 5984:0001       heapList__Storage
 5984:0021       prevHeap__Storage
 5984:0023       StaraStrategia__Storage
 5984:0025       StaryCh__Storage
 5984:0027       $ED__Storage
 5987:0000       $BD__SoftIntHandlingManager
 5987:0000       break__SoftIntHandlingManager
 5987:0001       firstISRDescriptorPtr__Monitor_
 5987:0005       $ED__SoftIntHandlingManager
 5988:0000       $BD__Timer
 5988:0000       TimeCounter__Timer
 5988:0002       TIOS__Timer
 5988:0004       ClockPer__Timer
 5988:0006       TOQueue__Monitor__Timer
 5988:000A       Period__Monitor__Timer
 5988:000C       PeriodCount__Monitor__Timer
 5988:000E       PeriodicProcedure__Monitor__Tim
 5988:0012       Dumm__Monitor__Timer
 5988:0014       $ED__Timer
 598A:0000       MList__Messages
 598A:0000       $BD__Messages
 598A:0004       MDispl__Messages
 598A:0008       MessageSound__Messages
 598A:000A       TurnBeepOn__Messages
 598A:000E       $ED__Messages
 598B:0000       $ED__StdIO
 598B:0000       $BD__StdIO
 598C:0000       $BD__DGHInterface
 598C:0000       BufferFull__DGHInterface
 598C:0004       currentSign__DGHInterface
 598C:0006       binaryDtaSign__DGHInterface
 598C:0008       csErrorCnt__DGHInterface
 598C:000A       nvErrorCndF__DGHInterface
 598C:000C       nvErrorCndS__DGHInterface
 598C:000E       maxClicks__DGHInterface
 598C:0010       activated__DGHInterface
 598C:0014       Ostrzezenie_ze_za_dlugo__DGHInt
 598C:0018       $ED__DGHInterface
 598E:0000       $BD__HiLevGraf
 598E:0000       ClipRect__HiLevGraf
 598E:0008       Style__HiLevGraf
 598E:000A       LastPosition__HiLevGraf
 598E:000C       semafor__HiLevGraf
 598E:0018       Path__HiLevGraf
 598E:0059       XS__HiLevGraf
 598E:005B       YS__HiLevGraf
 598E:005D       $ED__HiLevGraf
 5994:0000       $ED__GrafTypes
 5994:0000       $BD__GrafTypes
 5995:0000       $BD__MsgBox
 5995:0000       hDlg__MsgBox
 5995:0004       ret__MsgBox
 5995:0006       P_A__MsgBox
 5995:0016       $ED__MsgBox
 5997:0000       $BD__GrafUtil
 5997:0000       StatusR__GrafUtil
 5997:0008       str__GrafUtil
 5997:006C       WaitTime__GrafUtil
 5997:006E       Tone__GrafUtil
 5997:0070       $ED__GrafUtil
 599F:0000       $BD__V_Odb
 599F:0000       navFlg__V_Odb
 599F:0002       audio__V_Odb
 599F:0004       obr__V_Odb
 599F:0008       var__V_Odb
 599F:000C       ref__V_Odb
 599F:0010       sub__V_Odb
 599F:0014       agc__V_Odb
 599F:0018       flg__V_Odb
 599F:001A       DEVVAL__V_Odb
 599F:001E       DEVMIN__V_Odb
 599F:0022       DEVMAX__V_Odb
 599F:0026       DEVAV__V_Odb
 599F:002A       DevNr__V_Odb
 599F:002E       DevErrSum__V_Odb
 599F:003E       CollectData__V_Odb
 599F:003F       OdnDlaPomBledu__V_Odb
 599F:0040       navFlgCon__V_Odb
 599F:0048       locationsTogether__V_Odb
 599F:0049       licznik__V_Odb
 599F:004B       $ED__V_Odb
 59A4:0000       $BD__NAVGPIB
 59A4:0000       lastGPIBError__NAVGPIB
 59A4:0001       simpleComm__NAVGPIB
 59A4:0221       realComm__NAVGPIB
 59A4:0353       lastGPIBCommand__NAVGPIB
 59A4:0374       lastGPIBResponse__NAVGPIB
 59A4:0395       status__NAVGPIB
 59A4:0397       FirstLocal__NAVGPIB
 59A4:0398       CommCount__NAVGPIB
 59A4:039A       loopCount__NAVGPIB
 59A4:039C       loopCountmax__NAVGPIB
 59A4:039E       Line__NAVGPIB
 59A4:03A0       $ED__NAVGPIB
 59DF:0000       ALT_Conver_Tab__AltInterface
 59DF:0000       $BD__AltInterface
 59DF:0020       ALT_Conver_TabC__AltInterface
 59DF:0040       refPress__AltInterface
 59DF:0048       $ED__AltInterface
 59E4:0000       $ED__Int_DME
 59E4:0000       $BD__Int_DME
 59E5:0000       okresImp__FIltr1St
 59E5:0000       $BD__FIltr1St
 59E5:0008       $ED__FIltr1St
 59E6:0000       $BD__GeoArithmetic
 59E6:0000       Deklinacja__GeoArithmetic
 59E6:0008       OdniesienieMtx__GeoArithmetic
 59E6:0020       IloscOdniesien__GeoArithmetic
 59E6:0022       $ED__GeoArithmetic
 59E9:0000       address__DGH_utils
 59E9:0000       $BD__DGH_utils
 59E9:0020       binAddress__DGH_utils
 59E9:0036       $ED__DGH_utils
 59ED:0000       $BD__Kalibracja
 59ED:0000       TabKalib2P__Kalibracja
 59ED:0800       AGCwartosciProgow__Kalibracja
 59ED:0870       AGCwartosciProgowM__Kalibracja
 59ED:08C0       AGCwartosciProgowD__Kalibracja
 59ED:0910       LocDev_delay__Kalibracja
 59ED:0918       GsDev_delay__Kalibracja
 59ED:0920       LocPrcMod_delay__Kalibracja
 59ED:0928       GsPrcMod_delay__Kalibracja
 59ED:0930       VorRefPrcMod_delay__Kalibracja
 59ED:0938       VorVarPrcMod_delay__Kalibracja
 59ED:0940       SubcarPrcMod_delay__Kalibracja
 59ED:0948       Omnibearing_delay__Kalibracja
 59ED:0950       VorAgc_delay__Kalibracja
 59ED:0958       GsAgc_delay__Kalibracja
 59ED:0960       MkrAgc_delay__Kalibracja
 59ED:0968       OmnibearingProgi__Kalibracja
 59ED:0A88       LOC_DEVPuntyKal__Kalibracja
 59ED:0AC0       GS_DEVPuntyKal__Kalibracja
 59ED:0AF8       Par__Kalibracja
 59ED:13B8       errDetected__Kalibracja
 59ED:13BC       inputCoeff__Kalibracja
 59ED:13EC       DataOstatniejKalibracji__Kalibr
 59ED:13F8       WystapilBlad__Kalibracja
 59ED:13F9       lastError__ErrorHand__Kalibracj
 59ED:13FB       for_counter__Kalibracja
 59ED:13FD       void__Kalibracja
 59ED:13FF       f__Kalibracja
 59ED:1401       $ED__Kalibracja
 5B2E:0000       minWrBufLength__DigiRS
 5B2E:0000       $BD__DigiRS
 5B2E:0002       $ED__DigiRS
 5B2F:0000       $BD__RealConversions
 5B2F:0000       $ED__RealConversions
 5B30:0000       $BD__Math
 5B30:0000       $ED__Math
 5B31:0000       $BD__GPS_nov
 5B31:0000       framesWError__GPS_nov
 5B31:0002       chrCount__GPS_nov
 5B31:0004       frmCount__GPS_nov
 5B31:0006       actPart__GPS_nov
 5B31:0007       sumaModC__GPS_nov
 5B31:0008       sumaModF__GPS_nov
 5B31:000A       posInRecBuf__GPS_nov
 5B31:000C       bufor__GPS_nov
 5B31:007B       eos__GPS_nov
 5B31:007E       err_unrec_cnt__GPS_nov
 5B31:0080       BladKanaluGPS__GPS_nov
 5B31:0084       $ED__GPS_nov
 5B3A:0000       framesWError__GPS_TRIMBLE
 5B3A:0000       $BD__GPS_TRIMBLE
 5B3A:0002       chrCount__GPS_TRIMBLE
 5B3A:0004       frmCount__GPS_TRIMBLE
 5B3A:0006       actPart__GPS_TRIMBLE
 5B3A:0007       posInRecBuf__GPS_TRIMBLE
 5B3A:0009       bufor__GPS_TRIMBLE
 5B3A:0049       L_epe__GPS_TRIMBLE
 5B3A:004B       L_WspSzerokosc__GPS_TRIMBLE
 5B3A:0051       L_WspDlugosc__GPS_TRIMBLE
 5B3A:0057       L_Kierunek__GPS_TRIMBLE
 5B3A:005F       L_FixNotAvailable__GPS_TRIMBLE
 5B3A:0060       L_month__GPS_TRIMBLE
 5B3A:0062       L_day__GPS_TRIMBLE
 5B3A:0064       L_year__GPS_TRIMBLE
 5B3A:0066       L_hour__GPS_TRIMBLE
 5B3A:0068       L_min__GPS_TRIMBLE
 5B3A:006A       L_sec__GPS_TRIMBLE
 5B3A:006C       L_NumberOfSattelites__GPS_TRIMB
 5B3A:006E       BladKanaluGPS__GPS_TRIMBLE
 5B3A:0072       $ED__GPS_TRIMBLE
 5B42:0000       ErrorProc__Ini
 5B42:0000       $BD__Ini
 5B42:0004       ini__Ini
 5B42:0010       currfile__Ini
 5B42:0012       BuffP__Ini
 5B42:0016       Bufor__Ini
 5B42:5017       charsInBuffer__Ini
 5B42:5019       SavedFileName__Ini
 5B42:507D       LastDir__Ini
 5B42:50E1       Modified__Ini
 5B42:50E2       check__Ini
 5B42:50E4       $ED__Ini
 6051:0000       $BD__FIO
 6051:0000       lastErr__FIO
 6051:0002       numErr__FIO
 6051:0004       opened__FIO
 6051:0006       maxOpened__FIO
 6051:0008       Files__FIO
 6051:0C08       CriticalErrorRec__FIO
 6051:0C12       $ED__FIO
 6113:0000       $ED__WorseBecause
 6113:0000       $BD__WorseBecause
 6114:0000       $BD__Graphics
 6114:0000       FontPtr__Graphics
 6114:0004       bank__InternalMonitor__Graphics
 6114:0006       bankstart__InternalMonitor__Gra
 6114:000A       BKSizeL__InternalMonitor__Graph
 6114:000E       BK64Inc__InternalMonitor__Graph
 6114:0010       FntTable__Graphics
 6114:0130       $ED__Graphics
 6128:0000       $BD__XMS
 6128:0004       $ED__XMS
 6129:0000       $BD__XMSService
 6129:0000       GarbageList__XMSService
 6129:0004       $ED__XMSService
 612A:0000       Regiony__MMMouse
 612A:0000       $BD__MMMouse
 612A:0004       LastX__MMMouse
 612A:0006       LastY__MMMouse
 612A:0008       CursorShapePtr__MMMouse
 612A:000C       DefaultShape__MMMouse
 612A:0050       maxX__MMMouse
 612A:0052       maxY__MMMouse
 612A:0054       PrevReg__MMMouse
 612A:0058       MonitoCheck__BezPrzerwanOdMyszy
 612A:005A       MouseEvent__BezPrzerwanOdMyszy_
 612A:005E       OldButtons__BezPrzerwanOdMyszy_
 612A:005F       EVF__BezPrzerwanOdMyszy__MMMous
 612A:0061       EVL__BezPrzerwanOdMyszy__MMMous
 612A:0063       EVC__BezPrzerwanOdMyszy__MMMous
 612A:0065       EventBuff__BezPrzerwanOdMyszy__
 612A:01E5       Stored__BezPrzerwanOdMyszy__MMM
 612A:01EC       lx__BezWyszeregowania__MMMouse
 612A:01EE       ly__BezWyszeregowania__MMMouse
 612A:01F0       rx__BezWyszeregowania__MMMouse
 612A:01F2       ry__BezWyszeregowania__MMMouse
 612A:01F4       CursorBuf__BezWyszeregowania__M
 612A:02F4       Hidden__BezWyszeregowania__MMMo
 612A:02F5       CursorB__BezWyszeregowania__MMM
 612A:03F5       MSemafor__MMMouse
 612A:0401       $ED__MMMouse
 616B:0000       Kill__ShortCuts
 616B:0000       $BD__ShortCuts
 616B:0001       ShortCutList__monitor__ShortCut
 616B:0005       SavedChar__monitor__ShortCuts
 616B:0007       FreeKey__monitor__ShortCuts
 616B:000B       NumEl__monitor__ShortCuts
 616B:000D       done__ShortCuts
 616B:000E       $ED__ShortCuts
 616C:0000       $BD__HRD_Clock
 616C:0000       $ED__HRD_Clock
 616D:0000       Dis__D_Odb
 616D:0000       $BD__D_Odb
 616D:0004       DisI__D_Odb
 616D:0008       Reply__D_Odb
 616D:000C       Squitter__D_Odb
 616D:0010       Agc__D_Odb
 616D:0014       Audio__D_Odb
 616D:0016       Mem__D_Odb
 616D:0018       Trace__D_Odb
 616D:001A       flg__D_Odb
 616D:001C       distErr__D_Odb
 616D:0020       distErrF__D_Odb
 616D:0024       SSmin__D_Odb
 616D:0028       samples__D_Odb
 616D:002A       CollectData__D_Odb
 616D:002B       distErrF_MemFIntContiner__D_Odb
 616D:003B       $ED__D_Odb
 6171:0000       $BD__InpLine
 6171:0000       Active__InpLine
 6171:0004       $ED__InpLine
 6172:0000       KbdButton__Buttons
 6172:0000       $BD__Buttons
 6172:0004       AllEnabled__Buttons
 6172:0005       ButtonList__MONITOR__Buttons
 6172:0009       $ED__Buttons
 6173:0000       $BD__Mapa
 6173:0000       doZrobienia__Mapa
 6173:0020       zrobione__Mapa
 6173:0040       aktualny__Mapa
 6173:0042       mapRct__Mapa
 6173:004A       distRect__Mapa
 6173:0052       PokazywacPolozenie__Mapa
 6173:0053       RysSytMaxDis__Mapa
 6173:005B       myPoint__Mapa
 6173:005F       redraw__Mapa
 6173:0060       noActive__monitor__Mapa
 6173:0064       $ED__Mapa
 617A:0000       $BD__Dialog
 617A:0000       ListaDlg__Dialog
 617A:0004       FocusChanged__Dialog
 617A:0008       $ED__Dialog
 617B:0000       CurH__GList
 617B:0000       $BD__GList
 617B:0004       Lista__GList
 617B:0008       $ED__GList
 617C:0000       $BD__Obloty
 617C:0000       NazwaPlikuIni__Obloty
 617C:0040       Stat_Size_Monitor__Obloty
 617C:0044       Stat_File_Monitor__Obloty
 617C:0048       HomeDir__Obloty
 617C:0058       HomeDirNazwaPlikuIni__Obloty
 617C:0099       bd_NazwaPliku__Obloty
 617C:00AA       bd_Sekcja__Obloty
 617C:00B5       bd_WpisNazwa__Obloty
 617C:00C0       insp_DirTmp__Obloty
 617C:00CB       stat_Size__Obloty
 617C:00D3       stat_Files__Obloty
 617C:00D5       NUrzadzDlaDopasuj__Obloty
 617C:0116       HomeDirDlaDopasuj__Obloty
 617C:0157       CallBackDlaDopasuj__Obloty
 617C:015B       NazwaPlikuZOpisem__Obloty
 617C:019C       DelDir__Obloty
 617C:01DD       SrcDir__Obloty
 617C:021E       DstDir__Obloty
 617C:025F       $ED__Obloty
 61A2:0000       $BD__V_Database
 61A2:0000       CurVor1__V_Database
 61A2:00E8       CurVor2__V_Database
 61A2:01D0       twoLocations__V_Database
 61A2:01D1       VOR_O_czuloscWP__V_Database
 61A2:01D3       VOR_O_czuloscCP__V_Database
 61A2:01D5       VOR_R_czuloscWP__V_Database
 61A2:01D7       VOR_R_czuloscCP__V_Database
 61A2:01D9       Blad_podczas_wczytywania_opisu_
 61A2:01DD       $ED__V_Database
 61C0:0000       ControlWords__SwitchCntrl
 61C0:0000       $BD__SwitchCntrl
 61C0:000E       $ED__SwitchCntrl
 61C1:0000       Code__FCBS
 61C1:0000       $BD__FCBS
 61C1:003D       $ED__FCBS
 61C5:0000       $BD__CocpDsp
 61C5:0000       currGSflg__CocpDsp
 61C5:0001       currNAVflg__CocpDsp
 61C5:0002       currFROMflg__CocpDsp
 61C5:0003       currTOflg__CocpDsp
 61C5:0004       dirCP__CocpDsp
 61C5:0006       dirWP__CocpDsp
 61C5:0008       SkalaCP__CocpDsp
 61C5:000A       Skala__CocpDsp
 61C5:000C       SkalaCPMax__CocpDsp
 61C5:000E       SkalaWPMax__CocpDsp
 61C5:0010       srodekSkali__CocpDsp
 61C5:0012       iloscStrzal__CocpDsp
 61C5:0014       currState__CocpDsp
 61C5:0015       currLNumber__CocpDsp
 61C5:0017       currRNumber__CocpDsp
 61C5:0019       currErrorCP__CocpDsp
 61C5:001B       currErrorWP__CocpDsp
 61C5:001D       currErrorGS__CocpDsp
 61C5:001F       newState__CocpDsp
 61C5:0023       dtaSign__CocpDsp
 61C5:0025       force__CocpDsp
 61C5:0026       currMsg__CocpDsp
 61C5:0028       $ED__CocpDsp
 61C8:0000       VAL1__DataCollect
 61C8:0000       $BD__DataCollect
 61C8:3210       VAL2__DataCollect
 61C8:6420       VAL3__DataCollect
 61C8:9630       VAL4__DataCollect
 61C8:C840       Idx__DataCollect
 61C8:C844       angContiner__DataCollect
 61C8:C84C       disContiner__DataCollect
 61C8:C854       marks_Con_D__DataCollect
 61C8:C857       marks_Con_A__DataCollect
 61C8:C85A       samplediv__tablice__DataCollect
 61C8:C85E       curr23__tablice__DataCollect
 61C8:C862       IDX3__tablice__DataCollect
 61C8:C866       IDX2__tablice__DataCollect
 61C8:C86A       Div3T__tablice__DataCollect
 61C8:C86E       Div2T__tablice__DataCollect
 61C8:C872       div2n__tablice__DataCollect
 61C8:C876       div3n__tablice__DataCollect
 61C8:C87A       ix2__tablice__DataCollect
 61C8:C87E       ix3__tablice__DataCollect
 61C8:C882       procVAL1__tablice__DataCollect
 61C8:C88A       procVAL2__tablice__DataCollect
 61C8:C892       procVAL3__tablice__DataCollect
 61C8:C89A       procVAL4__tablice__DataCollect
 61C8:C8A2       samples__tablice__DataCollect
 61C8:C8A6       VALX__tablice__DataCollect
 61C8:E1AE       $ED__DataCollect
 6FE3:0000       $BD__Wykres
 6FE3:0000       $ED__Wykres
 6FE4:0000       $ED__XMSTable
 6FE4:0000       $BD__XMSTable
 6FE5:0000       $BD__EventsMng
 6FE5:0000       Events__EventsMng
 6FE5:0B44       pilEnr__EventsMng
 6FE5:0B48       conEnr__EventsMng
 6FE5:0B4C       teoEnr__EventsMng
 6FE5:0B50       $ED__EventsMng
 709B:0000       $BD__PI_ScrUtility
 709B:0000       slupki__PI_ScrUtility
 709B:000C       slupkiAktywne__PI_ScrUtility
 709B:000D       $ED__PI_ScrUtility
 709C:0000       $BD__Slupek
 709C:0000       $ED__Slupek
 709D:0000       slL_rec__ScreenCTypes
 709D:0000       $BD__ScreenCTypes
 709D:0008       slL_pnt__ScreenCTypes
 709D:000C       slLReg_rec__ScreenCTypes
 709D:0014       slLDib_rec__ScreenCTypes
 709D:001C       slS_rec__ScreenCTypes
 709D:0024       slS_pnt__ScreenCTypes
 709D:0028       slSReg_rec__ScreenCTypes
 709D:0030       slSDib_rec__ScreenCTypes
 709D:0038       slP_rec__ScreenCTypes
 709D:0040       slP_pnt__ScreenCTypes
 709D:0044       slPReg_rec__ScreenCTypes
 709D:004C       slPDib_rec__ScreenCTypes
 709D:0054       $ED__ScreenCTypes
 70A3:0000       $BD__V_DisResults
 70A3:0000       colPos__V_DisResults
 70A3:000C       $ED__V_DisResults
 70A4:0000       $BD__DisResUtilities
 70A4:0000       $ED__DisResUtilities
 70A5:0000       $BD__D_DisResults
 70A5:0000       $ED__D_DisResults
 70A6:0000       $BD__PiszEventy
 70A6:0000       PoczatekStrony__PiszEventy
 70A6:0002       EvPtr__PiszEventy
 70A6:0006       $ED__PiszEventy
 70A7:0000       dvAVcont__V_Count
 70A7:0000       $BD__V_Count
 70A7:006C       signalsAVcont__V_Count
 70A7:00FC       bendsCon__V_Count
 70A7:34F8       roughnessCon__V_Count
 70A7:38A0       $ED__V_Count
 7432:0000       $BD__D_Count
 7432:0000       $ED__D_Count
 7433:0000       ImportantDiv__D_DAcquizition
 7433:0000       $BD__D_DAcquizition
 7433:0002       redraw__D_DAcquizition
 7433:0003       redrawM__D_DAcquizition
 7433:0004       pilotEvId__D_DAcquizition
 7433:0008       teoEvId__D_DAcquizition
 7433:000A       currUpdMarks__D_DAcquizition
 7433:000E       filesNotEmpty__D_DAcquizition
 7433:000F       notify__Monitor__D_DAcquizition
 7433:0013       lastComm__Monitor__D_DAcquiziti
 7433:0014       $ED__D_DAcquizition
 7435:0000       ImportantDiv__V_DAcquizition
 7435:0000       $BD__V_DAcquizition
 7435:0002       redraw__V_DAcquizition
 7435:0003       redrawM__V_DAcquizition
 7435:0004       pilotEvId__V_DAcquizition
 7435:0008       teoEvId__V_DAcquizition
 7435:000A       currUpdMarks__V_DAcquizition
 7435:000E       TrwaPomiarPolaryzacji__V_DAcqui
 7435:000F       polvfaza__V_DAcquizition
 7435:0011       pom2sek__V_DAcquizition
 7435:0013       notify__Monitor__V_DAcquizition
 7435:0017       lastComm__Monitor__V_DAcquiziti
 7435:0018       filesNotEmpty__V_DAcquizition
 7435:0019       $ED__V_DAcquizition
 7437:0000       $BD__DMEPrint
 7437:0000       $ED__DMEPrint
 7438:0000       Zestaw__VORPrint
 7438:0000       $BD__VORPrint
 7438:0002       Odniesienie__VORPrint
 7438:0003       header__VORPrint
 7438:0067       NazwaPliku__VORPrint
 7438:0086       gOdb__VORPrint
 7438:0087       zOdb__VORPrint
 7438:0088       NAVG_flg__VORPrint
 7438:008A       NAVZ_flg__VORPrint
 7438:008C       NAVG_AFlg__VORPrint
 7438:008E       NAVZ_AFlg__VORPrint
 7438:0090       $ED__VORPrint
 7442:0000       TablicaSemaforow__Semafory
 7442:0000       $BD__Semafory
 7442:0054       $ED__Semafory
 7448:0000       a__Random
 7448:0000       $BD__Random
 7448:006E       j__Random
 7448:0070       k__Random
 7448:0072       $ED__Random
 7450:0000       $BD__M_PGPIB
 7450:0000       $ED__M_PGPIB
 7451:0000       disableMask__NAVInterface
 7451:0000       $BD__NAVInterface
 7451:0002       speedMask__NAVInterface
 7451:0004       fineMode__NAVInterface
 7451:0005       killTime__NAVInterface
 7451:0007       $ED__NAVInterface
 7452:0000       $BD__ARINC
 7452:0000       maxCountW__ARINC
 7452:0002       maxCountR__ARINC
 7452:0004       $ED__ARINC
 7453:0000       $BD__Kl_FGenerators
 7453:0000       $ED__Kl_FGenerators
 7454:0000       StalyKat__Polozenie
 7454:0000       $BD__Polozenie
 7454:0002       Srodek__Polozenie
 7454:0006       Promien__Polozenie
 7454:0008       MaxVal__Polozenie
 7454:0010       AktOdleglosc__Polozenie
 7454:0018       AktKat__Polozenie
 7454:0020       Narysowany__Polozenie
 7454:0022       Bufor__Polozenie
 7454:0112       Rect__Polozenie
 7454:011A       ProcesAktywny__Polozenie
 7454:011B       NCO__Polozenie
 7454:011C       angContiner__Polozenie
 7454:011F       MarkerShapes__Polozenie
 7454:020F       Dir__Polozenie
 7454:0211       CzesciOkregu__Polozenie
 7454:0235       $ED__Polozenie
 7478:0000       $ED__Marks
 7478:0000       $BD__Marks
 7479:0000       $BD__V_Slupek
 7479:0000       parSlupkow__V_Slupek
 7479:0018       screeenDIB__V_Slupek
 7479:001C       cursorDIB__V_Slupek
 7479:0020       $ED__V_Slupek
 747C:0000       parSlupkow__D_Slupek
 747C:0000       $BD__D_Slupek
 747C:0018       screeenDIB__D_Slupek
 747C:001C       cursorDIB__D_Slupek
 747C:0020       $ED__D_Slupek
 747F:0000       PrnPort__DrawEpson
 747F:0000       $BD__DrawEpson
 747F:0002       xh__DrawEpson
 747F:0004       Bufor__DrawEpson
 747F:0784       LastPosition__DrawEpson
 747F:0786       Masks__DrawEpson
 747F:078E       Adr1__DrawEpson
 747F:0792       Adr2__DrawEpson
 747F:0796       PrevPage__DrawEpson
 747F:0798       CurMode__DrawEpson
 747F:0799       FontAdrN__DrawEpson
 747F:079D       FontAdrA__DrawEpson
 747F:07A1       FontHeight__DrawEpson
 747F:07A3       Rotation__DrawEpson
 747F:07A4       MnX__DrawEpson
 747F:07A6       MnY__DrawEpson
 747F:07A8       JuzNarysowane__DrawEpson
 747F:07A9       $ED__DrawEpson
 74FA:0000       PrnX__Print
 74FA:0000       $BD__Print
 74FA:0002       PrnY__Print
 74FA:0004       PolozenieNapisu__Print
 74FA:0006       TextModeOutProc__Print
 74FA:000A       PrevIdx__Print
 74FA:000C       Flagi__Print
 74FA:000E       flgEOF__Print
 74FA:000F       scaleDiv__Print
 74FA:0011       CoKtoraProbka__Print
 74FA:0013       ZestawProbekBinDoWyboru__Print
 74FA:00D5       Tmpl__Print
 74FA:0112       $ED__Print
 750C:0000       $BD__VORR_Average
 750C:0000       $ED__VORR_Average
 750D:0000       $BD__PrintCntroll
 750D:0000       hDlg__PrintCntroll
 750D:0004       Zestaw__PrintCntroll
 750D:0006       Odniesienie__PrintCntroll
 750D:0007       OdnB__PrintCntroll
 750D:000B       CoKtoraProbka__PrintCntroll
 750D:000D       IleStron__PrintCntroll
 750D:000F       IloscProbek__PrintCntroll
 750D:0011       lPodz__PrintCntroll
 750D:0015       $ED__PrintCntroll
 7512:0000       DriverInstalled__Mouse

Program entry point at 50D7:03C9
